###############################################################################
#                                                                             #
# IAR C/C++ Compiler V7.60.1.40026 for 8051             05/Apr/2014  17:47:15 #
# Copyright (C) 2004-2010 IAR Systems AB.                                     #
#                                                                             #
#    Core               =  plain                                              #
#    Code model         =  banked                                             #
#    Data model         =  large                                              #
#    Calling convention =  xdata reentrant                                    #
#    Constant location  =  data_rom                                           #
#    Dptr setup         =  1,16                                               #
#    Source file        =  D:\zigbee\projects\zstack-cc2530-coordinator\Compo #
#                          nents\stack\af\AF.c                                #
#    Command line       =  -f D:\zigbee\projects\zstack-cc2530-coordinator\Pr #
#                          ojects\zstack\Samples\GenericApp\CC2530DB\..\..\.. #
#                          \Tools\CC2530DB\f8wEndev.cfg (-DCPU32MHZ           #
#                          -DROOT=__near_func -DMAC_CFG_TX_DATA_MAX=3         #
#                          -DMAC_CFG_TX_MAX=6 -DMAC_CFG_RX_MAX=3) -f          #
#                          D:\zigbee\projects\zstack-cc2530-coordinator\Proje #
#                          cts\zstack\Samples\GenericApp\CC2530DB\..\..\..\To #
#                          ols\CC2530DB\f8wConfig.cfg (-DZIGBEEPRO            #
#                          -DSECURE=0 -DZG_SECURE_DYNAMIC=0 -DREFLECTOR       #
#                          -DDEFAULT_CHANLIST=0x00000800                      #
#                          -DZDAPP_CONFIG_PAN_ID=0xFFFF                       #
#                          -DNWK_START_DELAY=100 -DEXTENDED_JOINING_RANDOM_MA #
#                          SK=0x007F -DBEACON_REQUEST_DELAY=100               #
#                          -DBEACON_REQ_DELAY_MASK=0x00FF                     #
#                          -DLINK_STATUS_JITTER_MASK=0x007F                   #
#                          -DROUTE_EXPIRY_TIME=30 -DAPSC_ACK_WAIT_DURATION_PO #
#                          LLED=3000 -DNWK_INDIRECT_MSG_TIMEOUT=7             #
#                          -DMAX_RREQ_ENTRIES=8 -DAPSC_MAX_FRAME_RETRIES=3    #
#                          -DNWK_MAX_DATA_RETRIES=2                           #
#                          -DMAX_POLL_FAILURE_RETRIES=2 -DMAX_BCAST=9         #
#                          -DAPS_MAX_GROUPS=16 -DMAX_RTG_ENTRIES=40           #
#                          -DNWK_MAX_BINDING_ENTRIES=4                        #
#                          -DMAX_BINDING_CLUSTER_IDS=4 "-DDEFAULT_KEY={0x01,  #
#                          0x03, 0x05, 0x07, 0x09, 0x0B, 0x0D, 0x0F, 0x00,    #
#                          0x02, 0x04, 0x06, 0x08, 0x0A, 0x0C, 0x0D}"         #
#                          -DMAC_MAX_FRAME_SIZE=116                           #
#                          -DZDNWKMGR_MIN_TRANSMISSIONS=20 "-DCONST=const     #
#                          __code" -DGENERIC=__generic                        #
#                          -DRFD_RCVC_ALWAYS_ON=FALSE -DPOLL_RATE=1000        #
#                          -DQUEUED_POLL_RATE=100 -DRESPONSE_POLL_RATE=100)   #
#                          -DREJOIN_POLL_RATE=440 D:\zigbee\projects\zstack-c #
#                          c2530-coordinator\Components\stack\af\AF.c -D      #
#                          NWK_AUTO_POLL -D ZTOOL_P1 -D MT_TASK -D            #
#                          MT_SYS_FUNC -D MT_ZDO_FUNC -D LCD_SUPPORTED=DEBUG  #
#                          -D xPOWER_SAVING -lC D:\zigbee\projects\zstack-cc2 #
#                          530-coordinator\Projects\zstack\Samples\GenericApp #
#                          \CC2530DB\EndDeviceEB\List\ -lA                    #
#                          D:\zigbee\projects\zstack-cc2530-coordinator\Proje #
#                          cts\zstack\Samples\GenericApp\CC2530DB\EndDeviceEB #
#                          \List\ --diag_suppress Pe001,Pa010 -o              #
#                          D:\zigbee\projects\zstack-cc2530-coordinator\Proje #
#                          cts\zstack\Samples\GenericApp\CC2530DB\EndDeviceEB #
#                          \Obj\ -e --require_prototypes --no_code_motion     #
#                          --debug --core=plain --dptr=16,1                   #
#                          --data_model=large --code_model=banked             #
#                          --calling_convention=xdata_reentrant               #
#                          --place_constants=data_rom --nr_virtual_regs 16    #
#                          -I D:\zigbee\projects\zstack-cc2530-coordinator\Pr #
#                          ojects\zstack\Samples\GenericApp\CC2530DB\ -I      #
#                          D:\zigbee\projects\zstack-cc2530-coordinator\Proje #
#                          cts\zstack\Samples\GenericApp\CC2530DB\..\Source\  #
#                          -I D:\zigbee\projects\zstack-cc2530-coordinator\Pr #
#                          ojects\zstack\Samples\GenericApp\CC2530DB\..\..\.. #
#                          \ZMain\TI2530DB\ -I D:\zigbee\projects\zstack-cc25 #
#                          30-coordinator\Projects\zstack\Samples\GenericApp\ #
#                          CC2530DB\..\..\..\..\..\Components\hal\include\    #
#                          -I D:\zigbee\projects\zstack-cc2530-coordinator\Pr #
#                          ojects\zstack\Samples\GenericApp\CC2530DB\..\..\.. #
#                          \..\..\Components\hal\target\CC2530EB\ -I          #
#                          D:\zigbee\projects\zstack-cc2530-coordinator\Proje #
#                          cts\zstack\Samples\GenericApp\CC2530DB\..\..\..\.. #
#                          \..\Components\mac\include\ -I                     #
#                          D:\zigbee\projects\zstack-cc2530-coordinator\Proje #
#                          cts\zstack\Samples\GenericApp\CC2530DB\..\..\..\.. #
#                          \..\Components\mac\high_level\ -I                  #
#                          D:\zigbee\projects\zstack-cc2530-coordinator\Proje #
#                          cts\zstack\Samples\GenericApp\CC2530DB\..\..\..\.. #
#                          \..\Components\mac\low_level\srf04\ -I             #
#                          D:\zigbee\projects\zstack-cc2530-coordinator\Proje #
#                          cts\zstack\Samples\GenericApp\CC2530DB\..\..\..\.. #
#                          \..\Components\mac\low_level\srf04\single_chip\    #
#                          -I D:\zigbee\projects\zstack-cc2530-coordinator\Pr #
#                          ojects\zstack\Samples\GenericApp\CC2530DB\..\..\.. #
#                          \..\..\Components\mt\ -I                           #
#                          D:\zigbee\projects\zstack-cc2530-coordinator\Proje #
#                          cts\zstack\Samples\GenericApp\CC2530DB\..\..\..\.. #
#                          \..\Components\osal\include\ -I                    #
#                          D:\zigbee\projects\zstack-cc2530-coordinator\Proje #
#                          cts\zstack\Samples\GenericApp\CC2530DB\..\..\..\.. #
#                          \..\Components\osal\mcu\ccsoc\ -I                  #
#                          D:\zigbee\projects\zstack-cc2530-coordinator\Proje #
#                          cts\zstack\Samples\GenericApp\CC2530DB\..\..\..\.. #
#                          \..\Components\services\saddr\ -I                  #
#                          D:\zigbee\projects\zstack-cc2530-coordinator\Proje #
#                          cts\zstack\Samples\GenericApp\CC2530DB\..\..\..\.. #
#                          \..\Components\services\sdata\ -I                  #
#                          D:\zigbee\projects\zstack-cc2530-coordinator\Proje #
#                          cts\zstack\Samples\GenericApp\CC2530DB\..\..\..\.. #
#                          \..\Components\stack\af\ -I                        #
#                          D:\zigbee\projects\zstack-cc2530-coordinator\Proje #
#                          cts\zstack\Samples\GenericApp\CC2530DB\..\..\..\.. #
#                          \..\Components\stack\nwk\ -I                       #
#                          D:\zigbee\projects\zstack-cc2530-coordinator\Proje #
#                          cts\zstack\Samples\GenericApp\CC2530DB\..\..\..\.. #
#                          \..\Components\stack\sapi\ -I                      #
#                          D:\zigbee\projects\zstack-cc2530-coordinator\Proje #
#                          cts\zstack\Samples\GenericApp\CC2530DB\..\..\..\.. #
#                          \..\Components\stack\sec\ -I                       #
#                          D:\zigbee\projects\zstack-cc2530-coordinator\Proje #
#                          cts\zstack\Samples\GenericApp\CC2530DB\..\..\..\.. #
#                          \..\Components\stack\sys\ -I                       #
#                          D:\zigbee\projects\zstack-cc2530-coordinator\Proje #
#                          cts\zstack\Samples\GenericApp\CC2530DB\..\..\..\.. #
#                          \..\Components\stack\zdo\ -I                       #
#                          D:\zigbee\projects\zstack-cc2530-coordinator\Proje #
#                          cts\zstack\Samples\GenericApp\CC2530DB\..\..\..\.. #
#                          \..\Components\zmac\ -I D:\zigbee\projects\zstack- #
#                          cc2530-coordinator\Projects\zstack\Samples\Generic #
#                          App\CC2530DB\..\..\..\..\..\Components\zmac\f8w\   #
#                          -I "C:\Program Files (x86)\IAR Systems\Embedded    #
#                          Workbench 5.4\8051\INC\" -I "C:\Program Files      #
#                          (x86)\IAR Systems\Embedded Workbench               #
#                          5.4\8051\INC\CLIB\" -Ohz                           #
#    List file          =  D:\zigbee\projects\zstack-cc2530-coordinator\Proje #
#                          cts\zstack\Samples\GenericApp\CC2530DB\EndDeviceEB #
#                          \List\AF.lst                                       #
#    Object file        =  D:\zigbee\projects\zstack-cc2530-coordinator\Proje #
#                          cts\zstack\Samples\GenericApp\CC2530DB\EndDeviceEB #
#                          \Obj\AF.r51                                        #
#                                                                             #
#                                                                             #
###############################################################################

D:\zigbee\projects\zstack-cc2530-coordinator\Components\stack\af\AF.c
      1          /**************************************************************************************************
      2            Filename:       AF.c
      3            Revised:        $Date: 2010-10-13 10:54:13 -0700 (Wed, 13 Oct 2010) $
      4            Revision:       $Revision: 24112 $
      5          
      6            Description:    Application Framework - Device Description helper functions
      7          
      8          
      9            Copyright 2004-2010 Texas Instruments Incorporated. All rights reserved.
     10          
     11            IMPORTANT: Your use of this Software is limited to those specific rights
     12            granted under the terms of a software license agreement between the user
     13            who downloaded the software, his/her employer (which must be your employer)
     14            and Texas Instruments Incorporated (the "License").  You may not use this
     15            Software unless you agree to abide by the terms of the License. The License
     16            limits your use, and you acknowledge, that the Software may not be modified,
     17            copied or distributed unless embedded on a Texas Instruments microcontroller
     18            or used solely and exclusively in conjunction with a Texas Instruments radio
     19            frequency transceiver, which is integrated into your product.  Other than for
     20            the foregoing purpose, you may not use, reproduce, copy, prepare derivative
     21            works of, modify, distribute, perform, display or sell this Software and/or
     22            its documentation for any purpose.
     23          
     24            YOU FURTHER ACKNOWLEDGE AND AGREE THAT THE SOFTWARE AND DOCUMENTATION ARE
     25            PROVIDED “AS IS” WITHOUT WARRANTY OF ANY KIND, EITHER EXPRESS OR IMPLIED,
     26            INCLUDING WITHOUT LIMITATION, ANY WARRANTY OF MERCHANTABILITY, TITLE,
     27            NON-INFRINGEMENT AND FITNESS FOR A PARTICULAR PURPOSE. IN NO EVENT SHALL
     28            TEXAS INSTRUMENTS OR ITS LICENSORS BE LIABLE OR OBLIGATED UNDER CONTRACT,
     29            NEGLIGENCE, STRICT LIABILITY, CONTRIBUTION, BREACH OF WARRANTY, OR OTHER
     30            LEGAL EQUITABLE THEORY ANY DIRECT OR INDIRECT DAMAGES OR EXPENSES
     31            INCLUDING BUT NOT LIMITED TO ANY INCIDENTAL, SPECIAL, INDIRECT, PUNITIVE
     32            OR CONSEQUENTIAL DAMAGES, LOST PROFITS OR LOST DATA, COST OF PROCUREMENT
     33            OF SUBSTITUTE GOODS, TECHNOLOGY, SERVICES, OR ANY CLAIMS BY THIRD PARTIES
     34            (INCLUDING BUT NOT LIMITED TO ANY DEFENSE THEREOF), OR OTHER SIMILAR COSTS.
     35          
     36            Should you have any questions regarding your right to use this Software,
     37            contact Texas Instruments Incorporated at www.TI.com.
     38          **************************************************************************************************/
     39          
     40          /*********************************************************************
     41           * INCLUDES
     42           */
     43          
     44          #include "OSAL.h"
     45          #include "AF.h"
     46          #include "nwk_globals.h"
     47          #include "nwk_util.h"
     48          #include "aps_groups.h"
     49          #include "ZDProfile.h"
     50          #include "aps_frag.h"
     51          #include "rtg.h"
     52          
     53          #if defined ( MT_AF_CB_FUNC )
     54            #include "MT_AF.h"
     55          #endif
     56          
     57          #if defined ( INTER_PAN )
     58            #include "stub_aps.h"
     59          #endif
     60          
     61          /*********************************************************************
     62           * MACROS
     63           */
     64          
     65          /*********************************************************************
     66           * @fn      afSend
     67           *
     68           * @brief   Helper macro for V1 API to invoke V2 API.
     69           *
     70           * input parameters
     71           *
     72           * @param  *dstAddr - Full ZB destination address: Nwk Addr + End Point.
     73           * @param   srcEP - Origination (i.e. respond to or ack to) End Point.
     74           * @param   cID - A valid cluster ID as specified by the Profile.
     75           * @param   len - Number of bytes of data pointed to by next param.
     76           * @param  *buf - A pointer to the data bytes to send.
     77           * @param   options - Valid bit mask of AF Tx Options as defined in AF.h.
     78           * @param  *transID - A pointer to a byte which can be modified and which will
     79           *                    be used as the transaction sequence number of the msg.
     80           *
     81           * output parameters
     82           *
     83           * @param  *transID - Incremented by one if the return value is success.
     84           *
     85           * @return  afStatus_t - See previous definition of afStatus_... types.
     86           */
     87          #define afSend( dstAddr, srcEP, cID, len, buf, transID, options, radius ) \
     88                  AF_DataRequest( (dstAddr), afFindEndPointDesc( (srcEP) ), \
     89                                    (cID), (len), (buf), (transID), (options), (radius) )
     90          
     91          /*********************************************************************
     92           * CONSTANTS
     93           */
     94          
     95          /*********************************************************************
     96           * TYPEDEFS
     97           */
     98          
     99          /*********************************************************************
    100           * GLOBAL VARIABLES
    101           */
    102          

   \                                 In  segment XDATA_Z, align 1, keep-with-next
    103          epList_t *epList;
   \                     epList:
   \   000000                DS 2
   \   000002                REQUIRE __INIT_XDATA_Z
    104          
    105          /*********************************************************************
    106           * EXTERNAL VARIABLES
    107           */
    108          
    109          /*********************************************************************
    110           * EXTERNAL FUNCTIONS
    111           */
    112          
    113          /*********************************************************************
    114           * LOCAL VARIABLES
    115           */
    116          
    117          /*********************************************************************
    118           * LOCAL FUNCTIONS
    119           */
    120          
    121          static void afBuildMSGIncoming( aps_FrameFormat_t *aff, endPointDesc_t *epDesc,
    122                          zAddrType_t *SrcAddress, uint16 SrcPanId, NLDE_Signal_t *sig,
    123                          byte SecurityUse, uint32 timestamp );
    124          
    125          static epList_t *afFindEndPointDescList( byte EndPoint );
    126          
    127          static pDescCB afGetDescCB( endPointDesc_t *epDesc );
    128          
    129          /*********************************************************************
    130           * NETWORK LAYER CALLBACKS
    131           */
    132          
    133          /*********************************************************************
    134           * PUBLIC FUNCTIONS
    135           */
    136          
    137          /*********************************************************************
    138           * @fn      afInit
    139           *
    140           * @brief   Initialization function for the AF.
    141           *
    142           * @param   none
    143           *
    144           * @return  none
    145           */

   \                                 In  segment BANKED_CODE, align 1, keep-with-next
    146          void afInit( void )
   \                     afInit:
    147          {
   \   000000   C082         PUSH    DPL
   \   000002   C083         PUSH    DPH
   \   000004                ; Saved register size: 2
   \   000004                ; Auto size: 0
    148            // Start with no endpoint defined
    149            epList = NULL;
   \   000004   90....       MOV     DPTR,#epList
   \   000007   E4           CLR     A
   \   000008   F0           MOVX    @DPTR,A
   \   000009   A3           INC     DPTR
   \   00000A   F0           MOVX    @DPTR,A
    150          }
   \   00000B                REQUIRE ?Subroutine0
   \   00000B                ; // Fall through to label ?Subroutine0

   \                                 In  segment BANKED_CODE, align 1, keep-with-next
   \                     ?Subroutine0:
   \   000000   D083         POP     DPH
   \   000002   D082         POP     DPL
   \   000004   02....       LJMP    ?BRET
    151          
    152          /*********************************************************************
    153           * @fn      afRegisterExtended
    154           *
    155           * @brief   Register an Application's EndPoint description.
    156           *
    157           * @param   epDesc - pointer to the Application's endpoint descriptor.
    158           * @param   descFn - pointer to descriptor callback function
    159           *
    160           * NOTE:  The memory that epDesc is pointing to must exist after this call.
    161           *
    162           * @return  Pointer to epList_t on success, NULL otherwise.
    163           */

   \                                 In  segment BANKED_CODE, align 1, keep-with-next
    164          epList_t *afRegisterExtended( endPointDesc_t *epDesc, pDescCB descFn )
   \                     afRegisterExtended:
    165          {
   \   000000   74F4         MOV     A,#-0xc
   \   000002   12....       LCALL   ?BANKED_ENTER_XDATA
   \   000005                ; Saved register size: 12
   \   000005                ; Auto size: 0
   \   000005   EA           MOV     A,R2
   \   000006   FE           MOV     R6,A
   \   000007   EB           MOV     A,R3
   \   000008   FF           MOV     R7,A
   \   000009   8C..         MOV     ?V0 + 0,R4
   \   00000B   8D..         MOV     ?V0 + 1,R5
    166            epList_t *ep;
    167            epList_t *epSearch;
    168          
    169            ep = osal_mem_alloc( sizeof ( epList_t ) );
   \   00000D                ; Setup parameters for call to function osal_mem_alloc
   \   00000D   7A07         MOV     R2,#0x7
   \   00000F   7B00         MOV     R3,#0x0
   \   000011   12....       LCALL   ??osal_mem_alloc?relay
    170            if ( ep )
   \   000014   EA           MOV     A,R2
   \   000015   7001         JNZ     ??afRegisterExtended_0
   \   000017   EB           MOV     A,R3
   \                     ??afRegisterExtended_0:
   \   000018   604D         JZ      ??afRegisterExtended_1
    171            {
    172              // Fill in the new list entry
    173              ep->epDesc = epDesc;
   \   00001A   8A82         MOV     DPL,R2
   \   00001C   8B83         MOV     DPH,R3
   \   00001E   EE           MOV     A,R6
   \   00001F   F0           MOVX    @DPTR,A
   \   000020   A3           INC     DPTR
   \   000021   EF           MOV     A,R7
   \   000022   F0           MOVX    @DPTR,A
    174          
    175              // Default to allow Match Descriptor.
    176              ep->flags = eEP_AllowMatch;
   \   000023   7401         MOV     A,#0x1
   \   000025   8A82         MOV     DPL,R2
   \   000027   8B83         MOV     DPH,R3
   \   000029   A3           INC     DPTR
   \   00002A   A3           INC     DPTR
   \   00002B   12....       LCALL   ?Subroutine5 & 0xFFFF
    177              ep->pfnDescCB = descFn;
   \                     ??CrossCallReturnLabel_0:
   \   00002E   E5..         MOV     A,?V0 + 0
   \   000030   F0           MOVX    @DPTR,A
   \   000031   A3           INC     DPTR
   \   000032   E5..         MOV     A,?V0 + 1
   \   000034   12....       LCALL   ?Subroutine5 & 0xFFFF
    178              ep->nextDesc = NULL;
   \                     ??CrossCallReturnLabel_1:
   \   000037   A3           INC     DPTR
   \   000038   A3           INC     DPTR
   \   000039   E4           CLR     A
   \   00003A   F0           MOVX    @DPTR,A
   \   00003B   A3           INC     DPTR
   \   00003C   F0           MOVX    @DPTR,A
    179          
    180              // Does a list exist?
    181              if ( epList == NULL )
   \   00003D   90....       MOV     DPTR,#epList
   \   000040   E0           MOVX    A,@DPTR
   \   000041   7002         JNZ     ??afRegisterExtended_2
   \   000043   A3           INC     DPTR
   \   000044   E0           MOVX    A,@DPTR
   \                     ??afRegisterExtended_2:
   \   000045   90....       MOV     DPTR,#epList
   \   000048   6018         JZ      ??afRegisterExtended_3
    182                epList = ep;  // Make this the first entry
    183              else
    184              {
    185                // Look for the end of the list
    186                epSearch = epList;
    187                while( epSearch->nextDesc != NULL )
    188                  epSearch = epSearch->nextDesc;
   \                     ??afRegisterExtended_4:
   \   00004A   12....       LCALL   ?Subroutine18 & 0xFFFF
   \                     ??CrossCallReturnLabel_28:
   \   00004D   A3           INC     DPTR
   \   00004E   A3           INC     DPTR
   \   00004F   A3           INC     DPTR
   \   000050   A3           INC     DPTR
   \   000051   A3           INC     DPTR
   \   000052   E0           MOVX    A,@DPTR
   \   000053   7002         JNZ     ??afRegisterExtended_5
   \   000055   A3           INC     DPTR
   \   000056   E0           MOVX    A,@DPTR
   \                     ??afRegisterExtended_5:
   \   000057   8882         MOV     DPL,R0
   \   000059   8983         MOV     DPH,R1
   \   00005B   A3           INC     DPTR
   \   00005C   A3           INC     DPTR
   \   00005D   A3           INC     DPTR
   \   00005E   A3           INC     DPTR
   \   00005F   A3           INC     DPTR
   \   000060   70E8         JNZ     ??afRegisterExtended_4
    189          
    190                // Add new entry to end of list
    191                epSearch->nextDesc = ep;
   \                     ??afRegisterExtended_3:
   \   000062   EA           MOV     A,R2
   \   000063   F0           MOVX    @DPTR,A
   \   000064   A3           INC     DPTR
   \   000065   EB           MOV     A,R3
   \   000066   F0           MOVX    @DPTR,A
    192              }
    193            }
    194          
    195            return ep;
   \                     ??afRegisterExtended_1:
   \   000067                REQUIRE ?Subroutine1
   \   000067                ; // Fall through to label ?Subroutine1
    196          }

   \                                 In  segment BANKED_CODE, align 1, keep-with-next
   \                     ?Subroutine1:
   \   000000   7F04         MOV     R7,#0x4
   \   000002   02....       LJMP    ?BANKED_LEAVE_XDATA

   \                                 In  segment BANKED_CODE, align 1, keep-with-next
   \                     ?Subroutine5:
   \   000000   F0           MOVX    @DPTR,A
   \   000001   8A82         MOV     DPL,R2
   \   000003   8B83         MOV     DPH,R3
   \   000005   A3           INC     DPTR
   \   000006   A3           INC     DPTR
   \   000007   A3           INC     DPTR
   \   000008   22           RET

   \                                 In  segment BANKED_CODE, align 1, keep-with-next
   \                     ?Subroutine18:
   \   000000   E0           MOVX    A,@DPTR
   \   000001   F8           MOV     R0,A
   \   000002   A3           INC     DPTR
   \   000003   E0           MOVX    A,@DPTR
   \   000004   F9           MOV     R1,A
   \   000005   8882         MOV     DPL,R0
   \   000007   8983         MOV     DPH,R1
   \   000009   22           RET
    197          
    198          /*********************************************************************
    199           * @fn      afRegister
    200           *
    201           * @brief   Register an Application's EndPoint description.
    202           *
    203           * @param   epDesc - pointer to the Application's endpoint descriptor.
    204           *
    205           * NOTE:  The memory that epDesc is pointing to must exist after this call.
    206           *
    207           * @return  afStatus_SUCCESS - Registered
    208           *          afStatus_MEM_FAIL - not enough memory to add descriptor
    209           *          afStatus_INVALID_PARAMETER - duplicate endpoint
    210           */

   \                                 In  segment BANKED_CODE, align 1, keep-with-next
    211          afStatus_t afRegister( endPointDesc_t *epDesc )
   \                     afRegister:
    212          {
   \   000000   74F6         MOV     A,#-0xa
   \   000002   12....       LCALL   ?BANKED_ENTER_XDATA
   \   000005                ; Saved register size: 10
   \   000005                ; Auto size: 0
   \   000005   EA           MOV     A,R2
   \   000006   FE           MOV     R6,A
   \   000007   EB           MOV     A,R3
   \   000008   FF           MOV     R7,A
    213            epList_t *ep;
    214            
    215            // Look for duplicate endpoint
    216            if ( afFindEndPointDescList( epDesc->endPoint ) )
   \   000009                ; Setup parameters for call to function afFindEndPointDescList
   \   000009   8E82         MOV     DPL,R6
   \   00000B   8F83         MOV     DPH,R7
   \   00000D   E0           MOVX    A,@DPTR
   \   00000E   F9           MOV     R1,A
   \   00000F   12....       LCALL   ??afFindEndPointDescList?relay
   \   000012   EA           MOV     A,R2
   \   000013   7001         JNZ     ??afRegister_0
   \   000015   EB           MOV     A,R3
   \                     ??afRegister_0:
   \   000016   6004         JZ      ??afRegister_1
    217              return ( afStatus_INVALID_PARAMETER );
   \   000018   7902         MOV     R1,#0x2
   \   00001A   8017         SJMP    ??afRegister_2
    218            
    219            ep = afRegisterExtended( epDesc, NULL );
    220          
    221            return ((ep == NULL) ? afStatus_MEM_FAIL : afStatus_SUCCESS);
   \                     ??afRegister_1:
   \   00001C                ; Setup parameters for call to function afRegisterExtended
   \   00001C   7C00         MOV     R4,#0x0
   \   00001E   7D00         MOV     R5,#0x0
   \   000020   EE           MOV     A,R6
   \   000021   FA           MOV     R2,A
   \   000022   EF           MOV     A,R7
   \   000023   FB           MOV     R3,A
   \   000024   12....       LCALL   ??afRegisterExtended?relay
   \   000027   EA           MOV     A,R2
   \   000028   7001         JNZ     ??afRegister_3
   \   00002A   EB           MOV     A,R3
   \                     ??afRegister_3:
   \   00002B   7004         JNZ     ??afRegister_4
   \   00002D   7910         MOV     R1,#0x10
   \   00002F   8002         SJMP    ??afRegister_2
   \                     ??afRegister_4:
   \   000031   7900         MOV     R1,#0x0
   \                     ??afRegister_2:
   \   000033   02....       LJMP    ?Subroutine2 & 0xFFFF
    222          }

   \                                 In  segment BANKED_CODE, align 1, keep-with-next
   \                     ?Subroutine2:
   \   000000   7F02         MOV     R7,#0x2
   \   000002   02....       LJMP    ?BANKED_LEAVE_XDATA
    223          
    224          
    225          /*********************************************************************
    226           * @fn          afDataConfirm
    227           *
    228           * @brief       This function will generate the Data Confirm back to
    229           *              the application.
    230           *
    231           * @param       endPoint - confirm end point
    232           * @param       transID - transaction ID from APSDE_DATA_REQUEST
    233           * @param       status - status of APSDE_DATA_REQUEST
    234           *
    235           * @return      none
    236           */

   \                                 In  segment BANKED_CODE, align 1, keep-with-next
    237          void afDataConfirm( uint8 endPoint, uint8 transID, ZStatus_t status )
   \                     afDataConfirm:
    238          {
   \   000000   74F2         MOV     A,#-0xe
   \   000002   12....       LCALL   ?BANKED_ENTER_XDATA
   \   000005                ; Saved register size: 14
   \   000005                ; Auto size: 0
   \   000005   89..         MOV     ?V0 + 0,R1
   \   000007   8A..         MOV     ?V0 + 1,R2
   \   000009   8B..         MOV     ?V0 + 2,R3
    239            endPointDesc_t *epDesc;
    240            afDataConfirm_t *msgPtr;
    241          
    242            // Find the endpoint description
    243            epDesc = afFindEndPointDesc( endPoint );
   \   00000B                ; Setup parameters for call to function afFindEndPointDesc
   \   00000B   12....       LCALL   ??afFindEndPointDesc?relay
   \   00000E   8A..         MOV     ?V0 + 4,R2
   \   000010   8B..         MOV     ?V0 + 5,R3
   \   000012   AE..         MOV     R6,?V0 + 4
   \   000014   AF..         MOV     R7,?V0 + 5
    244            if ( epDesc == NULL )
   \   000016   EE           MOV     A,R6
   \   000017   7001         JNZ     ??afDataConfirm_0
   \   000019   EF           MOV     A,R7
   \                     ??afDataConfirm_0:
   \   00001A   602D         JZ      ??CrossCallReturnLabel_18
    245              return;
    246          
    247            // Determine the incoming command type
    248            msgPtr = (afDataConfirm_t *)osal_msg_allocate( sizeof(afDataConfirm_t) );
   \   00001C                ; Setup parameters for call to function osal_msg_allocate
   \   00001C   7A04         MOV     R2,#0x4
   \   00001E   7B00         MOV     R3,#0x0
   \   000020   12....       LCALL   ??osal_msg_allocate?relay
    249            if ( msgPtr )
   \   000023   EA           MOV     A,R2
   \   000024   7001         JNZ     ??afDataConfirm_1
   \   000026   EB           MOV     A,R3
   \                     ??afDataConfirm_1:
   \   000027   6020         JZ      ??CrossCallReturnLabel_18
    250            {
    251              // Build the Data Confirm message
    252              msgPtr->hdr.event = AF_DATA_CONFIRM_CMD;
   \   000029   74FD         MOV     A,#-0x3
   \   00002B   8A82         MOV     DPL,R2
   \   00002D   8B83         MOV     DPH,R3
   \   00002F   F0           MOVX    @DPTR,A
    253              msgPtr->hdr.status = status;
   \   000030   A3           INC     DPTR
   \   000031   E5..         MOV     A,?V0 + 2
   \   000033   F0           MOVX    @DPTR,A
    254              msgPtr->endpoint = endPoint;
   \   000034   8A82         MOV     DPL,R2
   \   000036   8B83         MOV     DPH,R3
   \   000038   A3           INC     DPTR
   \   000039   A3           INC     DPTR
   \   00003A   E5..         MOV     A,?V0 + 0
   \   00003C   12....       LCALL   ?Subroutine5 & 0xFFFF
    255              msgPtr->transID = transID;
   \                     ??CrossCallReturnLabel_2:
   \   00003F   E5..         MOV     A,?V0 + 1
   \   000041   F0           MOVX    @DPTR,A
    256          
    257          #if defined ( MT_AF_CB_FUNC )
    258              /* If MT has subscribed for this callback, don't send as a message. */
    259              if ( AFCB_CHECK(CB_ID_AF_DATA_CNF,*(epDesc->task_id)) )
    260              {
    261                /* Send callback if it's subscribed */
    262                MT_AfDataConfirm ((void *)msgPtr);
    263                /* Release the memory. */
    264                osal_msg_deallocate( (void *)msgPtr );
    265              }
    266              else
    267          #endif
    268              {
    269                /* send message through task message */
    270                osal_msg_send( *(epDesc->task_id), (byte *)msgPtr );
   \   000042                ; Setup parameters for call to function osal_msg_send
   \   000042   8E82         MOV     DPL,R6
   \   000044   8F83         MOV     DPH,R7
   \   000046   12....       LCALL   ?Subroutine12 & 0xFFFF
    271              }
    272            }
   \                     ??CrossCallReturnLabel_18:
   \   000049   7F06         MOV     R7,#0x6
   \   00004B   02....       LJMP    ?BANKED_LEAVE_XDATA
    273          }

   \                                 In  segment BANKED_CODE, align 1, keep-with-next
   \                     ?Subroutine12:
   \   000000   A3           INC     DPTR
   \   000001   12....       LCALL   ?Subroutine26 & 0xFFFF
   \                     ??CrossCallReturnLabel_85:
   \   000004   E0           MOVX    A,@DPTR
   \   000005   F9           MOV     R1,A
   \   000006   12....       LCALL   ??osal_msg_send?relay
   \   000009   22           RET

   \                                 In  segment BANKED_CODE, align 1, keep-with-next
   \                     ?Subroutine26:
   \   000000   E0           MOVX    A,@DPTR
   \   000001   F8           MOV     R0,A
   \   000002   A3           INC     DPTR
   \   000003   E0           MOVX    A,@DPTR
   \   000004   F583         MOV     DPH,A
   \   000006   8882         MOV     DPL,R0
   \   000008   22           RET
    274          
    275          /*********************************************************************
    276           * @fn          afIncomingData
    277           *
    278           * @brief       Transfer a data PDU (ASDU) from the APS sub-layer to the AF.
    279           *
    280           * @param       aff  - pointer to APS frame format
    281           * @param       SrcAddress  - Source address
    282           * @param       sig - incoming message's link quality
    283           * @param       SecurityUse - Security enable/disable
    284           *
    285           * @return      none
    286           */

   \                                 In  segment BANKED_CODE, align 1, keep-with-next
    287          void afIncomingData( aps_FrameFormat_t *aff, zAddrType_t *SrcAddress, uint16 SrcPanId,
   \                     afIncomingData:
    288                               NLDE_Signal_t *sig, byte SecurityUse, uint32 timestamp )
    289          {
   \   000000   74E8         MOV     A,#-0x18
   \   000002   12....       LCALL   ?BANKED_ENTER_XDATA
   \   000005                ; Saved register size: 24
   \   000005                ; Auto size: 3
   \   000005   74FD         MOV     A,#-0x3
   \   000007   12....       LCALL   ?ALLOC_XSTACK8
   \   00000A   7401         MOV     A,#0x1
   \   00000C   12....       LCALL   ?XSTACK_DISP0_8
   \   00000F   EC           MOV     A,R4
   \   000010   F0           MOVX    @DPTR,A
   \   000011   A3           INC     DPTR
   \   000012   ED           MOV     A,R5
   \   000013   F0           MOVX    @DPTR,A
   \   000014   E9           MOV     A,R1
   \   000015   85..82       MOV     DPL,?XSP + 0
   \   000018   85..83       MOV     DPH,?XSP + 1
   \   00001B   F0           MOVX    @DPTR,A
   \   00001C   8A..         MOV     ?V0 + 8,R2
   \   00001E   8B..         MOV     ?V0 + 9,R3
   \   000020   741B         MOV     A,#0x1b
   \   000022   12....       LCALL   ?XSTACK_DISP0_8
   \   000025   E0           MOVX    A,@DPTR
   \   000026   F5..         MOV     ?V0 + 10,A
   \   000028   A3           INC     DPTR
   \   000029   E0           MOVX    A,@DPTR
   \   00002A   F5..         MOV     ?V0 + 11,A
   \   00002C   741F         MOV     A,#0x1f
   \   00002E   12....       LCALL   ?XSTACK_DISP0_8
   \   000031   78..         MOV     R0,#?V0 + 4
   \   000033   12....       LCALL   ?L_MOV_X
    290            endPointDesc_t *epDesc = NULL;
    291            epList_t *pList = epList;
   \   000036   90....       MOV     DPTR,#epList
   \   000039   E0           MOVX    A,@DPTR
   \   00003A   F5..         MOV     ?V0 + 0,A
   \   00003C   A3           INC     DPTR
   \   00003D   E0           MOVX    A,@DPTR
   \   00003E   F5..         MOV     ?V0 + 1,A
    292          #if !defined ( APS_NO_GROUPS )    
    293            uint8 grpEp = APS_GROUPS_EP_NOT_FOUND;
   \   000040   75..FE       MOV     ?V0 + 2,#-0x2
    294          #endif  
    295          
    296            if ( ((aff->FrmCtrl & APS_DELIVERYMODE_MASK) == APS_FC_DM_GROUP) )
   \   000043   8A82         MOV     DPL,R2
   \   000045   8B83         MOV     DPH,R3
   \   000047   E0           MOVX    A,@DPTR
   \   000048   540C         ANL     A,#0xc
   \   00004A   640C         XRL     A,#0xc
   \   00004C   701A         JNZ     ??afIncomingData_0
    297            {
    298          #if !defined ( APS_NO_GROUPS )    
    299              // Find the first endpoint for this group
    300              grpEp = aps_FindGroupForEndpoint( aff->GroupID, APS_GROUPS_FIND_FIRST );
   \   00004E                ; Setup parameters for call to function aps_FindGroupForEndpoint
   \   00004E   79FE         MOV     R1,#-0x2
   \   000050   12....       LCALL   ?Subroutine10 & 0xFFFF
    301              if ( grpEp == APS_GROUPS_EP_NOT_FOUND )
   \                     ??CrossCallReturnLabel_16:
   \   000053   7003         JNZ     $+5
   \   000055   02....       LJMP    ??afIncomingData_1 & 0xFFFF
    302                return;   // No endpoint found
    303          
    304              epDesc = afFindEndPointDesc( grpEp );
   \   000058                ; Setup parameters for call to function afFindEndPointDesc
   \   000058   12....       LCALL   ?Subroutine24 & 0xFFFF
    305              if ( epDesc == NULL )
   \                     ??CrossCallReturnLabel_46:
   \   00005B   7001         JNZ     ??afIncomingData_2
   \   00005D   EF           MOV     A,R7
   \                     ??afIncomingData_2:
   \   00005E   7003         JNZ     $+5
   \   000060   02....       LJMP    ??afIncomingData_1 & 0xFFFF
    306                return;   // Endpoint descriptor not found
    307          
    308              pList = afFindEndPointDescList( epDesc->endPoint );
   \                     ??afIncomingData_3:
   \   000063                ; Setup parameters for call to function afFindEndPointDescList
   \   000063   12....       LCALL   ?Subroutine20 & 0xFFFF
    309          #else
    310              return; // Not supported
    311          #endif    
    312            }
   \                     ??CrossCallReturnLabel_37:
   \   000066   803E         SJMP    ??afIncomingData_4
    313            else if ( aff->DstEndPoint == AF_BROADCAST_ENDPOINT )
   \                     ??afIncomingData_0:
   \   000068   A3           INC     DPTR
   \   000069   A3           INC     DPTR
   \   00006A   E0           MOVX    A,@DPTR
   \   00006B   64FF         XRL     A,#0xff
   \   00006D   700D         JNZ     ??afIncomingData_5
    314            {
    315              // Set the list
    316              if ( pList != NULL )
   \   00006F   E5..         MOV     A,?V0 + 0
   \   000071   7002         JNZ     ??afIncomingData_6
   \   000073   E5..         MOV     A,?V0 + 1
   \                     ??afIncomingData_6:
   \   000075   7003         JNZ     $+5
   \   000077   02....       LJMP    ??afIncomingData_1 & 0xFFFF
    317              {
    318                epDesc = pList->epDesc;
   \   00007A   801F         SJMP    ??afIncomingData_7
    319              }
    320            }
    321            else if ( (epDesc = afFindEndPointDesc( aff->DstEndPoint )) )
   \                     ??afIncomingData_5:
   \   00007C                ; Setup parameters for call to function afFindEndPointDesc
   \   00007C   8A82         MOV     DPL,R2
   \   00007E   8B83         MOV     DPH,R3
   \   000080   A3           INC     DPTR
   \   000081   A3           INC     DPTR
   \   000082   E0           MOVX    A,@DPTR
   \   000083   F9           MOV     R1,A
   \   000084   12....       LCALL   ??afFindEndPointDesc?relay
   \   000087   8A..         MOV     ?V0 + 12,R2
   \   000089   8B..         MOV     ?V0 + 13,R3
   \   00008B   A8..         MOV     R0,?V0 + 12
   \   00008D   A9..         MOV     R1,?V0 + 13
   \   00008F   E8           MOV     A,R0
   \   000090   FE           MOV     R6,A
   \   000091   E9           MOV     A,R1
   \   000092   FF           MOV     R7,A
   \   000093   E8           MOV     A,R0
   \   000094   7001         JNZ     ??afIncomingData_8
   \   000096   E9           MOV     A,R1
   \                     ??afIncomingData_8:
   \   000097   600D         JZ      ??afIncomingData_4
   \   000099   80C8         SJMP    ??afIncomingData_3
    322            {
    323              pList = afFindEndPointDescList( epDesc->endPoint );
    324            }
    325          
    326            while ( epDesc )
    327            {
    328              uint16 epProfileID = 0xFFFF;  // Invalid Profile ID
    329              
    330              if ( pList->pfnDescCB )
    331              {
    332                uint16 *pID = (uint16 *)(pList->pfnDescCB(
    333                                           AF_DESCRIPTOR_PROFILE_ID, epDesc->endPoint ));
    334                if ( pID )
    335                {
    336                  epProfileID = *pID;
    337                  osal_mem_free( pID );
    338                }
    339              }
    340              else if ( epDesc->simpleDesc )
    341              {
    342                epProfileID = epDesc->simpleDesc->AppProfId;
    343              }
    344          
    345              if ( (aff->ProfileID == epProfileID) ||
    346                   ((epDesc->endPoint == ZDO_EP) && (aff->ProfileID == ZDO_PROFILE_ID)) )
    347              {
    348                {
    349                  // Save original endpoint
    350                  uint8 endpoint = aff->DstEndPoint;
    351                  
    352                  // overwrite with descriptor's endpoint
    353                  aff->DstEndPoint = epDesc->endPoint;   
    354                  
    355                  afBuildMSGIncoming( aff, epDesc, SrcAddress, SrcPanId, sig, SecurityUse, timestamp );
    356                  
    357                  // Restore with original endpoint
    358                  aff->DstEndPoint = endpoint;
    359                }
    360              }
    361          
    362              if ( ((aff->FrmCtrl & APS_DELIVERYMODE_MASK) == APS_FC_DM_GROUP) )
    363              {
    364          #if !defined ( APS_NO_GROUPS )      
    365                // Find the next endpoint for this group
    366                grpEp = aps_FindGroupForEndpoint( aff->GroupID, grpEp );
    367                if ( grpEp == APS_GROUPS_EP_NOT_FOUND )
    368                  return;   // No endpoint found
    369          
    370                epDesc = afFindEndPointDesc( grpEp );
    371                if ( epDesc == NULL )
    372                  return;   // Endpoint descriptor not found
    373          
    374                pList = afFindEndPointDescList( epDesc->endPoint );
    375          #else
    376                return;
    377          #endif      
    378              }
    379              else if ( aff->DstEndPoint == AF_BROADCAST_ENDPOINT )
    380              {
    381                pList = pList->nextDesc;
    382                if ( pList )
    383                  epDesc = pList->epDesc;
   \                     ??afIncomingData_7:
   \   00009B   85..82       MOV     DPL,?V0 + 0
   \   00009E   85..83       MOV     DPH,?V0 + 1
   \   0000A1   E0           MOVX    A,@DPTR
   \   0000A2   FE           MOV     R6,A
   \   0000A3   A3           INC     DPTR
   \   0000A4   E0           MOVX    A,@DPTR
   \   0000A5   FF           MOV     R7,A
   \                     ??afIncomingData_4:
   \   0000A6   EE           MOV     A,R6
   \   0000A7   7001         JNZ     ??afIncomingData_9
   \   0000A9   EF           MOV     A,R7
   \                     ??afIncomingData_9:
   \   0000AA   7003         JNZ     $+5
   \   0000AC   02....       LJMP    ??afIncomingData_1 & 0xFFFF
   \   0000AF   8018         SJMP    ??CrossCallReturnLabel_38
   \                     ??afIncomingData_10:
   \   0000B1                ; Setup parameters for call to function aps_FindGroupForEndpoint
   \   0000B1   A9..         MOV     R1,?V0 + 2
   \   0000B3   12....       LCALL   ?Subroutine10 & 0xFFFF
   \                     ??CrossCallReturnLabel_17:
   \   0000B6   7003         JNZ     $+5
   \   0000B8   02....       LJMP    ??afIncomingData_1 & 0xFFFF
   \   0000BB                ; Setup parameters for call to function afFindEndPointDesc
   \   0000BB   12....       LCALL   ?Subroutine24 & 0xFFFF
   \                     ??CrossCallReturnLabel_47:
   \   0000BE   7001         JNZ     ??afIncomingData_11
   \   0000C0   EF           MOV     A,R7
   \                     ??afIncomingData_11:
   \   0000C1   7003         JNZ     $+5
   \   0000C3   02....       LJMP    ??afIncomingData_1 & 0xFFFF
   \   0000C6                ; Setup parameters for call to function afFindEndPointDescList
   \   0000C6   12....       LCALL   ?Subroutine20 & 0xFFFF
   \                     ??CrossCallReturnLabel_38:
   \   0000C9   75..FF       MOV     ?V0 + 14,#-0x1
   \   0000CC   75..FF       MOV     ?V0 + 15,#-0x1
   \   0000CF   85..82       MOV     DPL,?V0 + 0
   \   0000D2   85..83       MOV     DPH,?V0 + 1
   \   0000D5   A3           INC     DPTR
   \   0000D6   A3           INC     DPTR
   \   0000D7   A3           INC     DPTR
   \   0000D8   E0           MOVX    A,@DPTR
   \   0000D9   7002         JNZ     ??afIncomingData_12
   \   0000DB   A3           INC     DPTR
   \   0000DC   E0           MOVX    A,@DPTR
   \                     ??afIncomingData_12:
   \   0000DD   8E82         MOV     DPL,R6
   \   0000DF   8F83         MOV     DPH,R7
   \   0000E1   6022         JZ      ??afIncomingData_13
   \   0000E3                ; Setup parameters for indirect call
   \   0000E3   E0           MOVX    A,@DPTR
   \   0000E4   FA           MOV     R2,A
   \   0000E5   7902         MOV     R1,#0x2
   \   0000E7   85..82       MOV     DPL,?V0 + 0
   \   0000EA   85..83       MOV     DPH,?V0 + 1
   \   0000ED   12....       LCALL   ?Subroutine16 & 0xFFFF
   \                     ??CrossCallReturnLabel_83:
   \   0000F0   12....       LCALL   ?CALL_IND
   \   0000F3   EA           MOV     A,R2
   \   0000F4   7001         JNZ     ??afIncomingData_14
   \   0000F6   EB           MOV     A,R3
   \                     ??afIncomingData_14:
   \   0000F7   6020         JZ      ??CrossCallReturnLabel_23
   \   0000F9   8A82         MOV     DPL,R2
   \   0000FB   8B83         MOV     DPH,R3
   \   0000FD   12....       LCALL   ?Subroutine14 & 0xFFFF
   \                     ??CrossCallReturnLabel_22:
   \   000100                ; Setup parameters for call to function osal_mem_free
   \   000100   12....       LCALL   ??osal_mem_free?relay
   \   000103   8014         SJMP    ??CrossCallReturnLabel_23
   \                     ??afIncomingData_13:
   \   000105   A3           INC     DPTR
   \   000106   A3           INC     DPTR
   \   000107   A3           INC     DPTR
   \   000108   E0           MOVX    A,@DPTR
   \   000109   7002         JNZ     ??afIncomingData_15
   \   00010B   A3           INC     DPTR
   \   00010C   E0           MOVX    A,@DPTR
   \                     ??afIncomingData_15:
   \   00010D   600A         JZ      ??CrossCallReturnLabel_23
   \   00010F   8E82         MOV     DPL,R6
   \   000111   8F83         MOV     DPH,R7
   \   000113   12....       LCALL   ?Subroutine15 & 0xFFFF
   \                     ??CrossCallReturnLabel_51:
   \   000116   12....       LCALL   ?Subroutine14 & 0xFFFF
   \                     ??CrossCallReturnLabel_23:
   \   000119   85..82       MOV     DPL,?V0 + 8
   \   00011C   85..83       MOV     DPH,?V0 + 9
   \   00011F   A3           INC     DPTR
   \   000120   A3           INC     DPTR
   \   000121   A3           INC     DPTR
   \   000122   A3           INC     DPTR
   \   000123   A3           INC     DPTR
   \   000124   A3           INC     DPTR
   \   000125   A3           INC     DPTR
   \   000126   A3           INC     DPTR
   \   000127   E0           MOVX    A,@DPTR
   \   000128   65..         XRL     A,?V0 + 14
   \   00012A   7004         JNZ     ??afIncomingData_16
   \   00012C   A3           INC     DPTR
   \   00012D   E0           MOVX    A,@DPTR
   \   00012E   65..         XRL     A,?V0 + 15
   \                     ??afIncomingData_16:
   \   000130   601C         JZ      ??afIncomingData_17
   \   000132   8E82         MOV     DPL,R6
   \   000134   8F83         MOV     DPH,R7
   \   000136   E0           MOVX    A,@DPTR
   \   000137   706F         JNZ     ??afIncomingData_18
   \   000139   85..82       MOV     DPL,?V0 + 8
   \   00013C   85..83       MOV     DPH,?V0 + 9
   \   00013F   A3           INC     DPTR
   \   000140   A3           INC     DPTR
   \   000141   A3           INC     DPTR
   \   000142   A3           INC     DPTR
   \   000143   A3           INC     DPTR
   \   000144   A3           INC     DPTR
   \   000145   A3           INC     DPTR
   \   000146   A3           INC     DPTR
   \   000147   E0           MOVX    A,@DPTR
   \   000148   7002         JNZ     ??afIncomingData_19
   \   00014A   A3           INC     DPTR
   \   00014B   E0           MOVX    A,@DPTR
   \                     ??afIncomingData_19:
   \   00014C   705A         JNZ     ??afIncomingData_18
   \                     ??afIncomingData_17:
   \   00014E   E5..         MOV     A,?V0 + 8
   \   000150   2402         ADD     A,#0x2
   \   000152   F5..         MOV     ?V0 + 12,A
   \   000154   E5..         MOV     A,?V0 + 9
   \   000156   3400         ADDC    A,#0x0
   \   000158   F5..         MOV     ?V0 + 13,A
   \   00015A   85..82       MOV     DPL,?V0 + 12
   \   00015D   F583         MOV     DPH,A
   \   00015F   E0           MOVX    A,@DPTR
   \   000160   F5..         MOV     ?V0 + 3,A
   \   000162   8E82         MOV     DPL,R6
   \   000164   8F83         MOV     DPH,R7
   \   000166   E0           MOVX    A,@DPTR
   \   000167   85..82       MOV     DPL,?V0 + 12
   \   00016A   85..83       MOV     DPH,?V0 + 13
   \   00016D   F0           MOVX    @DPTR,A
   \   00016E                ; Setup parameters for call to function afBuildMSGIncoming
   \   00016E   78..         MOV     R0,#?V0 + 4
   \   000170   12....       LCALL   ?PUSH_XSTACK_I_FOUR
   \   000173   7421         MOV     A,#0x21
   \   000175   12....       LCALL   ?XSTACK_DISP0_8
   \   000178   12....       LCALL   ?PUSH_XSTACK8_X_TWO
   \   00017B   78..         MOV     R0,#?V0 + 10
   \   00017D   12....       LCALL   ?PUSH_XSTACK_I_TWO
   \   000180   7409         MOV     A,#0x9
   \   000182   12....       LCALL   ?XSTACK_DISP0_8
   \   000185   12....       LCALL   ?PUSH_XSTACK8_X_TWO
   \   000188   740A         MOV     A,#0xa
   \   00018A   12....       LCALL   ?XSTACK_DISP0_8
   \   00018D   E0           MOVX    A,@DPTR
   \   00018E   F9           MOV     R1,A
   \   00018F   EE           MOV     A,R6
   \   000190   FC           MOV     R4,A
   \   000191   EF           MOV     A,R7
   \   000192   FD           MOV     R5,A
   \   000193   AA..         MOV     R2,?V0 + 8
   \   000195   AB..         MOV     R3,?V0 + 9
   \   000197   12....       LCALL   ??afBuildMSGIncoming?relay
   \   00019A   740A         MOV     A,#0xa
   \   00019C   12....       LCALL   ?DEALLOC_XSTACK8
   \   00019F   85..82       MOV     DPL,?V0 + 12
   \   0001A2   85..83       MOV     DPH,?V0 + 13
   \   0001A5   E5..         MOV     A,?V0 + 3
   \   0001A7   F0           MOVX    @DPTR,A
   \                     ??afIncomingData_18:
   \   0001A8   85..82       MOV     DPL,?V0 + 8
   \   0001AB   85..83       MOV     DPH,?V0 + 9
   \   0001AE   E0           MOVX    A,@DPTR
   \   0001AF   540C         ANL     A,#0xc
   \   0001B1   640C         XRL     A,#0xc
   \   0001B3   7003         JNZ     $+5
   \   0001B5   02....       LJMP    ??afIncomingData_10 & 0xFFFF
   \   0001B8   A3           INC     DPTR
   \   0001B9   A3           INC     DPTR
   \   0001BA   E0           MOVX    A,@DPTR
   \   0001BB   64FF         XRL     A,#0xff
   \   0001BD   701D         JNZ     ??afIncomingData_1
   \   0001BF   85..82       MOV     DPL,?V0 + 0
   \   0001C2   85..83       MOV     DPH,?V0 + 1
   \   0001C5   A3           INC     DPTR
   \   0001C6   A3           INC     DPTR
   \   0001C7   A3           INC     DPTR
   \   0001C8   A3           INC     DPTR
   \   0001C9   A3           INC     DPTR
   \   0001CA   E0           MOVX    A,@DPTR
   \   0001CB   F5..         MOV     ?V0 + 0,A
   \   0001CD   A3           INC     DPTR
   \   0001CE   E0           MOVX    A,@DPTR
   \   0001CF   F5..         MOV     ?V0 + 1,A
   \   0001D1   E5..         MOV     A,?V0 + 0
   \   0001D3   7002         JNZ     ??afIncomingData_20
   \   0001D5   E5..         MOV     A,?V0 + 1
   \                     ??afIncomingData_20:
   \   0001D7   6003         JZ      $+5
   \   0001D9   02....       LJMP    ??afIncomingData_7 & 0xFFFF
    384                else
    385                  epDesc = NULL;
   \                     ??afIncomingData_1:
   \   0001DC   7403         MOV     A,#0x3
   \   0001DE                REQUIRE ?Subroutine3
   \   0001DE                ; // Fall through to label ?Subroutine3
    386              }
    387              else
    388                epDesc = NULL;
    389            }
    390          }

   \                                 In  segment BANKED_CODE, align 1, keep-with-next
   \                     ?Subroutine3:
   \   000000   12....       LCALL   ?DEALLOC_XSTACK8
   \   000003   7F10         MOV     R7,#0x10
   \   000005   02....       LJMP    ?BANKED_LEAVE_XDATA

   \                                 In  segment BANKED_CODE, align 1, keep-with-next
   \                     ?Subroutine24:
   \   000000   12....       LCALL   ??afFindEndPointDesc?relay
   \   000003   8A..         MOV     ?V0 + 0,R2
   \   000005   8B..         MOV     ?V0 + 1,R3
   \   000007   AE..         MOV     R6,?V0 + 0
   \   000009   AF..         MOV     R7,?V0 + 1
   \   00000B   EE           MOV     A,R6
   \   00000C   22           RET

   \                                 In  segment BANKED_CODE, align 1, keep-with-next
   \                     ?Subroutine20:
   \   000000   8E82         MOV     DPL,R6
   \   000002   8F83         MOV     DPH,R7
   \   000004   E0           MOVX    A,@DPTR
   \   000005   F9           MOV     R1,A
   \   000006   12....       LCALL   ??afFindEndPointDescList?relay
   \   000009   8A..         MOV     ?V0 + 0,R2
   \   00000B   8B..         MOV     ?V0 + 1,R3
   \   00000D   22           RET

   \                                 In  segment BANKED_CODE, align 1, keep-with-next
   \                     ?Subroutine15:
   \   000000   A3           INC     DPTR
   \   000001   A3           INC     DPTR
   \   000002   A3           INC     DPTR
   \   000003                REQUIRE ??Subroutine27_0
   \   000003                ; // Fall through to label ??Subroutine27_0

   \                                 In  segment BANKED_CODE, align 1, keep-with-next
   \                     ??Subroutine27_0:
   \   000000   12....       LCALL   ?Subroutine26 & 0xFFFF
   \                     ??CrossCallReturnLabel_86:
   \   000003   A3           INC     DPTR
   \   000004   22           RET

   \                                 In  segment BANKED_CODE, align 1, keep-with-next
   \                     ?Subroutine10:
   \   000000   A3           INC     DPTR
   \   000001   A3           INC     DPTR
   \   000002   A3           INC     DPTR
   \   000003   A3           INC     DPTR
   \   000004   E0           MOVX    A,@DPTR
   \   000005   FA           MOV     R2,A
   \   000006   A3           INC     DPTR
   \   000007   E0           MOVX    A,@DPTR
   \   000008   FB           MOV     R3,A
   \   000009   12....       LCALL   ??aps_FindGroupForEndpoint?relay
   \   00000C   E9           MOV     A,R1
   \   00000D   F5..         MOV     ?V0 + 2,A
   \   00000F   74FE         MOV     A,#-0x2
   \   000011   65..         XRL     A,?V0 + 2
   \   000013   22           RET

   \                                 In  segment BANKED_CODE, align 1, keep-with-next
   \                     ?Subroutine14:
   \   000000   E0           MOVX    A,@DPTR
   \   000001   F5..         MOV     ?V0 + 14,A
   \   000003   A3           INC     DPTR
   \   000004   E0           MOVX    A,@DPTR
   \   000005   F5..         MOV     ?V0 + 15,A
   \   000007   22           RET

   \                                 In  segment BANKED_CODE, align 1, keep-with-next
   \                     ?Subroutine16:
   \   000000   A3           INC     DPTR
   \   000001   A3           INC     DPTR
   \   000002   A3           INC     DPTR
   \   000003                REQUIRE ??Subroutine31_0
   \   000003                ; // Fall through to label ??Subroutine31_0

   \                                 In  segment BANKED_CODE, align 1, keep-with-next
   \                     ??Subroutine31_0:
   \   000000   12....       LCALL   ?Subroutine26 & 0xFFFF
   \                     ??CrossCallReturnLabel_87:
   \   000003   22           RET
    391          
    392          /*********************************************************************
    393           * @fn          afBuildMSGIncoming
    394           *
    395           * @brief       Build the message for the app
    396           *
    397           * @param
    398           *
    399           * @return      pointer to next in data buffer
    400           */

   \                                 In  segment BANKED_CODE, align 1, keep-with-next
    401          static void afBuildMSGIncoming( aps_FrameFormat_t *aff, endPointDesc_t *epDesc,
   \                     afBuildMSGIncoming:
    402                           zAddrType_t *SrcAddress, uint16 SrcPanId, NLDE_Signal_t *sig, 
    403                           byte SecurityUse, uint32 timestamp )
    404          {
   \   000000   74E8         MOV     A,#-0x18
   \   000002   12....       LCALL   ?BANKED_ENTER_XDATA
   \   000005                ; Saved register size: 24
   \   000005                ; Auto size: 1
   \   000005   74FF         MOV     A,#-0x1
   \   000007   12....       LCALL   ?ALLOC_XSTACK8
   \   00000A   E9           MOV     A,R1
   \   00000B   85..82       MOV     DPL,?XSP + 0
   \   00000E   85..83       MOV     DPH,?XSP + 1
   \   000011   F0           MOVX    @DPTR,A
   \   000012   8A..         MOV     ?V0 + 0,R2
   \   000014   8B..         MOV     ?V0 + 1,R3
   \   000016   8C..         MOV     ?V0 + 10,R4
   \   000018   8D..         MOV     ?V0 + 11,R5
   \   00001A   741B         MOV     A,#0x1b
   \   00001C   12....       LCALL   ?XSTACK_DISP0_8
   \   00001F   12....       LCALL   ?Subroutine14 & 0xFFFF
   \                     ??CrossCallReturnLabel_24:
   \   000022   741D         MOV     A,#0x1d
   \   000024   12....       LCALL   ?XSTACK_DISP0_8
   \   000027   E0           MOVX    A,@DPTR
   \   000028   F5..         MOV     ?V0 + 2,A
   \   00002A   A3           INC     DPTR
   \   00002B   E0           MOVX    A,@DPTR
   \   00002C   F5..         MOV     ?V0 + 3,A
   \   00002E   741F         MOV     A,#0x1f
   \   000030   12....       LCALL   ?XSTACK_DISP0_8
   \   000033   78..         MOV     R0,#?V0 + 4
   \   000035   12....       LCALL   ?L_MOV_X
    405            afIncomingMSGPacket_t *MSGpkt;
    406            const byte len = sizeof( afIncomingMSGPacket_t ) + aff->asduLength;
    407            byte *asdu = aff->asdu;
   \   000038   EA           MOV     A,R2
   \   000039   240E         ADD     A,#0xe
   \   00003B   F582         MOV     DPL,A
   \   00003D   EB           MOV     A,R3
   \   00003E   12....       LCALL   ??Subroutine29_0 & 0xFFFF
   \                     ??CrossCallReturnLabel_53:
   \   000041   12....       LCALL   ?Subroutine17 & 0xFFFF
    408            MSGpkt = (afIncomingMSGPacket_t *)osal_msg_allocate( len );
   \                     ??CrossCallReturnLabel_25:
   \   000044                ; Setup parameters for call to function osal_msg_allocate
   \   000044   EA           MOV     A,R2
   \   000045   2410         ADD     A,#0x10
   \   000047   F582         MOV     DPL,A
   \   000049   EB           MOV     A,R3
   \   00004A   12....       LCALL   ??Subroutine29_0 & 0xFFFF
   \                     ??CrossCallReturnLabel_54:
   \   00004D   E0           MOVX    A,@DPTR
   \   00004E   2423         ADD     A,#0x23
   \   000050   FA           MOV     R2,A
   \   000051   7B00         MOV     R3,#0x0
   \   000053   12....       LCALL   ??osal_msg_allocate?relay
   \   000056   8A..         MOV     ?V0 + 12,R2
   \   000058   8B..         MOV     ?V0 + 13,R3
   \   00005A   AE..         MOV     R6,?V0 + 12
   \   00005C   AF..         MOV     R7,?V0 + 13
    409          
    410            if ( MSGpkt == NULL )
   \   00005E   EE           MOV     A,R6
   \   00005F   7001         JNZ     ??afBuildMSGIncoming_0
   \   000061   EF           MOV     A,R7
   \                     ??afBuildMSGIncoming_0:
   \   000062   7003         JNZ     $+5
   \   000064   02....       LJMP    ??CrossCallReturnLabel_19 & 0xFFFF
    411            {
    412              return;
    413            }
    414          
    415            MSGpkt->hdr.event = AF_INCOMING_MSG_CMD;
   \   000067   741A         MOV     A,#0x1a
   \   000069   8E82         MOV     DPL,R6
   \   00006B   8F83         MOV     DPH,R7
   \   00006D   12....       LCALL   ?Subroutine6 & 0xFFFF
    416            MSGpkt->groupId = aff->GroupID;
   \                     ??CrossCallReturnLabel_3:
   \   000070   12....       LCALL   ?Subroutine13 & 0xFFFF
   \                     ??CrossCallReturnLabel_20:
   \   000073   E8           MOV     A,R0
   \   000074   F0           MOVX    @DPTR,A
   \   000075   A3           INC     DPTR
   \   000076   E9           MOV     A,R1
   \   000077   12....       LCALL   ?Subroutine6 & 0xFFFF
    417            MSGpkt->clusterId = aff->ClusterID;
   \                     ??CrossCallReturnLabel_4:
   \   00007A   A3           INC     DPTR
   \   00007B   A3           INC     DPTR
   \   00007C   12....       LCALL   ?Subroutine13 & 0xFFFF
   \                     ??CrossCallReturnLabel_21:
   \   00007F   A3           INC     DPTR
   \   000080   A3           INC     DPTR
   \   000081   12....       LCALL   ?Subroutine7 & 0xFFFF
    418            afCopyAddress( &MSGpkt->srcAddr, SrcAddress );
   \                     ??CrossCallReturnLabel_5:
   \   000084                ; Setup parameters for call to function afCopyAddress
   \   000084   7419         MOV     A,#0x19
   \   000086   12....       LCALL   ?XSTACK_DISP0_8
   \   000089   12....       LCALL   ?Subroutine21 & 0xFFFF
   \                     ??CrossCallReturnLabel_39:
   \   00008C   EE           MOV     A,R6
   \   00008D   2406         ADD     A,#0x6
   \   00008F   FA           MOV     R2,A
   \   000090   EF           MOV     A,R7
   \   000091   3400         ADDC    A,#0x0
   \   000093   FB           MOV     R3,A
   \   000094   12....       LCALL   ??afCopyAddress?relay
    419            MSGpkt->srcAddr.endPoint = aff->SrcEndPoint;
   \   000097   85..82       MOV     DPL,?V0 + 0
   \   00009A   85..83       MOV     DPH,?V0 + 1
   \   00009D   A3           INC     DPTR
   \   00009E   A3           INC     DPTR
   \   00009F   A3           INC     DPTR
   \   0000A0   E0           MOVX    A,@DPTR
   \   0000A1   C0E0         PUSH    A
   \   0000A3   EE           MOV     A,R6
   \   0000A4   240F         ADD     A,#0xf
   \   0000A6   12....       LCALL   ??Subroutine28_0 & 0xFFFF
   \                     ??CrossCallReturnLabel_57:
   \   0000A9   D0E0         POP     A
   \   0000AB   F0           MOVX    @DPTR,A
    420            MSGpkt->endPoint = epDesc->endPoint;
   \   0000AC   85..82       MOV     DPL,?V0 + 10
   \   0000AF   85..83       MOV     DPH,?V0 + 11
   \   0000B2   E0           MOVX    A,@DPTR
   \   0000B3   C0E0         PUSH    A
   \   0000B5   EE           MOV     A,R6
   \   0000B6   2414         ADD     A,#0x14
   \   0000B8   12....       LCALL   ??Subroutine28_0 & 0xFFFF
   \                     ??CrossCallReturnLabel_58:
   \   0000BB   D0E0         POP     A
   \   0000BD   F0           MOVX    @DPTR,A
    421            MSGpkt->wasBroadcast = aff->wasBroadcast;
   \   0000BE   E5..         MOV     A,?V0 + 0
   \   0000C0   240C         ADD     A,#0xc
   \   0000C2   F582         MOV     DPL,A
   \   0000C4   E5..         MOV     A,?V0 + 1
   \   0000C6   12....       LCALL   ??Subroutine29_0 & 0xFFFF
   \                     ??CrossCallReturnLabel_55:
   \   0000C9   E0           MOVX    A,@DPTR
   \   0000CA   C0E0         PUSH    A
   \   0000CC   EE           MOV     A,R6
   \   0000CD   2415         ADD     A,#0x15
   \   0000CF   12....       LCALL   ??Subroutine28_0 & 0xFFFF
   \                     ??CrossCallReturnLabel_59:
   \   0000D2   D0E0         POP     A
   \   0000D4   F0           MOVX    @DPTR,A
    422            MSGpkt->LinkQuality = sig->LinkQuality;
   \   0000D5   85..82       MOV     DPL,?V0 + 2
   \   0000D8   85..83       MOV     DPH,?V0 + 3
   \   0000DB   E0           MOVX    A,@DPTR
   \   0000DC   C0E0         PUSH    A
   \   0000DE   EE           MOV     A,R6
   \   0000DF   2416         ADD     A,#0x16
   \   0000E1   12....       LCALL   ??Subroutine28_0 & 0xFFFF
   \                     ??CrossCallReturnLabel_60:
   \   0000E4   D0E0         POP     A
   \   0000E6   12....       LCALL   ?Subroutine8 & 0xFFFF
    423            MSGpkt->correlation = sig->correlation;
   \                     ??CrossCallReturnLabel_12:
   \   0000E9   E0           MOVX    A,@DPTR
   \   0000EA   C0E0         PUSH    A
   \   0000EC   EE           MOV     A,R6
   \   0000ED   2417         ADD     A,#0x17
   \   0000EF   12....       LCALL   ??Subroutine28_0 & 0xFFFF
   \                     ??CrossCallReturnLabel_61:
   \   0000F2   D0E0         POP     A
   \   0000F4   12....       LCALL   ?Subroutine8 & 0xFFFF
    424            MSGpkt->rssi = sig->rssi;
   \                     ??CrossCallReturnLabel_13:
   \   0000F7   A3           INC     DPTR
   \   0000F8   E0           MOVX    A,@DPTR
   \   0000F9   C0E0         PUSH    A
   \   0000FB   EE           MOV     A,R6
   \   0000FC   2418         ADD     A,#0x18
   \   0000FE   12....       LCALL   ??Subroutine28_0 & 0xFFFF
   \                     ??CrossCallReturnLabel_62:
   \   000101   D0E0         POP     A
   \   000103   F0           MOVX    @DPTR,A
    425            MSGpkt->SecurityUse = SecurityUse;
   \   000104   85..82       MOV     DPL,?XSP + 0
   \   000107   85..83       MOV     DPH,?XSP + 1
   \   00010A   E0           MOVX    A,@DPTR
   \   00010B   C0E0         PUSH    A
   \   00010D   EE           MOV     A,R6
   \   00010E   2419         ADD     A,#0x19
   \   000110   12....       LCALL   ??Subroutine28_0 & 0xFFFF
   \                     ??CrossCallReturnLabel_63:
   \   000113   D0E0         POP     A
   \   000115   F0           MOVX    @DPTR,A
    426            MSGpkt->timestamp = timestamp;
   \   000116   EE           MOV     A,R6
   \   000117   241A         ADD     A,#0x1a
   \   000119   12....       LCALL   ??Subroutine28_0 & 0xFFFF
   \                     ??CrossCallReturnLabel_64:
   \   00011C   78..         MOV     R0,#?V0 + 4
   \   00011E   12....       LCALL   ?L_MOV_TO_X
    427            MSGpkt->macDestAddr = aff->macDestAddr;
   \   000121   85..82       MOV     DPL,?V0 + 0
   \   000124   85..83       MOV     DPH,?V0 + 1
   \   000127   A3           INC     DPTR
   \   000128   A3           INC     DPTR
   \   000129   A3           INC     DPTR
   \   00012A   A3           INC     DPTR
   \   00012B   A3           INC     DPTR
   \   00012C   A3           INC     DPTR
   \   00012D   A3           INC     DPTR
   \   00012E   A3           INC     DPTR
   \   00012F   A3           INC     DPTR
   \   000130   A3           INC     DPTR
   \   000131   12....       LCALL   ?Subroutine19 & 0xFFFF
   \                     ??CrossCallReturnLabel_30:
   \   000134   EE           MOV     A,R6
   \   000135   2412         ADD     A,#0x12
   \   000137   12....       LCALL   ??Subroutine28_0 & 0xFFFF
   \                     ??CrossCallReturnLabel_65:
   \   00013A   12....       LCALL   ?Subroutine7 & 0xFFFF
    428            MSGpkt->srcAddr.panId = SrcPanId;
   \                     ??CrossCallReturnLabel_6:
   \   00013D   EE           MOV     A,R6
   \   00013E   2410         ADD     A,#0x10
   \   000140   12....       LCALL   ??Subroutine28_0 & 0xFFFF
   \                     ??CrossCallReturnLabel_66:
   \   000143   E5..         MOV     A,?V0 + 14
   \   000145   F0           MOVX    @DPTR,A
   \   000146   A3           INC     DPTR
   \   000147   E5..         MOV     A,?V0 + 15
   \   000149   F0           MOVX    @DPTR,A
    429            MSGpkt->cmd.TransSeqNumber = 0;
   \   00014A   EE           MOV     A,R6
   \   00014B   241E         ADD     A,#0x1e
   \   00014D   12....       LCALL   ??Subroutine28_0 & 0xFFFF
   \                     ??CrossCallReturnLabel_67:
   \   000150   E4           CLR     A
   \   000151   F0           MOVX    @DPTR,A
   \   000152   E5..         MOV     A,?V0 + 0
   \   000154   2410         ADD     A,#0x10
   \   000156   F582         MOV     DPL,A
   \   000158   E5..         MOV     A,?V0 + 1
   \   00015A   12....       LCALL   ??Subroutine29_0 & 0xFFFF
   \                     ??CrossCallReturnLabel_56:
   \   00015D   E0           MOVX    A,@DPTR
   \   00015E   F8           MOV     R0,A
   \   00015F   12....       LCALL   ?Subroutine22 & 0xFFFF
   \                     ??CrossCallReturnLabel_69:
   \   000162   E8           MOV     A,R0
   \   000163   F0           MOVX    @DPTR,A
   \   000164   A3           INC     DPTR
   \   000165   E4           CLR     A
   \   000166   F0           MOVX    @DPTR,A
    430            MSGpkt->cmd.DataLength = aff->asduLength;
    431          
    432            if ( MSGpkt->cmd.DataLength )
   \   000167   E8           MOV     A,R0
   \   000168   7001         JNZ     ??afBuildMSGIncoming_1
   \   00016A   E4           CLR     A
   \                     ??afBuildMSGIncoming_1:
   \   00016B   6041         JZ      ??afBuildMSGIncoming_2
    433            {
    434              MSGpkt->cmd.Data = (byte *)(MSGpkt + 1);
   \   00016D   EE           MOV     A,R6
   \   00016E   2421         ADD     A,#0x21
   \   000170   F8           MOV     R0,A
   \   000171   EF           MOV     A,R7
   \   000172   3400         ADDC    A,#0x0
   \   000174   F9           MOV     R1,A
   \   000175   E8           MOV     A,R0
   \   000176   FA           MOV     R2,A
   \   000177   E9           MOV     A,R1
   \   000178   FB           MOV     R3,A
   \   000179   EE           MOV     A,R6
   \   00017A   2423         ADD     A,#0x23
   \   00017C   08           INC     R0
   \   00017D   08           INC     R0
   \   00017E   EF           MOV     A,R7
   \   00017F   3400         ADDC    A,#0x0
   \   000181   F9           MOV     R1,A
   \   000182   8A82         MOV     DPL,R2
   \   000184   8B83         MOV     DPH,R3
   \   000186   12....       LCALL   ?Subroutine7 & 0xFFFF
    435              osal_memcpy( MSGpkt->cmd.Data, asdu, MSGpkt->cmd.DataLength );
   \                     ??CrossCallReturnLabel_7:
   \   000189                ; Setup parameters for call to function osal_memcpy
   \   000189   85....       MOV     ?V0 + 0,?V0 + 8
   \   00018C   85....       MOV     ?V0 + 1,?V0 + 9
   \   00018F   75..00       MOV     ?V0 + 2,#0x0
   \   000192   78..         MOV     R0,#?V0 + 0
   \   000194   12....       LCALL   ?PUSH_XSTACK_I_THREE
   \   000197   12....       LCALL   ?Subroutine22 & 0xFFFF
    436            }
   \                     ??CrossCallReturnLabel_70:
   \   00019A   12....       LCALL   ?Subroutine21 & 0xFFFF
   \                     ??CrossCallReturnLabel_40:
   \   00019D   8A82         MOV     DPL,R2
   \   00019F   8B83         MOV     DPH,R3
   \   0001A1   12....       LCALL   ??Subroutine30_0 & 0xFFFF
   \                     ??CrossCallReturnLabel_71:
   \   0001A4   12....       LCALL   ??osal_memcpy?relay
   \   0001A7   7403         MOV     A,#0x3
   \   0001A9   12....       LCALL   ?DEALLOC_XSTACK8
   \   0001AC   800A         SJMP    ??afBuildMSGIncoming_3
    437            else
    438            {
    439              MSGpkt->cmd.Data = NULL;
   \                     ??afBuildMSGIncoming_2:
   \   0001AE   EE           MOV     A,R6
   \   0001AF   2421         ADD     A,#0x21
   \   0001B1   12....       LCALL   ??Subroutine28_0 & 0xFFFF
    440            }
   \                     ??CrossCallReturnLabel_68:
   \   0001B4   E4           CLR     A
   \   0001B5   F0           MOVX    @DPTR,A
   \   0001B6   A3           INC     DPTR
   \   0001B7   F0           MOVX    @DPTR,A
    441          
    442          #if defined ( MT_AF_CB_FUNC )
    443            // If ZDO or SAPI have registered for this endpoint, dont intercept it here
    444            if (AFCB_CHECK(CB_ID_AF_DATA_IND, *(epDesc->task_id)))
    445            {
    446              MT_AfIncomingMsg( (void *)MSGpkt );
    447              // Release the memory.
    448              osal_msg_deallocate( (void *)MSGpkt );
    449            }
    450            else
    451          #endif
    452            {
    453              // Send message through task message.
    454              osal_msg_send( *(epDesc->task_id), (uint8 *)MSGpkt );
   \                     ??afBuildMSGIncoming_3:
   \   0001B8                ; Setup parameters for call to function osal_msg_send
   \   0001B8   EE           MOV     A,R6
   \   0001B9   FA           MOV     R2,A
   \   0001BA   EF           MOV     A,R7
   \   0001BB   FB           MOV     R3,A
   \   0001BC   85..82       MOV     DPL,?V0 + 10
   \   0001BF   85..83       MOV     DPH,?V0 + 11
   \   0001C2   12....       LCALL   ?Subroutine12 & 0xFFFF
    455            }
    456          }
   \                     ??CrossCallReturnLabel_19:
   \   0001C5   7401         MOV     A,#0x1
   \   0001C7   02....       LJMP    ?Subroutine3 & 0xFFFF

   \                                 In  segment BANKED_CODE, align 1, keep-with-next
   \                     ?Subroutine22:
   \   000000   EE           MOV     A,R6
   \   000001   241F         ADD     A,#0x1f
   \   000003                REQUIRE ??Subroutine28_0
   \   000003                ; // Fall through to label ??Subroutine28_0

   \                                 In  segment BANKED_CODE, align 1, keep-with-next
   \                     ??Subroutine28_0:
   \   000000   F582         MOV     DPL,A
   \   000002   EF           MOV     A,R7
   \   000003                REQUIRE ??Subroutine29_0
   \   000003                ; // Fall through to label ??Subroutine29_0

   \                                 In  segment BANKED_CODE, align 1, keep-with-next
   \                     ??Subroutine29_0:
   \   000000   3400         ADDC    A,#0x0
   \   000002   F583         MOV     DPH,A
   \   000004   22           RET

   \                                 In  segment BANKED_CODE, align 1, keep-with-next
   \                     ?Subroutine13:
   \   000000   E0           MOVX    A,@DPTR
   \   000001   F8           MOV     R0,A
   \   000002   A3           INC     DPTR
   \   000003   E0           MOVX    A,@DPTR
   \   000004   F9           MOV     R1,A
   \   000005   8E82         MOV     DPL,R6
   \   000007   8F83         MOV     DPH,R7
   \   000009   A3           INC     DPTR
   \   00000A   A3           INC     DPTR
   \   00000B   22           RET

   \                                 In  segment BANKED_CODE, align 1, keep-with-next
   \                     ?Subroutine8:
   \   000000   F0           MOVX    @DPTR,A
   \   000001   85..82       MOV     DPL,?V0 + 2
   \   000004   85..83       MOV     DPH,?V0 + 3
   \   000007   A3           INC     DPTR
   \   000008   22           RET

   \                                 In  segment BANKED_CODE, align 1, keep-with-next
   \                     ?Subroutine6:
   \   000000   F0           MOVX    @DPTR,A
   \   000001   85..82       MOV     DPL,?V0 + 0
   \   000004   85..83       MOV     DPH,?V0 + 1
   \   000007   A3           INC     DPTR
   \   000008   A3           INC     DPTR
   \   000009   A3           INC     DPTR
   \   00000A   A3           INC     DPTR
   \   00000B   22           RET

   \                                 In  segment BANKED_CODE, align 1, keep-with-next
   \                     ?Subroutine19:
   \   000000   E0           MOVX    A,@DPTR
   \   000001   F8           MOV     R0,A
   \   000002   A3           INC     DPTR
   \   000003   E0           MOVX    A,@DPTR
   \   000004   F9           MOV     R1,A
   \   000005   22           RET

   \                                 In  segment BANKED_CODE, align 1, keep-with-next
   \                     ?Subroutine17:
   \   000000   E0           MOVX    A,@DPTR
   \   000001   F5..         MOV     ?V0 + 8,A
   \   000003   A3           INC     DPTR
   \   000004   E0           MOVX    A,@DPTR
   \   000005   F5..         MOV     ?V0 + 9,A
   \   000007   22           RET

   \                                 In  segment BANKED_CODE, align 1, keep-with-next
   \                     ?Subroutine7:
   \   000000   E8           MOV     A,R0
   \   000001   F0           MOVX    @DPTR,A
   \   000002   A3           INC     DPTR
   \   000003   E9           MOV     A,R1
   \   000004   F0           MOVX    @DPTR,A
   \   000005   22           RET

   \                                 In  segment BANKED_CODE, align 1, keep-with-next
   \                     ?Subroutine21:
   \   000000   E0           MOVX    A,@DPTR
   \   000001   FC           MOV     R4,A
   \   000002   A3           INC     DPTR
   \   000003   E0           MOVX    A,@DPTR
   \   000004   FD           MOV     R5,A
   \   000005   22           RET

   \                                 In  segment BANKED_CODE, align 1, keep-with-next
   \                     ??Subroutine30_0:
   \   000000   E0           MOVX    A,@DPTR
   \   000001   FA           MOV     R2,A
   \   000002   A3           INC     DPTR
   \   000003   E0           MOVX    A,@DPTR
   \   000004   FB           MOV     R3,A
   \   000005   22           RET
    457          
    458          /*********************************************************************
    459           * @fn      AF_DataRequest
    460           *
    461           * @brief   Common functionality for invoking APSDE_DataReq() for both
    462           *          SendMulti and MSG-Send.
    463           *
    464           * input parameters
    465           *
    466           * @param  *dstAddr - Full ZB destination address: Nwk Addr + End Point.
    467           * @param  *srcEP - Origination (i.e. respond to or ack to) End Point Descr.
    468           * @param   cID - A valid cluster ID as specified by the Profile.
    469           * @param   len - Number of bytes of data pointed to by next param.
    470           * @param  *buf - A pointer to the data bytes to send.
    471           * @param  *transID - A pointer to a byte which can be modified and which will
    472           *                    be used as the transaction sequence number of the msg.
    473           * @param   options - Valid bit mask of Tx options.
    474           * @param   radius - Normally set to AF_DEFAULT_RADIUS.
    475           *
    476           * output parameters
    477           *
    478           * @param  *transID - Incremented by one if the return value is success.
    479           *
    480           * @return  afStatus_t - See previous definition of afStatus_... types.
    481           */

   \                                 In  segment XDATA_I, align 1, keep-with-next
    482          uint8 AF_DataRequestDiscoverRoute = TRUE;
   \                     AF_DataRequestDiscoverRoute:
   \   000000                DS 1
   \   000001                REQUIRE `?<Initializer for AF_DataRequestDiscoverRoute>`
   \   000001                REQUIRE __INIT_XDATA_I

   \                                 In  segment BANKED_CODE, align 1, keep-with-next
    483          afStatus_t AF_DataRequest( afAddrType_t *dstAddr, endPointDesc_t *srcEP,
   \                     AF_DataRequest:
    484                                     uint16 cID, uint16 len, uint8 *buf, uint8 *transID,
    485                                     uint8 options, uint8 radius )
    486          {
   \   000000   74EA         MOV     A,#-0x16
   \   000002   12....       LCALL   ?BANKED_ENTER_XDATA
   \   000005                ; Saved register size: 22
   \   000005                ; Auto size: 30
   \   000005   74E2         MOV     A,#-0x1e
   \   000007   12....       LCALL   ?ALLOC_XSTACK8
   \   00000A   EA           MOV     A,R2
   \   00000B   FE           MOV     R6,A
   \   00000C   EB           MOV     A,R3
   \   00000D   FF           MOV     R7,A
   \   00000E   8C..         MOV     ?V0 + 0,R4
   \   000010   8D..         MOV     ?V0 + 1,R5
   \   000012   89..         MOV     ?V0 + 2,R1
   \   000014   7434         MOV     A,#0x34
   \   000016   12....       LCALL   ?XSTACK_DISP0_8
   \   000019   12....       LCALL   ?Subroutine17 & 0xFFFF
   \                     ??CrossCallReturnLabel_26:
   \   00001C   7436         MOV     A,#0x36
   \   00001E   12....       LCALL   ?XSTACK_DISP0_8
   \   000021   E0           MOVX    A,@DPTR
   \   000022   F5..         MOV     ?V0 + 6,A
   \   000024   A3           INC     DPTR
   \   000025   E0           MOVX    A,@DPTR
   \   000026   F5..         MOV     ?V0 + 7,A
   \   000028   7438         MOV     A,#0x38
   \   00002A   12....       LCALL   ?XSTACK_DISP0_8
   \   00002D   E0           MOVX    A,@DPTR
   \   00002E   F5..         MOV     ?V0 + 12,A
   \   000030   A3           INC     DPTR
   \   000031   E0           MOVX    A,@DPTR
   \   000032   F5..         MOV     ?V0 + 13,A
   \   000034   743A         MOV     A,#0x3a
   \   000036   12....       LCALL   ?XSTACK_DISP0_8
   \   000039   E0           MOVX    A,@DPTR
   \   00003A   F5..         MOV     ?V0 + 4,A
   \   00003C   A3           INC     DPTR
   \   00003D   E0           MOVX    A,@DPTR
   \   00003E   F5..         MOV     ?V0 + 5,A
   \   000040   743C         MOV     A,#0x3c
   \   000042   12....       LCALL   ?XSTACK_DISP0_8
   \   000045   E0           MOVX    A,@DPTR
   \   000046   F5..         MOV     ?V0 + 3,A
    487            pDescCB pfnDescCB;
    488            ZStatus_t stat;
    489            APSDE_DataReq_t req;
    490            afDataReqMTU_t mtu;
    491          
    492            // Verify source end point
    493            if ( srcEP == NULL )
   \   000048   EC           MOV     A,R4
   \   000049   7001         JNZ     ??AF_DataRequest_0
   \   00004B   ED           MOV     A,R5
   \                     ??AF_DataRequest_0:
   \   00004C   7005         JNZ     ??AF_DataRequest_1
    494            {
    495              return afStatus_INVALID_PARAMETER;
   \                     ??AF_DataRequest_2:
   \   00004E   7902         MOV     R1,#0x2
   \   000050   02....       LJMP    ??AF_DataRequest_3 & 0xFFFF
    496            }
    497          
    498          #if !defined( REFLECTOR )
    499            if ( dstAddr->addrMode == afAddrNotPresent )
    500            {
    501              return afStatus_INVALID_PARAMETER;
    502            }
    503          #endif
    504            
    505            // Check if route is available before sending data 
    506            if ( options & AF_LIMIT_CONCENTRATOR  )
   \                     ??AF_DataRequest_1:
   \   000053   E9           MOV     A,R1
   \   000054   A2E3         MOV     C,0xE0 /* A   */.3
   \   000056   503B         JNC     ??AF_DataRequest_4
    507            {
    508              if ( dstAddr->addrMode != afAddr16Bit )
   \   000058   8E82         MOV     DPL,R6
   \   00005A   8F83         MOV     DPH,R7
   \   00005C   A3           INC     DPTR
   \   00005D   A3           INC     DPTR
   \   00005E   A3           INC     DPTR
   \   00005F   A3           INC     DPTR
   \   000060   A3           INC     DPTR
   \   000061   A3           INC     DPTR
   \   000062   A3           INC     DPTR
   \   000063   A3           INC     DPTR
   \   000064   E0           MOVX    A,@DPTR
   \   000065   6402         XRL     A,#0x2
   \   000067   70E5         JNZ     ??AF_DataRequest_2
    509              {
    510                return ( afStatus_INVALID_PARAMETER );
    511              }
    512               
    513              // First, make sure the destination is not its self, then check for an existing route.
    514              if ( (dstAddr->addr.shortAddr != NLME_GetShortAddr())
    515                  && (RTG_CheckRtStatus( dstAddr->addr.shortAddr, RT_ACTIVE, (MTO_ROUTE | NO_ROUTE_CACHE) ) != RTG_SUCCESS) )
   \   000069                ; Setup parameters for call to function NLME_GetShortAddr
   \   000069   12....       LCALL   ??NLME_GetShortAddr?relay
   \   00006C   8A..         MOV     ?V0 + 10,R2
   \   00006E   8B..         MOV     ?V0 + 11,R3
   \   000070   A8..         MOV     R0,?V0 + 10
   \   000072   A9..         MOV     R1,?V0 + 11
   \   000074   8E82         MOV     DPL,R6
   \   000076   8F83         MOV     DPH,R7
   \   000078   E0           MOVX    A,@DPTR
   \   000079   68           XRL     A,R0
   \   00007A   7003         JNZ     ??AF_DataRequest_5
   \   00007C   A3           INC     DPTR
   \   00007D   E0           MOVX    A,@DPTR
   \   00007E   69           XRL     A,R1
   \                     ??AF_DataRequest_5:
   \   00007F   6012         JZ      ??AF_DataRequest_4
   \   000081                ; Setup parameters for call to function RTG_CheckRtStatus
   \   000081   7C03         MOV     R4,#0x3
   \   000083   7901         MOV     R1,#0x1
   \   000085   12....       LCALL   ?Subroutine11 & 0xFFFF
   \                     ??CrossCallReturnLabel_77:
   \   000088   12....       LCALL   ??RTG_CheckRtStatus?relay
   \   00008B   E9           MOV     A,R1
   \   00008C   6005         JZ      ??AF_DataRequest_4
    516              {
    517                // A valid route to a concentrator wasn't found
    518                return ( afStatus_NO_ROUTE );
   \   00008E   79CD         MOV     R1,#-0x33
   \   000090   02....       LJMP    ??AF_DataRequest_3 & 0xFFFF
    519              }
    520            } 
    521            
    522            // Validate broadcasting
    523            if ( ( dstAddr->addrMode == afAddr16Bit     ) ||
    524                 ( dstAddr->addrMode == afAddrBroadcast )    )
   \                     ??AF_DataRequest_4:
   \   000093   8E82         MOV     DPL,R6
   \   000095   8F83         MOV     DPH,R7
   \   000097   A3           INC     DPTR
   \   000098   A3           INC     DPTR
   \   000099   A3           INC     DPTR
   \   00009A   A3           INC     DPTR
   \   00009B   A3           INC     DPTR
   \   00009C   A3           INC     DPTR
   \   00009D   A3           INC     DPTR
   \   00009E   A3           INC     DPTR
   \   00009F   E0           MOVX    A,@DPTR
   \   0000A0   6402         XRL     A,#0x2
   \   0000A2   6011         JZ      ??AF_DataRequest_6
   \   0000A4   8E82         MOV     DPL,R6
   \   0000A6   8F83         MOV     DPH,R7
   \   0000A8   A3           INC     DPTR
   \   0000A9   A3           INC     DPTR
   \   0000AA   A3           INC     DPTR
   \   0000AB   A3           INC     DPTR
   \   0000AC   A3           INC     DPTR
   \   0000AD   A3           INC     DPTR
   \   0000AE   A3           INC     DPTR
   \   0000AF   A3           INC     DPTR
   \   0000B0   E0           MOVX    A,@DPTR
   \   0000B1   640F         XRL     A,#0xf
   \   0000B3   702E         JNZ     ??AF_DataRequest_7
    525            {
    526              // Check for valid broadcast values
    527              if( ADDR_NOT_BCAST != NLME_IsAddressBroadcast( dstAddr->addr.shortAddr )  )
   \                     ??AF_DataRequest_6:
   \   0000B5                ; Setup parameters for call to function NLME_IsAddressBroadcast
   \   0000B5   12....       LCALL   ?Subroutine11 & 0xFFFF
   \                     ??CrossCallReturnLabel_78:
   \   0000B8   12....       LCALL   ??NLME_IsAddressBroadcast?relay
   \   0000BB   E9           MOV     A,R1
   \   0000BC   6011         JZ      ??AF_DataRequest_8
    528              {
    529                // Force mode to broadcast
    530                dstAddr->addrMode = afAddrBroadcast;
   \   0000BE   740F         MOV     A,#0xf
   \   0000C0   8E82         MOV     DPL,R6
   \   0000C2   8F83         MOV     DPH,R7
   \   0000C4   A3           INC     DPTR
   \   0000C5   A3           INC     DPTR
   \   0000C6   A3           INC     DPTR
   \   0000C7   A3           INC     DPTR
   \   0000C8   A3           INC     DPTR
   \   0000C9   A3           INC     DPTR
   \   0000CA   A3           INC     DPTR
   \   0000CB   A3           INC     DPTR
   \   0000CC   F0           MOVX    @DPTR,A
   \   0000CD   8048         SJMP    ??AF_DataRequest_9
    531              }
    532              else
    533              {
    534                // Address is not a valid broadcast type
    535                if ( dstAddr->addrMode == afAddrBroadcast )
   \                     ??AF_DataRequest_8:
   \   0000CF   8E82         MOV     DPL,R6
   \   0000D1   8F83         MOV     DPH,R7
   \   0000D3   A3           INC     DPTR
   \   0000D4   A3           INC     DPTR
   \   0000D5   A3           INC     DPTR
   \   0000D6   A3           INC     DPTR
   \   0000D7   A3           INC     DPTR
   \   0000D8   A3           INC     DPTR
   \   0000D9   A3           INC     DPTR
   \   0000DA   A3           INC     DPTR
   \   0000DB   E0           MOVX    A,@DPTR
   \   0000DC   640F         XRL     A,#0xf
   \   0000DE   7037         JNZ     ??AF_DataRequest_9
   \   0000E0   02....       LJMP    ??AF_DataRequest_2 & 0xFFFF
    536                {
    537                  return afStatus_INVALID_PARAMETER;
    538                }
    539              }
    540            }
    541            else if ( dstAddr->addrMode != afAddr64Bit &&
    542                      dstAddr->addrMode != afAddrGroup &&
    543                      dstAddr->addrMode != afAddrNotPresent )
   \                     ??AF_DataRequest_7:
   \   0000E3   8E82         MOV     DPL,R6
   \   0000E5   8F83         MOV     DPH,R7
   \   0000E7   A3           INC     DPTR
   \   0000E8   A3           INC     DPTR
   \   0000E9   A3           INC     DPTR
   \   0000EA   A3           INC     DPTR
   \   0000EB   A3           INC     DPTR
   \   0000EC   A3           INC     DPTR
   \   0000ED   A3           INC     DPTR
   \   0000EE   A3           INC     DPTR
   \   0000EF   E0           MOVX    A,@DPTR
   \   0000F0   6403         XRL     A,#0x3
   \   0000F2   6023         JZ      ??AF_DataRequest_9
   \   0000F4   8E82         MOV     DPL,R6
   \   0000F6   8F83         MOV     DPH,R7
   \   0000F8   A3           INC     DPTR
   \   0000F9   A3           INC     DPTR
   \   0000FA   A3           INC     DPTR
   \   0000FB   A3           INC     DPTR
   \   0000FC   A3           INC     DPTR
   \   0000FD   A3           INC     DPTR
   \   0000FE   A3           INC     DPTR
   \   0000FF   A3           INC     DPTR
   \   000100   E0           MOVX    A,@DPTR
   \   000101   6401         XRL     A,#0x1
   \   000103   6012         JZ      ??AF_DataRequest_9
   \   000105   8E82         MOV     DPL,R6
   \   000107   8F83         MOV     DPH,R7
   \   000109   A3           INC     DPTR
   \   00010A   A3           INC     DPTR
   \   00010B   A3           INC     DPTR
   \   00010C   A3           INC     DPTR
   \   00010D   A3           INC     DPTR
   \   00010E   A3           INC     DPTR
   \   00010F   A3           INC     DPTR
   \   000110   A3           INC     DPTR
   \   000111   E0           MOVX    A,@DPTR
   \   000112   6003         JZ      $+5
   \   000114   02....       LJMP    ??AF_DataRequest_2 & 0xFFFF
    544            {
    545              return afStatus_INVALID_PARAMETER;
    546            }
    547            
    548            // Set destination address
    549            req.dstAddr.addrMode = dstAddr->addrMode;
   \                     ??AF_DataRequest_9:
   \   000117   EE           MOV     A,R6
   \   000118   2408         ADD     A,#0x8
   \   00011A   F8           MOV     R0,A
   \   00011B   EF           MOV     A,R7
   \   00011C   12....       LCALL   ?Subroutine25 & 0xFFFF
   \                     ??CrossCallReturnLabel_48:
   \   00011F   C0E0         PUSH    A
   \   000121   740A         MOV     A,#0xa
   \   000123   12....       LCALL   ?XSTACK_DISP0_8
   \   000126   D0E0         POP     A
   \   000128   12....       LCALL   ?Subroutine9 & 0xFFFF
    550            if ( dstAddr->addrMode == afAddr64Bit )
   \                     ??CrossCallReturnLabel_14:
   \   00012B   7012         JNZ     ??AF_DataRequest_10
    551              osal_cpyExtAddr( req.dstAddr.addr.extAddr, dstAddr->addr.extAddr );
   \   00012D                ; Setup parameters for call to function sAddrExtCpy
   \   00012D   EE           MOV     A,R6
   \   00012E   FC           MOV     R4,A
   \   00012F   EF           MOV     A,R7
   \   000130   FD           MOV     R5,A
   \   000131   7402         MOV     A,#0x2
   \   000133   12....       LCALL   ?XSTACK_DISP0_8
   \   000136   AA82         MOV     R2,DPL
   \   000138   AB83         MOV     R3,DPH
   \   00013A   12....       LCALL   ??sAddrExtCpy?relay
   \   00013D   800F         SJMP    ??CrossCallReturnLabel_8
    552            else
    553              req.dstAddr.addr.shortAddr = dstAddr->addr.shortAddr;
   \                     ??AF_DataRequest_10:
   \   00013F   8E82         MOV     DPL,R6
   \   000141   8F83         MOV     DPH,R7
   \   000143   12....       LCALL   ?Subroutine19 & 0xFFFF
   \                     ??CrossCallReturnLabel_31:
   \   000146   7402         MOV     A,#0x2
   \   000148   12....       LCALL   ?XSTACK_DISP0_8
   \   00014B   12....       LCALL   ?Subroutine7 & 0xFFFF
    554            
    555            req.profileID = ZDO_PROFILE_ID;
   \                     ??CrossCallReturnLabel_8:
   \   00014E   7411         MOV     A,#0x11
   \   000150   12....       LCALL   ?XSTACK_DISP0_8
   \   000153   E4           CLR     A
   \   000154   F0           MOVX    @DPTR,A
   \   000155   A3           INC     DPTR
   \   000156   F0           MOVX    @DPTR,A
    556          
    557            if ( (pfnDescCB = afGetDescCB( srcEP )) )
   \   000157   90....       MOV     DPTR,#epList
   \   00015A   8002         SJMP    ??AF_DataRequest_11
   \                     ??AF_DataRequest_12:
   \   00015C   A3           INC     DPTR
   \   00015D   A3           INC     DPTR
   \                     ??AF_DataRequest_11:
   \   00015E   12....       LCALL   ?Subroutine19 & 0xFFFF
   \                     ??CrossCallReturnLabel_32:
   \   000161   E8           MOV     A,R0
   \   000162   7001         JNZ     ??AF_DataRequest_13
   \   000164   E9           MOV     A,R1
   \                     ??AF_DataRequest_13:
   \   000165   6050         JZ      ??AF_DataRequest_14
   \   000167   8882         MOV     DPL,R0
   \   000169   8983         MOV     DPH,R1
   \   00016B   12....       LCALL   ??Subroutine30_0 & 0xFFFF
   \                     ??CrossCallReturnLabel_72:
   \   00016E   E5..         MOV     A,?V0 + 0
   \   000170   6A           XRL     A,R2
   \   000171   7003         JNZ     ??AF_DataRequest_15
   \   000173   E5..         MOV     A,?V0 + 1
   \   000175   6B           XRL     A,R3
   \                     ??AF_DataRequest_15:
   \   000176   8882         MOV     DPL,R0
   \   000178   8983         MOV     DPH,R1
   \   00017A   A3           INC     DPTR
   \   00017B   A3           INC     DPTR
   \   00017C   A3           INC     DPTR
   \   00017D   70DD         JNZ     ??AF_DataRequest_12
   \   00017F   12....       LCALL   ?Subroutine19 & 0xFFFF
   \                     ??CrossCallReturnLabel_33:
   \   000182   E8           MOV     A,R0
   \   000183   FC           MOV     R4,A
   \   000184   E9           MOV     A,R1
   \   000185   FD           MOV     R5,A
   \   000186   EC           MOV     A,R4
   \   000187   7001         JNZ     ??AF_DataRequest_16
   \   000189   ED           MOV     A,R5
   \                     ??AF_DataRequest_16:
   \   00018A   602B         JZ      ??AF_DataRequest_14
    558            {
    559              uint16 *pID = (uint16 *)(pfnDescCB(
    560                                           AF_DESCRIPTOR_PROFILE_ID, srcEP->endPoint ));
   \   00018C                ; Setup parameters for indirect call
   \   00018C   85..82       MOV     DPL,?V0 + 0
   \   00018F   85..83       MOV     DPH,?V0 + 1
   \   000192   E0           MOVX    A,@DPTR
   \   000193   FA           MOV     R2,A
   \   000194   7902         MOV     R1,#0x2
   \   000196   8C82         MOV     DPL,R4
   \   000198   8D83         MOV     DPH,R5
   \   00019A   12....       LCALL   ?CALL_IND
    561              if ( pID )
   \   00019D   EA           MOV     A,R2
   \   00019E   7001         JNZ     ??AF_DataRequest_17
   \   0001A0   EB           MOV     A,R3
   \                     ??AF_DataRequest_17:
   \   0001A1   6038         JZ      ??CrossCallReturnLabel_10
    562              {
    563                req.profileID = *pID;
   \   0001A3   8A82         MOV     DPL,R2
   \   0001A5   8B83         MOV     DPH,R3
   \   0001A7   12....       LCALL   ?Subroutine19 & 0xFFFF
   \                     ??CrossCallReturnLabel_34:
   \   0001AA   7411         MOV     A,#0x11
   \   0001AC   12....       LCALL   ?XSTACK_DISP0_8
   \   0001AF   12....       LCALL   ?Subroutine7 & 0xFFFF
    564                osal_mem_free( pID );
   \                     ??CrossCallReturnLabel_9:
   \   0001B2                ; Setup parameters for call to function osal_mem_free
   \   0001B2   12....       LCALL   ??osal_mem_free?relay
   \   0001B5   8024         SJMP    ??CrossCallReturnLabel_10
    565              }
    566            }
    567            else if ( srcEP->simpleDesc )
   \                     ??AF_DataRequest_14:
   \   0001B7   85..82       MOV     DPL,?V0 + 0
   \   0001BA   85..83       MOV     DPH,?V0 + 1
   \   0001BD   A3           INC     DPTR
   \   0001BE   A3           INC     DPTR
   \   0001BF   A3           INC     DPTR
   \   0001C0   E0           MOVX    A,@DPTR
   \   0001C1   7002         JNZ     ??AF_DataRequest_18
   \   0001C3   A3           INC     DPTR
   \   0001C4   E0           MOVX    A,@DPTR
   \                     ??AF_DataRequest_18:
   \   0001C5   6014         JZ      ??CrossCallReturnLabel_10
    568            {
    569              req.profileID = srcEP->simpleDesc->AppProfId;
   \   0001C7   85..82       MOV     DPL,?V0 + 0
   \   0001CA   85..83       MOV     DPH,?V0 + 1
   \   0001CD   12....       LCALL   ?Subroutine15 & 0xFFFF
    570            }
   \                     ??CrossCallReturnLabel_52:
   \   0001D0   12....       LCALL   ?Subroutine19 & 0xFFFF
   \                     ??CrossCallReturnLabel_35:
   \   0001D3   7411         MOV     A,#0x11
   \   0001D5   12....       LCALL   ?XSTACK_DISP0_8
   \   0001D8   12....       LCALL   ?Subroutine7 & 0xFFFF
    571          
    572            req.txOptions = 0;
   \                     ??CrossCallReturnLabel_10:
   \   0001DB   7417         MOV     A,#0x17
   \   0001DD   12....       LCALL   ?XSTACK_DISP0_8
   \   0001E0   E4           CLR     A
   \   0001E1   F0           MOVX    @DPTR,A
   \   0001E2   A3           INC     DPTR
   \   0001E3   F0           MOVX    @DPTR,A
    573          
    574            if ( ( options & AF_ACK_REQUEST              ) &&
    575                 ( req.dstAddr.addrMode != AddrBroadcast ) &&
    576                 ( req.dstAddr.addrMode != AddrGroup     )    )
   \   0001E4   E5..         MOV     A,?V0 + 2
   \   0001E6   A2E4         MOV     C,0xE0 /* A   */.4
   \   0001E8   501A         JNC     ??AF_DataRequest_19
   \   0001EA   740A         MOV     A,#0xa
   \   0001EC   12....       LCALL   ?XSTACK_DISP0_8
   \   0001EF   E0           MOVX    A,@DPTR
   \   0001F0   640F         XRL     A,#0xf
   \   0001F2   6010         JZ      ??AF_DataRequest_19
   \   0001F4   E0           MOVX    A,@DPTR
   \   0001F5   6401         XRL     A,#0x1
   \   0001F7   600B         JZ      ??AF_DataRequest_19
    577            {
    578              req.txOptions |=  APS_TX_OPTIONS_ACK;
   \   0001F9   7417         MOV     A,#0x17
   \   0001FB   12....       LCALL   ?XSTACK_DISP0_8
   \   0001FE   7404         MOV     A,#0x4
   \   000200   F0           MOVX    @DPTR,A
   \   000201   A3           INC     DPTR
   \   000202   E4           CLR     A
   \   000203   F0           MOVX    @DPTR,A
    579            }
    580          
    581            if ( options & AF_SKIP_ROUTING )
   \                     ??AF_DataRequest_19:
   \   000204   E5..         MOV     A,?V0 + 2
   \   000206   A2E7         MOV     C,0xE0 /* A   */.7
   \   000208   500C         JNC     ??AF_DataRequest_20
    582            {
    583              req.txOptions |=  APS_TX_OPTIONS_SKIP_ROUTING;
   \   00020A   7417         MOV     A,#0x17
   \   00020C   12....       LCALL   ?XSTACK_DISP0_8
   \   00020F   E0           MOVX    A,@DPTR
   \   000210   4410         ORL     A,#0x10
   \   000212   F0           MOVX    @DPTR,A
   \   000213   A3           INC     DPTR
   \   000214   E0           MOVX    A,@DPTR
   \   000215   F0           MOVX    @DPTR,A
    584            }
    585          
    586            if ( options & AF_EN_SECURITY )
   \                     ??AF_DataRequest_20:
   \   000216   E5..         MOV     A,?V0 + 2
   \   000218   A2E6         MOV     C,0xE0 /* A   */.6
   \   00021A   5015         JNC     ??AF_DataRequest_21
    587            {
    588              req.txOptions |= APS_TX_OPTIONS_SECURITY_ENABLE;
   \   00021C   7417         MOV     A,#0x17
   \   00021E   12....       LCALL   ?XSTACK_DISP0_8
   \   000221   E0           MOVX    A,@DPTR
   \   000222   4401         ORL     A,#0x1
   \   000224   F0           MOVX    @DPTR,A
   \   000225   A3           INC     DPTR
   \   000226   E0           MOVX    A,@DPTR
   \   000227   F0           MOVX    @DPTR,A
    589              mtu.aps.secure = TRUE;
   \   000228   7401         MOV     A,#0x1
   \   00022A   12....       LCALL   ?XSTACK_DISP0_8
   \   00022D   7401         MOV     A,#0x1
   \   00022F   8006         SJMP    ??AF_DataRequest_22
    590            }
    591            else
    592            {
    593              mtu.aps.secure = FALSE;
   \                     ??AF_DataRequest_21:
   \   000231   7401         MOV     A,#0x1
   \   000233   12....       LCALL   ?XSTACK_DISP0_8
   \   000236   E4           CLR     A
   \                     ??AF_DataRequest_22:
   \   000237   F0           MOVX    @DPTR,A
    594            }
    595          
    596            if ( options & AF_PREPROCESS )
   \   000238   E5..         MOV     A,?V0 + 2
   \   00023A   A2E2         MOV     C,0xE0 /* A   */.2
   \   00023C   500C         JNC     ??AF_DataRequest_23
    597            {
    598              req.txOptions |=  APS_TX_OPTIONS_PREPROCESS;
   \   00023E   7417         MOV     A,#0x17
   \   000240   12....       LCALL   ?XSTACK_DISP0_8
   \   000243   E0           MOVX    A,@DPTR
   \   000244   4440         ORL     A,#0x40
   \   000246   F0           MOVX    @DPTR,A
   \   000247   A3           INC     DPTR
   \   000248   E0           MOVX    A,@DPTR
   \   000249   F0           MOVX    @DPTR,A
    599            }
    600          
    601            mtu.kvp = FALSE;
   \                     ??AF_DataRequest_23:
   \   00024A   E4           CLR     A
   \   00024B   85..82       MOV     DPL,?XSP + 0
   \   00024E   85..83       MOV     DPH,?XSP + 1
   \   000251   F0           MOVX    @DPTR,A
    602          
    603            req.transID       = *transID;
   \   000252   85..82       MOV     DPL,?V0 + 4
   \   000255   85..83       MOV     DPH,?V0 + 5
   \   000258   E0           MOVX    A,@DPTR
   \   000259   C0E0         PUSH    A
   \   00025B   7419         MOV     A,#0x19
   \   00025D   12....       LCALL   ?XSTACK_DISP0_8
   \   000260   D0E0         POP     A
   \   000262   F0           MOVX    @DPTR,A
    604            req.srcEP         = srcEP->endPoint;
   \   000263   85..82       MOV     DPL,?V0 + 0
   \   000266   85..83       MOV     DPH,?V0 + 1
   \   000269   E0           MOVX    A,@DPTR
   \   00026A   C0E0         PUSH    A
   \   00026C   740B         MOV     A,#0xb
   \   00026E   12....       LCALL   ?XSTACK_DISP0_8
   \   000271   D0E0         POP     A
   \   000273   F0           MOVX    @DPTR,A
    605            req.dstEP         = dstAddr->endPoint;
   \   000274   8E82         MOV     DPL,R6
   \   000276   8F83         MOV     DPH,R7
   \   000278   A3           INC     DPTR
   \   000279   A3           INC     DPTR
   \   00027A   A3           INC     DPTR
   \   00027B   A3           INC     DPTR
   \   00027C   A3           INC     DPTR
   \   00027D   A3           INC     DPTR
   \   00027E   A3           INC     DPTR
   \   00027F   A3           INC     DPTR
   \   000280   A3           INC     DPTR
   \   000281   E0           MOVX    A,@DPTR
   \   000282   C0E0         PUSH    A
   \   000284   740C         MOV     A,#0xc
   \   000286   12....       LCALL   ?XSTACK_DISP0_8
   \   000289   D0E0         POP     A
   \   00028B   F0           MOVX    @DPTR,A
    606            req.clusterID     = cID;
   \   00028C   740F         MOV     A,#0xf
   \   00028E   12....       LCALL   ?XSTACK_DISP0_8
   \   000291   E5..         MOV     A,?V0 + 8
   \   000293   F0           MOVX    @DPTR,A
   \   000294   A3           INC     DPTR
   \   000295   E5..         MOV     A,?V0 + 9
   \   000297   F0           MOVX    @DPTR,A
    607            req.asduLen       = len;
   \   000298   7413         MOV     A,#0x13
   \   00029A   12....       LCALL   ?XSTACK_DISP0_8
   \   00029D   E5..         MOV     A,?V0 + 6
   \   00029F   F0           MOVX    @DPTR,A
   \   0002A0   A3           INC     DPTR
   \   0002A1   E5..         MOV     A,?V0 + 7
   \   0002A3   F0           MOVX    @DPTR,A
    608            req.asdu          = buf;
   \   0002A4   7415         MOV     A,#0x15
   \   0002A6   12....       LCALL   ?XSTACK_DISP0_8
   \   0002A9   E5..         MOV     A,?V0 + 12
   \   0002AB   F0           MOVX    @DPTR,A
   \   0002AC   A3           INC     DPTR
   \   0002AD   E5..         MOV     A,?V0 + 13
   \   0002AF   F0           MOVX    @DPTR,A
    609            req.discoverRoute = AF_DataRequestDiscoverRoute;//(uint8)((options & AF_DISCV_ROUTE) ? 1 : 0);
   \   0002B0   90....       MOV     DPTR,#AF_DataRequestDiscoverRoute
   \   0002B3   E0           MOVX    A,@DPTR
   \   0002B4   C0E0         PUSH    A
   \   0002B6   741A         MOV     A,#0x1a
   \   0002B8   12....       LCALL   ?XSTACK_DISP0_8
   \   0002BB   D0E0         POP     A
   \   0002BD   F0           MOVX    @DPTR,A
    610            req.radiusCounter = radius;
   \   0002BE   741B         MOV     A,#0x1b
   \   0002C0   12....       LCALL   ?XSTACK_DISP0_8
   \   0002C3   E5..         MOV     A,?V0 + 3
   \   0002C5   F0           MOVX    @DPTR,A
    611          #if defined ( INTER_PAN )
    612            req.dstPanId      = dstAddr->panId;
    613          
    614            if ( StubAPS_InterPan( dstAddr->panId, dstAddr->endPoint ) )
    615            {
    616              if ( len > INTERP_DataReqMTU() )
    617              {
    618                stat = afStatus_INVALID_PARAMETER;
    619              }
    620              else
    621              {
    622                stat = INTERP_DataReq( &req );
    623              }
    624            }
    625            else
    626          #endif // INTER_PAN
    627            {
    628              if (len > afDataReqMTU( &mtu ) )
   \   0002C6                ; Setup parameters for call to function afDataReqMTU
   \   0002C6   85..82       MOV     DPL,?XSP + 0
   \   0002C9   85..83       MOV     DPH,?XSP + 1
   \   0002CC   AA82         MOV     R2,DPL
   \   0002CE   AB83         MOV     R3,DPH
   \   0002D0   12....       LCALL   ??afDataReqMTU?relay
   \   0002D3   E9           MOV     A,R1
   \   0002D4   C3           CLR     C
   \   0002D5   95..         SUBB    A,?V0 + 6
   \   0002D7   E4           CLR     A
   \   0002D8   95..         SUBB    A,?V0 + 7
   \   0002DA   5022         JNC     ??AF_DataRequest_24
    629              {
    630                if (apsfSendFragmented)
   \   0002DC   90....       MOV     DPTR,#apsfSendFragmented
   \   0002DF   E0           MOVX    A,@DPTR
   \   0002E0   7002         JNZ     ??AF_DataRequest_25
   \   0002E2   A3           INC     DPTR
   \   0002E3   E0           MOVX    A,@DPTR
   \                     ??AF_DataRequest_25:
   \   0002E4   6014         JZ      ??AF_DataRequest_26
    631                {
    632                  stat = (*apsfSendFragmented)( &req );
   \   0002E6                ; Setup parameters for indirect call
   \   0002E6   7402         MOV     A,#0x2
   \   0002E8   12....       LCALL   ?XSTACK_DISP0_8
   \   0002EB   AA82         MOV     R2,DPL
   \   0002ED   AB83         MOV     R3,DPH
   \   0002EF   90....       MOV     DPTR,#apsfSendFragmented
   \   0002F2   12....       LCALL   ??Subroutine31_0 & 0xFFFF
    633                }
   \                     ??CrossCallReturnLabel_80:
   \   0002F5   12....       LCALL   ?CALL_IND
   \   0002F8   8010         SJMP    ??AF_DataRequest_27
    634                else
    635                {
    636                  stat = afStatus_INVALID_PARAMETER;
   \                     ??AF_DataRequest_26:
   \   0002FA   7E02         MOV     R6,#0x2
   \   0002FC   800E         SJMP    ??AF_DataRequest_28
    637                }
    638              }
    639              else
    640              {
    641                stat = APSDE_DataReq( &req );
   \                     ??AF_DataRequest_24:
   \   0002FE                ; Setup parameters for call to function APSDE_DataReq
   \   0002FE   7402         MOV     A,#0x2
   \   000300   12....       LCALL   ?XSTACK_DISP0_8
   \   000303   AA82         MOV     R2,DPL
   \   000305   AB83         MOV     R3,DPH
   \   000307   12....       LCALL   ??APSDE_DataReq?relay
   \                     ??AF_DataRequest_27:
   \   00030A   E9           MOV     A,R1
   \   00030B   FE           MOV     R6,A
    642              }
    643            }
    644          
    645            /*
    646             * If this is an EndPoint-to-EndPoint message on the same device, it will not
    647             * get added to the NWK databufs. So it will not go OTA and it will not get
    648             * a MACCB_DATA_CONFIRM_CMD callback. Thus it is necessary to generate the
    649             * AF_DATA_CONFIRM_CMD here. Note that APSDE_DataConfirm() only generates one
    650             * message with the first in line TransSeqNumber, even on a multi message.
    651             * Also note that a reflected msg will not have its confirmation generated
    652             * here.
    653             */
    654            if ( (req.dstAddr.addrMode == Addr16Bit) &&
    655                 (req.dstAddr.addr.shortAddr == NLME_GetShortAddr()) )
   \                     ??AF_DataRequest_28:
   \   00030C   740A         MOV     A,#0xa
   \   00030E   12....       LCALL   ?XSTACK_DISP0_8
   \   000311   E0           MOVX    A,@DPTR
   \   000312   6402         XRL     A,#0x2
   \   000314   702E         JNZ     ??AF_DataRequest_29
   \   000316                ; Setup parameters for call to function NLME_GetShortAddr
   \   000316   12....       LCALL   ??NLME_GetShortAddr?relay
   \   000319   8A..         MOV     ?V0 + 6,R2
   \   00031B   8B..         MOV     ?V0 + 7,R3
   \   00031D   A8..         MOV     R0,?V0 + 6
   \   00031F   A9..         MOV     R1,?V0 + 7
   \   000321   7402         MOV     A,#0x2
   \   000323   12....       LCALL   ?XSTACK_DISP0_8
   \   000326   E0           MOVX    A,@DPTR
   \   000327   68           XRL     A,R0
   \   000328   7003         JNZ     ??AF_DataRequest_30
   \   00032A   A3           INC     DPTR
   \   00032B   E0           MOVX    A,@DPTR
   \   00032C   69           XRL     A,R1
   \                     ??AF_DataRequest_30:
   \   00032D   7015         JNZ     ??AF_DataRequest_29
    656            {
    657              afDataConfirm( srcEP->endPoint, *transID, stat );
   \   00032F                ; Setup parameters for call to function afDataConfirm
   \   00032F   EE           MOV     A,R6
   \   000330   FB           MOV     R3,A
   \   000331   85..82       MOV     DPL,?V0 + 4
   \   000334   85..83       MOV     DPH,?V0 + 5
   \   000337   E0           MOVX    A,@DPTR
   \   000338   FA           MOV     R2,A
   \   000339   85..82       MOV     DPL,?V0 + 0
   \   00033C   85..83       MOV     DPH,?V0 + 1
   \   00033F   E0           MOVX    A,@DPTR
   \   000340   F9           MOV     R1,A
   \   000341   12....       LCALL   ??afDataConfirm?relay
    658            }
    659          
    660            if ( stat == afStatus_SUCCESS )
   \                     ??AF_DataRequest_29:
   \   000344   EE           MOV     A,R6
   \   000345   7009         JNZ     ??AF_DataRequest_31
    661            {
    662              (*transID)++;
   \   000347   85..82       MOV     DPL,?V0 + 4
   \   00034A   85..83       MOV     DPH,?V0 + 5
   \   00034D   E0           MOVX    A,@DPTR
   \   00034E   04           INC     A
   \   00034F   F0           MOVX    @DPTR,A
    663            }
    664          
    665            return (afStatus_t)stat;
   \                     ??AF_DataRequest_31:
   \   000350   EE           MOV     A,R6
   \   000351   F9           MOV     R1,A
   \                     ??AF_DataRequest_3:
   \   000352   741E         MOV     A,#0x1e
   \   000354   12....       LCALL   ?DEALLOC_XSTACK8
   \   000357   7F0E         MOV     R7,#0xe
   \   000359   02....       LJMP    ?BANKED_LEAVE_XDATA
    666          }

   \                                 In  segment BANKED_CODE, align 1, keep-with-next
   \                     ?Subroutine11:
   \   000000   8E82         MOV     DPL,R6
   \   000002   8F83         MOV     DPH,R7
   \   000004                REQUIRE ??Subroutine30_0
   \   000004                ; // Fall through to label ??Subroutine30_0

   \                                 In  segment BANKED_CODE, align 1, keep-with-next
   \                     ?Subroutine25:
   \   000000   3400         ADDC    A,#0x0
   \   000002   F9           MOV     R1,A
   \   000003   8882         MOV     DPL,R0
   \   000005   8983         MOV     DPH,R1
   \   000007   E0           MOVX    A,@DPTR
   \   000008   22           RET

   \                                 In  segment BANKED_CODE, align 1, keep-with-next
   \                     ?Subroutine9:
   \   000000   F0           MOVX    @DPTR,A
   \   000001   8882         MOV     DPL,R0
   \   000003   8983         MOV     DPH,R1
   \   000005   E0           MOVX    A,@DPTR
   \   000006   6403         XRL     A,#0x3
   \   000008   22           RET
    667          
    668          #if defined ( ZIGBEE_SOURCE_ROUTING )
    669          /*********************************************************************
    670           * @fn      AF_DataRequestSrcRtg
    671           *
    672           * @brief   Common functionality for invoking APSDE_DataReq() for both
    673           *          SendMulti and MSG-Send.
    674           *
    675           * input parameters
    676           *
    677           * @param  *dstAddr - Full ZB destination address: Nwk Addr + End Point.
    678           * @param  *srcEP - Origination (i.e. respond to or ack to) End Point Descr.
    679           * @param   cID - A valid cluster ID as specified by the Profile.
    680           * @param   len - Number of bytes of data pointed to by next param.
    681           * @param  *buf - A pointer to the data bytes to send.
    682           * @param  *transID - A pointer to a byte which can be modified and which will
    683           *                    be used as the transaction sequence number of the msg.
    684           * @param   options - Valid bit mask of Tx options.
    685           * @param   radius - Normally set to AF_DEFAULT_RADIUS.
    686           * @param   relayCnt - Number of devices in the relay list
    687           * @param   pRelayList - Pointer to the relay list
    688           *
    689           * output parameters
    690           *
    691           * @param  *transID - Incremented by one if the return value is success.
    692           *
    693           * @return  afStatus_t - See previous definition of afStatus_... types.
    694           */
    695          

   \                                 In  segment BANKED_CODE, align 1, keep-with-next
    696          afStatus_t AF_DataRequestSrcRtg( afAddrType_t *dstAddr, endPointDesc_t *srcEP,
   \                     AF_DataRequestSrcRtg:
    697                                     uint16 cID, uint16 len, uint8 *buf, uint8 *transID,
    698                                     uint8 options, uint8 radius, uint8 relayCnt, uint16* pRelayList )
    699          {
   \   000000   74EC         MOV     A,#-0x14
   \   000002   12....       LCALL   ?BANKED_ENTER_XDATA
   \   000005                ; Saved register size: 20
   \   000005                ; Auto size: 0
   \   000005   EA           MOV     A,R2
   \   000006   FE           MOV     R6,A
   \   000007   EB           MOV     A,R3
   \   000008   FF           MOV     R7,A
   \   000009   8C..         MOV     ?V0 + 0,R4
   \   00000B   8D..         MOV     ?V0 + 1,R5
   \   00000D   89..         MOV     ?V0 + 2,R1
   \   00000F   7414         MOV     A,#0x14
   \   000011   12....       LCALL   ?XSTACK_DISP0_8
   \   000014   E0           MOVX    A,@DPTR
   \   000015   F5..         MOV     ?V0 + 10,A
   \   000017   A3           INC     DPTR
   \   000018   E0           MOVX    A,@DPTR
   \   000019   F5..         MOV     ?V0 + 11,A
   \   00001B   7416         MOV     A,#0x16
   \   00001D   12....       LCALL   ?XSTACK_DISP0_8
   \   000020   12....       LCALL   ?Subroutine17 & 0xFFFF
   \                     ??CrossCallReturnLabel_27:
   \   000023   7418         MOV     A,#0x18
   \   000025   12....       LCALL   ?XSTACK_DISP0_8
   \   000028   E0           MOVX    A,@DPTR
   \   000029   F5..         MOV     ?V0 + 6,A
   \   00002B   A3           INC     DPTR
   \   00002C   E0           MOVX    A,@DPTR
   \   00002D   F5..         MOV     ?V0 + 7,A
   \   00002F   741A         MOV     A,#0x1a
   \   000031   12....       LCALL   ?XSTACK_DISP0_8
   \   000034   E0           MOVX    A,@DPTR
   \   000035   F5..         MOV     ?V0 + 4,A
   \   000037   A3           INC     DPTR
   \   000038   E0           MOVX    A,@DPTR
   \   000039   F5..         MOV     ?V0 + 5,A
   \   00003B   741C         MOV     A,#0x1c
   \   00003D   12....       LCALL   ?XSTACK_DISP0_8
   \   000040   E0           MOVX    A,@DPTR
   \   000041   F5..         MOV     ?V0 + 3,A
   \   000043   741D         MOV     A,#0x1d
   \   000045   12....       LCALL   ?XSTACK_DISP0_8
   \   000048   E0           MOVX    A,@DPTR
   \   000049   F9           MOV     R1,A
   \   00004A   741E         MOV     A,#0x1e
   \   00004C   12....       LCALL   ?XSTACK_DISP0_8
   \   00004F   12....       LCALL   ?Subroutine21 & 0xFFFF
    700            uint8 status;
    701            
    702            /* Add the source route to the source routing table */
    703            status = RTG_AddSrcRtgEntry_Guaranteed( dstAddr->addr.shortAddr, relayCnt, 
    704                                                   pRelayList );
   \                     ??CrossCallReturnLabel_41:
   \   000052                ; Setup parameters for call to function RTG_AddSrcRtgEntry_Guaranteed
   \   000052   12....       LCALL   ?Subroutine11 & 0xFFFF
   \                     ??CrossCallReturnLabel_79:
   \   000055   12....       LCALL   ??RTG_AddSrcRtgEntry_Guaranteed?relay
   \   000058   E9           MOV     A,R1
    705          
    706            if( status == RTG_SUCCESS)
   \   000059   702D         JNZ     ??AF_DataRequestSrcRtg_0
    707            {
    708              /* Call AF_DataRequest to send the data */
    709              status = AF_DataRequest( dstAddr, srcEP, cID, len, buf, transID, options, radius );
   \   00005B                ; Setup parameters for call to function AF_DataRequest
   \   00005B   78..         MOV     R0,#?V0 + 3
   \   00005D   12....       LCALL   ?PUSH_XSTACK_I_ONE
   \   000060   78..         MOV     R0,#?V0 + 4
   \   000062   12....       LCALL   ?PUSH_XSTACK_I_TWO
   \   000065   78..         MOV     R0,#?V0 + 6
   \   000067   12....       LCALL   ?PUSH_XSTACK_I_TWO
   \   00006A   78..         MOV     R0,#?V0 + 8
   \   00006C   12....       LCALL   ?PUSH_XSTACK_I_TWO
   \   00006F   78..         MOV     R0,#?V0 + 10
   \   000071   12....       LCALL   ?PUSH_XSTACK_I_TWO
   \   000074   A9..         MOV     R1,?V0 + 2
   \   000076   AC..         MOV     R4,?V0 + 0
   \   000078   AD..         MOV     R5,?V0 + 1
   \   00007A   EE           MOV     A,R6
   \   00007B   FA           MOV     R2,A
   \   00007C   EF           MOV     A,R7
   \   00007D   FB           MOV     R3,A
   \   00007E   12....       LCALL   ??AF_DataRequest?relay
   \   000081   7409         MOV     A,#0x9
   \   000083   12....       LCALL   ?DEALLOC_XSTACK8
   \   000086   800B         SJMP    ??AF_DataRequestSrcRtg_1
    710            }
    711            else if( status == RTG_INVALID_PATH )
   \                     ??AF_DataRequestSrcRtg_0:
   \   000088   7405         MOV     A,#0x5
   \   00008A   69           XRL     A,R1
   \   00008B   7004         JNZ     ??AF_DataRequestSrcRtg_2
    712            {
    713              /* The source route relay count is exceeding the network limit */
    714              status = afStatus_INVALID_PARAMETER;
   \   00008D   7902         MOV     R1,#0x2
   \   00008F   8002         SJMP    ??AF_DataRequestSrcRtg_1
    715            }
    716            else
    717            {
    718              /* The guaranteed adding entry fails due to memory failure */
    719              status = afStatus_MEM_FAIL;
   \                     ??AF_DataRequestSrcRtg_2:
   \   000091   7910         MOV     R1,#0x10
    720            }
    721            return status;
   \                     ??AF_DataRequestSrcRtg_1:
   \   000093   7F0C         MOV     R7,#0xc
   \   000095   02....       LJMP    ?BANKED_LEAVE_XDATA
    722          }
    723          
    724          #endif
    725          
    726          /*********************************************************************
    727           * @fn      afFindEndPointDescList
    728           *
    729           * @brief   Find the endpoint description entry from the endpoint
    730           *          number.
    731           *
    732           * @param   EndPoint - Application Endpoint to look for
    733           *
    734           * @return  the address to the endpoint/interface description entry
    735           */

   \                                 In  segment BANKED_CODE, align 1, keep-with-next
    736          static epList_t *afFindEndPointDescList( byte EndPoint )
   \                     afFindEndPointDescList:
    737          {
   \   000000   C082         PUSH    DPL
   \   000002   C083         PUSH    DPH
   \   000004                ; Saved register size: 2
   \   000004                ; Auto size: 0
    738            epList_t *epSearch;
    739          
    740            // Start at the beginning
    741            epSearch = epList;
   \   000004   90....       MOV     DPTR,#epList
   \   000007   8009         SJMP    ??afFindEndPointDescList_0
    742          
    743            // Look through the list until the end
    744            while ( epSearch )
    745            {
    746              // Is there a match?
    747              if ( epSearch->epDesc->endPoint == EndPoint )
    748              {
    749                return ( epSearch );
    750              }
    751              else
    752                epSearch = epSearch->nextDesc;  // Next entry
   \                     ??afFindEndPointDescList_1:
   \   000009   8A82         MOV     DPL,R2
   \   00000B   8B83         MOV     DPH,R3
   \   00000D   A3           INC     DPTR
   \   00000E   A3           INC     DPTR
   \   00000F   A3           INC     DPTR
   \   000010   A3           INC     DPTR
   \   000011   A3           INC     DPTR
   \                     ??afFindEndPointDescList_0:
   \   000012   12....       LCALL   ??Subroutine30_0 & 0xFFFF
   \                     ??CrossCallReturnLabel_73:
   \   000015   EA           MOV     A,R2
   \   000016   7001         JNZ     ??afFindEndPointDescList_2
   \   000018   EB           MOV     A,R3
   \                     ??afFindEndPointDescList_2:
   \   000019   600D         JZ      ??afFindEndPointDescList_3
   \   00001B   8A82         MOV     DPL,R2
   \   00001D   8B83         MOV     DPH,R3
   \   00001F   12....       LCALL   ??Subroutine31_0 & 0xFFFF
   \                     ??CrossCallReturnLabel_81:
   \   000022   E0           MOVX    A,@DPTR
   \   000023   69           XRL     A,R1
   \   000024   70E3         JNZ     ??afFindEndPointDescList_1
   \   000026   8004         SJMP    ??afFindEndPointDescList_4
    753            }
    754          
    755            return ( (epList_t *)NULL );
   \                     ??afFindEndPointDescList_3:
   \   000028   7A00         MOV     R2,#0x0
   \   00002A   7B00         MOV     R3,#0x0
   \                     ??afFindEndPointDescList_4:
   \   00002C   02....       LJMP    ?Subroutine0 & 0xFFFF
    756          }
    757          
    758          /*********************************************************************
    759           * @fn      afFindEndPointDesc
    760           *
    761           * @brief   Find the endpoint description entry from the endpoint
    762           *          number.
    763           *
    764           * @param   EndPoint - Application Endpoint to look for
    765           *
    766           * @return  the address to the endpoint/interface description entry
    767           */

   \                                 In  segment BANKED_CODE, align 1, keep-with-next
    768          endPointDesc_t *afFindEndPointDesc( byte EndPoint )
   \                     afFindEndPointDesc:
    769          {
   \   000000   74F6         MOV     A,#-0xa
   \   000002   12....       LCALL   ?BANKED_ENTER_XDATA
   \   000005                ; Saved register size: 10
   \   000005                ; Auto size: 0
    770            epList_t *epSearch;
    771          
    772            // Look for the endpoint
    773            epSearch = afFindEndPointDescList( EndPoint );
   \   000005                ; Setup parameters for call to function afFindEndPointDescList
   \   000005   12....       LCALL   ?Subroutine23 & 0xFFFF
    774          
    775            if ( epSearch )
   \                     ??CrossCallReturnLabel_43:
   \   000008   7002         JNZ     ??afFindEndPointDesc_0
   \   00000A   E583         MOV     A,DPH
   \                     ??afFindEndPointDesc_0:
   \   00000C   6005         JZ      ??afFindEndPointDesc_1
    776              return ( epSearch->epDesc );
   \   00000E   12....       LCALL   ??Subroutine30_0 & 0xFFFF
   \                     ??CrossCallReturnLabel_74:
   \   000011   8004         SJMP    ??afFindEndPointDesc_2
    777            else
    778              return ( (endPointDesc_t *)NULL );
   \                     ??afFindEndPointDesc_1:
   \   000013   7A00         MOV     R2,#0x0
   \   000015   7B00         MOV     R3,#0x0
   \                     ??afFindEndPointDesc_2:
   \   000017   02....       LJMP    ?Subroutine2 & 0xFFFF
    779          }

   \                                 In  segment BANKED_CODE, align 1, keep-with-next
   \                     ?Subroutine23:
   \   000000   12....       LCALL   ??afFindEndPointDescList?relay
   \   000003   8A82         MOV     DPL,R2
   \   000005   8B83         MOV     DPH,R3
   \   000007   E582         MOV     A,DPL
   \   000009   22           RET
    780          
    781          /*********************************************************************
    782           * @fn      afFindSimpleDesc
    783           *
    784           * @brief   Find the Simple Descriptor from the endpoint number.
    785           *
    786           * @param   EP - Application Endpoint to look for.
    787           *
    788           * @return  Non-zero to indicate that the descriptor memory must be freed.
    789           */

   \                                 In  segment BANKED_CODE, align 1, keep-with-next
    790          byte afFindSimpleDesc( SimpleDescriptionFormat_t **ppDesc, byte EP )
   \                     afFindSimpleDesc:
    791          {
   \   000000   74F4         MOV     A,#-0xc
   \   000002   12....       LCALL   ?BANKED_ENTER_XDATA
   \   000005                ; Saved register size: 12
   \   000005                ; Auto size: 0
   \   000005   EA           MOV     A,R2
   \   000006   FE           MOV     R6,A
   \   000007   EB           MOV     A,R3
   \   000008   FF           MOV     R7,A
   \   000009   89..         MOV     ?V0 + 0,R1
    792            epList_t *epItem = afFindEndPointDescList( EP );
   \   00000B                ; Setup parameters for call to function afFindEndPointDescList
   \   00000B   12....       LCALL   ??afFindEndPointDescList?relay
   \   00000E   8A..         MOV     ?V0 + 2,R2
   \   000010   8B..         MOV     ?V0 + 3,R3
   \   000012   AC..         MOV     R4,?V0 + 2
   \   000014   AD..         MOV     R5,?V0 + 3
    793            byte rtrn = FALSE;
   \   000016   7900         MOV     R1,#0x0
    794          
    795            if ( epItem )
   \   000018   EC           MOV     A,R4
   \   000019   7001         JNZ     ??afFindSimpleDesc_0
   \   00001B   ED           MOV     A,R5
   \                     ??afFindSimpleDesc_0:
   \   00001C   603E         JZ      ??afFindSimpleDesc_1
    796            {
    797              if ( epItem->pfnDescCB )
   \   00001E   8C82         MOV     DPL,R4
   \   000020   8D83         MOV     DPH,R5
   \   000022   A3           INC     DPTR
   \   000023   A3           INC     DPTR
   \   000024   A3           INC     DPTR
   \   000025   E0           MOVX    A,@DPTR
   \   000026   7002         JNZ     ??afFindSimpleDesc_2
   \   000028   A3           INC     DPTR
   \   000029   E0           MOVX    A,@DPTR
   \                     ??afFindSimpleDesc_2:
   \   00002A   601A         JZ      ??afFindSimpleDesc_3
    798              {
    799                *ppDesc = epItem->pfnDescCB( AF_DESCRIPTOR_SIMPLE, EP );
   \   00002C                ; Setup parameters for indirect call
   \   00002C   AA..         MOV     R2,?V0 + 0
   \   00002E   09           INC     R1
   \   00002F   8C82         MOV     DPL,R4
   \   000031   8D83         MOV     DPH,R5
   \   000033   12....       LCALL   ?Subroutine16 & 0xFFFF
   \                     ??CrossCallReturnLabel_84:
   \   000036   12....       LCALL   ?CALL_IND
   \   000039   8E82         MOV     DPL,R6
   \   00003B   8F83         MOV     DPH,R7
   \   00003D   EA           MOV     A,R2
   \   00003E   F0           MOVX    @DPTR,A
   \   00003F   A3           INC     DPTR
   \   000040   EB           MOV     A,R3
   \   000041   F0           MOVX    @DPTR,A
    800                rtrn = TRUE;
   \   000042   7901         MOV     R1,#0x1
   \   000044   801E         SJMP    ??afFindSimpleDesc_4
    801              }
    802              else
    803              {
    804                *ppDesc = epItem->epDesc->simpleDesc;
   \                     ??afFindSimpleDesc_3:
   \   000046   8C82         MOV     DPL,R4
   \   000048   8D83         MOV     DPH,R5
   \   00004A   12....       LCALL   ??Subroutine27_0 & 0xFFFF
    805              }
    806            }
   \                     ??CrossCallReturnLabel_50:
   \   00004D   A3           INC     DPTR
   \   00004E   A3           INC     DPTR
   \   00004F   12....       LCALL   ??Subroutine30_0 & 0xFFFF
   \                     ??CrossCallReturnLabel_75:
   \   000052   8E82         MOV     DPL,R6
   \   000054   8F83         MOV     DPH,R7
   \   000056   EA           MOV     A,R2
   \   000057   F0           MOVX    @DPTR,A
   \   000058   A3           INC     DPTR
   \   000059   EB           MOV     A,R3
   \   00005A   8007         SJMP    ??afFindSimpleDesc_5
    807            else
    808            {
    809              *ppDesc = NULL;
   \                     ??afFindSimpleDesc_1:
   \   00005C   8E82         MOV     DPL,R6
   \   00005E   8F83         MOV     DPH,R7
   \   000060   E4           CLR     A
   \   000061   F0           MOVX    @DPTR,A
   \   000062   A3           INC     DPTR
   \                     ??afFindSimpleDesc_5:
   \   000063   F0           MOVX    @DPTR,A
    810            }
    811          
    812            return rtrn;
   \                     ??afFindSimpleDesc_4:
   \   000064   02....       LJMP    ?Subroutine1 & 0xFFFF
    813          }
    814          
    815          /*********************************************************************
    816           * @fn      afGetDescCB
    817           *
    818           * @brief   Get the Descriptor callback function.
    819           *
    820           * @param   epDesc - pointer to the endpoint descriptor
    821           *
    822           * @return  function pointer or NULL
    823           */
    824          static pDescCB afGetDescCB( endPointDesc_t *epDesc )
    825          {
    826            epList_t *epSearch;
    827          
    828            // Start at the beginning
    829            epSearch = epList;
    830          
    831            // Look through the list until the end
    832            while ( epSearch )
    833            {
    834              // Is there a match?
    835              if ( epSearch->epDesc == epDesc )
    836              {
    837                return ( epSearch->pfnDescCB );
    838              }
    839              else
    840                epSearch = epSearch->nextDesc;  // Next entry
    841            }
    842          
    843            return ( (pDescCB)NULL );
    844          }
    845          
    846          /*********************************************************************
    847           * @fn      afDataReqMTU
    848           *
    849           * @brief   Get the Data Request MTU(Max Transport Unit).
    850           *
    851           * @param   fields - afDataReqMTU_t
    852           *
    853           * @return  uint8(MTU)
    854           */

   \                                 In  segment BANKED_CODE, align 1, keep-with-next
    855          uint8 afDataReqMTU( afDataReqMTU_t* fields )
   \                     afDataReqMTU:
    856          {
   \   000000   74F7         MOV     A,#-0x9
   \   000002   12....       LCALL   ?BANKED_ENTER_XDATA
   \   000005                ; Saved register size: 9
   \   000005                ; Auto size: 0
    857            uint8 len;
    858            uint8 hdr;
    859          
    860            if ( fields->kvp == TRUE )
   \   000005   8A82         MOV     DPL,R2
   \   000007   8B83         MOV     DPH,R3
   \   000009   E0           MOVX    A,@DPTR
   \   00000A   6401         XRL     A,#0x1
   \   00000C   7004         JNZ     ??afDataReqMTU_0
    861            {
    862              hdr = AF_HDR_KVP_MAX_LEN;
   \   00000E   7E08         MOV     R6,#0x8
   \   000010   8002         SJMP    ??afDataReqMTU_1
    863            }
    864            else
    865            {
    866              hdr = AF_HDR_V1_1_MAX_LEN;
   \                     ??afDataReqMTU_0:
   \   000012   7E00         MOV     R6,#0x0
    867            }
    868          
    869            len = (uint8)(APSDE_DataReqMTU(&fields->aps) - hdr);
    870          
    871            return len;
   \                     ??afDataReqMTU_1:
   \   000014                ; Setup parameters for call to function APSDE_DataReqMTU
   \   000014   A3           INC     DPTR
   \   000015   AA82         MOV     R2,DPL
   \   000017   AB83         MOV     R3,DPH
   \   000019   12....       LCALL   ??APSDE_DataReqMTU?relay
   \   00001C   E9           MOV     A,R1
   \   00001D   C3           CLR     C
   \   00001E   9E           SUBB    A,R6
   \   00001F   F9           MOV     R1,A
   \   000020                REQUIRE ?Subroutine4
   \   000020                ; // Fall through to label ?Subroutine4
    872          }

   \                                 In  segment BANKED_CODE, align 1, keep-with-next
   \                     ?Subroutine4:
   \   000000   7F01         MOV     R7,#0x1
   \   000002   02....       LJMP    ?BANKED_LEAVE_XDATA
    873          
    874          /*********************************************************************
    875           * @fn      afGetMatch
    876           *
    877           * @brief   Set the allow response flag.
    878           *
    879           * @param   ep - Application Endpoint to look for
    880           * @param   action - true - allow response, false - no response
    881           *
    882           * @return  TRUE allow responses, FALSE no response
    883           */

   \                                 In  segment BANKED_CODE, align 1, keep-with-next
    884          uint8 afGetMatch( uint8 ep )
   \                     afGetMatch:
    885          {
   \   000000   74F6         MOV     A,#-0xa
   \   000002   12....       LCALL   ?BANKED_ENTER_XDATA
   \   000005                ; Saved register size: 10
   \   000005                ; Auto size: 0
    886            epList_t *epSearch;
    887          
    888            // Look for the endpoint
    889            epSearch = afFindEndPointDescList( ep );
   \   000005                ; Setup parameters for call to function afFindEndPointDescList
   \   000005   12....       LCALL   ?Subroutine23 & 0xFFFF
    890          
    891            if ( epSearch )
   \                     ??CrossCallReturnLabel_44:
   \   000008   7002         JNZ     ??afGetMatch_0
   \   00000A   E583         MOV     A,DPH
   \                     ??afGetMatch_0:
   \   00000C   600B         JZ      ??afGetMatch_1
    892            {
    893              if ( epSearch->flags & eEP_AllowMatch )
   \   00000E   A3           INC     DPTR
   \   00000F   A3           INC     DPTR
   \   000010   E0           MOVX    A,@DPTR
   \   000011   A2E0         MOV     C,0xE0 /* A   */.0
   \   000013   5004         JNC     ??afGetMatch_1
    894                return ( TRUE );
   \   000015   7901         MOV     R1,#0x1
   \   000017   8002         SJMP    ??afGetMatch_2
    895              else
    896                return ( FALSE );
   \                     ??afGetMatch_1:
   \   000019   7900         MOV     R1,#0x0
    897            }
   \                     ??afGetMatch_2:
   \   00001B                REQUIRE ?Subroutine2
   \   00001B                ; // Fall through to label ?Subroutine2
    898            else
    899              return ( FALSE );
    900          }
    901          
    902          /*********************************************************************
    903           * @fn      afSetMatch
    904           *
    905           * @brief   Set the allow response flag.
    906           *
    907           * @param   ep - Application Endpoint to look for
    908           * @param   action - true - allow response, false - no response
    909           *
    910           * @return  TRUE if success, FALSE if endpoint not found
    911           */

   \                                 In  segment BANKED_CODE, align 1, keep-with-next
    912          uint8 afSetMatch( uint8 ep, uint8 action )
   \                     afSetMatch:
    913          {
   \   000000   74F6         MOV     A,#-0xa
   \   000002   12....       LCALL   ?BANKED_ENTER_XDATA
   \   000005                ; Saved register size: 10
   \   000005                ; Auto size: 0
   \   000005   EA           MOV     A,R2
   \   000006   FF           MOV     R7,A
    914            epList_t *epSearch;
    915          
    916            // Look for the endpoint
    917            epSearch = afFindEndPointDescList( ep );
   \   000007                ; Setup parameters for call to function afFindEndPointDescList
   \   000007   12....       LCALL   ?Subroutine23 & 0xFFFF
    918          
    919            if ( epSearch )
   \                     ??CrossCallReturnLabel_45:
   \   00000A   7002         JNZ     ??afSetMatch_0
   \   00000C   E583         MOV     A,DPH
   \                     ??afSetMatch_0:
   \   00000E   6012         JZ      ??afSetMatch_1
    920            {
    921              if ( action )
   \   000010   EF           MOV     A,R7
   \   000011   A3           INC     DPTR
   \   000012   A3           INC     DPTR
   \   000013   6005         JZ      ??afSetMatch_2
    922              {
    923                epSearch->flags |= eEP_AllowMatch;
   \   000015   E0           MOVX    A,@DPTR
   \   000016   D2E0         SETB    0xE0 /* A   */.0
   \   000018   8003         SJMP    ??afSetMatch_3
    924              }
    925              else
    926              {
    927                epSearch->flags &= (eEP_AllowMatch ^ 0xFFFF);
   \                     ??afSetMatch_2:
   \   00001A   E0           MOVX    A,@DPTR
   \   00001B   C2E0         CLR     0xE0 /* A   */.0
   \                     ??afSetMatch_3:
   \   00001D   F0           MOVX    @DPTR,A
    928              }
    929              return ( TRUE );
   \   00001E   7901         MOV     R1,#0x1
   \   000020   8002         SJMP    ??afSetMatch_4
    930            }
    931            else
    932              return ( FALSE );
   \                     ??afSetMatch_1:
   \   000022   7900         MOV     R1,#0x0
   \                     ??afSetMatch_4:
   \   000024   80..         SJMP    ?Subroutine2
    933          }
    934          
    935          /*********************************************************************
    936           * @fn      afNumEndPoints
    937           *
    938           * @brief   Returns the number of endpoints defined (including 0)
    939           *
    940           * @param   none
    941           *
    942           * @return  number of endpoints
    943           */

   \                                 In  segment BANKED_CODE, align 1, keep-with-next
    944          byte afNumEndPoints( void )
   \                     afNumEndPoints:
    945          {
   \   000000   C082         PUSH    DPL
   \   000002   C083         PUSH    DPH
   \   000004                ; Saved register size: 2
   \   000004                ; Auto size: 0
    946            epList_t *epSearch;
    947            byte endpoints;
    948          
    949            // Start at the beginning
    950            epSearch = epList;
   \   000004   90....       MOV     DPTR,#epList
   \   000007   12....       LCALL   ?Subroutine18 & 0xFFFF
    951            endpoints = 0;
   \                     ??CrossCallReturnLabel_29:
   \   00000A   7900         MOV     R1,#0x0
   \   00000C   800D         SJMP    ??afNumEndPoints_0
    952          
    953            while ( epSearch )
    954            {
    955              endpoints++;
   \                     ??afNumEndPoints_1:
   \   00000E   09           INC     R1
    956              epSearch = epSearch->nextDesc;
   \   00000F   A3           INC     DPTR
   \   000010   A3           INC     DPTR
   \   000011   A3           INC     DPTR
   \   000012   A3           INC     DPTR
   \   000013   A3           INC     DPTR
   \   000014   12....       LCALL   ??Subroutine30_0 & 0xFFFF
    957            }
   \                     ??CrossCallReturnLabel_76:
   \   000017   8A82         MOV     DPL,R2
   \   000019   8B83         MOV     DPH,R3
   \                     ??afNumEndPoints_0:
   \   00001B   E582         MOV     A,DPL
   \   00001D   7002         JNZ     ??afNumEndPoints_2
   \   00001F   E583         MOV     A,DPH
   \                     ??afNumEndPoints_2:
   \   000021   70EB         JNZ     ??afNumEndPoints_1
    958          
    959            return ( endpoints );
   \   000023   02....       LJMP    ?Subroutine0 & 0xFFFF
    960          }
    961          
    962          /*********************************************************************
    963           * @fn      afEndPoints
    964           *
    965           * @brief   Fills in the passed in buffer with the endpoint (numbers).
    966           *          Use afNumEndPoints to find out how big a buffer to supply.
    967           *
    968           * @param   epBuf - pointer to mem used
    969           *
    970           * @return  void
    971           */

   \                                 In  segment BANKED_CODE, align 1, keep-with-next
    972          void afEndPoints( byte *epBuf, byte skipZDO )
   \                     afEndPoints:
    973          {
   \   000000   74F7         MOV     A,#-0x9
   \   000002   12....       LCALL   ?BANKED_ENTER_XDATA
   \   000005                ; Saved register size: 9
   \   000005                ; Auto size: 0
    974            epList_t *epSearch;
    975            byte endPoint;
    976          
    977            // Start at the beginning
    978            epSearch = epList;
   \   000005   90....       MOV     DPTR,#epList
   \   000008   8023         SJMP    ??afEndPoints_0
    979          
    980            while ( epSearch )
    981            {
    982              endPoint = epSearch->epDesc->endPoint;
   \                     ??afEndPoints_1:
   \   00000A   8C82         MOV     DPL,R4
   \   00000C   8D83         MOV     DPH,R5
   \   00000E   12....       LCALL   ??Subroutine31_0 & 0xFFFF
   \                     ??CrossCallReturnLabel_82:
   \   000011   E0           MOVX    A,@DPTR
   \   000012   FE           MOV     R6,A
    983          
    984              if ( !skipZDO || endPoint != 0 )
   \   000013   E9           MOV     A,R1
   \   000014   6003         JZ      ??afEndPoints_2
   \   000016   EE           MOV     A,R6
   \   000017   600B         JZ      ??afEndPoints_3
    985                *epBuf++ = endPoint;
   \                     ??afEndPoints_2:
   \   000019   EE           MOV     A,R6
   \   00001A   8A82         MOV     DPL,R2
   \   00001C   8B83         MOV     DPH,R3
   \   00001E   F0           MOVX    @DPTR,A
   \   00001F   A3           INC     DPTR
   \   000020   AA82         MOV     R2,DPL
   \   000022   AB83         MOV     R3,DPH
    986          
    987              epSearch = epSearch->nextDesc;
   \                     ??afEndPoints_3:
   \   000024   8C82         MOV     DPL,R4
   \   000026   8D83         MOV     DPH,R5
   \   000028   A3           INC     DPTR
   \   000029   A3           INC     DPTR
   \   00002A   A3           INC     DPTR
   \   00002B   A3           INC     DPTR
   \   00002C   A3           INC     DPTR
    988            }
   \                     ??afEndPoints_0:
   \   00002D   12....       LCALL   ?Subroutine21 & 0xFFFF
   \                     ??CrossCallReturnLabel_42:
   \   000030   EC           MOV     A,R4
   \   000031   7001         JNZ     ??afEndPoints_4
   \   000033   ED           MOV     A,R5
   \                     ??afEndPoints_4:
   \   000034   70D4         JNZ     ??afEndPoints_1
    989          }
   \   000036   02....       LJMP    ?Subroutine4 & 0xFFFF
    990          
    991          /*********************************************************************
    992           * @fn      afCopyAddress
    993           *
    994           * @brief   Fills in the passed in afAddrType_t parameter with the corresponding information
    995           *          from the zAddrType_t parameter. 
    996           *
    997           * @param   epBuf - pointer to mem used
    998           *
    999           * @return  void
   1000           */

   \                                 In  segment BANKED_CODE, align 1, keep-with-next
   1001          void afCopyAddress( afAddrType_t *afAddr, zAddrType_t *zAddr )
   \                     afCopyAddress:
   1002          {
   \   000000   74F7         MOV     A,#-0x9
   \   000002   12....       LCALL   ?BANKED_ENTER_XDATA
   \   000005                ; Saved register size: 9
   \   000005                ; Auto size: 0
   \   000005   EA           MOV     A,R2
   \   000006   FE           MOV     R6,A
   \   000007   EB           MOV     A,R3
   \   000008   FF           MOV     R7,A
   1003            afAddr->addrMode = (afAddrMode_t)zAddr->addrMode;
   \   000009   EC           MOV     A,R4
   \   00000A   2408         ADD     A,#0x8
   \   00000C   F8           MOV     R0,A
   \   00000D   ED           MOV     A,R5
   \   00000E   12....       LCALL   ?Subroutine25 & 0xFFFF
   \                     ??CrossCallReturnLabel_49:
   \   000011   8E82         MOV     DPL,R6
   \   000013   8F83         MOV     DPH,R7
   \   000015   A3           INC     DPTR
   \   000016   A3           INC     DPTR
   \   000017   A3           INC     DPTR
   \   000018   A3           INC     DPTR
   \   000019   A3           INC     DPTR
   \   00001A   A3           INC     DPTR
   \   00001B   A3           INC     DPTR
   \   00001C   A3           INC     DPTR
   \   00001D   12....       LCALL   ?Subroutine9 & 0xFFFF
   1004            if ( zAddr->addrMode == Addr64Bit )
   \                     ??CrossCallReturnLabel_15:
   \   000020   7005         JNZ     ??afCopyAddress_0
   1005            {
   1006              (void)osal_cpyExtAddr( afAddr->addr.extAddr, zAddr->addr.extAddr );
   \   000022                ; Setup parameters for call to function sAddrExtCpy
   \   000022   12....       LCALL   ??sAddrExtCpy?relay
   \   000025   800E         SJMP    ??CrossCallReturnLabel_11
   1007            }
   1008            else
   1009            {
   1010              afAddr->addr.shortAddr = zAddr->addr.shortAddr;
   \                     ??afCopyAddress_0:
   \   000027   8C82         MOV     DPL,R4
   \   000029   8D83         MOV     DPH,R5
   \   00002B   12....       LCALL   ?Subroutine19 & 0xFFFF
   1011            }
   \                     ??CrossCallReturnLabel_36:
   \   00002E   8E82         MOV     DPL,R6
   \   000030   8F83         MOV     DPH,R7
   \   000032   12....       LCALL   ?Subroutine7 & 0xFFFF
   1012          
   1013            // Since zAddrType_t has no INTER-PAN information, set the panId member to zero.
   1014            afAddr->panId = 0;
   \                     ??CrossCallReturnLabel_11:
   \   000035   8E82         MOV     DPL,R6
   \   000037   8F83         MOV     DPH,R7
   \   000039   A3           INC     DPTR
   \   00003A   A3           INC     DPTR
   \   00003B   A3           INC     DPTR
   \   00003C   A3           INC     DPTR
   \   00003D   A3           INC     DPTR
   \   00003E   A3           INC     DPTR
   \   00003F   A3           INC     DPTR
   \   000040   A3           INC     DPTR
   \   000041   A3           INC     DPTR
   \   000042   A3           INC     DPTR
   \   000043   E4           CLR     A
   \   000044   F0           MOVX    @DPTR,A
   \   000045   A3           INC     DPTR
   \   000046   F0           MOVX    @DPTR,A
   1015          }
   \   000047   02....       LJMP    ?Subroutine4 & 0xFFFF

   \                                 In  segment XDATA_ID, align 1, keep-with-next
   \                     `?<Initializer for AF_DataRequestDiscoverRoute>`:
   \   000000   01           DB 1

   \                                 In  segment BANK_RELAYS, align 1
   \                     ??afInit?relay:
   \   000000   12....       LCALL   ?BDISPATCH
   \   000003   ......       DC24    afInit

   \                                 In  segment BANK_RELAYS, align 1
   \                     ??afRegisterExtended?relay:
   \   000000   12....       LCALL   ?BDISPATCH
   \   000003   ......       DC24    afRegisterExtended

   \                                 In  segment BANK_RELAYS, align 1
   \                     ??afRegister?relay:
   \   000000   12....       LCALL   ?BDISPATCH
   \   000003   ......       DC24    afRegister

   \                                 In  segment BANK_RELAYS, align 1
   \                     ??afDataConfirm?relay:
   \   000000   12....       LCALL   ?BDISPATCH
   \   000003   ......       DC24    afDataConfirm

   \                                 In  segment BANK_RELAYS, align 1
   \                     ??afIncomingData?relay:
   \   000000   12....       LCALL   ?BDISPATCH
   \   000003   ......       DC24    afIncomingData

   \                                 In  segment BANK_RELAYS, align 1
   \                     ??afBuildMSGIncoming?relay:
   \   000000   12....       LCALL   ?BDISPATCH
   \   000003   ......       DC24    afBuildMSGIncoming

   \                                 In  segment BANK_RELAYS, align 1
   \                     ??AF_DataRequest?relay:
   \   000000   12....       LCALL   ?BDISPATCH
   \   000003   ......       DC24    AF_DataRequest

   \                                 In  segment BANK_RELAYS, align 1
   \                     ??AF_DataRequestSrcRtg?relay:
   \   000000   12....       LCALL   ?BDISPATCH
   \   000003   ......       DC24    AF_DataRequestSrcRtg

   \                                 In  segment BANK_RELAYS, align 1
   \                     ??afFindEndPointDescList?relay:
   \   000000   12....       LCALL   ?BDISPATCH
   \   000003   ......       DC24    afFindEndPointDescList

   \                                 In  segment BANK_RELAYS, align 1
   \                     ??afFindEndPointDesc?relay:
   \   000000   12....       LCALL   ?BDISPATCH
   \   000003   ......       DC24    afFindEndPointDesc

   \                                 In  segment BANK_RELAYS, align 1
   \                     ??afFindSimpleDesc?relay:
   \   000000   12....       LCALL   ?BDISPATCH
   \   000003   ......       DC24    afFindSimpleDesc

   \                                 In  segment BANK_RELAYS, align 1
   \                     ??afDataReqMTU?relay:
   \   000000   12....       LCALL   ?BDISPATCH
   \   000003   ......       DC24    afDataReqMTU

   \                                 In  segment BANK_RELAYS, align 1
   \                     ??afGetMatch?relay:
   \   000000   12....       LCALL   ?BDISPATCH
   \   000003   ......       DC24    afGetMatch

   \                                 In  segment BANK_RELAYS, align 1
   \                     ??afSetMatch?relay:
   \   000000   12....       LCALL   ?BDISPATCH
   \   000003   ......       DC24    afSetMatch

   \                                 In  segment BANK_RELAYS, align 1
   \                     ??afNumEndPoints?relay:
   \   000000   12....       LCALL   ?BDISPATCH
   \   000003   ......       DC24    afNumEndPoints

   \                                 In  segment BANK_RELAYS, align 1
   \                     ??afEndPoints?relay:
   \   000000   12....       LCALL   ?BDISPATCH
   \   000003   ......       DC24    afEndPoints

   \                                 In  segment BANK_RELAYS, align 1
   \                     ??afCopyAddress?relay:
   \   000000   12....       LCALL   ?BDISPATCH
   \   000003   ......       DC24    afCopyAddress
   1016          
   1017          /*********************************************************************
   1018          *********************************************************************/
   1019          

   Maximum stack usage in bytes:

     Function                       ISTACK PSTACK XSTACK
     --------                       ------ ------ ------
     AF_DataRequest                     1      0     81
       -> NLME_GetShortAddr             0      0    104
       -> RTG_CheckRtStatus             0      0    104
       -> NLME_IsAddressBroadcast       0      0    104
       -> sAddrExtCpy                   0      0    104
       -> osal_mem_free                 0      0    104
       -> afDataReqMTU                  0      0    104
       -> APSDE_DataReq                 0      0    104
       -> NLME_GetShortAddr             0      0    104
       -> afDataConfirm                 0      0    104
     AF_DataRequestSrcRtg               0      0     41
       -> RTG_AddSrcRtgEntry_Guaranteed
                                        0      0     40
       -> AF_DataRequest                0      0     58
     afBuildMSGIncoming                 1      0     65
       -> osal_msg_allocate             0      0     50
       -> afCopyAddress                 0      0     50
       -> osal_memcpy                   0      0     56
       -> osal_msg_send                 0      0     50
     afCopyAddress                      1      0     34
       -> sAddrExtCpy                   0      0     18
     afDataConfirm                      1      0     66
       -> afFindEndPointDesc            0      0     28
       -> osal_msg_allocate             0      0     28
       -> osal_msg_send                 0      0     28
     afDataReqMTU                       0      0     61
       -> APSDE_DataReqMTU              0      0     18
     afEndPoints                        1      0      9
     afFindEndPointDesc                 0      0     37
       -> afFindEndPointDescList        0      0     20
     afFindEndPointDescList             2      0     27
     afFindSimpleDesc                   0      0     12
       -> afFindEndPointDescList        0      0     24
     afGetMatch                         0      0     10
       -> afFindEndPointDescList        0      0     20
     afIncomingData                     1      0     45
       -> aps_FindGroupForEndpoint      0      0     54
       -> afFindEndPointDesc            0      0     54
       -> afFindEndPointDescList        0      0     54
       -> afFindEndPointDesc            0      0     54
       -> aps_FindGroupForEndpoint      0      0     54
       -> afFindEndPointDesc            0      0     54
       -> afFindEndPointDescList        0      0     54
       -> osal_mem_free                 0      0     54
       -> afBuildMSGIncoming            0      0     74
     afInit                             2      0      0
     afNumEndPoints                     2      0      0
     afRegister                         0      0     10
       -> afFindEndPointDescList        0      0     20
       -> afRegisterExtended            0      0     20
     afRegisterExtended                 1      0     22
       -> osal_mem_alloc                0      0     24
     afSetMatch                         0      0     10
       -> afFindEndPointDescList        0      0     20


   Segment part sizes:

     Function/Label                                 Bytes
     --------------                                 -----
     epList                                            2
     afInit                                           11
     ?Subroutine0                                      7
     afRegisterExtended                              103
     ?Subroutine1                                      5
     ?Subroutine5                                      9
     ?Subroutine18                                    10
     afRegister                                       54
     ?Subroutine2                                      5
     afDataConfirm                                    78
     ?Subroutine12                                    10
     ?Subroutine26                                     9
     afIncomingData                                  478
     ?Subroutine3                                      8
     ?Subroutine24                                    13
     ?Subroutine20                                    14
     ?Subroutine15                                     3
     ??Subroutine27_0                                  5
     ?Subroutine10                                    20
     ?Subroutine14                                     8
     ?Subroutine16                                     3
     ??Subroutine31_0                                  4
     afBuildMSGIncoming                              458
     ?Subroutine22                                     3
     ??Subroutine28_0                                  3
     ??Subroutine29_0                                  5
     ?Subroutine13                                    12
     ?Subroutine8                                      9
     ?Subroutine6                                     12
     ?Subroutine19                                     6
     ?Subroutine17                                     8
     ?Subroutine7                                      6
     ?Subroutine21                                     6
     ??Subroutine30_0                                  6
     AF_DataRequestDiscoverRoute                       1
     AF_DataRequest                                  860
     ?Subroutine11                                     4
     ?Subroutine25                                     9
     ?Subroutine9                                      9
     AF_DataRequestSrcRtg                            152
     afFindEndPointDescList                           47
     afFindEndPointDesc                               26
     ?Subroutine23                                    10
     afFindSimpleDesc                                103
     afDataReqMTU                                     32
     ?Subroutine4                                      5
     afGetMatch                                       27
     afSetMatch                                       38
     afNumEndPoints                                   38
     afEndPoints                                      57
     afCopyAddress                                    74
     ?<Initializer for AF_DataRequestDiscoverRoute>    1
     ??afInit?relay                                    6
     ??afRegisterExtended?relay                        6
     ??afRegister?relay                                6
     ??afDataConfirm?relay                             6
     ??afIncomingData?relay                            6
     ??afBuildMSGIncoming?relay                        6
     ??AF_DataRequest?relay                            6
     ??AF_DataRequestSrcRtg?relay                      6
     ??afFindEndPointDescList?relay                    6
     ??afFindEndPointDesc?relay                        6
     ??afFindSimpleDesc?relay                          6
     ??afDataReqMTU?relay                              6
     ??afGetMatch?relay                                6
     ??afSetMatch?relay                                6
     ??afNumEndPoints?relay                            6
     ??afEndPoints?relay                               6
     ??afCopyAddress?relay                             6

 
 2 882 bytes in segment BANKED_CODE
   102 bytes in segment BANK_RELAYS
     1 byte  in segment XDATA_I
     1 byte  in segment XDATA_ID
     2 bytes in segment XDATA_Z
 
 2 985 bytes of CODE  memory
     3 bytes of XDATA memory

Errors: none
Warnings: none
