///////////////////////////////////////////////////////////////////////////////
//                                                                            /
// IAR C/C++ Compiler V7.60.1.40026 for 8051            05/Apr/2014  17:47:28 /
// Copyright (C) 2004-2010 IAR Systems AB.                                    /
//                                                                            /
//    Core               =  plain                                             /
//    Code model         =  banked                                            /
//    Data model         =  large                                             /
//    Calling convention =  xdata reentrant                                   /
//    Constant location  =  data_rom                                          /
//    Dptr setup         =  1,16                                              /
//    Source file        =  D:\zigbee\projects\zstack-cc2530-coordinator\Comp /
//                          onents\hal\target\CC2530EB\hal_uart.c             /
//    Command line       =  -f D:\zigbee\projects\zstack-cc2530-coordinator\P /
//                          rojects\zstack\Samples\GenericApp\CC2530DB\..\..\ /
//                          ..\Tools\CC2530DB\f8wEndev.cfg (-DCPU32MHZ        /
//                          -DROOT=__near_func -DMAC_CFG_TX_DATA_MAX=3        /
//                          -DMAC_CFG_TX_MAX=6 -DMAC_CFG_RX_MAX=3) -f         /
//                          D:\zigbee\projects\zstack-cc2530-coordinator\Proj /
//                          ects\zstack\Samples\GenericApp\CC2530DB\..\..\..\ /
//                          Tools\CC2530DB\f8wConfig.cfg (-DZIGBEEPRO         /
//                          -DSECURE=0 -DZG_SECURE_DYNAMIC=0 -DREFLECTOR      /
//                          -DDEFAULT_CHANLIST=0x00000800                     /
//                          -DZDAPP_CONFIG_PAN_ID=0xFFFF                      /
//                          -DNWK_START_DELAY=100 -DEXTENDED_JOINING_RANDOM_M /
//                          ASK=0x007F -DBEACON_REQUEST_DELAY=100             /
//                          -DBEACON_REQ_DELAY_MASK=0x00FF                    /
//                          -DLINK_STATUS_JITTER_MASK=0x007F                  /
//                          -DROUTE_EXPIRY_TIME=30 -DAPSC_ACK_WAIT_DURATION_P /
//                          OLLED=3000 -DNWK_INDIRECT_MSG_TIMEOUT=7           /
//                          -DMAX_RREQ_ENTRIES=8 -DAPSC_MAX_FRAME_RETRIES=3   /
//                          -DNWK_MAX_DATA_RETRIES=2                          /
//                          -DMAX_POLL_FAILURE_RETRIES=2 -DMAX_BCAST=9        /
//                          -DAPS_MAX_GROUPS=16 -DMAX_RTG_ENTRIES=40          /
//                          -DNWK_MAX_BINDING_ENTRIES=4                       /
//                          -DMAX_BINDING_CLUSTER_IDS=4                       /
//                          "-DDEFAULT_KEY={0x01, 0x03, 0x05, 0x07, 0x09,     /
//                          0x0B, 0x0D, 0x0F, 0x00, 0x02, 0x04, 0x06, 0x08,   /
//                          0x0A, 0x0C, 0x0D}" -DMAC_MAX_FRAME_SIZE=116       /
//                          -DZDNWKMGR_MIN_TRANSMISSIONS=20 "-DCONST=const    /
//                          __code" -DGENERIC=__generic                       /
//                          -DRFD_RCVC_ALWAYS_ON=FALSE -DPOLL_RATE=1000       /
//                          -DQUEUED_POLL_RATE=100 -DRESPONSE_POLL_RATE=100)  /
//                          -DREJOIN_POLL_RATE=440 D:\zigbee\projects\zstack- /
//                          cc2530-coordinator\Components\hal\target\CC2530EB /
//                          \hal_uart.c -D NWK_AUTO_POLL -D ZTOOL_P1 -D       /
//                          MT_TASK -D MT_SYS_FUNC -D MT_ZDO_FUNC -D          /
//                          LCD_SUPPORTED=DEBUG -D xPOWER_SAVING -lC          /
//                          D:\zigbee\projects\zstack-cc2530-coordinator\Proj /
//                          ects\zstack\Samples\GenericApp\CC2530DB\EndDevice /
//                          EB\List\ -lA D:\zigbee\projects\zstack-cc2530-coo /
//                          rdinator\Projects\zstack\Samples\GenericApp\CC253 /
//                          0DB\EndDeviceEB\List\ --diag_suppress             /
//                          Pe001,Pa010 -o D:\zigbee\projects\zstack-cc2530-c /
//                          oordinator\Projects\zstack\Samples\GenericApp\CC2 /
//                          530DB\EndDeviceEB\Obj\ -e --require_prototypes    /
//                          --no_code_motion --debug --core=plain             /
//                          --dptr=16,1 --data_model=large                    /
//                          --code_model=banked --calling_convention=xdata_re /
//                          entrant --place_constants=data_rom                /
//                          --nr_virtual_regs 16 -I                           /
//                          D:\zigbee\projects\zstack-cc2530-coordinator\Proj /
//                          ects\zstack\Samples\GenericApp\CC2530DB\ -I       /
//                          D:\zigbee\projects\zstack-cc2530-coordinator\Proj /
//                          ects\zstack\Samples\GenericApp\CC2530DB\..\Source /
//                          \ -I D:\zigbee\projects\zstack-cc2530-coordinator /
//                          \Projects\zstack\Samples\GenericApp\CC2530DB\..\. /
//                          .\..\ZMain\TI2530DB\ -I                           /
//                          D:\zigbee\projects\zstack-cc2530-coordinator\Proj /
//                          ects\zstack\Samples\GenericApp\CC2530DB\..\..\..\ /
//                          ..\..\Components\hal\include\ -I                  /
//                          D:\zigbee\projects\zstack-cc2530-coordinator\Proj /
//                          ects\zstack\Samples\GenericApp\CC2530DB\..\..\..\ /
//                          ..\..\Components\hal\target\CC2530EB\ -I          /
//                          D:\zigbee\projects\zstack-cc2530-coordinator\Proj /
//                          ects\zstack\Samples\GenericApp\CC2530DB\..\..\..\ /
//                          ..\..\Components\mac\include\ -I                  /
//                          D:\zigbee\projects\zstack-cc2530-coordinator\Proj /
//                          ects\zstack\Samples\GenericApp\CC2530DB\..\..\..\ /
//                          ..\..\Components\mac\high_level\ -I               /
//                          D:\zigbee\projects\zstack-cc2530-coordinator\Proj /
//                          ects\zstack\Samples\GenericApp\CC2530DB\..\..\..\ /
//                          ..\..\Components\mac\low_level\srf04\ -I          /
//                          D:\zigbee\projects\zstack-cc2530-coordinator\Proj /
//                          ects\zstack\Samples\GenericApp\CC2530DB\..\..\..\ /
//                          ..\..\Components\mac\low_level\srf04\single_chip\ /
//                           -I D:\zigbee\projects\zstack-cc2530-coordinator\ /
//                          Projects\zstack\Samples\GenericApp\CC2530DB\..\.. /
//                          \..\..\..\Components\mt\ -I                       /
//                          D:\zigbee\projects\zstack-cc2530-coordinator\Proj /
//                          ects\zstack\Samples\GenericApp\CC2530DB\..\..\..\ /
//                          ..\..\Components\osal\include\ -I                 /
//                          D:\zigbee\projects\zstack-cc2530-coordinator\Proj /
//                          ects\zstack\Samples\GenericApp\CC2530DB\..\..\..\ /
//                          ..\..\Components\osal\mcu\ccsoc\ -I               /
//                          D:\zigbee\projects\zstack-cc2530-coordinator\Proj /
//                          ects\zstack\Samples\GenericApp\CC2530DB\..\..\..\ /
//                          ..\..\Components\services\saddr\ -I               /
//                          D:\zigbee\projects\zstack-cc2530-coordinator\Proj /
//                          ects\zstack\Samples\GenericApp\CC2530DB\..\..\..\ /
//                          ..\..\Components\services\sdata\ -I               /
//                          D:\zigbee\projects\zstack-cc2530-coordinator\Proj /
//                          ects\zstack\Samples\GenericApp\CC2530DB\..\..\..\ /
//                          ..\..\Components\stack\af\ -I                     /
//                          D:\zigbee\projects\zstack-cc2530-coordinator\Proj /
//                          ects\zstack\Samples\GenericApp\CC2530DB\..\..\..\ /
//                          ..\..\Components\stack\nwk\ -I                    /
//                          D:\zigbee\projects\zstack-cc2530-coordinator\Proj /
//                          ects\zstack\Samples\GenericApp\CC2530DB\..\..\..\ /
//                          ..\..\Components\stack\sapi\ -I                   /
//                          D:\zigbee\projects\zstack-cc2530-coordinator\Proj /
//                          ects\zstack\Samples\GenericApp\CC2530DB\..\..\..\ /
//                          ..\..\Components\stack\sec\ -I                    /
//                          D:\zigbee\projects\zstack-cc2530-coordinator\Proj /
//                          ects\zstack\Samples\GenericApp\CC2530DB\..\..\..\ /
//                          ..\..\Components\stack\sys\ -I                    /
//                          D:\zigbee\projects\zstack-cc2530-coordinator\Proj /
//                          ects\zstack\Samples\GenericApp\CC2530DB\..\..\..\ /
//                          ..\..\Components\stack\zdo\ -I                    /
//                          D:\zigbee\projects\zstack-cc2530-coordinator\Proj /
//                          ects\zstack\Samples\GenericApp\CC2530DB\..\..\..\ /
//                          ..\..\Components\zmac\ -I                         /
//                          D:\zigbee\projects\zstack-cc2530-coordinator\Proj /
//                          ects\zstack\Samples\GenericApp\CC2530DB\..\..\..\ /
//                          ..\..\Components\zmac\f8w\ -I "C:\Program Files   /
//                          (x86)\IAR Systems\Embedded Workbench              /
//                          5.4\8051\INC\" -I "C:\Program Files (x86)\IAR     /
//                          Systems\Embedded Workbench 5.4\8051\INC\CLIB\"    /
//                          -Ohz                                              /
//    List file          =  D:\zigbee\projects\zstack-cc2530-coordinator\Proj /
//                          ects\zstack\Samples\GenericApp\CC2530DB\EndDevice /
//                          EB\List\hal_uart.s51                              /
//                                                                            /
//                                                                            /
///////////////////////////////////////////////////////////////////////////////

        NAME hal_uart

        RTMODEL "__calling_convention", "xdata_reentrant"
        RTMODEL "__code_model", "banked"
        RTMODEL "__core", "plain"
        RTMODEL "__data_model", "large"
        RTMODEL "__dptr_size", "16"
        RTMODEL "__extended_stack", "disabled"
        RTMODEL "__location_for_constants", "data"
        RTMODEL "__number_of_dptrs", "1"
        RTMODEL "__rt_version", "1"

        RSEG DOVERLAY:DATA:NOROOT(0)
        RSEG IOVERLAY:IDATA:NOROOT(0)
        RSEG ISTACK:IDATA:NOROOT(0)
        RSEG PSTACK:XDATA:NOROOT(0)
        RSEG XSTACK:XDATA:NOROOT(0)

        EXTERN ?BANKED_ENTER_XDATA
        EXTERN ?BANKED_LEAVE_XDATA
        EXTERN ?BDISPATCH
        EXTERN ?BRET
        EXTERN ?CALL_IND
        EXTERN ?UC_SWITCH_DENSE
        EXTERN ?V0
        EXTERN __INIT_XDATA_Z

        PUBLIC ??HalUARTInit?relay
        FUNCTION ??HalUARTInit?relay,0203H
        PUBLIC ??HalUARTOpen?relay
        FUNCTION ??HalUARTOpen?relay,0203H
        PUBLIC ??HalUARTPoll?relay
        FUNCTION ??HalUARTPoll?relay,0203H
        FUNCTION ??HalUARTPollISR?relay,0203H
        PUBLIC ??HalUARTRead?relay
        FUNCTION ??HalUARTRead?relay,0203H
        PUBLIC ??HalUARTReadISR?relay
        FUNCTION ??HalUARTReadISR?relay,0203H
        PUBLIC ??HalUARTResume?relay
        FUNCTION ??HalUARTResume?relay,0203H
        PUBLIC ??HalUARTSuspend?relay
        FUNCTION ??HalUARTSuspend?relay,0203H
        PUBLIC ??HalUARTWrite?relay
        FUNCTION ??HalUARTWrite?relay,0203H
        PUBLIC ??HalUARTWriteISR?relay
        FUNCTION ??HalUARTWriteISR?relay,0203H
        PUBLIC ??Hal_UART_RxBufLen?relay
        FUNCTION ??Hal_UART_RxBufLen?relay,0203H
        PUBWEAK `??halUart0RxIsr??INTVEC 19`
        PUBWEAK `??halUart0TxIsr??INTVEC 59`
        PUBWEAK ADCCFG
        PUBLIC HalUARTInit
        FUNCTION HalUARTInit,0203H
        ARGFRAME XSTACK, 0, STACK
        PUBLIC HalUARTOpen
        FUNCTION HalUARTOpen,080203H
        ARGFRAME XSTACK, 0, STACK
        LOCFRAME ISTACK, 2, STACK
        PUBLIC HalUARTPoll
        FUNCTION HalUARTPoll,021203H
        ARGFRAME XSTACK, 0, STACK
        LOCFRAME ISTACK, 2, STACK
        FUNCTION HalUARTPollISR,0203H
        ARGFRAME XSTACK, 0, STACK
        ARGFRAME IOVERLAY, 0, STATIC
        ARGFRAME DOVERLAY, 0, STATIC
        LOCFRAME ISTACK, 3, STACK
        PUBLIC HalUARTRead
        FUNCTION HalUARTRead,021203H
        ARGFRAME XSTACK, 0, STACK
        LOCFRAME XSTACK, 9, STACK
        PUBLIC HalUARTReadISR
        FUNCTION HalUARTReadISR,0203H
        ARGFRAME XSTACK, 9, STACK
        ARGFRAME IOVERLAY, 0, STATIC
        ARGFRAME DOVERLAY, 0, STATIC
        LOCFRAME ISTACK, 1, STACK
        LOCFRAME XSTACK, 9, STACK
        PUBLIC HalUARTResume
        FUNCTION HalUARTResume,0203H
        ARGFRAME XSTACK, 0, STACK
        PUBLIC HalUARTSuspend
        FUNCTION HalUARTSuspend,0203H
        ARGFRAME XSTACK, 0, STACK
        PUBLIC HalUARTWrite
        FUNCTION HalUARTWrite,021203H
        ARGFRAME XSTACK, 0, STACK
        LOCFRAME XSTACK, 9, STACK
        PUBLIC HalUARTWriteISR
        FUNCTION HalUARTWriteISR,0203H
        ARGFRAME XSTACK, 9, STACK
        ARGFRAME IOVERLAY, 0, STATIC
        ARGFRAME DOVERLAY, 0, STATIC
        LOCFRAME ISTACK, 1, STACK
        LOCFRAME XSTACK, 9, STACK
        PUBLIC Hal_UART_RxBufLen
        FUNCTION Hal_UART_RxBufLen,0203H
        ARGFRAME XSTACK, 0, STACK
        LOCFRAME ISTACK, 3, STACK
        PUBWEAK IEN2
        PUBWEAK P0SEL
        PUBWEAK P2DIR
        PUBWEAK PERCFG
        PUBWEAK ST0
        PUBWEAK U0BAUD
        PUBWEAK U0CSR
        PUBWEAK U0DBUF
        PUBWEAK U0GCR
        PUBWEAK U0UCR
        PUBWEAK _A_IEN0
        PUBWEAK _A_IRCON2
        PUBLIC halUart0RxIsr
        FUNCTION halUart0RxIsr,0233H
        ARGFRAME XSTACK, 0, STACK
        LOCFRAME ISTACK, 8, STACK
        PUBLIC halUart0TxIsr
        FUNCTION halUart0TxIsr,0233H
        ARGFRAME XSTACK, 0, STACK
        LOCFRAME ISTACK, 7, STACK
        PUBLIC putchar
        FUNCTION putchar,0203H
        ARGFRAME XSTACK, 0, STACK
        
        CFI Names cfiNames0
        CFI StackFrame CFA_SP SP IDATA
        CFI StackFrame CFA_PSP16 PSP16 XDATA
        CFI StackFrame CFA_XSP16 XSP16 XDATA
        CFI StaticOverlayFrame CFA_IOVERLAY IOVERLAY
        CFI StaticOverlayFrame CFA_DOVERLAY DOVERLAY
        CFI Resource `PSW.CY`:1, `B.BR0`:1, `B.BR1`:1, `B.BR2`:1, `B.BR3`:1
        CFI Resource `B.BR4`:1, `B.BR5`:1, `B.BR6`:1, `B.BR7`:1, `VB.BR8`:1
        CFI Resource `VB.BR9`:1, `VB.BR10`:1, `VB.BR11`:1, `VB.BR12`:1
        CFI Resource `VB.BR13`:1, `VB.BR14`:1, `VB.BR15`:1, VB:8, B:8, A:8
        CFI Resource PSW:8, DPL0:8, DPH0:8, R0:8, R1:8, R2:8, R3:8, R4:8, R5:8
        CFI Resource R6:8, R7:8, V0:8, V1:8, V2:8, V3:8, V4:8, V5:8, V6:8, V7:8
        CFI Resource V8:8, V9:8, V10:8, V11:8, V12:8, V13:8, V14:8, V15:8, SP:8
        CFI Resource PSPH:8, PSPL:8, PSP16:16, XSPH:8, XSPL:8, XSP16:16
        CFI VirtualResource ?RET:24
        CFI Resource ?BRET_EXT:8
        CFI VirtualResource ?RET_HIGH:8, ?RET_LOW:8
        CFI ResourceParts PSP16 PSPH, PSPL
        CFI ResourceParts XSP16 XSPH, XSPL
        CFI ResourceParts ?RET ?BRET_EXT, ?RET_HIGH, ?RET_LOW
        CFI EndNames cfiNames0
        
        CFI Common cfiCommon0 Using cfiNames0
        CFI CodeAlign 1
        CFI DataAlign -1
        CFI ReturnAddress ?RET CODE
        CFI CFA_DOVERLAY Used
        CFI CFA_IOVERLAY Used
        CFI CFA_SP SP+-3
        CFI CFA_PSP16 PSP16+0
        CFI CFA_XSP16 XSP16+0
        CFI `PSW.CY` SameValue
        CFI `B.BR0` SameValue
        CFI `B.BR1` SameValue
        CFI `B.BR2` SameValue
        CFI `B.BR3` SameValue
        CFI `B.BR4` SameValue
        CFI `B.BR5` SameValue
        CFI `B.BR6` SameValue
        CFI `B.BR7` SameValue
        CFI `VB.BR8` SameValue
        CFI `VB.BR9` SameValue
        CFI `VB.BR10` SameValue
        CFI `VB.BR11` SameValue
        CFI `VB.BR12` SameValue
        CFI `VB.BR13` SameValue
        CFI `VB.BR14` SameValue
        CFI `VB.BR15` SameValue
        CFI VB SameValue
        CFI B Undefined
        CFI A Undefined
        CFI PSW SameValue
        CFI DPL0 SameValue
        CFI DPH0 SameValue
        CFI R0 Undefined
        CFI R1 Undefined
        CFI R2 Undefined
        CFI R3 Undefined
        CFI R4 Undefined
        CFI R5 Undefined
        CFI R6 SameValue
        CFI R7 SameValue
        CFI V0 SameValue
        CFI V1 SameValue
        CFI V2 SameValue
        CFI V3 SameValue
        CFI V4 SameValue
        CFI V5 SameValue
        CFI V6 SameValue
        CFI V7 SameValue
        CFI V8 SameValue
        CFI V9 SameValue
        CFI V10 SameValue
        CFI V11 SameValue
        CFI V12 SameValue
        CFI V13 SameValue
        CFI V14 SameValue
        CFI V15 SameValue
        CFI PSPH Undefined
        CFI PSPL Undefined
        CFI XSPH Undefined
        CFI XSPL Undefined
        CFI ?RET Concat
        CFI ?BRET_EXT Frame(CFA_SP, 3)
        CFI ?RET_HIGH Frame(CFA_SP, 2)
        CFI ?RET_LOW Frame(CFA_SP, 1)
        CFI EndCommon cfiCommon0
        
        
        CFI Common cfiCommon1 Using cfiNames0
        CFI CodeAlign 1
        CFI DataAlign -1
        CFI ReturnAddress ?RET CODE
        CFI CFA_DOVERLAY Used
        CFI CFA_IOVERLAY Used
        CFI CFA_SP SP+-2
        CFI CFA_PSP16 PSP16+0
        CFI CFA_XSP16 XSP16+0
        CFI `PSW.CY` SameValue
        CFI `B.BR0` SameValue
        CFI `B.BR1` SameValue
        CFI `B.BR2` SameValue
        CFI `B.BR3` SameValue
        CFI `B.BR4` SameValue
        CFI `B.BR5` SameValue
        CFI `B.BR6` SameValue
        CFI `B.BR7` SameValue
        CFI `VB.BR8` SameValue
        CFI `VB.BR9` SameValue
        CFI `VB.BR10` SameValue
        CFI `VB.BR11` SameValue
        CFI `VB.BR12` SameValue
        CFI `VB.BR13` SameValue
        CFI `VB.BR14` SameValue
        CFI `VB.BR15` SameValue
        CFI VB SameValue
        CFI B SameValue
        CFI A SameValue
        CFI PSW SameValue
        CFI DPL0 SameValue
        CFI DPH0 SameValue
        CFI R0 SameValue
        CFI R1 SameValue
        CFI R2 SameValue
        CFI R3 SameValue
        CFI R4 SameValue
        CFI R5 SameValue
        CFI R6 SameValue
        CFI R7 SameValue
        CFI V0 SameValue
        CFI V1 SameValue
        CFI V2 SameValue
        CFI V3 SameValue
        CFI V4 SameValue
        CFI V5 SameValue
        CFI V6 SameValue
        CFI V7 SameValue
        CFI V8 SameValue
        CFI V9 SameValue
        CFI V10 SameValue
        CFI V11 SameValue
        CFI V12 SameValue
        CFI V13 SameValue
        CFI V14 SameValue
        CFI V15 SameValue
        CFI PSPH Undefined
        CFI PSPL Undefined
        CFI XSPH Undefined
        CFI XSPL Undefined
        CFI ?RET Concat
        CFI ?BRET_EXT SameValue
        CFI ?RET_HIGH Frame(CFA_SP, 2)
        CFI ?RET_LOW Frame(CFA_SP, 1)
        CFI EndCommon cfiCommon1
        
        
        CFI Common cfiCommon2 Using cfiNames0
        CFI CodeAlign 1
        CFI DataAlign -1
        CFI ReturnAddress ?RET CODE
        CFI CFA_DOVERLAY Used
        CFI CFA_IOVERLAY Used
        CFI CFA_SP SP+-2
        CFI CFA_PSP16 PSP16+0
        CFI CFA_XSP16 XSP16+0
        CFI `PSW.CY` SameValue
        CFI `B.BR0` SameValue
        CFI `B.BR1` SameValue
        CFI `B.BR2` SameValue
        CFI `B.BR3` SameValue
        CFI `B.BR4` SameValue
        CFI `B.BR5` SameValue
        CFI `B.BR6` SameValue
        CFI `B.BR7` SameValue
        CFI `VB.BR8` SameValue
        CFI `VB.BR9` SameValue
        CFI `VB.BR10` SameValue
        CFI `VB.BR11` SameValue
        CFI `VB.BR12` SameValue
        CFI `VB.BR13` SameValue
        CFI `VB.BR14` SameValue
        CFI `VB.BR15` SameValue
        CFI VB SameValue
        CFI B Undefined
        CFI A Undefined
        CFI PSW SameValue
        CFI DPL0 SameValue
        CFI DPH0 SameValue
        CFI R0 Undefined
        CFI R1 Undefined
        CFI R2 Undefined
        CFI R3 Undefined
        CFI R4 Undefined
        CFI R5 Undefined
        CFI R6 SameValue
        CFI R7 SameValue
        CFI V0 SameValue
        CFI V1 SameValue
        CFI V2 SameValue
        CFI V3 SameValue
        CFI V4 SameValue
        CFI V5 SameValue
        CFI V6 SameValue
        CFI V7 SameValue
        CFI V8 SameValue
        CFI V9 SameValue
        CFI V10 SameValue
        CFI V11 SameValue
        CFI V12 SameValue
        CFI V13 SameValue
        CFI V14 SameValue
        CFI V15 SameValue
        CFI PSPH Undefined
        CFI PSPL Undefined
        CFI XSPH Undefined
        CFI XSPL Undefined
        CFI ?RET Concat
        CFI ?BRET_EXT SameValue
        CFI ?RET_HIGH Frame(CFA_SP, 2)
        CFI ?RET_LOW Frame(CFA_SP, 1)
        CFI EndCommon cfiCommon2
        
HalUARTInit         SYMBOL "HalUARTInit"
??HalUARTInit?relay SYMBOL "?relay", HalUARTInit
HalUARTOpen         SYMBOL "HalUARTOpen"
??HalUARTOpen?relay SYMBOL "?relay", HalUARTOpen
HalUARTPoll         SYMBOL "HalUARTPoll"
??HalUARTPoll?relay SYMBOL "?relay", HalUARTPoll
HalUARTRead         SYMBOL "HalUARTRead"
??HalUARTRead?relay SYMBOL "?relay", HalUARTRead
HalUARTReadISR      SYMBOL "HalUARTReadISR"
??HalUARTReadISR?relay SYMBOL "?relay", HalUARTReadISR
HalUARTResume       SYMBOL "HalUARTResume"
??HalUARTResume?relay SYMBOL "?relay", HalUARTResume
HalUARTSuspend      SYMBOL "HalUARTSuspend"
??HalUARTSuspend?relay SYMBOL "?relay", HalUARTSuspend
HalUARTWrite        SYMBOL "HalUARTWrite"
??HalUARTWrite?relay SYMBOL "?relay", HalUARTWrite
HalUARTWriteISR     SYMBOL "HalUARTWriteISR"
??HalUARTWriteISR?relay SYMBOL "?relay", HalUARTWriteISR
Hal_UART_RxBufLen   SYMBOL "Hal_UART_RxBufLen"
??Hal_UART_RxBufLen?relay SYMBOL "?relay", Hal_UART_RxBufLen
halUart0RxIsr       SYMBOL "halUart0RxIsr"
`??halUart0RxIsr??INTVEC 19` SYMBOL "??INTVEC 19", halUart0RxIsr
halUart0TxIsr       SYMBOL "halUart0TxIsr"
`??halUart0TxIsr??INTVEC 59` SYMBOL "??INTVEC 59", halUart0TxIsr

// D:\zigbee\projects\zstack-cc2530-coordinator\Components\hal\target\CC2530EB\hal_uart.c
//    1 /**************************************************************************************************
//    2   Filename:       _hal_uart.c
//    3   Revised:        $Date: 2009-06-12 09:16:43 -0700 (Fri, 12 Jun 2009) $
//    4   Revision:       $Revision: 20142 $
//    5 
//    6   Description: This file contains the interface to the H/W UART driver.
//    7 
//    8 
//    9   Copyright 2006-2009 Texas Instruments Incorporated. All rights reserved.
//   10 
//   11   IMPORTANT: Your use of this Software is limited to those specific rights
//   12   granted under the terms of a software license agreement between the user
//   13   who downloaded the software, his/her employer (which must be your employer)
//   14   and Texas Instruments Incorporated (the "License").  You may not use this
//   15   Software unless you agree to abide by the terms of the License. The License
//   16   limits your use, and you acknowledge, that the Software may not be modified,
//   17   copied or distributed unless embedded on a Texas Instruments microcontroller
//   18   or used solely and exclusively in conjunction with a Texas Instruments radio
//   19   frequency transceiver, which is integrated into your product.  Other than for
//   20   the foregoing purpose, you may not use, reproduce, copy, prepare derivative
//   21   works of, modify, distribute, perform, display or sell this Software and/or
//   22   its documentation for any purpose.
//   23 
//   24   YOU FURTHER ACKNOWLEDGE AND AGREE THAT THE SOFTWARE AND DOCUMENTATION ARE
//   25   PROVIDED “AS IS?WITHOUT WARRANTY OF ANY KIND, EITHER EXPRESS OR IMPLIED,
//   26   INCLUDING WITHOUT LIMITATION, ANY WARRANTY OF MERCHANTABILITY, TITLE,
//   27   NON-INFRINGEMENT AND FITNESS FOR A PARTICULAR PURPOSE. IN NO EVENT SHALL
//   28   TEXAS INSTRUMENTS OR ITS LICENSORS BE LIABLE OR OBLIGATED UNDER CONTRACT,
//   29   NEGLIGENCE, STRICT LIABILITY, CONTRIBUTION, BREACH OF WARRANTY, OR OTHER
//   30   LEGAL EQUITABLE THEORY ANY DIRECT OR INDIRECT DAMAGES OR EXPENSES
//   31   INCLUDING BUT NOT LIMITED TO ANY INCIDENTAL, SPECIAL, INDIRECT, PUNITIVE
//   32   OR CONSEQUENTIAL DAMAGES, LOST PROFITS OR LOST DATA, COST OF PROCUREMENT
//   33   OF SUBSTITUTE GOODS, TECHNOLOGY, SERVICES, OR ANY CLAIMS BY THIRD PARTIES
//   34   (INCLUDING BUT NOT LIMITED TO ANY DEFENSE THEREOF), OR OTHER SIMILAR COSTS.
//   35 
//   36   Should you have any questions regarding your right to use this Software,
//   37   contact Texas Instruments Incorporated at www.TI.com.
//   38 **************************************************************************************************/
//   39 
//   40 /*********************************************************************
//   41  * INCLUDES
//   42  */
//   43 
//   44 #include "hal_board_cfg.h"

        ASEGN SFR_AN:DATA:NOROOT,086H
// unsigned char volatile __sfr U0CSR
U0CSR:
        DS 1

        ASEGN SFR_AN:DATA:NOROOT,095H
// unsigned char volatile __sfr ST0
ST0:
        DS 1

        ASEGN SFR_AN:DATA:NOROOT,09aH
// unsigned char volatile __sfr IEN2
IEN2:
        DS 1

        ASEGN SFR_AN:DATA:NOROOT,0a8H
// union <unnamed> volatile __sfr _A_IEN0
_A_IEN0:
        DS 1

        ASEGN SFR_AN:DATA:NOROOT,0c1H
// unsigned char volatile __sfr U0DBUF
U0DBUF:
        DS 1

        ASEGN SFR_AN:DATA:NOROOT,0c2H
// unsigned char volatile __sfr U0BAUD
U0BAUD:
        DS 1

        ASEGN SFR_AN:DATA:NOROOT,0c4H
// unsigned char volatile __sfr U0UCR
U0UCR:
        DS 1

        ASEGN SFR_AN:DATA:NOROOT,0c5H
// unsigned char volatile __sfr U0GCR
U0GCR:
        DS 1

        ASEGN SFR_AN:DATA:NOROOT,0e8H
// union <unnamed> volatile __sfr _A_IRCON2
_A_IRCON2:
        DS 1

        ASEGN SFR_AN:DATA:NOROOT,0f1H
// unsigned char volatile __sfr PERCFG
PERCFG:
        DS 1

        ASEGN SFR_AN:DATA:NOROOT,0f2H
// unsigned char volatile __sfr ADCCFG
ADCCFG:
        DS 1

        ASEGN SFR_AN:DATA:NOROOT,0f3H
// unsigned char volatile __sfr P0SEL
P0SEL:
        DS 1

        ASEGN SFR_AN:DATA:NOROOT,0ffH
// unsigned char volatile __sfr P2DIR
P2DIR:
        DS 1
//   45 #include "hal_defs.h"
//   46 #include "hal_types.h"
//   47 #include "hal_uart.h"
//   48 #include <string.h>
//   49 #include "stdio.h"
//   50 
//   51 /*********************************************************************
//   52  * MACROS
//   53  */
//   54 
//   55 /*********************************************************************
//   56  * TYPEDEFS
//   57  */
//   58 
//   59 /*********************************************************************
//   60  * CONSTANTS
//   61  */
//   62 
//   63 /*********************************************************************
//   64  * GLOBAL VARIABLES
//   65  */
//   66 
//   67 /*********************************************************************
//   68  * GLOBAL FUNCTIONS
//   69  */
//   70 
//   71 /*********************************************************************
//   72  * LOCAL VARIABLES
//   73  */
//   74 
//   75 /*********************************************************************
//   76  * LOCAL FUNCTIONS
//   77  */
//   78 
//   79 #if HAL_UART_DMA
//   80 #include "_hal_uart_dma.c"
//   81 #endif
//   82 #if HAL_UART_ISR
//   83 #include "_hal_uart_isr.c"

        RSEG XDATA_Z:XDATA:NOROOT(0)
// static uartISRCfg_t isrCfg
isrCfg:
        DS 265
        REQUIRE __INIT_XDATA_Z

        RSEG BANKED_CODE:CODE:NOROOT(0)
// __banked_func __xdata_reentrant uint16 HalUARTReadISR(unsigned char *, uint16)
HalUARTReadISR:
        CFI Block cfiBlock0 Using cfiCommon0
        CFI Function HalUARTReadISR
        MOV     A,#-0x9
        LCALL   ?BANKED_ENTER_XDATA
        CFI DPH0 load(1, XDATA, add(CFA_XSP16, literal(-1)))
        CFI DPL0 load(1, XDATA, add(CFA_XSP16, literal(-2)))
        CFI ?BRET_EXT load(1, XDATA, add(CFA_XSP16, literal(-3)))
        CFI ?RET_HIGH load(1, XDATA, add(CFA_XSP16, literal(-4)))
        CFI ?RET_LOW load(1, XDATA, add(CFA_XSP16, literal(-5)))
        CFI R7 load(1, XDATA, add(CFA_XSP16, literal(-6)))
        CFI V0 load(1, XDATA, add(CFA_XSP16, literal(-7)))
        CFI VB load(1, XDATA, add(CFA_XSP16, literal(-8)))
        CFI R6 load(1, XDATA, add(CFA_XSP16, literal(-9)))
        CFI CFA_SP SP+0
        CFI CFA_XSP16 add(XSP16, 9)
        ; Saved register size: 9
        ; Auto size: 0
        MOV     R0,#0x0
        MOV     R1,#0x0
        SJMP    ??HalUARTReadISR_0
??HalUARTReadISR_1:
        MOV     DPTR,#(isrCfg + 128)
        MOVX    A,@DPTR
        ADD     A,#(isrCfg & 0xff)
        MOV     DPL,A
        CLR     A
        ADDC    A,#((isrCfg >> 8) & 0xff)
        MOV     DPH,A
        MOVX    A,@DPTR
        MOV     DPL,R2
        MOV     DPH,R3
        MOVX    @DPTR,A
        MOV     DPTR,#(isrCfg + 128)
        MOVX    A,@DPTR
        INC     A
        LCALL   ?Subroutine3 & 0xFFFF
??CrossCallReturnLabel_0:
        CLR     C
        SUBB    A,#-0x80
        JC      ??HalUARTReadISR_2
        CLR     A
        MOV     DPTR,#(isrCfg + 128)
        MOVX    @DPTR,A
??HalUARTReadISR_2:
        MOV     A,R0
        ADD     A,#0x1
        INC     R0
        MOV     A,R1
        ADDC    A,#0x0
        MOV     R1,A
??HalUARTReadISR_0:
        MOV     DPTR,#(isrCfg + 128)
        MOVX    A,@DPTR
        MOV     R6,A
        MOV     DPTR,#(isrCfg + 129)
        MOVX    A,@DPTR
        XRL     A,R6
        JZ      ??HalUARTReadISR_3
        CLR     C
        MOV     A,R0
        SUBB    A,R4
        MOV     A,R1
        SUBB    A,R5
        JC      ??HalUARTReadISR_1
??HalUARTReadISR_3:
        MOV     A,R0
        MOV     R2,A
        MOV     A,R1
        MOV     R3,A
        LJMP    ?Subroutine0 & 0xFFFF
        CFI EndBlock cfiBlock0

        RSEG BANKED_CODE:CODE:NOROOT(0)
// __banked_func __xdata_reentrant uint16 HalUARTWriteISR(unsigned char *, uint16)
HalUARTWriteISR:
        CFI Block cfiBlock1 Using cfiCommon0
        CFI Function HalUARTWriteISR
        MOV     A,#-0x9
        LCALL   ?BANKED_ENTER_XDATA
        CFI DPH0 load(1, XDATA, add(CFA_XSP16, literal(-1)))
        CFI DPL0 load(1, XDATA, add(CFA_XSP16, literal(-2)))
        CFI ?BRET_EXT load(1, XDATA, add(CFA_XSP16, literal(-3)))
        CFI ?RET_HIGH load(1, XDATA, add(CFA_XSP16, literal(-4)))
        CFI ?RET_LOW load(1, XDATA, add(CFA_XSP16, literal(-5)))
        CFI R7 load(1, XDATA, add(CFA_XSP16, literal(-6)))
        CFI V0 load(1, XDATA, add(CFA_XSP16, literal(-7)))
        CFI VB load(1, XDATA, add(CFA_XSP16, literal(-8)))
        CFI R6 load(1, XDATA, add(CFA_XSP16, literal(-9)))
        CFI CFA_SP SP+0
        CFI CFA_XSP16 add(XSP16, 9)
        ; Saved register size: 9
        ; Auto size: 0
        MOV     DPTR,#(isrCfg + 261)
        MOVX    A,@DPTR
        PUSH    A
        CFI CFA_SP SP+-1
        MOV     DPTR,#(isrCfg + 260)
        MOVX    A,@DPTR
        MOV     R6,A
        POP     A
        CFI CFA_SP SP+0
        CLR     C
        SUBB    A,R6
        MOVX    A,@DPTR
        MOV     R0,A
        MOV     DPTR,#(isrCfg + 261)
        MOVX    A,@DPTR
        MOV     R6,A
        MOV     A,R0
        JNC     ??HalUARTWriteISR_0
        CLR     C
        SUBB    A,R6
        MOV     R0,A
        CLR     A
        SUBB    A,#0x0
        MOV     R1,A
        MOV     A,#-0x1
        ADD     A,R0
        DEC     R0
        MOV     A,#-0x1
        ADDC    A,R1
        MOV     R1,A
        MOV     A,R0
        JNZ     ??HalUARTWriteISR_1
        MOV     A,R1
??HalUARTWriteISR_1:
        JNZ     ??HalUARTWriteISR_2
??HalUARTWriteISR_3:
        MOV     R0,#0x0
        MOV     R1,#0x0
        SJMP    ??HalUARTWriteISR_4
??HalUARTWriteISR_0:
        CLR     C
        SUBB    A,R6
        MOV     R0,A
        CLR     A
        SUBB    A,#0x0
        MOV     R1,A
        MOV     A,#0x7f
        ADD     A,R0
        MOV     R0,A
        CLR     A
        ADDC    A,R1
        MOV     R1,A
        CLR     C
        MOV     A,R0
        SUBB    A,R4
        MOV     A,R1
        SUBB    A,R5
        JNC     ??HalUARTWriteISR_3
??HalUARTWriteISR_2:
        MOV     R2,#0x0
        MOV     R3,#0x0
        SJMP    ??HalUARTWriteISR_5
??HalUARTWriteISR_6:
        MOVX    A,@DPTR
        INC     A
??HalUARTWriteISR_7:
        MOVX    @DPTR,A
        ORL     0x9a,#0x4
        MOV     A,R0
        ADD     A,#0x1
        INC     R0
        MOV     A,R1
        ADDC    A,#0x0
        MOV     R1,A
??HalUARTWriteISR_4:
        CLR     C
        MOV     A,R0
        SUBB    A,R4
        MOV     A,R1
        SUBB    A,R5
        JNC     ??HalUARTWriteISR_8
        MOV     DPL,R2
        MOV     DPH,R3
        MOVX    A,@DPTR
        PUSH    A
        CFI CFA_SP SP+-1
        MOV     DPTR,#(isrCfg + 261)
        MOVX    A,@DPTR
        ADD     A,#((isrCfg + 132) & 0xff)
        MOV     DPL,A
        CLR     A
        ADDC    A,#(((isrCfg + 132) >> 8) & 0xff)
        MOV     DPH,A
        POP     A
        CFI CFA_SP SP+0
        LCALL   ?Subroutine3 & 0xFFFF
??CrossCallReturnLabel_1:
        CLR     A
        MOV     DPTR,#(isrCfg + 262)
        MOVX    @DPTR,A
        MOV     DPTR,#(isrCfg + 261)
        MOVX    A,@DPTR
        CLR     C
        SUBB    A,#0x7f
        JC      ??HalUARTWriteISR_6
        CLR     A
        SJMP    ??HalUARTWriteISR_7
??HalUARTWriteISR_8:
        MOV     A,R0
        MOV     R2,A
        MOV     A,R1
        MOV     R3,A
??HalUARTWriteISR_5:
        LJMP    ?Subroutine0 & 0xFFFF
        CFI EndBlock cfiBlock1
        REQUIRE IEN2

        RSEG BANKED_CODE:CODE:NOROOT(0)
?Subroutine3:
        CFI Block cfiCond2 Using cfiCommon0
        CFI NoFunction
        CFI Conditional ??CrossCallReturnLabel_0
        CFI R6 load(1, XDATA, add(CFA_XSP16, literal(-9)))
        CFI VB load(1, XDATA, add(CFA_XSP16, literal(-8)))
        CFI V0 load(1, XDATA, add(CFA_XSP16, literal(-7)))
        CFI R7 load(1, XDATA, add(CFA_XSP16, literal(-6)))
        CFI ?RET_LOW load(1, XDATA, add(CFA_XSP16, literal(-5)))
        CFI ?RET_HIGH load(1, XDATA, add(CFA_XSP16, literal(-4)))
        CFI ?BRET_EXT load(1, XDATA, add(CFA_XSP16, literal(-3)))
        CFI DPL0 load(1, XDATA, add(CFA_XSP16, literal(-2)))
        CFI DPH0 load(1, XDATA, add(CFA_XSP16, literal(-1)))
        CFI CFA_SP SP+0
        CFI CFA_XSP16 add(XSP16, 9)
        CFI Block cfiCond3 Using cfiCommon0
        CFI (cfiCond3) NoFunction
        CFI (cfiCond3) Conditional ??CrossCallReturnLabel_1
        CFI (cfiCond3) R6 load(1, XDATA, add(CFA_XSP16, literal(-9)))
        CFI (cfiCond3) VB load(1, XDATA, add(CFA_XSP16, literal(-8)))
        CFI (cfiCond3) V0 load(1, XDATA, add(CFA_XSP16, literal(-7)))
        CFI (cfiCond3) R7 load(1, XDATA, add(CFA_XSP16, literal(-6)))
        CFI (cfiCond3) ?RET_LOW load(1, XDATA, add(CFA_XSP16, literal(-5)))
        CFI (cfiCond3) ?RET_HIGH load(1, XDATA, add(CFA_XSP16, literal(-4)))
        CFI (cfiCond3) ?BRET_EXT load(1, XDATA, add(CFA_XSP16, literal(-3)))
        CFI (cfiCond3) DPL0 load(1, XDATA, add(CFA_XSP16, literal(-2)))
        CFI (cfiCond3) DPH0 load(1, XDATA, add(CFA_XSP16, literal(-1)))
        CFI (cfiCond3) CFA_SP SP+0
        CFI (cfiCond3) CFA_XSP16 add(XSP16, 9)
        CFI Block cfiPicker4 Using cfiCommon1
        CFI (cfiPicker4) NoFunction
        CFI (cfiPicker4) Picker
        MOVX    @DPTR,A
        MOV     DPL,R2
        MOV     DPH,R3
        INC     DPTR
        MOV     R2,DPL
        MOV     R3,DPH
        RET
        CFI EndBlock cfiCond2
        CFI EndBlock cfiCond3
        CFI EndBlock cfiPicker4

        RSEG BANKED_CODE:CODE:NOROOT(0)
// static __banked_func __xdata_reentrant void HalUARTPollISR(void)
HalUARTPollISR:
        CFI Block cfiBlock5 Using cfiCommon0
        CFI Function HalUARTPollISR
        PUSH    DPL
        CFI DPL0 Frame(CFA_SP, 4)
        CFI CFA_SP SP+-4
        PUSH    DPH
        CFI DPH0 Frame(CFA_SP, 5)
        CFI CFA_SP SP+-5
        ; Saved register size: 2
        ; Auto size: 0
        MOV     DPTR,#(isrCfg + 263)
        MOVX    A,@DPTR
        JNZ     ??HalUARTPollISR_0
        INC     DPTR
        MOVX    A,@DPTR
??HalUARTPollISR_0:
        JNZ     $+5
        LJMP    ??HalUARTPollISR_1 & 0xFFFF
        MOV     DPTR,#(isrCfg + 129)
        MOVX    A,@DPTR
        PUSH    A
        CFI CFA_SP SP+-6
        MOV     DPTR,#(isrCfg + 128)
        MOVX    A,@DPTR
        MOV     R2,A
        POP     A
        CFI CFA_SP SP+-5
        CLR     C
        SUBB    A,R2
        JC      ??HalUARTPollISR_2
        MOV     DPTR,#(isrCfg + 129)
        MOVX    A,@DPTR
        CLR     C
        SUBB    A,R2
        MOV     R0,A
        CLR     A
        SUBB    A,#0x0
        SJMP    ??HalUARTPollISR_3
??HalUARTPollISR_2:
        MOVX    A,@DPTR
        MOV     R0,A
        MOV     A,#-0x80
        CLR     C
        SUBB    A,R0
        MOV     R0,A
        CLR     A
        SUBB    A,#0x0
        MOV     R1,A
        MOV     DPTR,#(isrCfg + 129)
        MOVX    A,@DPTR
        ADD     A,R0
        MOV     R0,A
        CLR     A
        ADDC    A,R1
??HalUARTPollISR_3:
        MOV     R1,A
        MOV     R2,#0x0
        MOV     DPTR,#(isrCfg + 130)
        MOVX    A,@DPTR
        JZ      ??HalUARTPollISR_4
        MOV     DPTR,#(isrCfg + 131)
        MOVX    A,@DPTR
        MOV     R3,A
        MOV     A,0x95
        CLR     C
        SUBB    A,R3
        MOV     R3,A
        MOV     DPTR,#(isrCfg + 130)
        MOVX    A,@DPTR
        MOV     R4,A
        MOV     A,R3
        CLR     C
        SUBB    A,R4
        JNC     ??HalUARTPollISR_5
        MOVX    A,@DPTR
        CLR     C
        SUBB    A,R3
        SJMP    ??HalUARTPollISR_6
??HalUARTPollISR_5:
        CLR     A
??HalUARTPollISR_6:
        MOVX    @DPTR,A
??HalUARTPollISR_4:
        MOV     A,0x95
        MOV     DPTR,#(isrCfg + 131)
        MOVX    @DPTR,A
        CLR     C
        MOV     A,R0
        SUBB    A,#0x7f
        MOV     A,R1
        SUBB    A,#0x0
        JC      ??HalUARTPollISR_7
??HalUARTPollISR_8:
        INC     R2
        SJMP    ??HalUARTPollISR_9
??HalUARTPollISR_7:
        CLR     C
        MOV     A,R0
        SUBB    A,#0x40
        MOV     A,R1
        SUBB    A,#0x0
        JC      ??HalUARTPollISR_10
        INC     R2
        SJMP    ??HalUARTPollISR_8
??HalUARTPollISR_10:
        MOV     A,R0
        JNZ     ??HalUARTPollISR_11
        MOV     A,R1
??HalUARTPollISR_11:
        JZ      ??HalUARTPollISR_9
        MOV     DPTR,#(isrCfg + 130)
        MOVX    A,@DPTR
        JNZ     ??HalUARTPollISR_9
        MOV     R2,#0x4
??HalUARTPollISR_9:
        MOV     DPTR,#(isrCfg + 262)
        MOVX    A,@DPTR
        JZ      ??HalUARTPollISR_12
        CLR     A
        MOVX    @DPTR,A
        MOV     A,R2
        SETB    0xE0 /* A   */.4
        MOV     R2,A
??HalUARTPollISR_12:
        MOV     A,R2
        JZ      ??HalUARTPollISR_1
        ; Setup parameters for indirect call
        MOV     R1,#0x0
        MOV     DPTR,#(isrCfg + 263)
        MOVX    A,@DPTR
        MOV     R0,A
        INC     DPTR
        MOVX    A,@DPTR
        MOV     DPH,A
        MOV     DPL,R0
        LCALL   ?CALL_IND
??HalUARTPollISR_1:
        LJMP    ?Subroutine1 & 0xFFFF
        CFI EndBlock cfiBlock5
        REQUIRE ST0

        RSEG NEAR_CODE:CODE:NOROOT(0)
// __near_func __xdata_reentrant __interrupt void halUart0RxIsr(void)
halUart0RxIsr:
        CFI Block cfiBlock6 Using cfiCommon1
        CFI Function halUart0RxIsr
        PUSH    A
        CFI A Frame(CFA_SP, 3)
        CFI CFA_SP SP+-3
        PUSH    PSW
        CFI PSW Frame(CFA_SP, 4)
        CFI CFA_SP SP+-4
        MOV     A,R0
        CFI R0 A
        PUSH    A
        CFI R0 Frame(CFA_SP, 5)
        CFI CFA_SP SP+-5
        MOV     A,R1
        CFI R1 A
        PUSH    A
        CFI R1 Frame(CFA_SP, 6)
        CFI CFA_SP SP+-6
        MOV     A,R2
        CFI R2 A
        PUSH    A
        CFI R2 Frame(CFA_SP, 7)
        CFI CFA_SP SP+-7
        PUSH    DPL
        CFI DPL0 Frame(CFA_SP, 8)
        CFI CFA_SP SP+-8
        PUSH    DPH
        CFI DPH0 Frame(CFA_SP, 9)
        CFI CFA_SP SP+-9
        ; Saved register size: 7
        ; Auto size: 0
        MOV     A,0xc1
        PUSH    A
        CFI CFA_SP SP+-10
        MOV     DPTR,#(isrCfg + 129)
        MOVX    A,@DPTR
        ADD     A,#(isrCfg & 0xff)
        MOV     DPL,A
        CLR     A
        ADDC    A,#((isrCfg >> 8) & 0xff)
        MOV     DPH,A
        POP     A
        CFI CFA_SP SP+-9
        MOVX    @DPTR,A
        MOV     DPTR,#(isrCfg + 128)
        MOVX    A,@DPTR
        MOV     R2,A
        MOV     DPTR,#(isrCfg + 129)
        MOVX    A,@DPTR
        XRL     A,R2
        JNZ     ??halUart0RxIsr_0
        MOV     A,0x95
        MOV     DPTR,#(isrCfg + 131)
        MOVX    @DPTR,A
??halUart0RxIsr_0:
        MOV     DPTR,#(isrCfg + 129)
        MOVX    A,@DPTR
        INC     A
        MOVX    @DPTR,A
        CLR     C
        SUBB    A,#-0x80
        JC      ??halUart0RxIsr_1
        CLR     A
        MOVX    @DPTR,A
??halUart0RxIsr_1:
        MOV     A,#-0x3a
        MOV     DPTR,#(isrCfg + 130)
        MOVX    @DPTR,A
        POP     DPH
        CFI DPH0 SameValue
        CFI CFA_SP SP+-8
        POP     DPL
        CFI DPL0 SameValue
        CFI CFA_SP SP+-7
        POP     A
        CFI R2 A
        CFI CFA_SP SP+-6
        MOV     R2,A
        CFI R2 SameValue
        POP     A
        CFI R1 A
        CFI CFA_SP SP+-5
        MOV     R1,A
        CFI R1 SameValue
        POP     A
        CFI R0 A
        CFI CFA_SP SP+-4
        MOV     R0,A
        CFI EndBlock cfiBlock6
        REQUIRE ?Subroutine2
        REQUIRE U0DBUF
        REQUIRE ST0
        ; // Fall through to label ?Subroutine2

        RSEG NEAR_CODE:CODE:NOROOT(0)
?Subroutine2:
        CFI Block cfiBlock7 Using cfiCommon1
        CFI NoFunction
        CFI CFA_SP SP+-4
        CFI A Frame(CFA_SP, 3)
        CFI PSW Frame(CFA_SP, 4)
        POP     PSW
        CFI CFA_SP SP+-3
        CFI PSW SameValue
        POP     A
        CFI CFA_SP SP+-2
        CFI A SameValue
        RETI
        CFI EndBlock cfiBlock7

        RSEG NEAR_CODE:CODE:NOROOT(0)
// __near_func __xdata_reentrant __interrupt void halUart0TxIsr(void)
halUart0TxIsr:
        CFI Block cfiBlock8 Using cfiCommon1
        CFI Function halUart0TxIsr
        PUSH    A
        CFI A Frame(CFA_SP, 3)
        CFI CFA_SP SP+-3
        PUSH    PSW
        CFI PSW Frame(CFA_SP, 4)
        CFI CFA_SP SP+-4
        MOV     A,R2
        CFI R2 A
        PUSH    A
        CFI R2 Frame(CFA_SP, 5)
        CFI CFA_SP SP+-5
        PUSH    ?V0 + 0
        CFI V0 Frame(CFA_SP, 6)
        CFI CFA_SP SP+-6
        PUSH    ?V0 + 1
        CFI V1 Frame(CFA_SP, 7)
        CFI CFA_SP SP+-7
        PUSH    DPL
        CFI DPL0 Frame(CFA_SP, 8)
        CFI CFA_SP SP+-8
        PUSH    DPH
        CFI DPH0 Frame(CFA_SP, 9)
        CFI CFA_SP SP+-9
        ; Saved register size: 7
        ; Auto size: 0
        MOV     DPTR,#(isrCfg + 260)
        MOVX    A,@DPTR
        MOV     R2,A
        MOV     DPTR,#(isrCfg + 261)
        MOVX    A,@DPTR
        XRL     A,R2
        JNZ     ??halUart0TxIsr_0
        ANL     0x9a,#0xfb
        MOV     A,#0x1
        MOV     DPTR,#(isrCfg + 262)
        SJMP    ??halUart0TxIsr_1
??halUart0TxIsr_0:
        CLR     0xe8.1
        MOV     DPTR,#(isrCfg + 260)
        MOVX    A,@DPTR
        MOV     ?V0 + 0,A
        MOV     A,#0x1
        ADD     A,?V0 + 0
        MOVX    @DPTR,A
        MOV     A,?V0 + 0
        ADD     A,#((isrCfg + 132) & 0xff)
        MOV     DPL,A
        CLR     A
        ADDC    A,#(((isrCfg + 132) >> 8) & 0xff)
        MOV     DPH,A
        MOVX    A,@DPTR
        MOV     0xc1,A
        MOV     DPTR,#(isrCfg + 260)
        MOVX    A,@DPTR
        CLR     C
        SUBB    A,#-0x80
        JC      ??halUart0TxIsr_2
        CLR     A
??halUart0TxIsr_1:
        MOVX    @DPTR,A
??halUart0TxIsr_2:
        POP     DPH
        CFI DPH0 SameValue
        CFI CFA_SP SP+-8
        POP     DPL
        CFI DPL0 SameValue
        CFI CFA_SP SP+-7
        POP     ?V0 + 1
        CFI V1 SameValue
        CFI CFA_SP SP+-6
        POP     ?V0 + 0
        CFI V0 SameValue
        CFI CFA_SP SP+-5
        POP     A
        CFI R2 A
        CFI CFA_SP SP+-4
        MOV     R2,A
        CFI R2 SameValue
        SJMP    ?Subroutine2
        CFI EndBlock cfiBlock8
        REQUIRE U0DBUF
        REQUIRE _A_IRCON2
        REQUIRE IEN2
//   84 #endif
//   85 #if HAL_UART_USB
//   86 #include "_hal_uart_usb.c"
//   87 #endif
//   88 
//   89 /******************************************************************************
//   90  * @fn      HalUARTInit
//   91  *
//   92  * @brief   Initialize the UART
//   93  *
//   94  * @param   none
//   95  *
//   96  * @return  none
//   97  *****************************************************************************/

        RSEG BANKED_CODE:CODE:NOROOT(0)
//   98 void HalUARTInit(void)
HalUARTInit:
        CFI Block cfiBlock9 Using cfiCommon0
        CFI Function HalUARTInit
//   99 {
        ; Saved register size: 0
        ; Auto size: 0
//  100 #if HAL_UART_DMA
//  101   HalUARTInitDMA();
//  102 #endif
//  103 #if HAL_UART_ISR
//  104   HalUARTInitISR();
        ANL     0xff,#0x3f
        MOV     A,0xff
        MOV     0xff,0xff
        ANL     0xf1,#0xfe
        ORL     0xf3,#0xc
        MOV     A,0xf3
        ANL     0xf2,#0xf3
        MOV     A,0xf2
        MOV     0x86,#-0x80
        MOV     0xc4,#-0x80
//  105 #endif
//  106 #if HAL_UART_USB
//  107   HalUARTInitUSB();
//  108 #endif
//  109 }
        LJMP    ?BRET
        CFI EndBlock cfiBlock9
        REQUIRE PERCFG
        REQUIRE ADCCFG
        REQUIRE P0SEL
        REQUIRE P2DIR
        REQUIRE U0UCR
        REQUIRE U0CSR
//  110 
//  111 /******************************************************************************
//  112  * @fn      HalUARTOpen
//  113  *
//  114  * @brief   Open a port according tp the configuration specified by parameter.
//  115  *
//  116  * @param   port   - UART port
//  117  *          config - contains configuration information
//  118  *
//  119  * @return  Status of the function call
//  120  *****************************************************************************/

        RSEG BANKED_CODE:CODE:NOROOT(0)
//  121 uint8 HalUARTOpen(uint8 port, halUARTCfg_t *config)
HalUARTOpen:
        CFI Block cfiBlock10 Using cfiCommon0
        CFI Function HalUARTOpen
//  122 {
        PUSH    DPL
        CFI DPL0 Frame(CFA_SP, 4)
        CFI CFA_SP SP+-4
        PUSH    DPH
        CFI DPH0 Frame(CFA_SP, 5)
        CFI CFA_SP SP+-5
        ; Saved register size: 2
        ; Auto size: 0
        MOV     A,R1
//  123   (void)port;
//  124   (void)config;
//  125 
//  126 #if (HAL_UART_DMA == 1)
//  127   if (port == HAL_UART_PORT_0)  HalUARTOpenDMA(config);
//  128 #endif
//  129 #if (HAL_UART_DMA == 2)
//  130   if (port == HAL_UART_PORT_1)  HalUARTOpenDMA(config);
//  131 #endif
//  132 #if (HAL_UART_ISR == 1)
//  133   if (port == HAL_UART_PORT_0)  HalUARTOpenISR(config);
        JNZ     ??HalUARTOpen_0
        MOV     A,R2
        ADD     A,#0x1b
        MOV     DPL,A
        MOV     A,R3
        ADDC    A,#0x0
        MOV     DPH,A
        MOVX    A,@DPTR
        MOV     R0,A
        INC     DPTR
        MOVX    A,@DPTR
        MOV     R1,A
        MOV     DPTR,#(isrCfg + 263)
        MOV     A,R0
        MOVX    @DPTR,A
        INC     DPTR
        MOV     A,R1
        MOVX    @DPTR,A
        MOV     DPL,R2
        MOV     DPH,R3
        INC     DPTR
        MOVX    A,@DPTR
        XRL     A,#0x3
        JZ      ??HalUARTOpen_1
        MOV     DPL,R2
        MOV     DPH,R3
        INC     DPTR
        MOVX    A,@DPTR
        XRL     A,#0x4
        JNZ     ??HalUARTOpen_2
??HalUARTOpen_1:
        MOV     0xc2,#-0x28
        SJMP    ??HalUARTOpen_3
??HalUARTOpen_2:
        MOV     0xc2,#0x3b
??HalUARTOpen_3:
        MOV     DPL,R2
        MOV     DPH,R3
        INC     DPTR
        MOVX    A,@DPTR
        LCALL   ?UC_SWITCH_DENSE
`?<Jumptable for HalUARTOpen>_0`:
        DATA
        DB        0
        DB        3
        DW        ??HalUARTOpen_4
        DW        ??HalUARTOpen_5
        DW        ??HalUARTOpen_6
        DW        ??HalUARTOpen_7
        DW        ??HalUARTOpen_7
        CODE
??HalUARTOpen_5:
        MOV     0xc5,#0x8
        SJMP    ??HalUARTOpen_8
??HalUARTOpen_6:
        MOV     0xc5,#0x9
        SJMP    ??HalUARTOpen_8
??HalUARTOpen_7:
        MOV     0xc5,#0xa
        SJMP    ??HalUARTOpen_8
??HalUARTOpen_4:
        MOV     0xc5,#0xb
??HalUARTOpen_8:
        MOV     DPL,R2
        MOV     DPH,R3
        INC     DPTR
        INC     DPTR
        MOVX    A,@DPTR
        JZ      ??HalUARTOpen_9
        MOV     0xc4,#0x42
        ORL     0xf3,#0x30
        MOV     A,0xf3
        SJMP    ??HalUARTOpen_10
??HalUARTOpen_9:
        MOV     0xc4,#0x2
??HalUARTOpen_10:
        ORL     0x86,#0x40
        SETB    0xa8.2
        SETB    0xe8.1
//  134 #endif
//  135 #if (HAL_UART_ISR == 2)
//  136   if (port == HAL_UART_PORT_1)  HalUARTOpenISR(config);
//  137 #endif
//  138 #if (HAL_UART_USB)
//  139   HalUARTOpenUSB(config);
//  140 #endif
//  141   
//  142   return HAL_UART_SUCCESS;
??HalUARTOpen_0:
        MOV     R1,#0x0
        SJMP    ?Subroutine1
        CFI EndBlock cfiBlock10
        REQUIRE P0SEL
        REQUIRE _A_IEN0
        REQUIRE U0BAUD
        REQUIRE U0UCR
        REQUIRE U0GCR
        REQUIRE _A_IRCON2
        REQUIRE U0CSR
//  143 }
//  144 
//  145 /*****************************************************************************
//  146  * @fn      HalUARTRead
//  147  *
//  148  * @brief   Read a buffer from the UART
//  149  *
//  150  * @param   port - USART module designation
//  151  *          buf  - valid data buffer at least 'len' bytes in size
//  152  *          len  - max length number of bytes to copy to 'buf'
//  153  *
//  154  * @return  length of buffer that was read
//  155  *****************************************************************************/

        RSEG BANKED_CODE:CODE:NOROOT(0)
//  156 uint16 HalUARTRead(uint8 port, uint8 *buf, uint16 len)
HalUARTRead:
        CFI Block cfiBlock11 Using cfiCommon0
        CFI Function HalUARTRead
//  157 {
        FUNCALL HalUARTRead, HalUARTReadISR
        LOCFRAME ISTACK, 0, STACK
        LOCFRAME PSTACK, 0, STACK
        LOCFRAME XSTACK, 9, STACK
        LOCFRAME IOVERLAY, 0, STATIC
        LOCFRAME DOVERLAY, 0, STATIC
        ARGFRAME ISTACK, 0, STACK
        ARGFRAME PSTACK, 0, STACK
        ARGFRAME XSTACK, 9, STACK
        ARGFRAME IOVERLAY, 0, STATIC
        ARGFRAME DOVERLAY, 0, STATIC
        MOV     A,#-0x9
        LCALL   ?BANKED_ENTER_XDATA
        CFI DPH0 load(1, XDATA, add(CFA_XSP16, literal(-1)))
        CFI DPL0 load(1, XDATA, add(CFA_XSP16, literal(-2)))
        CFI ?BRET_EXT load(1, XDATA, add(CFA_XSP16, literal(-3)))
        CFI ?RET_HIGH load(1, XDATA, add(CFA_XSP16, literal(-4)))
        CFI ?RET_LOW load(1, XDATA, add(CFA_XSP16, literal(-5)))
        CFI R7 load(1, XDATA, add(CFA_XSP16, literal(-6)))
        CFI V0 load(1, XDATA, add(CFA_XSP16, literal(-7)))
        CFI VB load(1, XDATA, add(CFA_XSP16, literal(-8)))
        CFI R6 load(1, XDATA, add(CFA_XSP16, literal(-9)))
        CFI CFA_SP SP+0
        CFI CFA_XSP16 add(XSP16, 9)
        ; Saved register size: 9
        ; Auto size: 0
        MOV     A,R1
//  158   (void)port;
//  159   (void)buf;
//  160   (void)len;
//  161 
//  162 #if (HAL_UART_DMA == 1)
//  163   if (port == HAL_UART_PORT_0)  return HalUARTReadDMA(buf, len);
//  164 #endif
//  165 #if (HAL_UART_DMA == 2)
//  166   if (port == HAL_UART_PORT_1)  return HalUARTReadDMA(buf, len);
//  167 #endif
//  168 #if (HAL_UART_ISR == 1)
//  169   if (port == HAL_UART_PORT_0)  return HalUARTReadISR(buf, len);
        JNZ     ??HalUARTRead_0
        ; Setup parameters for call to function HalUARTReadISR
        LCALL   ??HalUARTReadISR?relay
        SJMP    ??HalUARTRead_1
//  170 #endif
//  171 #if (HAL_UART_ISR == 2)
//  172   if (port == HAL_UART_PORT_1)  return HalUARTReadISR(buf, len);
//  173 #endif
//  174 
//  175 #if HAL_UART_USB
//  176   return HalUARTRx(buf, len);
//  177 #else
//  178   return 0;
??HalUARTRead_0:
        MOV     R2,#0x0
        MOV     R3,#0x0
        CFI EndBlock cfiBlock11
??HalUARTRead_1:
        REQUIRE ?Subroutine0
        ; // Fall through to label ?Subroutine0
//  179 #endif
//  180 }

        RSEG BANKED_CODE:CODE:NOROOT(0)
?Subroutine0:
        CFI Block cfiBlock12 Using cfiCommon0
        CFI NoFunction
        CFI CFA_SP SP+0
        CFI CFA_XSP16 add(XSP16, 9)
        CFI VB load(1, XDATA, add(CFA_XSP16, literal(-8)))
        CFI DPL0 load(1, XDATA, add(CFA_XSP16, literal(-2)))
        CFI DPH0 load(1, XDATA, add(CFA_XSP16, literal(-1)))
        CFI R6 load(1, XDATA, add(CFA_XSP16, literal(-9)))
        CFI R7 load(1, XDATA, add(CFA_XSP16, literal(-6)))
        CFI V0 load(1, XDATA, add(CFA_XSP16, literal(-7)))
        CFI ?BRET_EXT load(1, XDATA, add(CFA_XSP16, literal(-3)))
        CFI ?RET_HIGH load(1, XDATA, add(CFA_XSP16, literal(-4)))
        CFI ?RET_LOW load(1, XDATA, add(CFA_XSP16, literal(-5)))
        MOV     R7,#0x1
        LJMP    ?BANKED_LEAVE_XDATA
        CFI EndBlock cfiBlock12
//  181 
//  182 /******************************************************************************
//  183  * @fn      HalUARTWrite
//  184  *
//  185  * @brief   Write a buffer to the UART.
//  186  *
//  187  * @param   port - UART port
//  188  *          buf  - pointer to the buffer that will be written, not freed
//  189  *          len  - length of
//  190  *
//  191  * @return  length of the buffer that was sent
//  192  *****************************************************************************/

        RSEG BANKED_CODE:CODE:NOROOT(0)
//  193 uint16 HalUARTWrite(uint8 port, uint8 *buf, uint16 len)
HalUARTWrite:
        CFI Block cfiBlock13 Using cfiCommon0
        CFI Function HalUARTWrite
//  194 {
        FUNCALL HalUARTWrite, HalUARTWriteISR
        LOCFRAME ISTACK, 0, STACK
        LOCFRAME PSTACK, 0, STACK
        LOCFRAME XSTACK, 9, STACK
        LOCFRAME IOVERLAY, 0, STATIC
        LOCFRAME DOVERLAY, 0, STATIC
        ARGFRAME ISTACK, 0, STACK
        ARGFRAME PSTACK, 0, STACK
        ARGFRAME XSTACK, 9, STACK
        ARGFRAME IOVERLAY, 0, STATIC
        ARGFRAME DOVERLAY, 0, STATIC
        MOV     A,#-0x9
        LCALL   ?BANKED_ENTER_XDATA
        CFI DPH0 load(1, XDATA, add(CFA_XSP16, literal(-1)))
        CFI DPL0 load(1, XDATA, add(CFA_XSP16, literal(-2)))
        CFI ?BRET_EXT load(1, XDATA, add(CFA_XSP16, literal(-3)))
        CFI ?RET_HIGH load(1, XDATA, add(CFA_XSP16, literal(-4)))
        CFI ?RET_LOW load(1, XDATA, add(CFA_XSP16, literal(-5)))
        CFI R7 load(1, XDATA, add(CFA_XSP16, literal(-6)))
        CFI V0 load(1, XDATA, add(CFA_XSP16, literal(-7)))
        CFI VB load(1, XDATA, add(CFA_XSP16, literal(-8)))
        CFI R6 load(1, XDATA, add(CFA_XSP16, literal(-9)))
        CFI CFA_SP SP+0
        CFI CFA_XSP16 add(XSP16, 9)
        ; Saved register size: 9
        ; Auto size: 0
        MOV     A,R1
//  195   (void)port;
//  196   (void)buf;
//  197   (void)len;
//  198 
//  199 #if (HAL_UART_DMA == 1)
//  200   if (port == HAL_UART_PORT_0)  return HalUARTWriteDMA(buf, len);
//  201 #endif
//  202 #if (HAL_UART_DMA == 2)
//  203   if (port == HAL_UART_PORT_1)  return HalUARTWriteDMA(buf, len);
//  204 #endif
//  205 #if (HAL_UART_ISR == 1)
//  206   if (port == HAL_UART_PORT_0)  return HalUARTWriteISR(buf, len);
        JNZ     ??HalUARTWrite_0
        ; Setup parameters for call to function HalUARTWriteISR
        LCALL   ??HalUARTWriteISR?relay
        SJMP    ??HalUARTWrite_1
//  207 #endif
//  208 #if (HAL_UART_ISR == 2)
//  209   if (port == HAL_UART_PORT_1)  return HalUARTWriteISR(buf, len);
//  210 #endif
//  211 
//  212 #if HAL_UART_USB
//  213   HalUARTTx(buf, len);
//  214   return len;
//  215 #else
//  216   return 0;
??HalUARTWrite_0:
        MOV     R2,#0x0
        MOV     R3,#0x0
??HalUARTWrite_1:
        SJMP    ?Subroutine0
        CFI EndBlock cfiBlock13
//  217 #endif
//  218 }
//  219 
//  220 /******************************************************************************
//  221  * @fn      HalUARTSuspend
//  222  *
//  223  * @brief   Suspend UART hardware before entering PM mode 1, 2 or 3.
//  224  *
//  225  * @param   None
//  226  *
//  227  * @return  None
//  228  *****************************************************************************/

        RSEG BANKED_CODE:CODE:NOROOT(0)
//  229 void HalUARTSuspend( void )
HalUARTSuspend:
        CFI Block cfiBlock14 Using cfiCommon0
        CFI Function HalUARTSuspend
//  230 {
        ; Saved register size: 0
        ; Auto size: 0
//  231 #if HAL_UART_DMA
//  232   HalUARTSuspendDMA();
//  233 #endif
//  234 #if HAL_UART_ISR
//  235   HalUARTSuspendISR();
        ANL     0x86,#0xbf
//  236 #endif
//  237 }
        LJMP    ?BRET
        CFI EndBlock cfiBlock14
        REQUIRE U0CSR
//  238 
//  239 /******************************************************************************
//  240  * @fn      HalUARTResume
//  241  *
//  242  * @brief   Resume UART hardware after exiting PM mode 1, 2 or 3.
//  243  *
//  244  * @param   None
//  245  *
//  246  * @return  None
//  247  *****************************************************************************/

        RSEG BANKED_CODE:CODE:NOROOT(0)
//  248 void HalUARTResume( void )
HalUARTResume:
        CFI Block cfiBlock15 Using cfiCommon0
        CFI Function HalUARTResume
//  249 {
        ; Saved register size: 0
        ; Auto size: 0
//  250 #if HAL_UART_DMA
//  251   HalUARTResumeDMA();
//  252 #endif
//  253 #if HAL_UART_ISR
//  254   HalUARTResumeISR();
        ORL     0xc4,#0x80
        ORL     0x86,#0x40
//  255 #endif
//  256 }
        LJMP    ?BRET
        CFI EndBlock cfiBlock15
        REQUIRE U0UCR
        REQUIRE U0CSR
//  257 
//  258 /***************************************************************************************************
//  259  * @fn      HalUARTPoll
//  260  *
//  261  * @brief   Poll the UART.
//  262  *
//  263  * @param   none
//  264  *
//  265  * @return  none
//  266  *****************************************************************************/

        RSEG BANKED_CODE:CODE:NOROOT(0)
//  267 void HalUARTPoll(void)
HalUARTPoll:
        CFI Block cfiBlock16 Using cfiCommon0
        CFI Function HalUARTPoll
//  268 {
        FUNCALL HalUARTPoll, HalUARTPollISR
        LOCFRAME ISTACK, 2, STACK
        LOCFRAME PSTACK, 0, STACK
        LOCFRAME XSTACK, 0, STACK
        LOCFRAME IOVERLAY, 0, STATIC
        LOCFRAME DOVERLAY, 0, STATIC
        ARGFRAME ISTACK, 2, STACK
        ARGFRAME PSTACK, 0, STACK
        ARGFRAME XSTACK, 0, STACK
        ARGFRAME IOVERLAY, 0, STATIC
        ARGFRAME DOVERLAY, 0, STATIC
        PUSH    DPL
        CFI DPL0 Frame(CFA_SP, 4)
        CFI CFA_SP SP+-4
        PUSH    DPH
        CFI DPH0 Frame(CFA_SP, 5)
        CFI CFA_SP SP+-5
        ; Saved register size: 2
        ; Auto size: 0
//  269 #if HAL_UART_DMA
//  270   HalUARTPollDMA();
//  271 #endif
//  272 #if HAL_UART_ISR
//  273   HalUARTPollISR();
        ; Setup parameters for call to function HalUARTPollISR
        LCALL   ??HalUARTPollISR?relay
        CFI EndBlock cfiBlock16
//  274 #endif
//  275 #if HAL_UART_USB
//  276   HalUARTPollUSB();
//  277 #endif
//  278 }
        REQUIRE ?Subroutine1
        ; // Fall through to label ?Subroutine1

        RSEG BANKED_CODE:CODE:NOROOT(0)
?Subroutine1:
        CFI Block cfiBlock17 Using cfiCommon0
        CFI NoFunction
        CFI CFA_SP SP+-5
        CFI DPL0 Frame(CFA_SP, 4)
        CFI DPH0 Frame(CFA_SP, 5)
        POP     DPH
        CFI CFA_SP SP+-4
        CFI DPH0 SameValue
        POP     DPL
        CFI CFA_SP SP+-3
        CFI DPL0 SameValue
        LJMP    ?BRET
        CFI EndBlock cfiBlock17
//  279 
//  280 /**************************************************************************************************
//  281  * @fn      Hal_UART_RxBufLen()
//  282  *
//  283  * @brief   Calculate Rx Buffer length - the number of bytes in the buffer.
//  284  *
//  285  * @param   port - UART port
//  286  *
//  287  * @return  length of current Rx Buffer
//  288  **************************************************************************************************/

        RSEG BANKED_CODE:CODE:NOROOT(0)
//  289 uint16 Hal_UART_RxBufLen( uint8 port )
Hal_UART_RxBufLen:
        CFI Block cfiBlock18 Using cfiCommon0
        CFI Function Hal_UART_RxBufLen
//  290 {
        PUSH    DPL
        CFI DPL0 Frame(CFA_SP, 4)
        CFI CFA_SP SP+-4
        PUSH    DPH
        CFI DPH0 Frame(CFA_SP, 5)
        CFI CFA_SP SP+-5
        ; Saved register size: 2
        ; Auto size: 0
//  291   (void)port;
//  292 
//  293 #if (HAL_UART_DMA == 1)
//  294   if (port == HAL_UART_PORT_0)  return HalUARTRxAvailDMA();
//  295 #endif
//  296 #if (HAL_UART_DMA == 2)
//  297   if (port == HAL_UART_PORT_1)  return HalUARTRxAvailDMA();
//  298 #endif
//  299 #if (HAL_UART_ISR == 1)
//  300   if (port == HAL_UART_PORT_0)  return HalUARTRxAvailISR();
        MOV     A,R1
        JNZ     ??Hal_UART_RxBufLen_0
        MOV     DPTR,#(isrCfg + 129)
        MOVX    A,@DPTR
        PUSH    A
        CFI CFA_SP SP+-6
        MOV     DPTR,#(isrCfg + 128)
        MOVX    A,@DPTR
        MOV     R2,A
        POP     A
        CFI CFA_SP SP+-5
        CLR     C
        SUBB    A,R2
        JC      ??Hal_UART_RxBufLen_1
        MOV     DPTR,#(isrCfg + 129)
        MOVX    A,@DPTR
        MOV     R2,A
        MOV     DPTR,#(isrCfg + 128)
        MOVX    A,@DPTR
        MOV     R4,A
        MOV     A,R2
        CLR     C
        SUBB    A,R4
        MOV     R2,A
        CLR     A
        SUBB    A,#0x0
??Hal_UART_RxBufLen_2:
        MOV     R3,A
        SJMP    ??Hal_UART_RxBufLen_3
??Hal_UART_RxBufLen_1:
        MOV     A,#-0x80
        CLR     C
        SUBB    A,R2
        MOV     R2,A
        CLR     A
        SUBB    A,#0x0
        MOV     R3,A
        MOV     DPTR,#(isrCfg + 129)
        MOVX    A,@DPTR
        ADD     A,R2
        MOV     R2,A
        CLR     A
        ADDC    A,R3
        SJMP    ??Hal_UART_RxBufLen_2
//  301 #endif
//  302 #if (HAL_UART_ISR == 2)
//  303   if (port == HAL_UART_PORT_1)  return HalUARTRxAvailISR();
//  304 #endif
//  305 #if HAL_UART_USB
//  306   return HalUARTRxAvailUSB();
//  307 #else
//  308   return 0;
??Hal_UART_RxBufLen_0:
        MOV     R2,#0x0
        MOV     R3,#0x0
??Hal_UART_RxBufLen_3:
        SJMP    ?Subroutine1
        CFI EndBlock cfiBlock18
//  309 #endif
//  310 }
//  311 
//  312 

        RSEG NEAR_CODE:CODE:NOROOT(0)
//  313 __near_func putchar(int c)
putchar:
        CFI Block cfiBlock19 Using cfiCommon2
        CFI Function putchar
//  314 { 
        ; Saved register size: 0
        ; Auto size: 0
//  315      if(c== '\n'){
        MOV     A,#0xa
        XRL     A,R2
        JNZ     ??putchar_0
        MOV     A,R3
??putchar_0:
        JNZ     ??putchar_1
//  316 	    U0DBUF = '\r';  
        MOV     0xc1,#0xd
//  317         while(!UTX0IF); 
??putchar_2:
        MOV     C,0xe8.1
        JNC     ??putchar_2
//  318         UTX0IF = 0; 
        CLR     0xe8.1
//  319         
//  320      }
//  321 	 U0DBUF = c; 
??putchar_1:
        MOV     A,R2
        MOV     0xc1,A
//  322      while(!UTX0IF); 
??putchar_3:
        MOV     C,0xe8.1
        JNC     ??putchar_3
//  323      UTX0IF = 0; 
        CLR     0xe8.1
//  324        
//  325      return c; 
        RET
        CFI EndBlock cfiBlock19
        REQUIRE U0DBUF
        REQUIRE _A_IRCON2
//  326 } 

        COMMON INTVEC:CODE:ROOT(0)
        ORG 19
`??halUart0RxIsr??INTVEC 19`:
        LJMP       (halUart0RxIsr)

        COMMON INTVEC:CODE:ROOT(0)
        ORG 59
`??halUart0TxIsr??INTVEC 59`:
        LJMP       (halUart0TxIsr)

        RSEG BANK_RELAYS:CODE:REORDER:NOROOT(0)
??HalUARTReadISR?relay:
        LCALL   ?BDISPATCH
        DATA
        DC24    HalUARTReadISR

        RSEG BANK_RELAYS:CODE:REORDER:NOROOT(0)
??HalUARTWriteISR?relay:
        LCALL   ?BDISPATCH
        DATA
        DC24    HalUARTWriteISR

        RSEG BANK_RELAYS:CODE:REORDER:NOROOT(0)
??HalUARTPollISR?relay:
        LCALL   ?BDISPATCH
        DATA
        DC24    HalUARTPollISR

        RSEG BANK_RELAYS:CODE:REORDER:NOROOT(0)
??HalUARTInit?relay:
        LCALL   ?BDISPATCH
        DATA
        DC24    HalUARTInit

        RSEG BANK_RELAYS:CODE:REORDER:NOROOT(0)
??HalUARTOpen?relay:
        LCALL   ?BDISPATCH
        DATA
        DC24    HalUARTOpen

        RSEG BANK_RELAYS:CODE:REORDER:NOROOT(0)
??HalUARTRead?relay:
        LCALL   ?BDISPATCH
        DATA
        DC24    HalUARTRead

        RSEG BANK_RELAYS:CODE:REORDER:NOROOT(0)
??HalUARTWrite?relay:
        LCALL   ?BDISPATCH
        DATA
        DC24    HalUARTWrite

        RSEG BANK_RELAYS:CODE:REORDER:NOROOT(0)
??HalUARTSuspend?relay:
        LCALL   ?BDISPATCH
        DATA
        DC24    HalUARTSuspend

        RSEG BANK_RELAYS:CODE:REORDER:NOROOT(0)
??HalUARTResume?relay:
        LCALL   ?BDISPATCH
        DATA
        DC24    HalUARTResume

        RSEG BANK_RELAYS:CODE:REORDER:NOROOT(0)
??HalUARTPoll?relay:
        LCALL   ?BDISPATCH
        DATA
        DC24    HalUARTPoll

        RSEG BANK_RELAYS:CODE:REORDER:NOROOT(0)
??Hal_UART_RxBufLen?relay:
        LCALL   ?BDISPATCH
        DATA
        DC24    Hal_UART_RxBufLen

        END
//  327 
//  328 /******************************************************************************
//  329 ******************************************************************************/
// 
// 725 bytes in segment BANKED_CODE
//  66 bytes in segment BANK_RELAYS
//   6 bytes in segment INTVEC
// 207 bytes in segment NEAR_CODE
//  13 bytes in segment SFR_AN
// 265 bytes in segment XDATA_Z
// 
// 998 bytes of CODE  memory (+  6 bytes shared)
//   0 bytes of DATA  memory (+ 13 bytes shared)
// 265 bytes of XDATA memory
//
//Errors: none
//Warnings: 1
