###############################################################################
#                                                                             #
# IAR C/C++ Compiler V7.60.1.40026 for 8051             05/Apr/2014  17:47:18 #
# Copyright (C) 2004-2010 IAR Systems AB.                                     #
#                                                                             #
#    Core               =  plain                                              #
#    Code model         =  banked                                             #
#    Data model         =  large                                              #
#    Calling convention =  xdata reentrant                                    #
#    Constant location  =  data_rom                                           #
#    Dptr setup         =  1,16                                               #
#    Source file        =  D:\zigbee\projects\zstack-cc2530-coordinator\Proje #
#                          cts\zstack\Samples\GenericApp\Source\OSAL_GenericA #
#                          pp.c                                               #
#    Command line       =  -f D:\zigbee\projects\zstack-cc2530-coordinator\Pr #
#                          ojects\zstack\Samples\GenericApp\CC2530DB\..\..\.. #
#                          \Tools\CC2530DB\f8wEndev.cfg (-DCPU32MHZ           #
#                          -DROOT=__near_func -DMAC_CFG_TX_DATA_MAX=3         #
#                          -DMAC_CFG_TX_MAX=6 -DMAC_CFG_RX_MAX=3) -f          #
#                          D:\zigbee\projects\zstack-cc2530-coordinator\Proje #
#                          cts\zstack\Samples\GenericApp\CC2530DB\..\..\..\To #
#                          ols\CC2530DB\f8wConfig.cfg (-DZIGBEEPRO            #
#                          -DSECURE=0 -DZG_SECURE_DYNAMIC=0 -DREFLECTOR       #
#                          -DDEFAULT_CHANLIST=0x00000800                      #
#                          -DZDAPP_CONFIG_PAN_ID=0xFFFF                       #
#                          -DNWK_START_DELAY=100 -DEXTENDED_JOINING_RANDOM_MA #
#                          SK=0x007F -DBEACON_REQUEST_DELAY=100               #
#                          -DBEACON_REQ_DELAY_MASK=0x00FF                     #
#                          -DLINK_STATUS_JITTER_MASK=0x007F                   #
#                          -DROUTE_EXPIRY_TIME=30 -DAPSC_ACK_WAIT_DURATION_PO #
#                          LLED=3000 -DNWK_INDIRECT_MSG_TIMEOUT=7             #
#                          -DMAX_RREQ_ENTRIES=8 -DAPSC_MAX_FRAME_RETRIES=3    #
#                          -DNWK_MAX_DATA_RETRIES=2                           #
#                          -DMAX_POLL_FAILURE_RETRIES=2 -DMAX_BCAST=9         #
#                          -DAPS_MAX_GROUPS=16 -DMAX_RTG_ENTRIES=40           #
#                          -DNWK_MAX_BINDING_ENTRIES=4                        #
#                          -DMAX_BINDING_CLUSTER_IDS=4 "-DDEFAULT_KEY={0x01,  #
#                          0x03, 0x05, 0x07, 0x09, 0x0B, 0x0D, 0x0F, 0x00,    #
#                          0x02, 0x04, 0x06, 0x08, 0x0A, 0x0C, 0x0D}"         #
#                          -DMAC_MAX_FRAME_SIZE=116                           #
#                          -DZDNWKMGR_MIN_TRANSMISSIONS=20 "-DCONST=const     #
#                          __code" -DGENERIC=__generic                        #
#                          -DRFD_RCVC_ALWAYS_ON=FALSE -DPOLL_RATE=1000        #
#                          -DQUEUED_POLL_RATE=100 -DRESPONSE_POLL_RATE=100)   #
#                          -DREJOIN_POLL_RATE=440 D:\zigbee\projects\zstack-c #
#                          c2530-coordinator\Projects\zstack\Samples\GenericA #
#                          pp\Source\OSAL_GenericApp.c -D NWK_AUTO_POLL -D    #
#                          ZTOOL_P1 -D MT_TASK -D MT_SYS_FUNC -D MT_ZDO_FUNC  #
#                          -D LCD_SUPPORTED=DEBUG -D xPOWER_SAVING -lC        #
#                          D:\zigbee\projects\zstack-cc2530-coordinator\Proje #
#                          cts\zstack\Samples\GenericApp\CC2530DB\EndDeviceEB #
#                          \List\ -lA D:\zigbee\projects\zstack-cc2530-coordi #
#                          nator\Projects\zstack\Samples\GenericApp\CC2530DB\ #
#                          EndDeviceEB\List\ --diag_suppress Pe001,Pa010 -o   #
#                          D:\zigbee\projects\zstack-cc2530-coordinator\Proje #
#                          cts\zstack\Samples\GenericApp\CC2530DB\EndDeviceEB #
#                          \Obj\ -e --require_prototypes --no_code_motion     #
#                          --debug --core=plain --dptr=16,1                   #
#                          --data_model=large --code_model=banked             #
#                          --calling_convention=xdata_reentrant               #
#                          --place_constants=data_rom --nr_virtual_regs 16    #
#                          -I D:\zigbee\projects\zstack-cc2530-coordinator\Pr #
#                          ojects\zstack\Samples\GenericApp\CC2530DB\ -I      #
#                          D:\zigbee\projects\zstack-cc2530-coordinator\Proje #
#                          cts\zstack\Samples\GenericApp\CC2530DB\..\Source\  #
#                          -I D:\zigbee\projects\zstack-cc2530-coordinator\Pr #
#                          ojects\zstack\Samples\GenericApp\CC2530DB\..\..\.. #
#                          \ZMain\TI2530DB\ -I D:\zigbee\projects\zstack-cc25 #
#                          30-coordinator\Projects\zstack\Samples\GenericApp\ #
#                          CC2530DB\..\..\..\..\..\Components\hal\include\    #
#                          -I D:\zigbee\projects\zstack-cc2530-coordinator\Pr #
#                          ojects\zstack\Samples\GenericApp\CC2530DB\..\..\.. #
#                          \..\..\Components\hal\target\CC2530EB\ -I          #
#                          D:\zigbee\projects\zstack-cc2530-coordinator\Proje #
#                          cts\zstack\Samples\GenericApp\CC2530DB\..\..\..\.. #
#                          \..\Components\mac\include\ -I                     #
#                          D:\zigbee\projects\zstack-cc2530-coordinator\Proje #
#                          cts\zstack\Samples\GenericApp\CC2530DB\..\..\..\.. #
#                          \..\Components\mac\high_level\ -I                  #
#                          D:\zigbee\projects\zstack-cc2530-coordinator\Proje #
#                          cts\zstack\Samples\GenericApp\CC2530DB\..\..\..\.. #
#                          \..\Components\mac\low_level\srf04\ -I             #
#                          D:\zigbee\projects\zstack-cc2530-coordinator\Proje #
#                          cts\zstack\Samples\GenericApp\CC2530DB\..\..\..\.. #
#                          \..\Components\mac\low_level\srf04\single_chip\    #
#                          -I D:\zigbee\projects\zstack-cc2530-coordinator\Pr #
#                          ojects\zstack\Samples\GenericApp\CC2530DB\..\..\.. #
#                          \..\..\Components\mt\ -I                           #
#                          D:\zigbee\projects\zstack-cc2530-coordinator\Proje #
#                          cts\zstack\Samples\GenericApp\CC2530DB\..\..\..\.. #
#                          \..\Components\osal\include\ -I                    #
#                          D:\zigbee\projects\zstack-cc2530-coordinator\Proje #
#                          cts\zstack\Samples\GenericApp\CC2530DB\..\..\..\.. #
#                          \..\Components\osal\mcu\ccsoc\ -I                  #
#                          D:\zigbee\projects\zstack-cc2530-coordinator\Proje #
#                          cts\zstack\Samples\GenericApp\CC2530DB\..\..\..\.. #
#                          \..\Components\services\saddr\ -I                  #
#                          D:\zigbee\projects\zstack-cc2530-coordinator\Proje #
#                          cts\zstack\Samples\GenericApp\CC2530DB\..\..\..\.. #
#                          \..\Components\services\sdata\ -I                  #
#                          D:\zigbee\projects\zstack-cc2530-coordinator\Proje #
#                          cts\zstack\Samples\GenericApp\CC2530DB\..\..\..\.. #
#                          \..\Components\stack\af\ -I                        #
#                          D:\zigbee\projects\zstack-cc2530-coordinator\Proje #
#                          cts\zstack\Samples\GenericApp\CC2530DB\..\..\..\.. #
#                          \..\Components\stack\nwk\ -I                       #
#                          D:\zigbee\projects\zstack-cc2530-coordinator\Proje #
#                          cts\zstack\Samples\GenericApp\CC2530DB\..\..\..\.. #
#                          \..\Components\stack\sapi\ -I                      #
#                          D:\zigbee\projects\zstack-cc2530-coordinator\Proje #
#                          cts\zstack\Samples\GenericApp\CC2530DB\..\..\..\.. #
#                          \..\Components\stack\sec\ -I                       #
#                          D:\zigbee\projects\zstack-cc2530-coordinator\Proje #
#                          cts\zstack\Samples\GenericApp\CC2530DB\..\..\..\.. #
#                          \..\Components\stack\sys\ -I                       #
#                          D:\zigbee\projects\zstack-cc2530-coordinator\Proje #
#                          cts\zstack\Samples\GenericApp\CC2530DB\..\..\..\.. #
#                          \..\Components\stack\zdo\ -I                       #
#                          D:\zigbee\projects\zstack-cc2530-coordinator\Proje #
#                          cts\zstack\Samples\GenericApp\CC2530DB\..\..\..\.. #
#                          \..\Components\zmac\ -I D:\zigbee\projects\zstack- #
#                          cc2530-coordinator\Projects\zstack\Samples\Generic #
#                          App\CC2530DB\..\..\..\..\..\Components\zmac\f8w\   #
#                          -I "C:\Program Files (x86)\IAR Systems\Embedded    #
#                          Workbench 5.4\8051\INC\" -I "C:\Program Files      #
#                          (x86)\IAR Systems\Embedded Workbench               #
#                          5.4\8051\INC\CLIB\" -Ohz                           #
#    List file          =  D:\zigbee\projects\zstack-cc2530-coordinator\Proje #
#                          cts\zstack\Samples\GenericApp\CC2530DB\EndDeviceEB #
#                          \List\OSAL_GenericApp.lst                          #
#    Object file        =  D:\zigbee\projects\zstack-cc2530-coordinator\Proje #
#                          cts\zstack\Samples\GenericApp\CC2530DB\EndDeviceEB #
#                          \Obj\OSAL_GenericApp.r51                           #
#                                                                             #
#                                                                             #
###############################################################################

D:\zigbee\projects\zstack-cc2530-coordinator\Projects\zstack\Samples\GenericApp\Source\OSAL_GenericApp.c
      1          /****************************************
      2          * File Name          : OSAL_GenericApp.c
      3          * Author             : Shang LI
      4          * Version            : V1.0.0 NOTE: Developed based on zstack 2.4.0
      5          * Date               : 05/04/2014
      6          * Description        : This file contains all the settings and other functions
      7                            that the user should set and change.
      8          ******************************************/
      9          
     10          /*********************************************************************
     11           * INCLUDES
     12           */
     13          
     14          #include "ZComDef.h"
     15          #include "hal_drivers.h"
     16          #include "OSAL.h"
     17          #include "OSAL_Tasks.h"
     18          
     19          #if defined ( MT_TASK )
     20            #include "MT.h"
     21            #include "MT_TASK.h"
     22          #endif
     23          
     24          #include "nwk.h"
     25          #include "APS.h"
     26          #include "ZDApp.h"
     27          #if defined ( ZIGBEE_FREQ_AGILITY ) || defined ( ZIGBEE_PANID_CONFLICT )
     28            #include "ZDNwkMgr.h"
     29          #endif
     30          #if defined ( ZIGBEE_FRAGMENTATION )
     31            #include "aps_frag.h"
     32          #endif
     33          
     34          #include "GenericApp.h"
     35          
     36          /*********************************************************************
     37           * GLOBAL VARIABLES
     38           */
     39          
     40          // The order in this table must be identical to the task initialization calls below in osalInitTask.

   \                                 In  segment XDATA_ROM_C, align 1
     41          const pTaskEventHandlerFn tasksArr[] = {
   \                     tasksArr:
   \   000000   ........     DW ??macEventLoop?relay, ??nwk_event_loop?relay
   \   000004   ........     DW ??Hal_ProcessEvent?relay, ??MT_ProcessEvent?relay
   \   000008   ........     DW ??APS_event_loop?relay, ??APSF_ProcessEvent?relay
   \   00000C   ........     DW ??ZDApp_event_loop?relay, ??GenericApp_ProcessEvent?relay
     42            macEventLoop,
     43            nwk_event_loop,
     44            Hal_ProcessEvent,
     45          #if defined( MT_TASK )
     46            MT_ProcessEvent,
     47          #endif
     48            APS_event_loop,
     49          #if defined ( ZIGBEE_FRAGMENTATION )
     50            APSF_ProcessEvent,
     51          #endif
     52            ZDApp_event_loop,
     53          #if defined ( ZIGBEE_FREQ_AGILITY ) || defined ( ZIGBEE_PANID_CONFLICT )
     54            ZDNwkMgr_event_loop,
     55          #endif
     56            GenericApp_ProcessEvent
     57          };
     58          

   \                                 In  segment XDATA_ROM_C, align 1
     59          const uint8 tasksCnt = sizeof( tasksArr ) / sizeof( tasksArr[0] );
   \                     tasksCnt:
   \   000000   08           DB 8

   \                                 In  segment XDATA_Z, align 1, keep-with-next
     60          uint16 *tasksEvents;
   \                     tasksEvents:
   \   000000                DS 2
   \   000002                REQUIRE __INIT_XDATA_Z
     61          
     62          /*********************************************************************
     63           * FUNCTIONS
     64           *********************************************************************/
     65          
     66          /*********************************************************************
     67           * @fn      osalInitTasks
     68           *
     69           * @brief   This function invokes the initialization function for each task.
     70           *
     71           * @param   void
     72           *
     73           * @return  none
     74           */

   \                                 In  segment BANKED_CODE, align 1, keep-with-next
     75          void osalInitTasks( void )
   \                     osalInitTasks:
     76          {
   \   000000   C082         PUSH    DPL
   \   000002   C083         PUSH    DPH
   \   000004                ; Saved register size: 2
   \   000004                ; Auto size: 0
     77            uint8 taskID = 0;
     78          
     79            tasksEvents = (uint16 *)osal_mem_alloc( sizeof( uint16 ) * tasksCnt);
   \   000004                ; Setup parameters for call to function osal_mem_alloc
   \   000004   7A10         MOV     R2,#0x10
   \   000006   7B00         MOV     R3,#0x0
   \   000008   12....       LCALL   ??osal_mem_alloc?relay
   \   00000B   90....       MOV     DPTR,#tasksEvents
   \   00000E   EA           MOV     A,R2
   \   00000F   F0           MOVX    @DPTR,A
   \   000010   A3           INC     DPTR
   \   000011   EB           MOV     A,R3
   \   000012   F0           MOVX    @DPTR,A
     80            osal_memset( tasksEvents, 0, (sizeof( uint16 ) * tasksCnt));
   \   000013                ; Setup parameters for call to function osal_memset
   \   000013   7C10         MOV     R4,#0x10
   \   000015   7D00         MOV     R5,#0x0
   \   000017   7900         MOV     R1,#0x0
   \   000019   12....       LCALL   ??osal_memset?relay
     81          
     82            macTaskInit( taskID++ );
   \   00001C                ; Setup parameters for call to function macTaskInit
   \   00001C   7900         MOV     R1,#0x0
   \   00001E   12....       LCALL   ??macTaskInit?relay
     83            nwk_init( taskID++ );
   \   000021                ; Setup parameters for call to function nwk_init
   \   000021   7901         MOV     R1,#0x1
   \   000023   12....       LCALL   ??nwk_init?relay
     84            Hal_Init( taskID++ );
   \   000026                ; Setup parameters for call to function Hal_Init
   \   000026   7902         MOV     R1,#0x2
   \   000028   12....       LCALL   ??Hal_Init?relay
     85          #if defined( MT_TASK )
     86            MT_TaskInit( taskID++ );
   \   00002B                ; Setup parameters for call to function MT_TaskInit
   \   00002B   7903         MOV     R1,#0x3
   \   00002D   12....       LCALL   ??MT_TaskInit?relay
     87          #endif
     88            APS_Init( taskID++ );
   \   000030                ; Setup parameters for call to function APS_Init
   \   000030   7904         MOV     R1,#0x4
   \   000032   12....       LCALL   ??APS_Init?relay
     89          #if defined ( ZIGBEE_FRAGMENTATION )
     90            APSF_Init( taskID++ );
   \   000035                ; Setup parameters for call to function APSF_Init
   \   000035   7905         MOV     R1,#0x5
   \   000037   12....       LCALL   ??APSF_Init?relay
     91          #endif
     92            ZDApp_Init( taskID++ );
   \   00003A                ; Setup parameters for call to function ZDApp_Init
   \   00003A   7906         MOV     R1,#0x6
   \   00003C   12....       LCALL   ??ZDApp_Init?relay
     93          #if defined ( ZIGBEE_FREQ_AGILITY ) || defined ( ZIGBEE_PANID_CONFLICT )
     94            ZDNwkMgr_Init( taskID++ );
     95          #endif
     96            GenericApp_Init( taskID );
   \   00003F                ; Setup parameters for call to function GenericApp_Init
   \   00003F   7907         MOV     R1,#0x7
   \   000041   12....       LCALL   ??GenericApp_Init?relay
     97          }
   \   000044   D083         POP     DPH
   \   000046   D082         POP     DPL
   \   000048   02....       LJMP    ?BRET

   \                                 In  segment BANK_RELAYS, align 1
   \                     ??osalInitTasks?relay:
   \   000000   12....       LCALL   ?BDISPATCH
   \   000003   ......       DC24    osalInitTasks
     98          
     99          /*********************************************************************
    100          *********************************************************************/

   Maximum stack usage in bytes:

     Function             ISTACK PSTACK XSTACK
     --------             ------ ------ ------
     osalInitTasks            2      0      0
       -> osal_mem_alloc      4      0      0
       -> osal_memset         4      0      0
       -> macTaskInit         4      0      0
       -> nwk_init            4      0      0
       -> Hal_Init            4      0      0
       -> MT_TaskInit         4      0      0
       -> APS_Init            4      0      0
       -> APSF_Init           4      0      0
       -> ZDApp_Init          4      0      0
       -> GenericApp_Init     4      0      0


   Segment part sizes:

     Function/Label        Bytes
     --------------        -----
     tasksArr                16
     tasksCnt                 1
     tasksEvents              2
     osalInitTasks           75
     ??osalInitTasks?relay    6

 
 75 bytes in segment BANKED_CODE
  6 bytes in segment BANK_RELAYS
 17 bytes in segment XDATA_ROM_C
  2 bytes in segment XDATA_Z
 
 81 bytes of CODE  memory
 17 bytes of CONST memory
  2 bytes of XDATA memory

Errors: none
Warnings: none
