///////////////////////////////////////////////////////////////////////////////
//                                                                            /
// IAR C/C++ Compiler V7.60.1.40026 for 8051            05/Apr/2014  17:47:20 /
// Copyright (C) 2004-2010 IAR Systems AB.                                    /
//                                                                            /
//    Core               =  plain                                             /
//    Code model         =  banked                                            /
//    Data model         =  large                                             /
//    Calling convention =  xdata reentrant                                   /
//    Constant location  =  data_rom                                          /
//    Dptr setup         =  1,16                                              /
//    Source file        =  D:\zigbee\projects\zstack-cc2530-coordinator\Comp /
//                          onents\stack\zdo\ZDApp.c                          /
//    Command line       =  -f D:\zigbee\projects\zstack-cc2530-coordinator\P /
//                          rojects\zstack\Samples\GenericApp\CC2530DB\..\..\ /
//                          ..\Tools\CC2530DB\f8wEndev.cfg (-DCPU32MHZ        /
//                          -DROOT=__near_func -DMAC_CFG_TX_DATA_MAX=3        /
//                          -DMAC_CFG_TX_MAX=6 -DMAC_CFG_RX_MAX=3) -f         /
//                          D:\zigbee\projects\zstack-cc2530-coordinator\Proj /
//                          ects\zstack\Samples\GenericApp\CC2530DB\..\..\..\ /
//                          Tools\CC2530DB\f8wConfig.cfg (-DZIGBEEPRO         /
//                          -DSECURE=0 -DZG_SECURE_DYNAMIC=0 -DREFLECTOR      /
//                          -DDEFAULT_CHANLIST=0x00000800                     /
//                          -DZDAPP_CONFIG_PAN_ID=0xFFFF                      /
//                          -DNWK_START_DELAY=100 -DEXTENDED_JOINING_RANDOM_M /
//                          ASK=0x007F -DBEACON_REQUEST_DELAY=100             /
//                          -DBEACON_REQ_DELAY_MASK=0x00FF                    /
//                          -DLINK_STATUS_JITTER_MASK=0x007F                  /
//                          -DROUTE_EXPIRY_TIME=30 -DAPSC_ACK_WAIT_DURATION_P /
//                          OLLED=3000 -DNWK_INDIRECT_MSG_TIMEOUT=7           /
//                          -DMAX_RREQ_ENTRIES=8 -DAPSC_MAX_FRAME_RETRIES=3   /
//                          -DNWK_MAX_DATA_RETRIES=2                          /
//                          -DMAX_POLL_FAILURE_RETRIES=2 -DMAX_BCAST=9        /
//                          -DAPS_MAX_GROUPS=16 -DMAX_RTG_ENTRIES=40          /
//                          -DNWK_MAX_BINDING_ENTRIES=4                       /
//                          -DMAX_BINDING_CLUSTER_IDS=4                       /
//                          "-DDEFAULT_KEY={0x01, 0x03, 0x05, 0x07, 0x09,     /
//                          0x0B, 0x0D, 0x0F, 0x00, 0x02, 0x04, 0x06, 0x08,   /
//                          0x0A, 0x0C, 0x0D}" -DMAC_MAX_FRAME_SIZE=116       /
//                          -DZDNWKMGR_MIN_TRANSMISSIONS=20 "-DCONST=const    /
//                          __code" -DGENERIC=__generic                       /
//                          -DRFD_RCVC_ALWAYS_ON=FALSE -DPOLL_RATE=1000       /
//                          -DQUEUED_POLL_RATE=100 -DRESPONSE_POLL_RATE=100)  /
//                          -DREJOIN_POLL_RATE=440 D:\zigbee\projects\zstack- /
//                          cc2530-coordinator\Components\stack\zdo\ZDApp.c   /
//                          -D NWK_AUTO_POLL -D ZTOOL_P1 -D MT_TASK -D        /
//                          MT_SYS_FUNC -D MT_ZDO_FUNC -D                     /
//                          LCD_SUPPORTED=DEBUG -D xPOWER_SAVING -lC          /
//                          D:\zigbee\projects\zstack-cc2530-coordinator\Proj /
//                          ects\zstack\Samples\GenericApp\CC2530DB\EndDevice /
//                          EB\List\ -lA D:\zigbee\projects\zstack-cc2530-coo /
//                          rdinator\Projects\zstack\Samples\GenericApp\CC253 /
//                          0DB\EndDeviceEB\List\ --diag_suppress             /
//                          Pe001,Pa010 -o D:\zigbee\projects\zstack-cc2530-c /
//                          oordinator\Projects\zstack\Samples\GenericApp\CC2 /
//                          530DB\EndDeviceEB\Obj\ -e --require_prototypes    /
//                          --no_code_motion --debug --core=plain             /
//                          --dptr=16,1 --data_model=large                    /
//                          --code_model=banked --calling_convention=xdata_re /
//                          entrant --place_constants=data_rom                /
//                          --nr_virtual_regs 16 -I                           /
//                          D:\zigbee\projects\zstack-cc2530-coordinator\Proj /
//                          ects\zstack\Samples\GenericApp\CC2530DB\ -I       /
//                          D:\zigbee\projects\zstack-cc2530-coordinator\Proj /
//                          ects\zstack\Samples\GenericApp\CC2530DB\..\Source /
//                          \ -I D:\zigbee\projects\zstack-cc2530-coordinator /
//                          \Projects\zstack\Samples\GenericApp\CC2530DB\..\. /
//                          .\..\ZMain\TI2530DB\ -I                           /
//                          D:\zigbee\projects\zstack-cc2530-coordinator\Proj /
//                          ects\zstack\Samples\GenericApp\CC2530DB\..\..\..\ /
//                          ..\..\Components\hal\include\ -I                  /
//                          D:\zigbee\projects\zstack-cc2530-coordinator\Proj /
//                          ects\zstack\Samples\GenericApp\CC2530DB\..\..\..\ /
//                          ..\..\Components\hal\target\CC2530EB\ -I          /
//                          D:\zigbee\projects\zstack-cc2530-coordinator\Proj /
//                          ects\zstack\Samples\GenericApp\CC2530DB\..\..\..\ /
//                          ..\..\Components\mac\include\ -I                  /
//                          D:\zigbee\projects\zstack-cc2530-coordinator\Proj /
//                          ects\zstack\Samples\GenericApp\CC2530DB\..\..\..\ /
//                          ..\..\Components\mac\high_level\ -I               /
//                          D:\zigbee\projects\zstack-cc2530-coordinator\Proj /
//                          ects\zstack\Samples\GenericApp\CC2530DB\..\..\..\ /
//                          ..\..\Components\mac\low_level\srf04\ -I          /
//                          D:\zigbee\projects\zstack-cc2530-coordinator\Proj /
//                          ects\zstack\Samples\GenericApp\CC2530DB\..\..\..\ /
//                          ..\..\Components\mac\low_level\srf04\single_chip\ /
//                           -I D:\zigbee\projects\zstack-cc2530-coordinator\ /
//                          Projects\zstack\Samples\GenericApp\CC2530DB\..\.. /
//                          \..\..\..\Components\mt\ -I                       /
//                          D:\zigbee\projects\zstack-cc2530-coordinator\Proj /
//                          ects\zstack\Samples\GenericApp\CC2530DB\..\..\..\ /
//                          ..\..\Components\osal\include\ -I                 /
//                          D:\zigbee\projects\zstack-cc2530-coordinator\Proj /
//                          ects\zstack\Samples\GenericApp\CC2530DB\..\..\..\ /
//                          ..\..\Components\osal\mcu\ccsoc\ -I               /
//                          D:\zigbee\projects\zstack-cc2530-coordinator\Proj /
//                          ects\zstack\Samples\GenericApp\CC2530DB\..\..\..\ /
//                          ..\..\Components\services\saddr\ -I               /
//                          D:\zigbee\projects\zstack-cc2530-coordinator\Proj /
//                          ects\zstack\Samples\GenericApp\CC2530DB\..\..\..\ /
//                          ..\..\Components\services\sdata\ -I               /
//                          D:\zigbee\projects\zstack-cc2530-coordinator\Proj /
//                          ects\zstack\Samples\GenericApp\CC2530DB\..\..\..\ /
//                          ..\..\Components\stack\af\ -I                     /
//                          D:\zigbee\projects\zstack-cc2530-coordinator\Proj /
//                          ects\zstack\Samples\GenericApp\CC2530DB\..\..\..\ /
//                          ..\..\Components\stack\nwk\ -I                    /
//                          D:\zigbee\projects\zstack-cc2530-coordinator\Proj /
//                          ects\zstack\Samples\GenericApp\CC2530DB\..\..\..\ /
//                          ..\..\Components\stack\sapi\ -I                   /
//                          D:\zigbee\projects\zstack-cc2530-coordinator\Proj /
//                          ects\zstack\Samples\GenericApp\CC2530DB\..\..\..\ /
//                          ..\..\Components\stack\sec\ -I                    /
//                          D:\zigbee\projects\zstack-cc2530-coordinator\Proj /
//                          ects\zstack\Samples\GenericApp\CC2530DB\..\..\..\ /
//                          ..\..\Components\stack\sys\ -I                    /
//                          D:\zigbee\projects\zstack-cc2530-coordinator\Proj /
//                          ects\zstack\Samples\GenericApp\CC2530DB\..\..\..\ /
//                          ..\..\Components\stack\zdo\ -I                    /
//                          D:\zigbee\projects\zstack-cc2530-coordinator\Proj /
//                          ects\zstack\Samples\GenericApp\CC2530DB\..\..\..\ /
//                          ..\..\Components\zmac\ -I                         /
//                          D:\zigbee\projects\zstack-cc2530-coordinator\Proj /
//                          ects\zstack\Samples\GenericApp\CC2530DB\..\..\..\ /
//                          ..\..\Components\zmac\f8w\ -I "C:\Program Files   /
//                          (x86)\IAR Systems\Embedded Workbench              /
//                          5.4\8051\INC\" -I "C:\Program Files (x86)\IAR     /
//                          Systems\Embedded Workbench 5.4\8051\INC\CLIB\"    /
//                          -Ohz                                              /
//    List file          =  D:\zigbee\projects\zstack-cc2530-coordinator\Proj /
//                          ects\zstack\Samples\GenericApp\CC2530DB\EndDevice /
//                          EB\List\ZDApp.s51                                 /
//                                                                            /
//                                                                            /
///////////////////////////////////////////////////////////////////////////////

        NAME ZDApp

        RTMODEL "__calling_convention", "xdata_reentrant"
        RTMODEL "__code_model", "banked"
        RTMODEL "__core", "plain"
        RTMODEL "__data_model", "large"
        RTMODEL "__dptr_size", "16"
        RTMODEL "__extended_stack", "disabled"
        RTMODEL "__location_for_constants", "data"
        RTMODEL "__number_of_dptrs", "1"
        RTMODEL "__rt_version", "1"

        RSEG DOVERLAY:DATA:NOROOT(0)
        RSEG IOVERLAY:IDATA:NOROOT(0)
        RSEG ISTACK:IDATA:NOROOT(0)
        RSEG PSTACK:XDATA:NOROOT(0)
        RSEG XSTACK:XDATA:NOROOT(0)

        EXTERN ?ALLOC_XSTACK8
        EXTERN ?BANKED_ENTER_XDATA
        EXTERN ?BANKED_LEAVE_XDATA
        EXTERN ?BDISPATCH
        EXTERN ?BRET
        EXTERN ?CALL_IND
        EXTERN ?DEALLOC_XSTACK8
        EXTERN ?L_ADD_TO_X
        EXTERN ?L_EQ_X
        EXTERN ?L_MOV_TO_X
        EXTERN ?L_MOV_X
        EXTERN ?PUSH_XSTACK8_X_TWO
        EXTERN ?PUSH_XSTACK_I_ONE
        EXTERN ?PUSH_XSTACK_I_THREE
        EXTERN ?PUSH_XSTACK_I_TWO
        EXTERN ?UC_SWITCH_DENSE
        EXTERN ?UC_SWITCH_SPARSE
        EXTERN ?US_SWITCH_SPARSE
        EXTERN ?V0
        EXTERN ?XSP
        EXTERN ?XSTACK_DISP0_8
        EXTERN __INIT_XDATA_I
        EXTERN __INIT_XDATA_Z

        PUBLIC ??AddrMgrWriteNVRequest?relay
        FUNCTION ??AddrMgrWriteNVRequest?relay,0203H
        PUBLIC ??ZDAppCheckForHoldKey?relay
        FUNCTION ??ZDAppCheckForHoldKey?relay,0203H
        PUBLIC ??ZDAppDetermineDeviceType?relay
        FUNCTION ??ZDAppDetermineDeviceType?relay,0203H
        PUBLIC ??ZDApp_AnnounceNewAddress?relay
        FUNCTION ??ZDApp_AnnounceNewAddress?relay,0203H
        PUBLIC ??ZDApp_ChangeMatchDescRespPermission?relay
        FUNCTION ??ZDApp_ChangeMatchDescRespPermission?relay,0203H
        PUBLIC ??ZDApp_CoordStartPANIDConflictCB?relay
        FUNCTION ??ZDApp_CoordStartPANIDConflictCB?relay,0203H
        PUBLIC ??ZDApp_DeviceAuthEvt?relay
        FUNCTION ??ZDApp_DeviceAuthEvt?relay,0203H
        PUBLIC ??ZDApp_InMsgCB?relay
        FUNCTION ??ZDApp_InMsgCB?relay,0203H
        PUBLIC ??ZDApp_Init?relay
        FUNCTION ??ZDApp_Init?relay,0203H
        PUBLIC ??ZDApp_InitUserDesc?relay
        FUNCTION ??ZDApp_InitUserDesc?relay,0203H
        PUBLIC ??ZDApp_InitZdoCBFunc?relay
        FUNCTION ??ZDApp_InitZdoCBFunc?relay,0203H
        PUBLIC ??ZDApp_JoinReq?relay
        FUNCTION ??ZDApp_JoinReq?relay,0203H
        PUBLIC ??ZDApp_LeaveCtrlBypass?relay
        FUNCTION ??ZDApp_LeaveCtrlBypass?relay,0203H
        PUBLIC ??ZDApp_LeaveCtrlInit?relay
        FUNCTION ??ZDApp_LeaveCtrlInit?relay,0203H
        PUBLIC ??ZDApp_LeaveCtrlSet?relay
        FUNCTION ??ZDApp_LeaveCtrlSet?relay,0203H
        PUBLIC ??ZDApp_LeaveCtrlStartup?relay
        FUNCTION ??ZDApp_LeaveCtrlStartup?relay,0203H
        PUBLIC ??ZDApp_LeaveReset?relay
        FUNCTION ??ZDApp_LeaveReset?relay,0203H
        PUBLIC ??ZDApp_LeaveUpdate?relay
        FUNCTION ??ZDApp_LeaveUpdate?relay,0203H
        PUBLIC ??ZDApp_NVUpdate?relay
        FUNCTION ??ZDApp_NVUpdate?relay,0203H
        PUBLIC ??ZDApp_NetworkDiscoveryReq?relay
        FUNCTION ??ZDApp_NetworkDiscoveryReq?relay,0203H
        PUBLIC ??ZDApp_NetworkInit?relay
        FUNCTION ??ZDApp_NetworkInit?relay,0203H
        PUBLIC ??ZDApp_NetworkStartEvt?relay
        FUNCTION ??ZDApp_NetworkStartEvt?relay,0203H
        PUBLIC ??ZDApp_NodeProfileSync?relay
        FUNCTION ??ZDApp_NodeProfileSync?relay,0203H
        PUBLIC ??ZDApp_NwkDescListProcessing?relay
        FUNCTION ??ZDApp_NwkDescListProcessing?relay,0203H
        PUBLIC ??ZDApp_NwkStateUpdateCB?relay
        FUNCTION ??ZDApp_NwkStateUpdateCB?relay,0203H
        PUBLIC ??ZDApp_ProcessMsgCBs?relay
        FUNCTION ??ZDApp_ProcessMsgCBs?relay,0203H
        PUBLIC ??ZDApp_ProcessNetworkJoin?relay
        FUNCTION ??ZDApp_ProcessNetworkJoin?relay,0203H
        PUBLIC ??ZDApp_ProcessOSALMsg?relay
        FUNCTION ??ZDApp_ProcessOSALMsg?relay,0203H
        PUBLIC ??ZDApp_ProcessSecEvent?relay
        FUNCTION ??ZDApp_ProcessSecEvent?relay,0203H
        PUBLIC ??ZDApp_ProcessSecMsg?relay
        FUNCTION ??ZDApp_ProcessSecMsg?relay,0203H
        PUBLIC ??ZDApp_ReadNetworkRestoreState?relay
        FUNCTION ??ZDApp_ReadNetworkRestoreState?relay,0203H
        PUBLIC ??ZDApp_RegisterCBs?relay
        FUNCTION ??ZDApp_RegisterCBs?relay,0203H
        PUBLIC ??ZDApp_ResetNwkKey?relay
        FUNCTION ??ZDApp_ResetNwkKey?relay,0203H
        PUBLIC ??ZDApp_ResetTimerCancel?relay
        FUNCTION ??ZDApp_ResetTimerCancel?relay,0203H
        PUBLIC ??ZDApp_ResetTimerStart?relay
        FUNCTION ??ZDApp_ResetTimerStart?relay,0203H
        PUBLIC ??ZDApp_RestoreNetworkState?relay
        FUNCTION ??ZDApp_RestoreNetworkState?relay,0203H
        PUBLIC ??ZDApp_RestoreNwkKey?relay
        FUNCTION ??ZDApp_RestoreNwkKey?relay,0203H
        PUBLIC ??ZDApp_SaveNetworkStateEvt?relay
        FUNCTION ??ZDApp_SaveNetworkStateEvt?relay,0203H
        PUBLIC ??ZDApp_SaveNwkKey?relay
        FUNCTION ??ZDApp_SaveNwkKey?relay,0203H
        PUBLIC ??ZDApp_SecInit?relay
        FUNCTION ??ZDApp_SecInit?relay,0203H
        PUBLIC ??ZDApp_SendEventMsg?relay
        FUNCTION ??ZDApp_SendEventMsg?relay,0203H
        PUBLIC ??ZDApp_SendMsg?relay
        FUNCTION ??ZDApp_SendMsg?relay,0203H
        PUBLIC ??ZDApp_StartJoiningCycle?relay
        FUNCTION ??ZDApp_StartJoiningCycle?relay,0203H
        PUBLIC ??ZDApp_StopJoiningCycle?relay
        FUNCTION ??ZDApp_StopJoiningCycle?relay,0203H
        PUBLIC ??ZDApp_event_loop?relay
        FUNCTION ??ZDApp_event_loop?relay,0203H
        PUBLIC ??ZDOInitDevice?relay
        FUNCTION ??ZDOInitDevice?relay,0203H
        PUBLIC ??ZDO_AddrChangeIndicationCB?relay
        FUNCTION ??ZDO_AddrChangeIndicationCB?relay,0203H
        PUBLIC ??ZDO_ConcentratorIndicationCB?relay
        FUNCTION ??ZDO_ConcentratorIndicationCB?relay,0203H
        PUBLIC ??ZDO_DeregisterForZdoCB?relay
        FUNCTION ??ZDO_DeregisterForZdoCB?relay,0203H
        PUBLIC ??ZDO_JoinConfirmCB?relay
        FUNCTION ??ZDO_JoinConfirmCB?relay,0203H
        PUBLIC ??ZDO_JoinIndicationCB?relay
        FUNCTION ??ZDO_JoinIndicationCB?relay,0203H
        PUBLIC ??ZDO_LeaveCnf?relay
        FUNCTION ??ZDO_LeaveCnf?relay,0203H
        PUBLIC ??ZDO_LeaveInd?relay
        FUNCTION ??ZDO_LeaveInd?relay,0203H
        PUBLIC ??ZDO_ManytoOneFailureIndicationCB?relay
        FUNCTION ??ZDO_ManytoOneFailureIndicationCB?relay,0203H
        PUBLIC ??ZDO_NetworkDiscoveryConfirmCB?relay
        FUNCTION ??ZDO_NetworkDiscoveryConfirmCB?relay,0203H
        PUBLIC ??ZDO_NetworkFormationConfirmCB?relay
        FUNCTION ??ZDO_NetworkFormationConfirmCB?relay,0203H
        PUBLIC ??ZDO_PollConfirmCB?relay
        FUNCTION ??ZDO_PollConfirmCB?relay,0203H
        PUBLIC ??ZDO_RegisterForZdoCB?relay
        FUNCTION ??ZDO_RegisterForZdoCB?relay,0203H
        PUBLIC ??ZDO_SrcRtgIndCB?relay
        FUNCTION ??ZDO_SrcRtgIndCB?relay,0203H
        PUBLIC ??ZDO_StartRouterConfirmCB?relay
        FUNCTION ??ZDO_StartRouterConfirmCB?relay,0203H
        PUBLIC ??ZDO_SyncIndicationCB?relay
        FUNCTION ??ZDO_SyncIndicationCB?relay,0203H
        PUBLIC ??ZDO_UpdateDeviceIndication?relay
        FUNCTION ??ZDO_UpdateDeviceIndication?relay,0203H
        PUBLIC ??ZDO_beaconNotifyIndCB?relay
        FUNCTION ??ZDO_beaconNotifyIndCB?relay,0203H
        PUBLIC AddrMgrWriteNVRequest
        FUNCTION AddrMgrWriteNVRequest,0203H
        ARGFRAME XSTACK, 0, STACK
        PUBLIC MatchRsps
        PUBLIC ZDAppCheckForHoldKey
        FUNCTION ZDAppCheckForHoldKey,021203H
        ARGFRAME XSTACK, 9, STACK
        ARGFRAME IOVERLAY, 0, STATIC
        ARGFRAME DOVERLAY, 0, STATIC
        LOCFRAME ISTACK, 2, STACK
        PUBLIC ZDAppDetermineDeviceType
        FUNCTION ZDAppDetermineDeviceType,021203H
        ARGFRAME XSTACK, 12, STACK
        ARGFRAME IOVERLAY, 0, STATIC
        ARGFRAME DOVERLAY, 0, STATIC
        LOCFRAME ISTACK, 2, STACK
        PUBLIC ZDAppNwkAddr
        PUBLIC ZDAppTaskID
        PUBLIC ZDApp_AnnounceNewAddress
        FUNCTION ZDApp_AnnounceNewAddress,021203H
        ARGFRAME XSTACK, 12, STACK
        ARGFRAME IOVERLAY, 0, STATIC
        ARGFRAME DOVERLAY, 0, STATIC
        LOCFRAME XSTACK, 11, STACK
        PUBLIC ZDApp_AutoFindMode_epDesc
        PUBLIC ZDApp_ChangeMatchDescRespPermission
        FUNCTION ZDApp_ChangeMatchDescRespPermission,021203H
        ARGFRAME XSTACK, 0, STACK
        LOCFRAME XSTACK, 9, STACK
        PUBLIC ZDApp_CoordStartPANIDConflictCB
        FUNCTION ZDApp_CoordStartPANIDConflictCB,0203H
        ARGFRAME XSTACK, 0, STACK
        PUBLIC ZDApp_DeviceAuthEvt
        FUNCTION ZDApp_DeviceAuthEvt,021203H
        ARGFRAME XSTACK, 9, STACK
        ARGFRAME IOVERLAY, 0, STATIC
        ARGFRAME DOVERLAY, 0, STATIC
        LOCFRAME ISTACK, 2, STACK
        PUBLIC ZDApp_InMsgCB
        FUNCTION ZDApp_InMsgCB,021203H
        ARGFRAME XSTACK, 0, STACK
        LOCFRAME XSTACK, 14, STACK
        PUBLIC ZDApp_Init
        FUNCTION ZDApp_Init,021203H
        ARGFRAME XSTACK, 0, STACK
        LOCFRAME XSTACK, 9, STACK
        PUBLIC ZDApp_InitUserDesc
        FUNCTION ZDApp_InitUserDesc,021203H
        ARGFRAME XSTACK, 9, STACK
        ARGFRAME IOVERLAY, 0, STATIC
        ARGFRAME DOVERLAY, 0, STATIC
        LOCFRAME XSTACK, 31, STACK
        PUBLIC ZDApp_InitZdoCBFunc
        FUNCTION ZDApp_InitZdoCBFunc,0203H
        ARGFRAME XSTACK, 9, STACK
        ARGFRAME IOVERLAY, 0, STATIC
        ARGFRAME DOVERLAY, 0, STATIC
        LOCFRAME ISTACK, 2, STACK
        PUBLIC ZDApp_JoinReq
        FUNCTION ZDApp_JoinReq,021203H
        ARGFRAME XSTACK, 4, STACK
        LOCFRAME XSTACK, 18, STACK
        PUBLIC ZDApp_LeaveCtrl
        PUBLIC ZDApp_LeaveCtrlBypass
        FUNCTION ZDApp_LeaveCtrlBypass,0203H
        ARGFRAME XSTACK, 0, STACK
        LOCFRAME ISTACK, 2, STACK
        PUBLIC ZDApp_LeaveCtrlInit
        FUNCTION ZDApp_LeaveCtrlInit,021203H
        ARGFRAME XSTACK, 12, STACK
        ARGFRAME IOVERLAY, 0, STATIC
        ARGFRAME DOVERLAY, 0, STATIC
        LOCFRAME XSTACK, 14, STACK
        PUBLIC ZDApp_LeaveCtrlSet
        FUNCTION ZDApp_LeaveCtrlSet,021203H
        ARGFRAME XSTACK, 9, STACK
        ARGFRAME IOVERLAY, 0, STATIC
        ARGFRAME DOVERLAY, 0, STATIC
        LOCFRAME XSTACK, 14, STACK
        PUBLIC ZDApp_LeaveCtrlStartup
        FUNCTION ZDApp_LeaveCtrlStartup,021203H
        ARGFRAME XSTACK, 12, STACK
        ARGFRAME IOVERLAY, 0, STATIC
        ARGFRAME DOVERLAY, 0, STATIC
        LOCFRAME ISTACK, 1, STACK
        LOCFRAME XSTACK, 14, STACK
        PUBLIC ZDApp_LeaveReset
        FUNCTION ZDApp_LeaveReset,021203H
        ARGFRAME XSTACK, 10, STACK
        ARGFRAME IOVERLAY, 0, STATIC
        ARGFRAME DOVERLAY, 0, STATIC
        LOCFRAME XSTACK, 9, STACK
        PUBLIC ZDApp_LeaveUpdate
        FUNCTION ZDApp_LeaveUpdate,0203H
        ARGFRAME XSTACK, 0, STACK
        PUBLIC ZDApp_NVUpdate
        FUNCTION ZDApp_NVUpdate,0203H
        ARGFRAME XSTACK, 0, STACK
        PUBLIC ZDApp_NetworkDiscoveryReq
        FUNCTION ZDApp_NetworkDiscoveryReq,021203H
        ARGFRAME XSTACK, 0, STACK
        LOCFRAME XSTACK, 12, STACK
        PUBLIC ZDApp_NetworkInit
        FUNCTION ZDApp_NetworkInit,021203H
        ARGFRAME XSTACK, 12, STACK
        ARGFRAME IOVERLAY, 0, STATIC
        ARGFRAME DOVERLAY, 0, STATIC
        LOCFRAME ISTACK, 2, STACK
        PUBLIC ZDApp_NetworkStartEvt
        FUNCTION ZDApp_NetworkStartEvt,021203H
        ARGFRAME XSTACK, 0, STACK
        LOCFRAME ISTACK, 2, STACK
        PUBLIC ZDApp_NodeProfileSync
        FUNCTION ZDApp_NodeProfileSync,021203H
        ARGFRAME XSTACK, 14, STACK
        ARGFRAME IOVERLAY, 0, STATIC
        ARGFRAME DOVERLAY, 0, STATIC
        LOCFRAME XSTACK, 9, STACK
        PUBLIC ZDApp_NwkDescListProcessing
        FUNCTION ZDApp_NwkDescListProcessing,021203H
        ARGFRAME XSTACK, 11, STACK
        ARGFRAME IOVERLAY, 0, STATIC
        ARGFRAME DOVERLAY, 0, STATIC
        LOCFRAME XSTACK, 14, STACK
        PUBLIC ZDApp_NwkStateUpdateCB
        FUNCTION ZDApp_NwkStateUpdateCB,021203H
        ARGFRAME XSTACK, 0, STACK
        LOCFRAME ISTACK, 2, STACK
        PUBLIC ZDApp_ProcessMsgCBs
        FUNCTION ZDApp_ProcessMsgCBs,0a1203H
        ARGFRAME XSTACK, 11, STACK
        ARGFRAME IOVERLAY, 0, STATIC
        ARGFRAME DOVERLAY, 0, STATIC
        LOCFRAME XSTACK, 31, STACK
        PUBLIC ZDApp_ProcessNetworkJoin
        FUNCTION ZDApp_ProcessNetworkJoin,021203H
        ARGFRAME XSTACK, 11, STACK
        ARGFRAME IOVERLAY, 0, STATIC
        ARGFRAME DOVERLAY, 0, STATIC
        LOCFRAME XSTACK, 12, STACK
        PUBLIC ZDApp_ProcessOSALMsg
        FUNCTION ZDApp_ProcessOSALMsg,0a1203H
        ARGFRAME XSTACK, 10, STACK
        ARGFRAME IOVERLAY, 0, STATIC
        ARGFRAME DOVERLAY, 0, STATIC
        LOCFRAME ISTACK, 1, STACK
        LOCFRAME XSTACK, 15, STACK
        PUBLIC ZDApp_ProcessSecEvent
        FUNCTION ZDApp_ProcessSecEvent,021203H
        ARGFRAME XSTACK, 0, STACK
        LOCFRAME XSTACK, 9, STACK
        PUBLIC ZDApp_ProcessSecMsg
        FUNCTION ZDApp_ProcessSecMsg,0a1203H
        ARGFRAME XSTACK, 0, STACK
        LOCFRAME ISTACK, 2, STACK
        PUBLIC ZDApp_ReadNetworkRestoreState
        FUNCTION ZDApp_ReadNetworkRestoreState,021203H
        ARGFRAME XSTACK, 0, STACK
        LOCFRAME XSTACK, 9, STACK
        PUBLIC ZDApp_RegisterCBs
        FUNCTION ZDApp_RegisterCBs,021203H
        ARGFRAME XSTACK, 9, STACK
        ARGFRAME IOVERLAY, 0, STATIC
        ARGFRAME DOVERLAY, 0, STATIC
        LOCFRAME ISTACK, 2, STACK
        PUBLIC ZDApp_ResetNwkKey
        FUNCTION ZDApp_ResetNwkKey,021203H
        ARGFRAME XSTACK, 0, STACK
        LOCFRAME XSTACK, 35, STACK
        PUBLIC ZDApp_ResetTimerCancel
        FUNCTION ZDApp_ResetTimerCancel,021203H
        ARGFRAME XSTACK, 0, STACK
        ARGFRAME IOVERLAY, 0, STATIC
        ARGFRAME DOVERLAY, 0, STATIC
        LOCFRAME ISTACK, 2, STACK
        PUBLIC ZDApp_ResetTimerStart
        FUNCTION ZDApp_ResetTimerStart,021203H
        ARGFRAME XSTACK, 9, STACK
        ARGFRAME IOVERLAY, 0, STATIC
        ARGFRAME DOVERLAY, 0, STATIC
        LOCFRAME ISTACK, 2, STACK
        PUBLIC ZDApp_RestoreNetworkState
        FUNCTION ZDApp_RestoreNetworkState,021203H
        ARGFRAME XSTACK, 0, STACK
        LOCFRAME XSTACK, 9, STACK
        PUBLIC ZDApp_RestoreNwkKey
        FUNCTION ZDApp_RestoreNwkKey,021203H
        ARGFRAME XSTACK, 0, STACK
        LOCFRAME ISTACK, 2, STACK
        LOCFRAME XSTACK, 37, STACK
        PUBLIC ZDApp_SaveNetworkStateEvt
        FUNCTION ZDApp_SaveNetworkStateEvt,0203H
        ARGFRAME XSTACK, 0, STACK
        PUBLIC ZDApp_SaveNwkKey
        FUNCTION ZDApp_SaveNwkKey,021203H
        ARGFRAME XSTACK, 9, STACK
        ARGFRAME IOVERLAY, 0, STATIC
        ARGFRAME DOVERLAY, 0, STATIC
        LOCFRAME XSTACK, 37, STACK
        PUBLIC ZDApp_SavedPollRate
        PUBLIC ZDApp_SecInit
        FUNCTION ZDApp_SecInit,021203H
        ARGFRAME XSTACK, 0, STACK
        LOCFRAME XSTACK, 9, STACK
        PUBLIC ZDApp_SendEventMsg
        FUNCTION ZDApp_SendEventMsg,021203H
        ARGFRAME XSTACK, 0, STACK
        LOCFRAME XSTACK, 9, STACK
        PUBLIC ZDApp_SendMsg
        FUNCTION ZDApp_SendMsg,021203H
        ARGFRAME XSTACK, 14, STACK
        ARGFRAME IOVERLAY, 0, STATIC
        ARGFRAME DOVERLAY, 0, STATIC
        LOCFRAME ISTACK, 1, STACK
        LOCFRAME XSTACK, 19, STACK
        PUBLIC ZDApp_StartJoiningCycle
        FUNCTION ZDApp_StartJoiningCycle,021203H
        ARGFRAME XSTACK, 0, STACK
        LOCFRAME ISTACK, 2, STACK
        PUBLIC ZDApp_StopJoiningCycle
        FUNCTION ZDApp_StopJoiningCycle,0203H
        ARGFRAME XSTACK, 0, STACK
        LOCFRAME ISTACK, 2, STACK
        PUBLIC ZDApp_epDesc
        PUBLIC ZDApp_event_loop
        FUNCTION ZDApp_event_loop,021203H
        ARGFRAME XSTACK, 0, STACK
        LOCFRAME XSTACK, 10, STACK
        PUBLIC ZDOInitDevice
        FUNCTION ZDOInitDevice,021203H
        ARGFRAME XSTACK, 9, STACK
        ARGFRAME IOVERLAY, 0, STATIC
        ARGFRAME DOVERLAY, 0, STATIC
        LOCFRAME XSTACK, 12, STACK
        PUBLIC ZDO_AddrChangeIndicationCB
        FUNCTION ZDO_AddrChangeIndicationCB,021203H
        ARGFRAME XSTACK, 0, STACK
        LOCFRAME ISTACK, 2, STACK
        PUBLIC ZDO_ConcentratorIndicationCB
        FUNCTION ZDO_ConcentratorIndicationCB,0203H
        ARGFRAME XSTACK, 0, STACK
        LOCFRAME ISTACK, 1, STACK
        LOCFRAME XSTACK, 14, STACK
        PUBLIC ZDO_DeregisterForZdoCB
        FUNCTION ZDO_DeregisterForZdoCB,0203H
        ARGFRAME XSTACK, 0, STACK
        LOCFRAME ISTACK, 2, STACK
        PUBLIC ZDO_JoinConfirmCB
        FUNCTION ZDO_JoinConfirmCB,021203H
        ARGFRAME XSTACK, 0, STACK
        LOCFRAME ISTACK, 1, STACK
        LOCFRAME XSTACK, 14, STACK
        PUBLIC ZDO_JoinIndicationCB
        FUNCTION ZDO_JoinIndicationCB,0203H
        ARGFRAME XSTACK, 1, STACK
        PUBLIC ZDO_LeaveCnf
        FUNCTION ZDO_LeaveCnf,021203H
        ARGFRAME XSTACK, 0, STACK
        LOCFRAME XSTACK, 9, STACK
        PUBLIC ZDO_LeaveInd
        FUNCTION ZDO_LeaveInd,021203H
        ARGFRAME XSTACK, 0, STACK
        LOCFRAME XSTACK, 10, STACK
        PUBLIC ZDO_ManytoOneFailureIndicationCB
        FUNCTION ZDO_ManytoOneFailureIndicationCB,021203H
        ARGFRAME XSTACK, 0, STACK
        LOCFRAME ISTACK, 2, STACK
        PUBLIC ZDO_NetworkDiscoveryConfirmCB
        FUNCTION ZDO_NetworkDiscoveryConfirmCB,021203H
        ARGFRAME XSTACK, 0, STACK
        LOCFRAME ISTACK, 3, STACK
        LOCFRAME XSTACK, 3, STACK
        PUBLIC ZDO_NetworkFormationConfirmCB
        FUNCTION ZDO_NetworkFormationConfirmCB,021203H
        ARGFRAME XSTACK, 0, STACK
        LOCFRAME XSTACK, 9, STACK
        PUBLIC ZDO_PollConfirmCB
        FUNCTION ZDO_PollConfirmCB,0203H
        ARGFRAME XSTACK, 0, STACK
        PUBLIC ZDO_RegisterForZdoCB
        FUNCTION ZDO_RegisterForZdoCB,0203H
        ARGFRAME XSTACK, 0, STACK
        LOCFRAME ISTACK, 2, STACK
        PUBLIC ZDO_SrcRtgIndCB
        FUNCTION ZDO_SrcRtgIndCB,0203H
        ARGFRAME XSTACK, 0, STACK
        LOCFRAME ISTACK, 1, STACK
        LOCFRAME XSTACK, 14, STACK
        PUBLIC ZDO_StartRouterConfirmCB
        FUNCTION ZDO_StartRouterConfirmCB,021203H
        ARGFRAME XSTACK, 0, STACK
        LOCFRAME XSTACK, 9, STACK
        PUBLIC ZDO_SyncIndicationCB
        FUNCTION ZDO_SyncIndicationCB,021203H
        ARGFRAME XSTACK, 0, STACK
        LOCFRAME XSTACK, 9, STACK
        PUBLIC ZDO_UpdateDeviceIndication
        FUNCTION ZDO_UpdateDeviceIndication,0203H
        ARGFRAME XSTACK, 0, STACK
        PUBLIC ZDO_UseExtendedPANID
        PUBLIC ZDO_beaconNotifyIndCB
        FUNCTION ZDO_beaconNotifyIndCB,021203H
        ARGFRAME XSTACK, 0, STACK
        LOCFRAME ISTACK, 1, STACK
        LOCFRAME XSTACK, 14, STACK
        PUBWEAK __Constant_0
        PUBWEAK __Constant_1
        PUBWEAK __Constant_3e8
        PUBLIC _tmpRejoinState
        PUBLIC continueJoining
        PUBLIC devStartMode
        PUBLIC devState
        PUBLIC nwkFrameCounterChanges
        PUBLIC nwkStatus
        PUBLIC retryCnt
        PUBLIC zdappMgmtNwkDiscReqInProgress
        PUBLIC zdappMgmtNwkDiscRspAddr
        PUBLIC zdappMgmtNwkDiscRspTransSeq
        PUBLIC zdappMgmtNwkDiscStartIndex
        PUBLIC zdappMgmtSavedNwkState
        PUBLIC zdoCBFunc
        PUBLIC zdoDiscCounter
        
        CFI Names cfiNames0
        CFI StackFrame CFA_SP SP IDATA
        CFI StackFrame CFA_PSP16 PSP16 XDATA
        CFI StackFrame CFA_XSP16 XSP16 XDATA
        CFI StaticOverlayFrame CFA_IOVERLAY IOVERLAY
        CFI StaticOverlayFrame CFA_DOVERLAY DOVERLAY
        CFI Resource `PSW.CY`:1, `B.BR0`:1, `B.BR1`:1, `B.BR2`:1, `B.BR3`:1
        CFI Resource `B.BR4`:1, `B.BR5`:1, `B.BR6`:1, `B.BR7`:1, `VB.BR8`:1
        CFI Resource `VB.BR9`:1, `VB.BR10`:1, `VB.BR11`:1, `VB.BR12`:1
        CFI Resource `VB.BR13`:1, `VB.BR14`:1, `VB.BR15`:1, VB:8, B:8, A:8
        CFI Resource PSW:8, DPL0:8, DPH0:8, R0:8, R1:8, R2:8, R3:8, R4:8, R5:8
        CFI Resource R6:8, R7:8, V0:8, V1:8, V2:8, V3:8, V4:8, V5:8, V6:8, V7:8
        CFI Resource V8:8, V9:8, V10:8, V11:8, V12:8, V13:8, V14:8, V15:8, SP:8
        CFI Resource PSPH:8, PSPL:8, PSP16:16, XSPH:8, XSPL:8, XSP16:16
        CFI VirtualResource ?RET:24
        CFI Resource ?BRET_EXT:8
        CFI VirtualResource ?RET_HIGH:8, ?RET_LOW:8
        CFI ResourceParts PSP16 PSPH, PSPL
        CFI ResourceParts XSP16 XSPH, XSPL
        CFI ResourceParts ?RET ?BRET_EXT, ?RET_HIGH, ?RET_LOW
        CFI EndNames cfiNames0
        
        CFI Common cfiCommon0 Using cfiNames0
        CFI CodeAlign 1
        CFI DataAlign -1
        CFI ReturnAddress ?RET CODE
        CFI CFA_DOVERLAY Used
        CFI CFA_IOVERLAY Used
        CFI CFA_SP SP+-3
        CFI CFA_PSP16 PSP16+0
        CFI CFA_XSP16 XSP16+0
        CFI `PSW.CY` SameValue
        CFI `B.BR0` SameValue
        CFI `B.BR1` SameValue
        CFI `B.BR2` SameValue
        CFI `B.BR3` SameValue
        CFI `B.BR4` SameValue
        CFI `B.BR5` SameValue
        CFI `B.BR6` SameValue
        CFI `B.BR7` SameValue
        CFI `VB.BR8` SameValue
        CFI `VB.BR9` SameValue
        CFI `VB.BR10` SameValue
        CFI `VB.BR11` SameValue
        CFI `VB.BR12` SameValue
        CFI `VB.BR13` SameValue
        CFI `VB.BR14` SameValue
        CFI `VB.BR15` SameValue
        CFI VB SameValue
        CFI B Undefined
        CFI A Undefined
        CFI PSW SameValue
        CFI DPL0 SameValue
        CFI DPH0 SameValue
        CFI R0 Undefined
        CFI R1 Undefined
        CFI R2 Undefined
        CFI R3 Undefined
        CFI R4 Undefined
        CFI R5 Undefined
        CFI R6 SameValue
        CFI R7 SameValue
        CFI V0 SameValue
        CFI V1 SameValue
        CFI V2 SameValue
        CFI V3 SameValue
        CFI V4 SameValue
        CFI V5 SameValue
        CFI V6 SameValue
        CFI V7 SameValue
        CFI V8 SameValue
        CFI V9 SameValue
        CFI V10 SameValue
        CFI V11 SameValue
        CFI V12 SameValue
        CFI V13 SameValue
        CFI V14 SameValue
        CFI V15 SameValue
        CFI PSPH Undefined
        CFI PSPL Undefined
        CFI XSPH Undefined
        CFI XSPL Undefined
        CFI ?RET Concat
        CFI ?BRET_EXT Frame(CFA_SP, 3)
        CFI ?RET_HIGH Frame(CFA_SP, 2)
        CFI ?RET_LOW Frame(CFA_SP, 1)
        CFI EndCommon cfiCommon0
        
        
        CFI Common cfiCommon1 Using cfiNames0
        CFI CodeAlign 1
        CFI DataAlign -1
        CFI ReturnAddress ?RET CODE
        CFI CFA_DOVERLAY Used
        CFI CFA_IOVERLAY Used
        CFI CFA_SP SP+-2
        CFI CFA_PSP16 PSP16+0
        CFI CFA_XSP16 XSP16+0
        CFI `PSW.CY` SameValue
        CFI `B.BR0` SameValue
        CFI `B.BR1` SameValue
        CFI `B.BR2` SameValue
        CFI `B.BR3` SameValue
        CFI `B.BR4` SameValue
        CFI `B.BR5` SameValue
        CFI `B.BR6` SameValue
        CFI `B.BR7` SameValue
        CFI `VB.BR8` SameValue
        CFI `VB.BR9` SameValue
        CFI `VB.BR10` SameValue
        CFI `VB.BR11` SameValue
        CFI `VB.BR12` SameValue
        CFI `VB.BR13` SameValue
        CFI `VB.BR14` SameValue
        CFI `VB.BR15` SameValue
        CFI VB SameValue
        CFI B SameValue
        CFI A SameValue
        CFI PSW SameValue
        CFI DPL0 SameValue
        CFI DPH0 SameValue
        CFI R0 SameValue
        CFI R1 SameValue
        CFI R2 SameValue
        CFI R3 SameValue
        CFI R4 SameValue
        CFI R5 SameValue
        CFI R6 SameValue
        CFI R7 SameValue
        CFI V0 SameValue
        CFI V1 SameValue
        CFI V2 SameValue
        CFI V3 SameValue
        CFI V4 SameValue
        CFI V5 SameValue
        CFI V6 SameValue
        CFI V7 SameValue
        CFI V8 SameValue
        CFI V9 SameValue
        CFI V10 SameValue
        CFI V11 SameValue
        CFI V12 SameValue
        CFI V13 SameValue
        CFI V14 SameValue
        CFI V15 SameValue
        CFI PSPH Undefined
        CFI PSPL Undefined
        CFI XSPH Undefined
        CFI XSPL Undefined
        CFI ?RET Concat
        CFI ?BRET_EXT SameValue
        CFI ?RET_HIGH Frame(CFA_SP, 2)
        CFI ?RET_LOW Frame(CFA_SP, 1)
        CFI EndCommon cfiCommon1
        
NLME_GetExtAddr     SYMBOL "NLME_GetExtAddr"
ZDO_Init            SYMBOL "ZDO_Init"
afRegister          SYMBOL "afRegister"
HalLedBlink         SYMBOL "HalLedBlink"
ZDSecMgrInit        SYMBOL "ZDSecMgrInit"
ZDO_StartDevice     SYMBOL "ZDO_StartDevice"
osal_msg_deallocate SYMBOL "osal_msg_deallocate"
osal_msg_receive    SYMBOL "osal_msg_receive"
ZDO_UpdateNwkStatus SYMBOL "ZDO_UpdateNwkStatus"
osal_start_timerEx  SYMBOL "osal_start_timerEx"
ZDSecMgrSaveTCLinkKey SYMBOL "ZDSecMgrSaveTCLinkKey"
zgInitItems         SYMBOL "zgInitItems"
ZDConfig_InitDescriptors SYMBOL "ZDConfig_InitDescriptors"
osal_rand           SYMBOL "osal_rand"
zgWriteStartupOptions SYMBOL "zgWriteStartupOptions"
osal_set_event      SYMBOL "osal_set_event"
NLME_SetBroadcastFilter SYMBOL "NLME_SetBroadcastFilter"
zgReadStartupOptions SYMBOL "zgReadStartupOptions"
nwk_ExtPANIDValid   SYMBOL "nwk_ExtPANIDValid"
osal_pwrmgr_device  SYMBOL "osal_pwrmgr_device"
NLME_GetEnergyThreshold SYMBOL "NLME_GetEnergyThreshold"
NLME_SetEnergyThreshold SYMBOL "NLME_SetEnergyThreshold"
NLME_SetPollRate    SYMBOL "NLME_SetPollRate"
NLME_InitNV         SYMBOL "NLME_InitNV"
NLME_RestoreFromNV  SYMBOL "NLME_RestoreFromNV"
NLME_GetShortAddr   SYMBOL "NLME_GetShortAddr"
sAddrExtCpy         SYMBOL "sAddrExtCpy"
osal_memset         SYMBOL "osal_memset"
osal_nv_item_init   SYMBOL "osal_nv_item_init"
osal_nv_read        SYMBOL "osal_nv_read"
HalKeyRead          SYMBOL "HalKeyRead"
ZDP_IncomingData    SYMBOL "ZDP_IncomingData"
NLME_JoinRequest    SYMBOL "NLME_JoinRequest"
ZMacSetReq          SYMBOL "ZMacSetReq"
NLME_ReJoinRequest  SYMBOL "NLME_ReJoinRequest"
NLME_SetQueuedPollRate SYMBOL "NLME_SetQueuedPollRate"
NLME_SetResponseRate SYMBOL "NLME_SetResponseRate"
ZDO_ParseAddrRsp    SYMBOL "ZDO_ParseAddrRsp"
ZDO_UpdateAddrManager SYMBOL "ZDO_UpdateAddrManager"
osal_mem_free       SYMBOL "osal_mem_free"
ZDO_ParseBindUnbindReq SYMBOL "ZDO_ParseBindUnbindReq"
ZDO_ProcessBindUnbindReq SYMBOL "ZDO_ProcessBindUnbindReq"
ZDO_RegisterForZDOMsg SYMBOL "ZDO_RegisterForZDOMsg"
ZDSecMgrTransportKeyInd SYMBOL "ZDSecMgrTransportKeyInd"
ZDSecMgrSwitchKeyInd SYMBOL "ZDSecMgrSwitchKeyInd"
nwkNeighborInitTable SYMBOL "nwkNeighborInitTable"
NLME_NwkDiscTerm    SYMBOL "NLME_NwkDiscTerm"
SSP_ReadNwkActiveKey SYMBOL "SSP_ReadNwkActiveKey"
osal_nv_write       SYMBOL "osal_nv_write"
osal_stop_timerEx   SYMBOL "osal_stop_timerEx"
NLME_NetworkDiscoveryRequest SYMBOL "NLME_NetworkDiscoveryRequest"
osal_msg_allocate   SYMBOL "osal_msg_allocate"
osal_memcpy         SYMBOL "osal_memcpy"
osal_msg_send       SYMBOL "osal_msg_send"
nwk_getNwkDescList  SYMBOL "nwk_getNwkDescList"
sAddrExtCmp         SYMBOL "sAddrExtCmp"
HalLedSet           SYMBOL "HalLedSet"
osal_mem_alloc      SYMBOL "osal_mem_alloc"
NLME_GetCoordShortAddr SYMBOL "NLME_GetCoordShortAddr"
RTG_MTORouteReq     SYMBOL "RTG_MTORouteReq"
ZDP_GenericRsp      SYMBOL "ZDP_GenericRsp"
afSetMatch          SYMBOL "afSetMatch"
osal_get_timeoutEx  SYMBOL "osal_get_timeoutEx"
APSME_HoldDataRequests SYMBOL "APSME_HoldDataRequests"
ZDP_DeviceAnnce     SYMBOL "ZDP_DeviceAnnce"
??APSME_HoldDataRequests?relay SYMBOL "?relay", APSME_HoldDataRequests
??HalKeyRead?relay  SYMBOL "?relay", HalKeyRead
??HalLedBlink?relay SYMBOL "?relay", HalLedBlink
??HalLedSet?relay   SYMBOL "?relay", HalLedSet
??NLME_GetCoordShortAddr?relay SYMBOL "?relay", NLME_GetCoordShortAddr
??NLME_GetEnergyThreshold?relay SYMBOL "?relay", NLME_GetEnergyThreshold
??NLME_GetExtAddr?relay SYMBOL "?relay", NLME_GetExtAddr
??NLME_GetShortAddr?relay SYMBOL "?relay", NLME_GetShortAddr
??NLME_InitNV?relay SYMBOL "?relay", NLME_InitNV
??NLME_JoinRequest?relay SYMBOL "?relay", NLME_JoinRequest
??NLME_NetworkDiscoveryRequest?relay SYMBOL "?relay", NLME_NetworkDiscoveryRequest
??NLME_NwkDiscTerm?relay SYMBOL "?relay", NLME_NwkDiscTerm
??NLME_ReJoinRequest?relay SYMBOL "?relay", NLME_ReJoinRequest
??NLME_RestoreFromNV?relay SYMBOL "?relay", NLME_RestoreFromNV
??NLME_SetBroadcastFilter?relay SYMBOL "?relay", NLME_SetBroadcastFilter
??NLME_SetEnergyThreshold?relay SYMBOL "?relay", NLME_SetEnergyThreshold
??NLME_SetPollRate?relay SYMBOL "?relay", NLME_SetPollRate
??NLME_SetQueuedPollRate?relay SYMBOL "?relay", NLME_SetQueuedPollRate
??NLME_SetResponseRate?relay SYMBOL "?relay", NLME_SetResponseRate
??RTG_MTORouteReq?relay SYMBOL "?relay", RTG_MTORouteReq
??SSP_ReadNwkActiveKey?relay SYMBOL "?relay", SSP_ReadNwkActiveKey
??ZDConfig_InitDescriptors?relay SYMBOL "?relay", ZDConfig_InitDescriptors
??ZDO_Init?relay    SYMBOL "?relay", ZDO_Init
??ZDO_ParseAddrRsp?relay SYMBOL "?relay", ZDO_ParseAddrRsp
??ZDO_ParseBindUnbindReq?relay SYMBOL "?relay", ZDO_ParseBindUnbindReq
??ZDO_ProcessBindUnbindReq?relay SYMBOL "?relay", ZDO_ProcessBindUnbindReq
??ZDO_RegisterForZDOMsg?relay SYMBOL "?relay", ZDO_RegisterForZDOMsg
??ZDO_StartDevice?relay SYMBOL "?relay", ZDO_StartDevice
??ZDO_UpdateAddrManager?relay SYMBOL "?relay", ZDO_UpdateAddrManager
??ZDO_UpdateNwkStatus?relay SYMBOL "?relay", ZDO_UpdateNwkStatus
??ZDP_DeviceAnnce?relay SYMBOL "?relay", ZDP_DeviceAnnce
??ZDP_GenericRsp?relay SYMBOL "?relay", ZDP_GenericRsp
??ZDP_IncomingData?relay SYMBOL "?relay", ZDP_IncomingData
??ZDSecMgrInit?relay SYMBOL "?relay", ZDSecMgrInit
??ZDSecMgrSaveTCLinkKey?relay SYMBOL "?relay", ZDSecMgrSaveTCLinkKey
??ZDSecMgrSwitchKeyInd?relay SYMBOL "?relay", ZDSecMgrSwitchKeyInd
??ZDSecMgrTransportKeyInd?relay SYMBOL "?relay", ZDSecMgrTransportKeyInd
??ZMacSetReq?relay  SYMBOL "?relay", ZMacSetReq
??afRegister?relay  SYMBOL "?relay", afRegister
??afSetMatch?relay  SYMBOL "?relay", afSetMatch
??nwkNeighborInitTable?relay SYMBOL "?relay", nwkNeighborInitTable
??nwk_ExtPANIDValid?relay SYMBOL "?relay", nwk_ExtPANIDValid
??nwk_getNwkDescList?relay SYMBOL "?relay", nwk_getNwkDescList
??osal_get_timeoutEx?relay SYMBOL "?relay", osal_get_timeoutEx
??osal_mem_alloc?relay SYMBOL "?relay", osal_mem_alloc
??osal_mem_free?relay SYMBOL "?relay", osal_mem_free
??osal_memcpy?relay SYMBOL "?relay", osal_memcpy
??osal_memset?relay SYMBOL "?relay", osal_memset
??osal_msg_allocate?relay SYMBOL "?relay", osal_msg_allocate
??osal_msg_deallocate?relay SYMBOL "?relay", osal_msg_deallocate
??osal_msg_receive?relay SYMBOL "?relay", osal_msg_receive
??osal_msg_send?relay SYMBOL "?relay", osal_msg_send
??osal_nv_item_init?relay SYMBOL "?relay", osal_nv_item_init
??osal_nv_read?relay SYMBOL "?relay", osal_nv_read
??osal_nv_write?relay SYMBOL "?relay", osal_nv_write
??osal_pwrmgr_device?relay SYMBOL "?relay", osal_pwrmgr_device
??osal_rand?relay   SYMBOL "?relay", osal_rand
??osal_set_event?relay SYMBOL "?relay", osal_set_event
??osal_start_timerEx?relay SYMBOL "?relay", osal_start_timerEx
??osal_stop_timerEx?relay SYMBOL "?relay", osal_stop_timerEx
??sAddrExtCmp?relay SYMBOL "?relay", sAddrExtCmp
??sAddrExtCpy?relay SYMBOL "?relay", sAddrExtCpy
??zgInitItems?relay SYMBOL "?relay", zgInitItems
??zgReadStartupOptions?relay SYMBOL "?relay", zgReadStartupOptions
??zgWriteStartupOptions?relay SYMBOL "?relay", zgWriteStartupOptions
AddrMgrWriteNVRequest SYMBOL "AddrMgrWriteNVRequest"
??AddrMgrWriteNVRequest?relay SYMBOL "?relay", AddrMgrWriteNVRequest
ZDAppCheckForHoldKey SYMBOL "ZDAppCheckForHoldKey"
??ZDAppCheckForHoldKey?relay SYMBOL "?relay", ZDAppCheckForHoldKey
ZDAppDetermineDeviceType SYMBOL "ZDAppDetermineDeviceType"
??ZDAppDetermineDeviceType?relay SYMBOL "?relay", ZDAppDetermineDeviceType
ZDApp_AnnounceNewAddress SYMBOL "ZDApp_AnnounceNewAddress"
??ZDApp_AnnounceNewAddress?relay SYMBOL "?relay", ZDApp_AnnounceNewAddress
ZDApp_ChangeMatchDescRespPermission SYMBOL "ZDApp_ChangeMatchDescRespPermission"
??ZDApp_ChangeMatchDescRespPermission?relay SYMBOL "?relay", ZDApp_ChangeMatchDescRespPermission
ZDApp_CoordStartPANIDConflictCB SYMBOL "ZDApp_CoordStartPANIDConflictCB"
??ZDApp_CoordStartPANIDConflictCB?relay SYMBOL "?relay", ZDApp_CoordStartPANIDConflictCB
ZDApp_DeviceAuthEvt SYMBOL "ZDApp_DeviceAuthEvt"
??ZDApp_DeviceAuthEvt?relay SYMBOL "?relay", ZDApp_DeviceAuthEvt
ZDApp_InMsgCB       SYMBOL "ZDApp_InMsgCB"
??ZDApp_InMsgCB?relay SYMBOL "?relay", ZDApp_InMsgCB
ZDApp_Init          SYMBOL "ZDApp_Init"
??ZDApp_Init?relay  SYMBOL "?relay", ZDApp_Init
ZDApp_InitUserDesc  SYMBOL "ZDApp_InitUserDesc"
??ZDApp_InitUserDesc?relay SYMBOL "?relay", ZDApp_InitUserDesc
ZDApp_InitZdoCBFunc SYMBOL "ZDApp_InitZdoCBFunc"
??ZDApp_InitZdoCBFunc?relay SYMBOL "?relay", ZDApp_InitZdoCBFunc
ZDApp_JoinReq       SYMBOL "ZDApp_JoinReq"
??ZDApp_JoinReq?relay SYMBOL "?relay", ZDApp_JoinReq
ZDApp_LeaveCtrlBypass SYMBOL "ZDApp_LeaveCtrlBypass"
??ZDApp_LeaveCtrlBypass?relay SYMBOL "?relay", ZDApp_LeaveCtrlBypass
ZDApp_LeaveCtrlInit SYMBOL "ZDApp_LeaveCtrlInit"
??ZDApp_LeaveCtrlInit?relay SYMBOL "?relay", ZDApp_LeaveCtrlInit
ZDApp_LeaveCtrlSet  SYMBOL "ZDApp_LeaveCtrlSet"
??ZDApp_LeaveCtrlSet?relay SYMBOL "?relay", ZDApp_LeaveCtrlSet
ZDApp_LeaveCtrlStartup SYMBOL "ZDApp_LeaveCtrlStartup"
??ZDApp_LeaveCtrlStartup?relay SYMBOL "?relay", ZDApp_LeaveCtrlStartup
ZDApp_LeaveReset    SYMBOL "ZDApp_LeaveReset"
??ZDApp_LeaveReset?relay SYMBOL "?relay", ZDApp_LeaveReset
ZDApp_LeaveUpdate   SYMBOL "ZDApp_LeaveUpdate"
??ZDApp_LeaveUpdate?relay SYMBOL "?relay", ZDApp_LeaveUpdate
ZDApp_NVUpdate      SYMBOL "ZDApp_NVUpdate"
??ZDApp_NVUpdate?relay SYMBOL "?relay", ZDApp_NVUpdate
ZDApp_NetworkDiscoveryReq SYMBOL "ZDApp_NetworkDiscoveryReq"
??ZDApp_NetworkDiscoveryReq?relay SYMBOL "?relay", ZDApp_NetworkDiscoveryReq
ZDApp_NetworkInit   SYMBOL "ZDApp_NetworkInit"
??ZDApp_NetworkInit?relay SYMBOL "?relay", ZDApp_NetworkInit
ZDApp_NetworkStartEvt SYMBOL "ZDApp_NetworkStartEvt"
??ZDApp_NetworkStartEvt?relay SYMBOL "?relay", ZDApp_NetworkStartEvt
ZDApp_NodeProfileSync SYMBOL "ZDApp_NodeProfileSync"
??ZDApp_NodeProfileSync?relay SYMBOL "?relay", ZDApp_NodeProfileSync
ZDApp_NwkDescListProcessing SYMBOL "ZDApp_NwkDescListProcessing"
??ZDApp_NwkDescListProcessing?relay SYMBOL "?relay", ZDApp_NwkDescListProcessing
ZDApp_NwkStateUpdateCB SYMBOL "ZDApp_NwkStateUpdateCB"
??ZDApp_NwkStateUpdateCB?relay SYMBOL "?relay", ZDApp_NwkStateUpdateCB
ZDApp_ProcessMsgCBs SYMBOL "ZDApp_ProcessMsgCBs"
??ZDApp_ProcessMsgCBs?relay SYMBOL "?relay", ZDApp_ProcessMsgCBs
ZDApp_ProcessNetworkJoin SYMBOL "ZDApp_ProcessNetworkJoin"
??ZDApp_ProcessNetworkJoin?relay SYMBOL "?relay", ZDApp_ProcessNetworkJoin
ZDApp_ProcessOSALMsg SYMBOL "ZDApp_ProcessOSALMsg"
??ZDApp_ProcessOSALMsg?relay SYMBOL "?relay", ZDApp_ProcessOSALMsg
ZDApp_ProcessSecEvent SYMBOL "ZDApp_ProcessSecEvent"
??ZDApp_ProcessSecEvent?relay SYMBOL "?relay", ZDApp_ProcessSecEvent
ZDApp_ProcessSecMsg SYMBOL "ZDApp_ProcessSecMsg"
??ZDApp_ProcessSecMsg?relay SYMBOL "?relay", ZDApp_ProcessSecMsg
ZDApp_ReadNetworkRestoreState SYMBOL "ZDApp_ReadNetworkRestoreState"
??ZDApp_ReadNetworkRestoreState?relay SYMBOL "?relay", ZDApp_ReadNetworkRestoreState
ZDApp_RegisterCBs   SYMBOL "ZDApp_RegisterCBs"
??ZDApp_RegisterCBs?relay SYMBOL "?relay", ZDApp_RegisterCBs
ZDApp_ResetNwkKey   SYMBOL "ZDApp_ResetNwkKey"
??ZDApp_ResetNwkKey?relay SYMBOL "?relay", ZDApp_ResetNwkKey
ZDApp_ResetTimerCancel SYMBOL "ZDApp_ResetTimerCancel"
??ZDApp_ResetTimerCancel?relay SYMBOL "?relay", ZDApp_ResetTimerCancel
ZDApp_ResetTimerStart SYMBOL "ZDApp_ResetTimerStart"
??ZDApp_ResetTimerStart?relay SYMBOL "?relay", ZDApp_ResetTimerStart
ZDApp_RestoreNetworkState SYMBOL "ZDApp_RestoreNetworkState"
??ZDApp_RestoreNetworkState?relay SYMBOL "?relay", ZDApp_RestoreNetworkState
ZDApp_RestoreNwkKey SYMBOL "ZDApp_RestoreNwkKey"
??ZDApp_RestoreNwkKey?relay SYMBOL "?relay", ZDApp_RestoreNwkKey
ZDApp_SaveNetworkStateEvt SYMBOL "ZDApp_SaveNetworkStateEvt"
??ZDApp_SaveNetworkStateEvt?relay SYMBOL "?relay", ZDApp_SaveNetworkStateEvt
ZDApp_SaveNwkKey    SYMBOL "ZDApp_SaveNwkKey"
??ZDApp_SaveNwkKey?relay SYMBOL "?relay", ZDApp_SaveNwkKey
ZDApp_SecInit       SYMBOL "ZDApp_SecInit"
??ZDApp_SecInit?relay SYMBOL "?relay", ZDApp_SecInit
ZDApp_SendEventMsg  SYMBOL "ZDApp_SendEventMsg"
??ZDApp_SendEventMsg?relay SYMBOL "?relay", ZDApp_SendEventMsg
ZDApp_SendMsg       SYMBOL "ZDApp_SendMsg"
??ZDApp_SendMsg?relay SYMBOL "?relay", ZDApp_SendMsg
ZDApp_StartJoiningCycle SYMBOL "ZDApp_StartJoiningCycle"
??ZDApp_StartJoiningCycle?relay SYMBOL "?relay", ZDApp_StartJoiningCycle
ZDApp_StopJoiningCycle SYMBOL "ZDApp_StopJoiningCycle"
??ZDApp_StopJoiningCycle?relay SYMBOL "?relay", ZDApp_StopJoiningCycle
ZDApp_event_loop    SYMBOL "ZDApp_event_loop"
??ZDApp_event_loop?relay SYMBOL "?relay", ZDApp_event_loop
ZDOInitDevice       SYMBOL "ZDOInitDevice"
??ZDOInitDevice?relay SYMBOL "?relay", ZDOInitDevice
ZDO_AddrChangeIndicationCB SYMBOL "ZDO_AddrChangeIndicationCB"
??ZDO_AddrChangeIndicationCB?relay SYMBOL "?relay", ZDO_AddrChangeIndicationCB
ZDO_ConcentratorIndicationCB SYMBOL "ZDO_ConcentratorIndicationCB"
??ZDO_ConcentratorIndicationCB?relay SYMBOL "?relay", ZDO_ConcentratorIndicationCB
ZDO_DeregisterForZdoCB SYMBOL "ZDO_DeregisterForZdoCB"
??ZDO_DeregisterForZdoCB?relay SYMBOL "?relay", ZDO_DeregisterForZdoCB
ZDO_JoinConfirmCB   SYMBOL "ZDO_JoinConfirmCB"
??ZDO_JoinConfirmCB?relay SYMBOL "?relay", ZDO_JoinConfirmCB
ZDO_JoinIndicationCB SYMBOL "ZDO_JoinIndicationCB"
??ZDO_JoinIndicationCB?relay SYMBOL "?relay", ZDO_JoinIndicationCB
ZDO_LeaveCnf        SYMBOL "ZDO_LeaveCnf"
??ZDO_LeaveCnf?relay SYMBOL "?relay", ZDO_LeaveCnf
ZDO_LeaveInd        SYMBOL "ZDO_LeaveInd"
??ZDO_LeaveInd?relay SYMBOL "?relay", ZDO_LeaveInd
ZDO_ManytoOneFailureIndicationCB SYMBOL "ZDO_ManytoOneFailureIndicationCB"
??ZDO_ManytoOneFailureIndicationCB?relay SYMBOL "?relay", ZDO_ManytoOneFailureIndicationCB
ZDO_NetworkDiscoveryConfirmCB SYMBOL "ZDO_NetworkDiscoveryConfirmCB"
??ZDO_NetworkDiscoveryConfirmCB?relay SYMBOL "?relay", ZDO_NetworkDiscoveryConfirmCB
ZDO_NetworkFormationConfirmCB SYMBOL "ZDO_NetworkFormationConfirmCB"
??ZDO_NetworkFormationConfirmCB?relay SYMBOL "?relay", ZDO_NetworkFormationConfirmCB
ZDO_PollConfirmCB   SYMBOL "ZDO_PollConfirmCB"
??ZDO_PollConfirmCB?relay SYMBOL "?relay", ZDO_PollConfirmCB
ZDO_RegisterForZdoCB SYMBOL "ZDO_RegisterForZdoCB"
??ZDO_RegisterForZdoCB?relay SYMBOL "?relay", ZDO_RegisterForZdoCB
ZDO_SrcRtgIndCB     SYMBOL "ZDO_SrcRtgIndCB"
??ZDO_SrcRtgIndCB?relay SYMBOL "?relay", ZDO_SrcRtgIndCB
ZDO_StartRouterConfirmCB SYMBOL "ZDO_StartRouterConfirmCB"
??ZDO_StartRouterConfirmCB?relay SYMBOL "?relay", ZDO_StartRouterConfirmCB
ZDO_SyncIndicationCB SYMBOL "ZDO_SyncIndicationCB"
??ZDO_SyncIndicationCB?relay SYMBOL "?relay", ZDO_SyncIndicationCB
ZDO_UpdateDeviceIndication SYMBOL "ZDO_UpdateDeviceIndication"
??ZDO_UpdateDeviceIndication?relay SYMBOL "?relay", ZDO_UpdateDeviceIndication
ZDO_beaconNotifyIndCB SYMBOL "ZDO_beaconNotifyIndCB"
??ZDO_beaconNotifyIndCB?relay SYMBOL "?relay", ZDO_beaconNotifyIndCB

        EXTERN NLME_GetExtAddr
        FUNCTION NLME_GetExtAddr,0202H
        ARGFRAME ISTACK, 0, STACK
        ARGFRAME PSTACK, 0, STACK
        ARGFRAME XSTACK, 10, STACK
        ARGFRAME IOVERLAY, 0, STATIC
        ARGFRAME DOVERLAY, 0, STATIC
        EXTERN ZDO_Init
        FUNCTION ZDO_Init,0202H
        ARGFRAME ISTACK, 0, STACK
        ARGFRAME PSTACK, 0, STACK
        ARGFRAME XSTACK, 9, STACK
        ARGFRAME IOVERLAY, 0, STATIC
        ARGFRAME DOVERLAY, 0, STATIC
        EXTERN afRegister
        FUNCTION afRegister,0202H
        ARGFRAME ISTACK, 0, STACK
        ARGFRAME PSTACK, 0, STACK
        ARGFRAME XSTACK, 9, STACK
        ARGFRAME IOVERLAY, 0, STATIC
        ARGFRAME DOVERLAY, 0, STATIC
        EXTERN HalLedBlink
        FUNCTION HalLedBlink,0202H
        ARGFRAME ISTACK, 0, STACK
        ARGFRAME PSTACK, 0, STACK
        ARGFRAME XSTACK, 9, STACK
        ARGFRAME IOVERLAY, 0, STATIC
        ARGFRAME DOVERLAY, 0, STATIC
        EXTERN ZDSecMgrInit
        FUNCTION ZDSecMgrInit,0202H
        ARGFRAME ISTACK, 0, STACK
        ARGFRAME PSTACK, 0, STACK
        ARGFRAME XSTACK, 12, STACK
        ARGFRAME IOVERLAY, 0, STATIC
        ARGFRAME DOVERLAY, 0, STATIC
        EXTERN ZDO_StartDevice
        FUNCTION ZDO_StartDevice,0202H
        ARGFRAME ISTACK, 0, STACK
        ARGFRAME PSTACK, 0, STACK
        ARGFRAME XSTACK, 10, STACK
        ARGFRAME IOVERLAY, 0, STATIC
        ARGFRAME DOVERLAY, 0, STATIC
        EXTERN osal_msg_deallocate
        FUNCTION osal_msg_deallocate,0202H
        ARGFRAME ISTACK, 0, STACK
        ARGFRAME PSTACK, 0, STACK
        ARGFRAME XSTACK, 10, STACK
        ARGFRAME IOVERLAY, 0, STATIC
        ARGFRAME DOVERLAY, 0, STATIC
        EXTERN osal_msg_receive
        FUNCTION osal_msg_receive,0202H
        ARGFRAME ISTACK, 0, STACK
        ARGFRAME PSTACK, 0, STACK
        ARGFRAME XSTACK, 10, STACK
        ARGFRAME IOVERLAY, 0, STATIC
        ARGFRAME DOVERLAY, 0, STATIC
        EXTERN ZDO_UpdateNwkStatus
        FUNCTION ZDO_UpdateNwkStatus,0202H
        ARGFRAME ISTACK, 0, STACK
        ARGFRAME PSTACK, 0, STACK
        ARGFRAME XSTACK, 10, STACK
        ARGFRAME IOVERLAY, 0, STATIC
        ARGFRAME DOVERLAY, 0, STATIC
        EXTERN osal_start_timerEx
        FUNCTION osal_start_timerEx,0202H
        ARGFRAME ISTACK, 2, STACK
        ARGFRAME PSTACK, 0, STACK
        ARGFRAME XSTACK, 10, STACK
        ARGFRAME IOVERLAY, 0, STATIC
        ARGFRAME DOVERLAY, 0, STATIC
        EXTERN Onboard_soft_reset
        FUNCTION Onboard_soft_reset,0202H
        ARGFRAME ISTACK, 0, STACK
        ARGFRAME PSTACK, 0, STACK
        ARGFRAME XSTACK, 10, STACK
        ARGFRAME IOVERLAY, 0, STATIC
        ARGFRAME DOVERLAY, 0, STATIC
        EXTERN ZDSecMgrSaveTCLinkKey
        FUNCTION ZDSecMgrSaveTCLinkKey,0202H
        ARGFRAME ISTACK, 0, STACK
        ARGFRAME PSTACK, 0, STACK
        ARGFRAME XSTACK, 9, STACK
        ARGFRAME IOVERLAY, 0, STATIC
        ARGFRAME DOVERLAY, 0, STATIC
        EXTERN zgInitItems
        FUNCTION zgInitItems,0202H
        ARGFRAME ISTACK, 0, STACK
        ARGFRAME PSTACK, 0, STACK
        ARGFRAME XSTACK, 12, STACK
        ARGFRAME IOVERLAY, 0, STATIC
        ARGFRAME DOVERLAY, 0, STATIC
        EXTERN ZDConfig_InitDescriptors
        FUNCTION ZDConfig_InitDescriptors,0202H
        ARGFRAME ISTACK, 0, STACK
        ARGFRAME PSTACK, 0, STACK
        ARGFRAME XSTACK, 12, STACK
        ARGFRAME IOVERLAY, 0, STATIC
        ARGFRAME DOVERLAY, 0, STATIC
        EXTERN osal_rand
        FUNCTION osal_rand,0202H
        ARGFRAME ISTACK, 0, STACK
        ARGFRAME PSTACK, 0, STACK
        ARGFRAME XSTACK, 12, STACK
        ARGFRAME IOVERLAY, 0, STATIC
        ARGFRAME DOVERLAY, 0, STATIC
        EXTERN zgWriteStartupOptions
        FUNCTION zgWriteStartupOptions,0202H
        ARGFRAME ISTACK, 0, STACK
        ARGFRAME PSTACK, 0, STACK
        ARGFRAME XSTACK, 12, STACK
        ARGFRAME IOVERLAY, 0, STATIC
        ARGFRAME DOVERLAY, 0, STATIC
        EXTERN osal_set_event
        FUNCTION osal_set_event,0202H
        ARGFRAME ISTACK, 2, STACK
        ARGFRAME PSTACK, 0, STACK
        ARGFRAME XSTACK, 12, STACK
        ARGFRAME IOVERLAY, 0, STATIC
        ARGFRAME DOVERLAY, 0, STATIC
        EXTERN NLME_SetBroadcastFilter
        FUNCTION NLME_SetBroadcastFilter,0202H
        ARGFRAME ISTACK, 0, STACK
        ARGFRAME PSTACK, 0, STACK
        ARGFRAME XSTACK, 12, STACK
        ARGFRAME IOVERLAY, 0, STATIC
        ARGFRAME DOVERLAY, 0, STATIC
        EXTERN zgReadStartupOptions
        FUNCTION zgReadStartupOptions,0202H
        ARGFRAME ISTACK, 0, STACK
        ARGFRAME PSTACK, 0, STACK
        ARGFRAME XSTACK, 9, STACK
        ARGFRAME IOVERLAY, 0, STATIC
        ARGFRAME DOVERLAY, 0, STATIC
        EXTERN nwk_ExtPANIDValid
        FUNCTION nwk_ExtPANIDValid,0202H
        ARGFRAME ISTACK, 2, STACK
        ARGFRAME PSTACK, 0, STACK
        ARGFRAME XSTACK, 14, STACK
        ARGFRAME IOVERLAY, 0, STATIC
        ARGFRAME DOVERLAY, 0, STATIC
        EXTERN osal_pwrmgr_device
        FUNCTION osal_pwrmgr_device,0202H
        ARGFRAME ISTACK, 2, STACK
        ARGFRAME PSTACK, 0, STACK
        ARGFRAME XSTACK, 0, STACK
        ARGFRAME IOVERLAY, 0, STATIC
        ARGFRAME DOVERLAY, 0, STATIC
        EXTERN NLME_GetEnergyThreshold
        FUNCTION NLME_GetEnergyThreshold,0202H
        ARGFRAME ISTACK, 2, STACK
        ARGFRAME PSTACK, 0, STACK
        ARGFRAME XSTACK, 0, STACK
        ARGFRAME IOVERLAY, 0, STATIC
        ARGFRAME DOVERLAY, 0, STATIC
        EXTERN NLME_SetEnergyThreshold
        FUNCTION NLME_SetEnergyThreshold,0202H
        ARGFRAME ISTACK, 2, STACK
        ARGFRAME PSTACK, 0, STACK
        ARGFRAME XSTACK, 0, STACK
        ARGFRAME IOVERLAY, 0, STATIC
        ARGFRAME DOVERLAY, 0, STATIC
        EXTERN NLME_SetPollRate
        FUNCTION NLME_SetPollRate,0202H
        ARGFRAME ISTACK, 2, STACK
        ARGFRAME PSTACK, 0, STACK
        ARGFRAME XSTACK, 12, STACK
        ARGFRAME IOVERLAY, 0, STATIC
        ARGFRAME DOVERLAY, 0, STATIC
        EXTERN NLME_InitNV
        FUNCTION NLME_InitNV,0202H
        ARGFRAME ISTACK, 0, STACK
        ARGFRAME PSTACK, 0, STACK
        ARGFRAME XSTACK, 9, STACK
        ARGFRAME IOVERLAY, 0, STATIC
        ARGFRAME DOVERLAY, 0, STATIC
        EXTERN NLME_RestoreFromNV
        FUNCTION NLME_RestoreFromNV,0202H
        ARGFRAME ISTACK, 0, STACK
        ARGFRAME PSTACK, 0, STACK
        ARGFRAME XSTACK, 9, STACK
        ARGFRAME IOVERLAY, 0, STATIC
        ARGFRAME DOVERLAY, 0, STATIC
        EXTERN NLME_GetShortAddr
        FUNCTION NLME_GetShortAddr,0202H
        ARGFRAME ISTACK, 0, STACK
        ARGFRAME PSTACK, 0, STACK
        ARGFRAME XSTACK, 12, STACK
        ARGFRAME IOVERLAY, 0, STATIC
        ARGFRAME DOVERLAY, 0, STATIC
        EXTERN sAddrExtCpy
        FUNCTION sAddrExtCpy,0202H
        ARGFRAME ISTACK, 0, STACK
        ARGFRAME PSTACK, 0, STACK
        ARGFRAME XSTACK, 14, STACK
        ARGFRAME IOVERLAY, 0, STATIC
        ARGFRAME DOVERLAY, 0, STATIC
        EXTERN osal_memset
        FUNCTION osal_memset,0202H
        ARGFRAME ISTACK, 0, STACK
        ARGFRAME PSTACK, 0, STACK
        ARGFRAME XSTACK, 33, STACK
        ARGFRAME IOVERLAY, 0, STATIC
        ARGFRAME DOVERLAY, 0, STATIC
        EXTERN osal_nv_item_init
        FUNCTION osal_nv_item_init,0202H
        ARGFRAME ISTACK, 0, STACK
        ARGFRAME PSTACK, 0, STACK
        ARGFRAME XSTACK, 29, STACK
        ARGFRAME IOVERLAY, 0, STATIC
        ARGFRAME DOVERLAY, 0, STATIC
        EXTERN osal_nv_read
        FUNCTION osal_nv_read,0202H
        ARGFRAME ISTACK, 0, STACK
        ARGFRAME PSTACK, 0, STACK
        ARGFRAME XSTACK, 37, STACK
        ARGFRAME IOVERLAY, 0, STATIC
        ARGFRAME DOVERLAY, 0, STATIC
        EXTERN HalKeyRead
        FUNCTION HalKeyRead,0202H
        ARGFRAME ISTACK, 2, STACK
        ARGFRAME PSTACK, 0, STACK
        ARGFRAME XSTACK, 0, STACK
        ARGFRAME IOVERLAY, 0, STATIC
        ARGFRAME DOVERLAY, 0, STATIC
        EXTERN ZDP_IncomingData
        FUNCTION ZDP_IncomingData,0202H
        ARGFRAME ISTACK, 0, STACK
        ARGFRAME PSTACK, 0, STACK
        ARGFRAME XSTACK, 11, STACK
        ARGFRAME IOVERLAY, 0, STATIC
        ARGFRAME DOVERLAY, 0, STATIC
        EXTERN NLME_JoinRequest
        FUNCTION NLME_JoinRequest,0202H
        ARGFRAME ISTACK, 0, STACK
        ARGFRAME PSTACK, 0, STACK
        ARGFRAME XSTACK, 18, STACK
        ARGFRAME IOVERLAY, 0, STATIC
        ARGFRAME DOVERLAY, 0, STATIC
        EXTERN ZMacSetReq
        FUNCTION ZMacSetReq,0202H
        ARGFRAME ISTACK, 0, STACK
        ARGFRAME PSTACK, 0, STACK
        ARGFRAME XSTACK, 12, STACK
        ARGFRAME IOVERLAY, 0, STATIC
        ARGFRAME DOVERLAY, 0, STATIC
        EXTERN NLME_ReJoinRequest
        FUNCTION NLME_ReJoinRequest,0202H
        ARGFRAME ISTACK, 0, STACK
        ARGFRAME PSTACK, 0, STACK
        ARGFRAME XSTACK, 11, STACK
        ARGFRAME IOVERLAY, 0, STATIC
        ARGFRAME DOVERLAY, 0, STATIC
        EXTERN NLME_SetQueuedPollRate
        FUNCTION NLME_SetQueuedPollRate,0202H
        ARGFRAME ISTACK, 0, STACK
        ARGFRAME PSTACK, 0, STACK
        ARGFRAME XSTACK, 12, STACK
        ARGFRAME IOVERLAY, 0, STATIC
        ARGFRAME DOVERLAY, 0, STATIC
        EXTERN NLME_SetResponseRate
        FUNCTION NLME_SetResponseRate,0202H
        ARGFRAME ISTACK, 0, STACK
        ARGFRAME PSTACK, 0, STACK
        ARGFRAME XSTACK, 12, STACK
        ARGFRAME IOVERLAY, 0, STATIC
        ARGFRAME DOVERLAY, 0, STATIC
        EXTERN ZDO_ParseAddrRsp
        FUNCTION ZDO_ParseAddrRsp,0202H
        ARGFRAME ISTACK, 0, STACK
        ARGFRAME PSTACK, 0, STACK
        ARGFRAME XSTACK, 31, STACK
        ARGFRAME IOVERLAY, 0, STATIC
        ARGFRAME DOVERLAY, 0, STATIC
        EXTERN ZDO_UpdateAddrManager
        FUNCTION ZDO_UpdateAddrManager,0202H
        ARGFRAME ISTACK, 0, STACK
        ARGFRAME PSTACK, 0, STACK
        ARGFRAME XSTACK, 31, STACK
        ARGFRAME IOVERLAY, 0, STATIC
        ARGFRAME DOVERLAY, 0, STATIC
        EXTERN osal_mem_free
        FUNCTION osal_mem_free,0202H
        ARGFRAME ISTACK, 0, STACK
        ARGFRAME PSTACK, 0, STACK
        ARGFRAME XSTACK, 31, STACK
        ARGFRAME IOVERLAY, 0, STATIC
        ARGFRAME DOVERLAY, 0, STATIC
        EXTERN ZDO_ParseBindUnbindReq
        FUNCTION ZDO_ParseBindUnbindReq,0202H
        ARGFRAME ISTACK, 0, STACK
        ARGFRAME PSTACK, 0, STACK
        ARGFRAME XSTACK, 31, STACK
        ARGFRAME IOVERLAY, 0, STATIC
        ARGFRAME DOVERLAY, 0, STATIC
        EXTERN ZDO_ProcessBindUnbindReq
        FUNCTION ZDO_ProcessBindUnbindReq,0202H
        ARGFRAME ISTACK, 0, STACK
        ARGFRAME PSTACK, 0, STACK
        ARGFRAME XSTACK, 31, STACK
        ARGFRAME IOVERLAY, 0, STATIC
        ARGFRAME DOVERLAY, 0, STATIC
        EXTERN ZDO_RegisterForZDOMsg
        FUNCTION ZDO_RegisterForZDOMsg,0202H
        ARGFRAME ISTACK, 2, STACK
        ARGFRAME PSTACK, 0, STACK
        ARGFRAME XSTACK, 0, STACK
        ARGFRAME IOVERLAY, 0, STATIC
        ARGFRAME DOVERLAY, 0, STATIC
        EXTERN ZDSecMgrTransportKeyInd
        FUNCTION ZDSecMgrTransportKeyInd,0202H
        ARGFRAME ISTACK, 2, STACK
        ARGFRAME PSTACK, 0, STACK
        ARGFRAME XSTACK, 0, STACK
        ARGFRAME IOVERLAY, 0, STATIC
        ARGFRAME DOVERLAY, 0, STATIC
        EXTERN ZDSecMgrSwitchKeyInd
        FUNCTION ZDSecMgrSwitchKeyInd,0202H
        ARGFRAME ISTACK, 2, STACK
        ARGFRAME PSTACK, 0, STACK
        ARGFRAME XSTACK, 0, STACK
        ARGFRAME IOVERLAY, 0, STATIC
        ARGFRAME DOVERLAY, 0, STATIC
        EXTERN nwkNeighborInitTable
        FUNCTION nwkNeighborInitTable,0202H
        ARGFRAME ISTACK, 0, STACK
        ARGFRAME PSTACK, 0, STACK
        ARGFRAME XSTACK, 12, STACK
        ARGFRAME IOVERLAY, 0, STATIC
        ARGFRAME DOVERLAY, 0, STATIC
        EXTERN NLME_NwkDiscTerm
        FUNCTION NLME_NwkDiscTerm,0202H
        ARGFRAME ISTACK, 0, STACK
        ARGFRAME PSTACK, 0, STACK
        ARGFRAME XSTACK, 12, STACK
        ARGFRAME IOVERLAY, 0, STATIC
        ARGFRAME DOVERLAY, 0, STATIC
        EXTERN SSP_ReadNwkActiveKey
        FUNCTION SSP_ReadNwkActiveKey,0202H
        ARGFRAME ISTACK, 0, STACK
        ARGFRAME PSTACK, 0, STACK
        ARGFRAME XSTACK, 33, STACK
        ARGFRAME IOVERLAY, 0, STATIC
        ARGFRAME DOVERLAY, 0, STATIC
        EXTERN osal_nv_write
        FUNCTION osal_nv_write,0202H
        ARGFRAME ISTACK, 0, STACK
        ARGFRAME PSTACK, 0, STACK
        ARGFRAME XSTACK, 37, STACK
        ARGFRAME IOVERLAY, 0, STATIC
        ARGFRAME DOVERLAY, 0, STATIC
        EXTERN osal_stop_timerEx
        FUNCTION osal_stop_timerEx,0202H
        ARGFRAME ISTACK, 2, STACK
        ARGFRAME PSTACK, 0, STACK
        ARGFRAME XSTACK, 0, STACK
        ARGFRAME IOVERLAY, 0, STATIC
        ARGFRAME DOVERLAY, 0, STATIC
        EXTERN NLME_NetworkDiscoveryRequest
        FUNCTION NLME_NetworkDiscoveryRequest,0202H
        ARGFRAME ISTACK, 0, STACK
        ARGFRAME PSTACK, 0, STACK
        ARGFRAME XSTACK, 12, STACK
        ARGFRAME IOVERLAY, 0, STATIC
        ARGFRAME DOVERLAY, 0, STATIC
        EXTERN osal_msg_allocate
        FUNCTION osal_msg_allocate,0202H
        ARGFRAME ISTACK, 0, STACK
        ARGFRAME PSTACK, 0, STACK
        ARGFRAME XSTACK, 16, STACK
        ARGFRAME IOVERLAY, 0, STATIC
        ARGFRAME DOVERLAY, 0, STATIC
        EXTERN osal_memcpy
        FUNCTION osal_memcpy,0202H
        ARGFRAME ISTACK, 0, STACK
        ARGFRAME PSTACK, 0, STACK
        ARGFRAME XSTACK, 19, STACK
        ARGFRAME IOVERLAY, 0, STATIC
        ARGFRAME DOVERLAY, 0, STATIC
        EXTERN osal_msg_send
        FUNCTION osal_msg_send,0202H
        ARGFRAME ISTACK, 0, STACK
        ARGFRAME PSTACK, 0, STACK
        ARGFRAME XSTACK, 16, STACK
        ARGFRAME IOVERLAY, 0, STATIC
        ARGFRAME DOVERLAY, 0, STATIC
        EXTERN nwk_getNwkDescList
        FUNCTION nwk_getNwkDescList,0202H
        ARGFRAME ISTACK, 0, STACK
        ARGFRAME PSTACK, 0, STACK
        ARGFRAME XSTACK, 14, STACK
        ARGFRAME IOVERLAY, 0, STATIC
        ARGFRAME DOVERLAY, 0, STATIC
        EXTERN sAddrExtCmp
        FUNCTION sAddrExtCmp,0202H
        ARGFRAME ISTACK, 0, STACK
        ARGFRAME PSTACK, 0, STACK
        ARGFRAME XSTACK, 14, STACK
        ARGFRAME IOVERLAY, 0, STATIC
        ARGFRAME DOVERLAY, 0, STATIC
        EXTERN HalLedSet
        FUNCTION HalLedSet,0202H
        ARGFRAME ISTACK, 0, STACK
        ARGFRAME PSTACK, 0, STACK
        ARGFRAME XSTACK, 14, STACK
        ARGFRAME IOVERLAY, 0, STATIC
        ARGFRAME DOVERLAY, 0, STATIC
        EXTERN osal_mem_alloc
        FUNCTION osal_mem_alloc,0202H
        ARGFRAME ISTACK, 0, STACK
        ARGFRAME PSTACK, 0, STACK
        ARGFRAME XSTACK, 14, STACK
        ARGFRAME IOVERLAY, 0, STATIC
        ARGFRAME DOVERLAY, 0, STATIC
        EXTERN NLME_GetCoordShortAddr
        FUNCTION NLME_GetCoordShortAddr,0202H
        ARGFRAME ISTACK, 0, STACK
        ARGFRAME PSTACK, 0, STACK
        ARGFRAME XSTACK, 10, STACK
        ARGFRAME IOVERLAY, 0, STATIC
        ARGFRAME DOVERLAY, 0, STATIC
        EXTERN RTG_MTORouteReq
        FUNCTION RTG_MTORouteReq,0202H
        ARGFRAME ISTACK, 2, STACK
        ARGFRAME PSTACK, 0, STACK
        ARGFRAME XSTACK, 0, STACK
        ARGFRAME IOVERLAY, 0, STATIC
        ARGFRAME DOVERLAY, 0, STATIC
        EXTERN ZDP_GenericRsp
        FUNCTION ZDP_GenericRsp,0202H
        ARGFRAME ISTACK, 0, STACK
        ARGFRAME PSTACK, 0, STACK
        ARGFRAME XSTACK, 14, STACK
        ARGFRAME IOVERLAY, 0, STATIC
        ARGFRAME DOVERLAY, 0, STATIC
        EXTERN afSetMatch
        FUNCTION afSetMatch,0202H
        ARGFRAME ISTACK, 0, STACK
        ARGFRAME PSTACK, 0, STACK
        ARGFRAME XSTACK, 9, STACK
        ARGFRAME IOVERLAY, 0, STATIC
        ARGFRAME DOVERLAY, 0, STATIC
        EXTERN osal_get_timeoutEx
        FUNCTION osal_get_timeoutEx,0202H
        ARGFRAME ISTACK, 2, STACK
        ARGFRAME PSTACK, 0, STACK
        ARGFRAME XSTACK, 0, STACK
        ARGFRAME IOVERLAY, 0, STATIC
        ARGFRAME DOVERLAY, 0, STATIC
        EXTERN APSME_HoldDataRequests
        FUNCTION APSME_HoldDataRequests,0202H
        ARGFRAME ISTACK, 0, STACK
        ARGFRAME PSTACK, 0, STACK
        ARGFRAME XSTACK, 10, STACK
        ARGFRAME IOVERLAY, 0, STATIC
        ARGFRAME DOVERLAY, 0, STATIC
        EXTERN ZDP_DeviceAnnce
        FUNCTION ZDP_DeviceAnnce,0202H
        ARGFRAME ISTACK, 0, STACK
        ARGFRAME PSTACK, 0, STACK
        ARGFRAME XSTACK, 11, STACK
        ARGFRAME IOVERLAY, 0, STATIC
        ARGFRAME DOVERLAY, 0, STATIC
        EXTERN ??APSME_HoldDataRequests?relay
        FUNCTION ??APSME_HoldDataRequests?relay,00H
        EXTERN ??HalKeyRead?relay
        FUNCTION ??HalKeyRead?relay,00H
        EXTERN ??HalLedBlink?relay
        FUNCTION ??HalLedBlink?relay,00H
        EXTERN ??HalLedSet?relay
        FUNCTION ??HalLedSet?relay,00H
        EXTERN ??NLME_GetCoordShortAddr?relay
        FUNCTION ??NLME_GetCoordShortAddr?relay,00H
        EXTERN ??NLME_GetEnergyThreshold?relay
        FUNCTION ??NLME_GetEnergyThreshold?relay,00H
        EXTERN ??NLME_GetExtAddr?relay
        FUNCTION ??NLME_GetExtAddr?relay,00H
        EXTERN ??NLME_GetShortAddr?relay
        FUNCTION ??NLME_GetShortAddr?relay,00H
        EXTERN ??NLME_InitNV?relay
        FUNCTION ??NLME_InitNV?relay,00H
        EXTERN ??NLME_JoinRequest?relay
        FUNCTION ??NLME_JoinRequest?relay,00H
        EXTERN ??NLME_NetworkDiscoveryRequest?relay
        FUNCTION ??NLME_NetworkDiscoveryRequest?relay,00H
        EXTERN ??NLME_NwkDiscTerm?relay
        FUNCTION ??NLME_NwkDiscTerm?relay,00H
        EXTERN ??NLME_ReJoinRequest?relay
        FUNCTION ??NLME_ReJoinRequest?relay,00H
        EXTERN ??NLME_RestoreFromNV?relay
        FUNCTION ??NLME_RestoreFromNV?relay,00H
        EXTERN ??NLME_SetBroadcastFilter?relay
        FUNCTION ??NLME_SetBroadcastFilter?relay,00H
        EXTERN ??NLME_SetEnergyThreshold?relay
        FUNCTION ??NLME_SetEnergyThreshold?relay,00H
        EXTERN ??NLME_SetPollRate?relay
        FUNCTION ??NLME_SetPollRate?relay,00H
        EXTERN ??NLME_SetQueuedPollRate?relay
        FUNCTION ??NLME_SetQueuedPollRate?relay,00H
        EXTERN ??NLME_SetResponseRate?relay
        FUNCTION ??NLME_SetResponseRate?relay,00H
        EXTERN ??RTG_MTORouteReq?relay
        FUNCTION ??RTG_MTORouteReq?relay,00H
        EXTERN ??SSP_ReadNwkActiveKey?relay
        FUNCTION ??SSP_ReadNwkActiveKey?relay,00H
        EXTERN ??ZDConfig_InitDescriptors?relay
        FUNCTION ??ZDConfig_InitDescriptors?relay,00H
        EXTERN ??ZDO_Init?relay
        FUNCTION ??ZDO_Init?relay,00H
        EXTERN ??ZDO_ParseAddrRsp?relay
        FUNCTION ??ZDO_ParseAddrRsp?relay,00H
        EXTERN ??ZDO_ParseBindUnbindReq?relay
        FUNCTION ??ZDO_ParseBindUnbindReq?relay,00H
        EXTERN ??ZDO_ProcessBindUnbindReq?relay
        FUNCTION ??ZDO_ProcessBindUnbindReq?relay,00H
        EXTERN ??ZDO_RegisterForZDOMsg?relay
        FUNCTION ??ZDO_RegisterForZDOMsg?relay,00H
        EXTERN ??ZDO_StartDevice?relay
        FUNCTION ??ZDO_StartDevice?relay,00H
        EXTERN ??ZDO_UpdateAddrManager?relay
        FUNCTION ??ZDO_UpdateAddrManager?relay,00H
        EXTERN ??ZDO_UpdateNwkStatus?relay
        FUNCTION ??ZDO_UpdateNwkStatus?relay,00H
        EXTERN ??ZDP_DeviceAnnce?relay
        FUNCTION ??ZDP_DeviceAnnce?relay,00H
        EXTERN ??ZDP_GenericRsp?relay
        FUNCTION ??ZDP_GenericRsp?relay,00H
        EXTERN ??ZDP_IncomingData?relay
        FUNCTION ??ZDP_IncomingData?relay,00H
        EXTERN ??ZDSecMgrInit?relay
        FUNCTION ??ZDSecMgrInit?relay,00H
        EXTERN ??ZDSecMgrSaveTCLinkKey?relay
        FUNCTION ??ZDSecMgrSaveTCLinkKey?relay,00H
        EXTERN ??ZDSecMgrSwitchKeyInd?relay
        FUNCTION ??ZDSecMgrSwitchKeyInd?relay,00H
        EXTERN ??ZDSecMgrTransportKeyInd?relay
        FUNCTION ??ZDSecMgrTransportKeyInd?relay,00H
        EXTERN ??ZMacSetReq?relay
        FUNCTION ??ZMacSetReq?relay,00H
        EXTERN ??afRegister?relay
        FUNCTION ??afRegister?relay,00H
        EXTERN ??afSetMatch?relay
        FUNCTION ??afSetMatch?relay,00H
        EXTERN ??nwkNeighborInitTable?relay
        FUNCTION ??nwkNeighborInitTable?relay,00H
        EXTERN ??nwk_ExtPANIDValid?relay
        FUNCTION ??nwk_ExtPANIDValid?relay,00H
        EXTERN ??nwk_getNwkDescList?relay
        FUNCTION ??nwk_getNwkDescList?relay,00H
        EXTERN ??osal_get_timeoutEx?relay
        FUNCTION ??osal_get_timeoutEx?relay,00H
        EXTERN ??osal_mem_alloc?relay
        FUNCTION ??osal_mem_alloc?relay,00H
        EXTERN ??osal_mem_free?relay
        FUNCTION ??osal_mem_free?relay,00H
        EXTERN ??osal_memcpy?relay
        FUNCTION ??osal_memcpy?relay,00H
        EXTERN ??osal_memset?relay
        FUNCTION ??osal_memset?relay,00H
        EXTERN ??osal_msg_allocate?relay
        FUNCTION ??osal_msg_allocate?relay,00H
        EXTERN ??osal_msg_deallocate?relay
        FUNCTION ??osal_msg_deallocate?relay,00H
        EXTERN ??osal_msg_receive?relay
        FUNCTION ??osal_msg_receive?relay,00H
        EXTERN ??osal_msg_send?relay
        FUNCTION ??osal_msg_send?relay,00H
        EXTERN ??osal_nv_item_init?relay
        FUNCTION ??osal_nv_item_init?relay,00H
        EXTERN ??osal_nv_read?relay
        FUNCTION ??osal_nv_read?relay,00H
        EXTERN ??osal_nv_write?relay
        FUNCTION ??osal_nv_write?relay,00H
        EXTERN ??osal_pwrmgr_device?relay
        FUNCTION ??osal_pwrmgr_device?relay,00H
        EXTERN ??osal_rand?relay
        FUNCTION ??osal_rand?relay,00H
        EXTERN ??osal_set_event?relay
        FUNCTION ??osal_set_event?relay,00H
        EXTERN ??osal_start_timerEx?relay
        FUNCTION ??osal_start_timerEx?relay,00H
        EXTERN ??osal_stop_timerEx?relay
        FUNCTION ??osal_stop_timerEx?relay,00H
        EXTERN ??sAddrExtCmp?relay
        FUNCTION ??sAddrExtCmp?relay,00H
        EXTERN ??sAddrExtCpy?relay
        FUNCTION ??sAddrExtCpy?relay,00H
        EXTERN ??zgInitItems?relay
        FUNCTION ??zgInitItems?relay,00H
        EXTERN ??zgReadStartupOptions?relay
        FUNCTION ??zgReadStartupOptions?relay,00H
        EXTERN ??zgWriteStartupOptions?relay
        FUNCTION ??zgWriteStartupOptions?relay,00H
        EXTERN AIB_apsUseExtendedPANID
        EXTERN AIB_apsUseInsecureJoin
        EXTERN NWK_TaskID
        EXTERN NwkDescList
        EXTERN ZDO_Config_Node_Descriptor
        EXTERN _NIB
        EXTERN gMIN_TREE_LINK_COST
        EXTERN nwkFrameCounter
        EXTERN zgConcentratorEnable
        EXTERN zgConfigPANID
        EXTERN zgDefaultStartingScanDuration
        EXTERN zgDeviceLogicalType
        EXTERN zgStackProfile

// D:\zigbee\projects\zstack-cc2530-coordinator\Components\stack\zdo\ZDApp.c
//    1 /**************************************************************************************************
//    2   Filename:       ZDApp.c
//    3   Revised:        $Date: 2010-09-17 16:25:30 -0700 (Fri, 17 Sep 2010) $
//    4   Revision:       $Revision: 23835 $
//    5 
//    6   Description:    This file contains the interface to the Zigbee Device Application. This is the
//    7                   Application part that the user can change. This also contains the Task functions.
//    8 
//    9 
//   10   Copyright 2004-2010 Texas Instruments Incorporated. All rights reserved.
//   11 
//   12   IMPORTANT: Your use of this Software is limited to those specific rights
//   13   granted under the terms of a software license agreement between the user
//   14   who downloaded the software, his/her employer (which must be your employer)
//   15   and Texas Instruments Incorporated (the "License").  You may not use this
//   16   Software unless you agree to abide by the terms of the License. The License
//   17   limits your use, and you acknowledge, that the Software may not be modified,
//   18   copied or distributed unless embedded on a Texas Instruments microcontroller
//   19   or used solely and exclusively in conjunction with a Texas Instruments radio
//   20   frequency transceiver, which is integrated into your product.  Other than for
//   21   the foregoing purpose, you may not use, reproduce, copy, prepare derivative
//   22   works of, modify, distribute, perform, display or sell this Software and/or
//   23   its documentation for any purpose.
//   24 
//   25   YOU FURTHER ACKNOWLEDGE AND AGREE THAT THE SOFTWARE AND DOCUMENTATION ARE
//   26   PROVIDED AS IS WITHOUT WARRANTY OF ANY KIND, EITHER EXPRESS OR IMPLIED,
//   27   INCLUDING WITHOUT LIMITATION, ANY WARRANTY OF MERCHANTABILITY, TITLE, 
//   28   NON-INFRINGEMENT AND FITNESS FOR A PARTICULAR PURPOSE. IN NO EVENT SHALL
//   29   TEXAS INSTRUMENTS OR ITS LICENSORS BE LIABLE OR OBLIGATED UNDER CONTRACT,
//   30   NEGLIGENCE, STRICT LIABILITY, CONTRIBUTION, BREACH OF WARRANTY, OR OTHER
//   31   LEGAL EQUITABLE THEORY ANY DIRECT OR INDIRECT DAMAGES OR EXPENSES
//   32   INCLUDING BUT NOT LIMITED TO ANY INCIDENTAL, SPECIAL, INDIRECT, PUNITIVE
//   33   OR CONSEQUENTIAL DAMAGES, LOST PROFITS OR LOST DATA, COST OF PROCUREMENT
//   34   OF SUBSTITUTE GOODS, TECHNOLOGY, SERVICES, OR ANY CLAIMS BY THIRD PARTIES
//   35   (INCLUDING BUT NOT LIMITED TO ANY DEFENSE THEREOF), OR OTHER SIMILAR COSTS.
//   36 
//   37   Should you have any questions regarding your right to use this Software,
//   38   contact Texas Instruments Incorporated at www.TI.com. 
//   39 **************************************************************************************************/
//   40 
//   41 /*********************************************************************
//   42  * INCLUDES
//   43  */
//   44 
//   45 #include "ZComDef.h"
//   46 #include "ZMac.h"
//   47 #include "OSAL.h"
//   48 #include "OSAL_Tasks.h"
//   49 #include "OSAL_PwrMgr.h"
//   50 #include "OSAL_Nv.h"
//   51 #include "AF.h"
//   52 #include "APSMEDE.h"
//   53 #include "NLMEDE.h"
//   54 #include "AddrMgr.h"
//   55 #include "ZDProfile.h"
//   56 #include "ZDObject.h"
//   57 #include "ZDConfig.h"
//   58 #include "ZDSecMgr.h"
//   59 #include "ZDApp.h"
//   60 #include "DebugTrace.h"
//   61 #include "nwk_util.h"
//   62 #include "OnBoard.h"
//   63 #include "ZGlobals.h"
//   64 #include "ZDNwkMgr.h"
//   65 #include "rtg.h"
//   66 
//   67 #include "ssp.h"
//   68 
//   69 /* HAL */
//   70 #include "hal_led.h"
//   71 #include "hal_lcd.h"
//   72 #include "hal_key.h"
//   73 
//   74 #if defined( MT_MAC_FUNC ) || defined( MT_MAC_CB_FUNC )
//   75   #error "ERROR! MT_MAC functionalities should be disabled on ZDO devices"
//   76 #endif
//   77 
//   78 /*********************************************************************
//   79  * CONSTANTS
//   80  */
//   81 
//   82 #if !defined( NWK_START_DELAY )
//   83   #define NWK_START_DELAY             100   // in milliseconds
//   84 #endif
//   85 
//   86 // Init ZDO, but hold and wait for application to start the joining or 
//   87 // forming network
//   88 #define ZDO_INIT_HOLD_NWK_START       0xFFFF  
//   89 
//   90 #if !defined( EXTENDED_JOINING_RANDOM_MASK )
//   91   #define EXTENDED_JOINING_RANDOM_MASK 0x007F
//   92 #endif
//   93 
//   94 #if !defined( BEACON_REQUEST_DELAY )
//   95   #define BEACON_REQUEST_DELAY        100   // in milliseconds
//   96 #endif
//   97 
//   98 #if !defined( BEACON_REQ_DELAY_MASK )
//   99   #define BEACON_REQ_DELAY_MASK       0x007F
//  100 #endif
//  101 
//  102 #define MAX_RESUME_RETRY            3
//  103 
//  104 #define MAX_DEVICE_UNAUTH_TIMEOUT   5000  // 5 seconds
//  105 
//  106 // Beacon Order Settings (see NLMEDE.h)
//  107 #define DEFAULT_BEACON_ORDER        BEACON_ORDER_NO_BEACONS
//  108 #define DEFAULT_SUPERFRAME_ORDER    DEFAULT_BEACON_ORDER
//  109 
//  110 #if !defined( MAX_NWK_FRAMECOUNTER_CHANGES )
//  111   // The number of times the frame counter can change before
//  112   // saving to NV
//  113   #define MAX_NWK_FRAMECOUNTER_CHANGES    1000
//  114 #endif
//  115 
//  116 // Leave control bits
//  117 #define ZDAPP_LEAVE_CTRL_INIT 0
//  118 #define ZDAPP_LEAVE_CTRL_SET  1
//  119 #define ZDAPP_LEAVE_CTRL_RA   2
//  120 
//  121 // Address Manager Stub Implementation
//  122 #define ZDApp_NwkWriteNVRequest AddrMgrWriteNVRequest
//  123 
//  124 
//  125 #if !defined ZDO_NV_SAVE_RFDs
//  126 #define ZDO_NV_SAVE_RFDs  TRUE
//  127 #endif
//  128 
//  129 // Delay time before updating NWK NV data to force fewer writes during high activity.
//  130 #if ZDO_NV_SAVE_RFDs
//  131 #define ZDAPP_UPDATE_NWK_NV_TIME 700
//  132 #else
//  133 #define ZDAPP_UPDATE_NWK_NV_TIME 65000
//  134 #endif
//  135 
//  136 /*********************************************************************
//  137  * GLOBAL VARIABLES
//  138  */
//  139 
//  140 #if defined( LCD_SUPPORTED )

        RSEG XDATA_Z:XDATA:NOROOT(0)
//  141   uint8 MatchRsps = 0;
MatchRsps:
        DS 1
        REQUIRE __INIT_XDATA_Z
//  142 #endif
//  143 

        RSEG XDATA_I:XDATA:NOROOT(0)
        DATA
//  144 uint8 zdoDiscCounter = 1;
zdoDiscCounter:
        DS 1
        REQUIRE `?<Initializer for zdoDiscCounter>`
        REQUIRE __INIT_XDATA_I
//  145 

        RSEG XDATA_Z:XDATA:NOROOT(0)
//  146 zAddrType_t ZDAppNwkAddr;
ZDAppNwkAddr:
        DS 9
        REQUIRE __INIT_XDATA_Z
//  147 

        RSEG XDATA_Z:XDATA:NOROOT(0)
//  148 uint8 zdappMgmtNwkDiscRspTransSeq;
zdappMgmtNwkDiscRspTransSeq:
        DS 1
        REQUIRE __INIT_XDATA_Z

        RSEG XDATA_Z:XDATA:NOROOT(0)
//  149 uint8 zdappMgmtNwkDiscReqInProgress = FALSE;
zdappMgmtNwkDiscReqInProgress:
        DS 1
        REQUIRE __INIT_XDATA_Z

        RSEG XDATA_Z:XDATA:NOROOT(0)
//  150 zAddrType_t zdappMgmtNwkDiscRspAddr;
zdappMgmtNwkDiscRspAddr:
        DS 9
        REQUIRE __INIT_XDATA_Z

        RSEG XDATA_Z:XDATA:NOROOT(0)
//  151 uint8 zdappMgmtNwkDiscStartIndex;
zdappMgmtNwkDiscStartIndex:
        DS 1
        REQUIRE __INIT_XDATA_Z

        RSEG XDATA_Z:XDATA:NOROOT(0)
//  152 uint8 zdappMgmtSavedNwkState;
zdappMgmtSavedNwkState:
        DS 1
        REQUIRE __INIT_XDATA_Z
//  153 

        RSEG XDATA_Z:XDATA:NOROOT(0)
//  154 uint16 nwkFrameCounterChanges = 0;
nwkFrameCounterChanges:
        DS 2
        REQUIRE __INIT_XDATA_Z

        RSEG XDATA_I:XDATA:NOROOT(0)
        DATA
//  155 uint8 continueJoining = TRUE;
continueJoining:
        DS 1
        REQUIRE `?<Initializer for continueJoining>`
        REQUIRE __INIT_XDATA_I
//  156 

        RSEG XDATA_Z:XDATA:NOROOT(0)
//  157 uint8  _tmpRejoinState;
_tmpRejoinState:
        DS 1
        REQUIRE __INIT_XDATA_Z
//  158 
//  159 // The extended PanID used in ZDO layer for rejoin.

        RSEG XDATA_Z:XDATA:NOROOT(0)
//  160 uint8 ZDO_UseExtendedPANID[Z_EXTADDR_LEN];
ZDO_UseExtendedPANID:
        DS 8
        REQUIRE __INIT_XDATA_Z
//  161 

        RSEG XDATA_Z:XDATA:NOROOT(0)
//  162 pfnZdoCb zdoCBFunc[MAX_ZDO_CB_FUNC];
zdoCBFunc:
        DS 10
        REQUIRE __INIT_XDATA_Z
//  163 
//  164 /*********************************************************************
//  165  * EXTERNAL VARIABLES
//  166  */
//  167 
//  168 /*********************************************************************
//  169  * EXTERNAL FUNCTIONS
//  170  */
//  171 
//  172 /*********************************************************************
//  173  * LOCAL FUNCTIONS
//  174  */
//  175 
//  176 void ZDApp_NetworkStartEvt( void );
//  177 void ZDApp_DeviceAuthEvt( void );
//  178 void ZDApp_SaveNetworkStateEvt( void );
//  179 
//  180 uint8 ZDApp_ReadNetworkRestoreState( void );
//  181 uint8 ZDApp_RestoreNetworkState( void );
//  182 void ZDAppDetermineDeviceType( void );
//  183 void ZDApp_InitUserDesc( void );
//  184 void ZDAppCheckForHoldKey( void );
//  185 void ZDApp_ProcessOSALMsg( osal_event_hdr_t *msgPtr );
//  186 void ZDApp_ProcessNetworkJoin( void );
//  187 void ZDApp_SetCoordAddress( uint8 endPoint, uint8 dstEP );
//  188 void ZDApp_SaveNwkKey( void );
//  189 uint8 ZDApp_RestoreNwkKey( void );
//  190 networkDesc_t* ZDApp_NwkDescListProcessing(void);  
//  191 
//  192 void ZDApp_SecInit( uint8 state );
//  193 UINT16 ZDApp_ProcessSecEvent( uint8 task_id, UINT16 events );
//  194 void ZDApp_ProcessSecMsg( osal_event_hdr_t *msgPtr );
//  195 
//  196 void ZDApp_SendMsg( uint8 taskID, uint8 cmd, uint8 len, uint8 *buf );
//  197 
//  198 void ZDApp_ResetTimerStart( uint16 delay );
//  199 void ZDApp_ResetTimerCancel( void );
//  200 void ZDApp_LeaveCtrlInit( void );
//  201 void ZDApp_LeaveCtrlSet( uint8 ra );
//  202 uint8 ZDApp_LeaveCtrlBypass( void );
//  203 void ZDApp_LeaveCtrlStartup( devStates_t* state, uint16* startDelay );
//  204 void ZDApp_LeaveReset( uint8 ra );
//  205 void ZDApp_LeaveUpdate( uint16 nwkAddr, uint8* extAddr,
//  206                         uint8 removeChildren );
//  207 void ZDApp_NodeProfileSync( uint8 stackProfile );
//  208 void ZDApp_ProcessMsgCBs( zdoIncomingMsg_t *inMsg );
//  209 void ZDApp_RegisterCBs( void );
//  210 void ZDApp_InitZdoCBFunc(void);
//  211 
//  212 /*********************************************************************
//  213  * LOCAL VARIABLES
//  214  */
//  215 

        RSEG XDATA_Z:XDATA:NOROOT(0)
//  216 uint8 ZDAppTaskID;
ZDAppTaskID:
        DS 1
        REQUIRE __INIT_XDATA_Z

        RSEG XDATA_Z:XDATA:NOROOT(0)
//  217 uint8 nwkStatus;
nwkStatus:
        DS 1
        REQUIRE __INIT_XDATA_Z

        RSEG XDATA_Z:XDATA:NOROOT(0)
//  218 endPointDesc_t *ZDApp_AutoFindMode_epDesc = (endPointDesc_t *)NULL;
ZDApp_AutoFindMode_epDesc:
        DS 2
        REQUIRE __INIT_XDATA_Z

        RSEG XDATA_Z:XDATA:NOROOT(0)
//  219 uint8 ZDApp_LeaveCtrl;
ZDApp_LeaveCtrl:
        DS 1
        REQUIRE __INIT_XDATA_Z
//  220 
//  221 #if defined( HOLD_AUTO_START )
//  222   devStates_t devState = DEV_HOLD;
//  223 #else

        RSEG XDATA_I:XDATA:NOROOT(0)
        DATA
//  224   devStates_t devState = DEV_INIT;
devState:
        DS 1
        REQUIRE `?<Initializer for devState>`
        REQUIRE __INIT_XDATA_I
//  225 #endif
//  226 
//  227 #if ( ZG_BUILD_RTRONLY_TYPE ) || ( ZG_BUILD_ENDDEVICE_TYPE )

        RSEG XDATA_Z:XDATA:NOROOT(0)
//  228   devStartModes_t devStartMode = MODE_JOIN;     // Assume joining
devStartMode:
        DS 1
        REQUIRE __INIT_XDATA_Z
//  229   //devStartModes_t devStartMode = MODE_RESUME; // if already "directly joined"
//  230                         // to parent. Set to make the device do an Orphan scan.
//  231 #else
//  232   // Set the default to coodinator
//  233   devStartModes_t devStartMode = MODE_HARD;
//  234 #endif
//  235 

        RSEG XDATA_Z:XDATA:NOROOT(0)
//  236 uint8 retryCnt;
retryCnt:
        DS 1
        REQUIRE __INIT_XDATA_Z
//  237 

        RSEG XDATA_I:XDATA:NOROOT(0)
        DATA
//  238 endPointDesc_t ZDApp_epDesc =
ZDApp_epDesc:
        DS 6
        REQUIRE `?<Initializer for ZDApp_epDesc>`
        REQUIRE __INIT_XDATA_I
//  239 {
//  240   ZDO_EP,
//  241   &ZDAppTaskID,
//  242   (SimpleDescriptionFormat_t *)NULL,  // No Simple description for ZDO
//  243   (afNetworkLatencyReq_t)0            // No Network Latency req
//  244 };
//  245 

        RSEG XDATA_I:XDATA:NOROOT(0)
        DATA
//  246 uint16 ZDApp_SavedPollRate = POLL_RATE;
ZDApp_SavedPollRate:
        DS 2
        REQUIRE `?<Initializer for ZDApp_SavedPollRate>`
        REQUIRE __INIT_XDATA_I
//  247 
//  248 /*********************************************************************
//  249  * @fn      ZDApp_Init
//  250  *
//  251  * @brief   ZDApp Initialization function.
//  252  *
//  253  * @param   task_id - ZDApp Task ID
//  254  *
//  255  * @return  None
//  256  */

        RSEG BANKED_CODE:CODE:NOROOT(0)
//  257 void ZDApp_Init( uint8 task_id )
ZDApp_Init:
        CFI Block cfiBlock0 Using cfiCommon0
        CFI Function ZDApp_Init
//  258 {
        FUNCALL ZDApp_Init, NLME_GetExtAddr
        LOCFRAME ISTACK, 0, STACK
        LOCFRAME PSTACK, 0, STACK
        LOCFRAME XSTACK, 9, STACK
        LOCFRAME IOVERLAY, 0, STATIC
        LOCFRAME DOVERLAY, 0, STATIC
        ARGFRAME ISTACK, 0, STACK
        ARGFRAME PSTACK, 0, STACK
        ARGFRAME XSTACK, 9, STACK
        ARGFRAME IOVERLAY, 0, STATIC
        ARGFRAME DOVERLAY, 0, STATIC
        FUNCALL ZDApp_Init, ZDAppCheckForHoldKey
        LOCFRAME ISTACK, 0, STACK
        LOCFRAME PSTACK, 0, STACK
        LOCFRAME XSTACK, 9, STACK
        LOCFRAME IOVERLAY, 0, STATIC
        LOCFRAME DOVERLAY, 0, STATIC
        ARGFRAME ISTACK, 0, STACK
        ARGFRAME PSTACK, 0, STACK
        ARGFRAME XSTACK, 9, STACK
        ARGFRAME IOVERLAY, 0, STATIC
        ARGFRAME DOVERLAY, 0, STATIC
        FUNCALL ZDApp_Init, ZDO_Init
        LOCFRAME ISTACK, 0, STACK
        LOCFRAME PSTACK, 0, STACK
        LOCFRAME XSTACK, 9, STACK
        LOCFRAME IOVERLAY, 0, STATIC
        LOCFRAME DOVERLAY, 0, STATIC
        ARGFRAME ISTACK, 0, STACK
        ARGFRAME PSTACK, 0, STACK
        ARGFRAME XSTACK, 9, STACK
        ARGFRAME IOVERLAY, 0, STATIC
        ARGFRAME DOVERLAY, 0, STATIC
        FUNCALL ZDApp_Init, afRegister
        LOCFRAME ISTACK, 0, STACK
        LOCFRAME PSTACK, 0, STACK
        LOCFRAME XSTACK, 9, STACK
        LOCFRAME IOVERLAY, 0, STATIC
        LOCFRAME DOVERLAY, 0, STATIC
        ARGFRAME ISTACK, 0, STACK
        ARGFRAME PSTACK, 0, STACK
        ARGFRAME XSTACK, 9, STACK
        ARGFRAME IOVERLAY, 0, STATIC
        ARGFRAME DOVERLAY, 0, STATIC
        FUNCALL ZDApp_Init, ZDApp_InitUserDesc
        LOCFRAME ISTACK, 0, STACK
        LOCFRAME PSTACK, 0, STACK
        LOCFRAME XSTACK, 9, STACK
        LOCFRAME IOVERLAY, 0, STATIC
        LOCFRAME DOVERLAY, 0, STATIC
        ARGFRAME ISTACK, 0, STACK
        ARGFRAME PSTACK, 0, STACK
        ARGFRAME XSTACK, 9, STACK
        ARGFRAME IOVERLAY, 0, STATIC
        ARGFRAME DOVERLAY, 0, STATIC
        FUNCALL ZDApp_Init, ZDOInitDevice
        LOCFRAME ISTACK, 0, STACK
        LOCFRAME PSTACK, 0, STACK
        LOCFRAME XSTACK, 9, STACK
        LOCFRAME IOVERLAY, 0, STATIC
        LOCFRAME DOVERLAY, 0, STATIC
        ARGFRAME ISTACK, 0, STACK
        ARGFRAME PSTACK, 0, STACK
        ARGFRAME XSTACK, 9, STACK
        ARGFRAME IOVERLAY, 0, STATIC
        ARGFRAME DOVERLAY, 0, STATIC
        FUNCALL ZDApp_Init, ZDOInitDevice
        LOCFRAME ISTACK, 0, STACK
        LOCFRAME PSTACK, 0, STACK
        LOCFRAME XSTACK, 9, STACK
        LOCFRAME IOVERLAY, 0, STATIC
        LOCFRAME DOVERLAY, 0, STATIC
        ARGFRAME ISTACK, 0, STACK
        ARGFRAME PSTACK, 0, STACK
        ARGFRAME XSTACK, 9, STACK
        ARGFRAME IOVERLAY, 0, STATIC
        ARGFRAME DOVERLAY, 0, STATIC
        FUNCALL ZDApp_Init, HalLedBlink
        LOCFRAME ISTACK, 0, STACK
        LOCFRAME PSTACK, 0, STACK
        LOCFRAME XSTACK, 9, STACK
        LOCFRAME IOVERLAY, 0, STATIC
        LOCFRAME DOVERLAY, 0, STATIC
        ARGFRAME ISTACK, 0, STACK
        ARGFRAME PSTACK, 0, STACK
        ARGFRAME XSTACK, 9, STACK
        ARGFRAME IOVERLAY, 0, STATIC
        ARGFRAME DOVERLAY, 0, STATIC
        FUNCALL ZDApp_Init, ZDApp_InitZdoCBFunc
        LOCFRAME ISTACK, 0, STACK
        LOCFRAME PSTACK, 0, STACK
        LOCFRAME XSTACK, 9, STACK
        LOCFRAME IOVERLAY, 0, STATIC
        LOCFRAME DOVERLAY, 0, STATIC
        ARGFRAME ISTACK, 0, STACK
        ARGFRAME PSTACK, 0, STACK
        ARGFRAME XSTACK, 9, STACK
        ARGFRAME IOVERLAY, 0, STATIC
        ARGFRAME DOVERLAY, 0, STATIC
        FUNCALL ZDApp_Init, ZDApp_RegisterCBs
        LOCFRAME ISTACK, 0, STACK
        LOCFRAME PSTACK, 0, STACK
        LOCFRAME XSTACK, 9, STACK
        LOCFRAME IOVERLAY, 0, STATIC
        LOCFRAME DOVERLAY, 0, STATIC
        ARGFRAME ISTACK, 0, STACK
        ARGFRAME PSTACK, 0, STACK
        ARGFRAME XSTACK, 9, STACK
        ARGFRAME IOVERLAY, 0, STATIC
        ARGFRAME DOVERLAY, 0, STATIC
        MOV     A,#-0x9
        LCALL   ?BANKED_ENTER_XDATA
        CFI DPH0 load(1, XDATA, add(CFA_XSP16, literal(-1)))
        CFI DPL0 load(1, XDATA, add(CFA_XSP16, literal(-2)))
        CFI ?BRET_EXT load(1, XDATA, add(CFA_XSP16, literal(-3)))
        CFI ?RET_HIGH load(1, XDATA, add(CFA_XSP16, literal(-4)))
        CFI ?RET_LOW load(1, XDATA, add(CFA_XSP16, literal(-5)))
        CFI R7 load(1, XDATA, add(CFA_XSP16, literal(-6)))
        CFI V0 load(1, XDATA, add(CFA_XSP16, literal(-7)))
        CFI VB load(1, XDATA, add(CFA_XSP16, literal(-8)))
        CFI R6 load(1, XDATA, add(CFA_XSP16, literal(-9)))
        CFI CFA_SP SP+0
        CFI CFA_XSP16 add(XSP16, 9)
        ; Saved register size: 9
        ; Auto size: 0
        MOV     A,R1
//  259   // Save the task ID
//  260   ZDAppTaskID = task_id;
        MOV     DPTR,#ZDAppTaskID
        MOVX    @DPTR,A
//  261 
//  262   // Initialize the ZDO global device short address storage
//  263   ZDAppNwkAddr.addrMode = Addr16Bit;
        MOV     A,#0x2
        MOV     DPTR,#(ZDAppNwkAddr + 8)
        MOVX    @DPTR,A
//  264   ZDAppNwkAddr.addr.shortAddr = INVALID_NODE_ADDR;
        MOV     DPTR,#ZDAppNwkAddr
        MOV     A,#-0x2
        MOVX    @DPTR,A
        INC     DPTR
        MOV     A,#-0x1
        MOVX    @DPTR,A
//  265   (void)NLME_GetExtAddr();  // Load the saveExtAddr pointer.
        ; Setup parameters for call to function NLME_GetExtAddr
        LCALL   ??NLME_GetExtAddr?relay
//  266 
//  267   // Check for manual "Hold Auto Start"
//  268   ZDAppCheckForHoldKey();
        ; Setup parameters for call to function ZDAppCheckForHoldKey
        LCALL   ??ZDAppCheckForHoldKey?relay
//  269 
//  270   // Initialize ZDO items and setup the device - type of device to create.
//  271   ZDO_Init();
        ; Setup parameters for call to function ZDO_Init
        LCALL   ??ZDO_Init?relay
//  272 
//  273   // Register the endpoint description with the AF
//  274   // This task doesn't have a Simple description, but we still need
//  275   // to register the endpoint.
//  276   afRegister( (endPointDesc_t *)&ZDApp_epDesc );
        ; Setup parameters for call to function afRegister
        MOV     R2,#(ZDApp_epDesc & 0xff)
        MOV     R3,#((ZDApp_epDesc >> 8) & 0xff)
        LCALL   ??afRegister?relay
//  277 
//  278 #if defined( ZDO_USERDESC_RESPONSE )
//  279   ZDApp_InitUserDesc();
        ; Setup parameters for call to function ZDApp_InitUserDesc
        LCALL   ??ZDApp_InitUserDesc?relay
//  280 #endif // ZDO_USERDESC_RESPONSE
//  281 
//  282   // Start the device?
//  283   if ( devState != DEV_HOLD )
        MOV     DPTR,#devState
        MOVX    A,@DPTR
        JZ      ??ZDApp_Init_0
//  284   {
//  285     ZDOInitDevice( 0 );
        ; Setup parameters for call to function ZDOInitDevice
        MOV     R2,#0x0
        MOV     R3,#0x0
        LCALL   ??ZDOInitDevice?relay
        SJMP    ??ZDApp_Init_1
//  286   }
//  287   else
//  288   {
//  289     ZDOInitDevice( ZDO_INIT_HOLD_NWK_START );
??ZDApp_Init_0:
        ; Setup parameters for call to function ZDOInitDevice
        MOV     R2,#-0x1
        MOV     R3,#-0x1
        LCALL   ??ZDOInitDevice?relay
//  290     // Blink LED to indicate HOLD_START
//  291     HalLedBlink ( HAL_LED_4, 0, 50, 500 );
        ; Setup parameters for call to function HalLedBlink
        MOV     R4,#-0xc
        MOV     R5,#0x1
        MOV     R3,#0x32
        MOV     R2,#0x0
        MOV     R1,#0x8
        LCALL   ??HalLedBlink?relay
//  292   }
//  293   
//  294   // Initialize the ZDO callback function pointers zdoCBFunc[]
//  295   ZDApp_InitZdoCBFunc();
??ZDApp_Init_1:
        ; Setup parameters for call to function ZDApp_InitZdoCBFunc
        LCALL   ??ZDApp_InitZdoCBFunc?relay
//  296   
//  297   ZDApp_RegisterCBs();
        ; Setup parameters for call to function ZDApp_RegisterCBs
        LCALL   ??ZDApp_RegisterCBs?relay
//  298 } /* ZDApp_Init() */
        LJMP    ??Subroutine48_0 & 0xFFFF
        CFI EndBlock cfiBlock0
//  299 
//  300 /*********************************************************************
//  301  * @fn          ZDApp_SecInit
//  302  *
//  303  * @brief       ZDApp initialize security.
//  304  *
//  305  * @param       state - device initialization state
//  306  *
//  307  * @return      none
//  308  */

        RSEG BANKED_CODE:CODE:NOROOT(0)
//  309 void ZDApp_SecInit( uint8 state )
ZDApp_SecInit:
        CFI Block cfiBlock1 Using cfiCommon0
        CFI Function ZDApp_SecInit
//  310 {  
        FUNCALL ZDApp_SecInit, ZDSecMgrInit
        LOCFRAME ISTACK, 0, STACK
        LOCFRAME PSTACK, 0, STACK
        LOCFRAME XSTACK, 9, STACK
        LOCFRAME IOVERLAY, 0, STATIC
        LOCFRAME DOVERLAY, 0, STATIC
        ARGFRAME ISTACK, 0, STACK
        ARGFRAME PSTACK, 0, STACK
        ARGFRAME XSTACK, 9, STACK
        ARGFRAME IOVERLAY, 0, STATIC
        ARGFRAME DOVERLAY, 0, STATIC
        MOV     A,#-0x9
        LCALL   ?BANKED_ENTER_XDATA
        CFI DPH0 load(1, XDATA, add(CFA_XSP16, literal(-1)))
        CFI DPL0 load(1, XDATA, add(CFA_XSP16, literal(-2)))
        CFI ?BRET_EXT load(1, XDATA, add(CFA_XSP16, literal(-3)))
        CFI ?RET_HIGH load(1, XDATA, add(CFA_XSP16, literal(-4)))
        CFI ?RET_LOW load(1, XDATA, add(CFA_XSP16, literal(-5)))
        CFI R7 load(1, XDATA, add(CFA_XSP16, literal(-6)))
        CFI V0 load(1, XDATA, add(CFA_XSP16, literal(-7)))
        CFI VB load(1, XDATA, add(CFA_XSP16, literal(-8)))
        CFI R6 load(1, XDATA, add(CFA_XSP16, literal(-9)))
        CFI CFA_SP SP+0
        CFI CFA_XSP16 add(XSP16, 9)
        ; Saved register size: 9
        ; Auto size: 0
//  311   uint8 zgPreConfigKey[SEC_KEY_LEN];
//  312 
//  313   if ( ZG_SECURE_ENABLED && ZG_BUILD_COORDINATOR_TYPE && ZG_DEVICE_COORDINATOR_TYPE )
//  314   {
//  315     // Set the Trust Center bit
//  316     ZDO_Config_Node_Descriptor.ServerMask |= PRIM_TRUST_CENTER;
//  317   }
//  318 
//  319   if ( ZG_CHECK_SECURITY_MODE == ZG_SECURITY_PRO_HIGH )
//  320   {
//  321     ZDO_Config_Node_Descriptor.CapabilityFlags |= CAPINFO_SECURITY_CAPABLE;
//  322   }
//  323     
//  324   // Initialize ZigBee Device Security Manager
//  325   ZDSecMgrInit(state);
        ; Setup parameters for call to function ZDSecMgrInit
        LCALL   ??ZDSecMgrInit?relay
//  326 
//  327   if ( ZG_SECURE_ENABLED )
//  328   {
//  329     if ( state != ZDO_INITDEV_RESTORED_NETWORK_STATE )
//  330     {
//  331       nwkFrameCounter = 0;
//  332   
//  333       if( _NIB.nwkKeyLoaded == FALSE )
//  334       {
//  335         if ( ( ZG_BUILD_COORDINATOR_TYPE && ZG_DEVICE_COORDINATOR_TYPE          ) ||
//  336              ( ( zgSecurityMode == ZG_SECURITY_RESIDENTIAL ) && zgPreConfigKeys )    )
//  337         {
//  338             ZDSecMgrReadKeyFromNv(ZCD_NV_PRECFGKEY, zgPreConfigKey);
//  339             SSP_UpdateNwkKey( zgPreConfigKey, 0);
//  340             SSP_SwitchNwkKey( 0 );
//  341             
//  342             // clear local copy of key
//  343             osal_memset(zgPreConfigKey, 0x00, SEC_KEY_LEN);
//  344         }
//  345       }
//  346     }
//  347   }    
//  348 }
        LJMP    ??Subroutine48_0 & 0xFFFF
        CFI EndBlock cfiBlock1
//  349 
//  350 /*********************************************************************
//  351  * @fn      ZDApp_event_loop()
//  352  *
//  353  * @brief   Main event loop for Zigbee device objects task. This function
//  354  *          should be called at periodic intervals.
//  355  *
//  356  * @param   task_id - Task ID
//  357  * @param   events  - Bitmap of events
//  358  *
//  359  * @return  none
//  360  */

        RSEG BANKED_CODE:CODE:NOROOT(0)
//  361 UINT16 ZDApp_event_loop( uint8 task_id, UINT16 events )
ZDApp_event_loop:
        CFI Block cfiBlock2 Using cfiCommon0
        CFI Function ZDApp_event_loop
//  362 {
        FUNCALL ZDApp_event_loop, ZDO_StartDevice
        LOCFRAME ISTACK, 0, STACK
        LOCFRAME PSTACK, 0, STACK
        LOCFRAME XSTACK, 10, STACK
        LOCFRAME IOVERLAY, 0, STATIC
        LOCFRAME DOVERLAY, 0, STATIC
        ARGFRAME ISTACK, 0, STACK
        ARGFRAME PSTACK, 0, STACK
        ARGFRAME XSTACK, 10, STACK
        ARGFRAME IOVERLAY, 0, STATIC
        ARGFRAME DOVERLAY, 0, STATIC
        FUNCALL ZDApp_event_loop, ZDApp_ProcessOSALMsg
        LOCFRAME ISTACK, 0, STACK
        LOCFRAME PSTACK, 0, STACK
        LOCFRAME XSTACK, 10, STACK
        LOCFRAME IOVERLAY, 0, STATIC
        LOCFRAME DOVERLAY, 0, STATIC
        ARGFRAME ISTACK, 0, STACK
        ARGFRAME PSTACK, 0, STACK
        ARGFRAME XSTACK, 10, STACK
        ARGFRAME IOVERLAY, 0, STATIC
        ARGFRAME DOVERLAY, 0, STATIC
        FUNCALL ZDApp_event_loop, osal_msg_deallocate
        LOCFRAME ISTACK, 0, STACK
        LOCFRAME PSTACK, 0, STACK
        LOCFRAME XSTACK, 10, STACK
        LOCFRAME IOVERLAY, 0, STATIC
        LOCFRAME DOVERLAY, 0, STATIC
        ARGFRAME ISTACK, 0, STACK
        ARGFRAME PSTACK, 0, STACK
        ARGFRAME XSTACK, 10, STACK
        ARGFRAME IOVERLAY, 0, STATIC
        ARGFRAME DOVERLAY, 0, STATIC
        FUNCALL ZDApp_event_loop, osal_msg_receive
        LOCFRAME ISTACK, 0, STACK
        LOCFRAME PSTACK, 0, STACK
        LOCFRAME XSTACK, 10, STACK
        LOCFRAME IOVERLAY, 0, STATIC
        LOCFRAME DOVERLAY, 0, STATIC
        ARGFRAME ISTACK, 0, STACK
        ARGFRAME PSTACK, 0, STACK
        ARGFRAME XSTACK, 10, STACK
        ARGFRAME IOVERLAY, 0, STATIC
        ARGFRAME DOVERLAY, 0, STATIC
        FUNCALL ZDApp_event_loop, ZDO_UpdateNwkStatus
        LOCFRAME ISTACK, 0, STACK
        LOCFRAME PSTACK, 0, STACK
        LOCFRAME XSTACK, 10, STACK
        LOCFRAME IOVERLAY, 0, STATIC
        LOCFRAME DOVERLAY, 0, STATIC
        ARGFRAME ISTACK, 0, STACK
        ARGFRAME PSTACK, 0, STACK
        ARGFRAME XSTACK, 10, STACK
        ARGFRAME IOVERLAY, 0, STATIC
        ARGFRAME DOVERLAY, 0, STATIC
        FUNCALL ZDApp_event_loop, osal_start_timerEx
        LOCFRAME ISTACK, 0, STACK
        LOCFRAME PSTACK, 0, STACK
        LOCFRAME XSTACK, 10, STACK
        LOCFRAME IOVERLAY, 0, STATIC
        LOCFRAME DOVERLAY, 0, STATIC
        ARGFRAME ISTACK, 0, STACK
        ARGFRAME PSTACK, 0, STACK
        ARGFRAME XSTACK, 10, STACK
        ARGFRAME IOVERLAY, 0, STATIC
        ARGFRAME DOVERLAY, 0, STATIC
        FUNCALL ZDApp_event_loop, Onboard_soft_reset
        LOCFRAME ISTACK, 0, STACK
        LOCFRAME PSTACK, 0, STACK
        LOCFRAME XSTACK, 10, STACK
        LOCFRAME IOVERLAY, 0, STATIC
        LOCFRAME DOVERLAY, 0, STATIC
        ARGFRAME ISTACK, 0, STACK
        ARGFRAME PSTACK, 0, STACK
        ARGFRAME XSTACK, 10, STACK
        ARGFRAME IOVERLAY, 0, STATIC
        ARGFRAME DOVERLAY, 0, STATIC
        MOV     A,#-0xa
        LCALL   ?BANKED_ENTER_XDATA
        CFI DPH0 load(1, XDATA, add(CFA_XSP16, literal(-1)))
        CFI DPL0 load(1, XDATA, add(CFA_XSP16, literal(-2)))
        CFI ?BRET_EXT load(1, XDATA, add(CFA_XSP16, literal(-3)))
        CFI ?RET_HIGH load(1, XDATA, add(CFA_XSP16, literal(-4)))
        CFI ?RET_LOW load(1, XDATA, add(CFA_XSP16, literal(-5)))
        CFI R7 load(1, XDATA, add(CFA_XSP16, literal(-6)))
        CFI V1 load(1, XDATA, add(CFA_XSP16, literal(-7)))
        CFI V0 load(1, XDATA, add(CFA_XSP16, literal(-8)))
        CFI VB load(1, XDATA, add(CFA_XSP16, literal(-9)))
        CFI R6 load(1, XDATA, add(CFA_XSP16, literal(-10)))
        CFI CFA_SP SP+0
        CFI CFA_XSP16 add(XSP16, 10)
        ; Saved register size: 10
        ; Auto size: 0
        MOV     A,R2
        MOV     R6,A
        MOV     A,R3
        MOV     R7,A
//  363   uint8 *msg_ptr;
//  364 
//  365   if ( events & SYS_EVENT_MSG )
        MOV     A,#-0x80
        ANL     A,R7
        MOV     R1,A
        CLR     A
        JNZ     ??ZDApp_event_loop_0
        MOV     A,R1
??ZDApp_event_loop_0:
        JNZ     ??ZDApp_event_loop_1
//  366   {
//  367     while ( (msg_ptr = osal_msg_receive( ZDAppTaskID )) )
//  368     {
//  369       ZDApp_ProcessOSALMsg( (osal_event_hdr_t *)msg_ptr );
//  370 
//  371       // Release the memory
//  372       osal_msg_deallocate( msg_ptr );
//  373     }
//  374 
//  375     // Return unprocessed events
//  376     return (events ^ SYS_EVENT_MSG);
//  377   }
//  378 
//  379   if ( events & ZDO_NETWORK_INIT )
        MOV     A,R6
        MOV     C,0xE0 /* A   */.0
        JNC     ??ZDApp_event_loop_2
//  380   {
//  381     // Initialize apps and start the network
//  382     devState = DEV_INIT;
        MOV     A,#0x1
        MOV     DPTR,#devState
        MOVX    @DPTR,A
//  383     
//  384     ZDO_StartDevice( (uint8)ZDO_Config_Node_Descriptor.LogicalType, devStartMode,
//  385                      DEFAULT_BEACON_ORDER, DEFAULT_SUPERFRAME_ORDER );
        ; Setup parameters for call to function ZDO_StartDevice
        MOV     R4,#0xf
        MOV     R3,#0xf
        MOV     DPTR,#devStartMode
        MOVX    A,@DPTR
        MOV     R2,A
        MOV     DPTR,#ZDO_Config_Node_Descriptor
        MOVX    A,@DPTR
        ANL     A,#0x7
        MOV     R1,A
        LCALL   ??ZDO_StartDevice?relay
//  386 
//  387     // Return unprocessed events
//  388     return (events ^ ZDO_NETWORK_INIT);
        MOV     A,#0x1
??ZDApp_event_loop_3:
        XRL     A,R6
        MOV     R2,A
        MOV     A,R7
??ZDApp_event_loop_4:
        MOV     R3,A
        SJMP    ??ZDApp_event_loop_5
//  389   }
??ZDApp_event_loop_6:
        ; Setup parameters for call to function ZDApp_ProcessOSALMsg
        LCALL   ??ZDApp_ProcessOSALMsg?relay
        ; Setup parameters for call to function osal_msg_deallocate
        MOV     R2,?V0 + 0
        MOV     R3,?V0 + 1
        LCALL   ??osal_msg_deallocate?relay
??ZDApp_event_loop_1:
        ; Setup parameters for call to function osal_msg_receive
        MOV     DPTR,#ZDAppTaskID
        MOVX    A,@DPTR
        MOV     R1,A
        LCALL   ??osal_msg_receive?relay
        MOV     ?V0 + 0,R2
        MOV     ?V0 + 1,R3
        MOV     A,R2
        JNZ     ??ZDApp_event_loop_7
        MOV     A,R3
??ZDApp_event_loop_7:
        JNZ     ??ZDApp_event_loop_6
        MOV     A,R6
        MOV     R2,A
        MOV     A,#-0x80
??ZDApp_event_loop_8:
        XRL     A,R7
        SJMP    ??ZDApp_event_loop_4
//  390 
//  391   if ( ZSTACK_ROUTER_BUILD )
//  392   {
//  393     if ( events & ZDO_NETWORK_START )
//  394     {
//  395       ZDApp_NetworkStartEvt();
//  396   
//  397       // Return unprocessed events
//  398       return (events ^ ZDO_NETWORK_START);
//  399     }
//  400 
//  401     if ( events & ZDO_ROUTER_START )
//  402     {
//  403       if ( nwkStatus == ZSuccess )
//  404       {
//  405         if ( devState == DEV_END_DEVICE )
//  406           devState = DEV_ROUTER;
//  407   
//  408         osal_pwrmgr_device( PWRMGR_ALWAYS_ON );
//  409       }
//  410       else
//  411       {
//  412         // remain as end device!!
//  413       }
//  414       osal_set_event( ZDAppTaskID, ZDO_STATE_CHANGE_EVT );
//  415   
//  416       // Return unprocessed events
//  417       return (events ^ ZDO_ROUTER_START);
//  418     }
//  419   }
//  420   
//  421   if ( events & ZDO_STATE_CHANGE_EVT )
??ZDApp_event_loop_2:
        ANL     A,#0x10
        JZ      ??ZDApp_event_loop_9
//  422   {
//  423     ZDO_UpdateNwkStatus( devState );
        ; Setup parameters for call to function ZDO_UpdateNwkStatus
        MOV     DPTR,#devState
        MOVX    A,@DPTR
        MOV     R1,A
        LCALL   ??ZDO_UpdateNwkStatus?relay
//  424     
//  425     // At start up, do one MTO route discovery if the device is a concentrator
//  426     if ( zgConcentratorEnable == TRUE ) 
        MOV     DPTR,#zgConcentratorEnable
        MOVX    A,@DPTR
        XRL     A,#0x1
        JNZ     ??CrossCallReturnLabel_71
//  427     {
//  428       // Start next event
//  429       osal_start_timerEx( NWK_TaskID, NWK_MTO_RTG_REQ_EVT, 100 );
        ; Setup parameters for call to function osal_start_timerEx
        MOV     R4,#0x64
        MOV     R5,#0x0
        MOV     R2,#0x0
        MOV     R3,#0x8
        MOV     DPTR,#NWK_TaskID
        LCALL   ??Subroutine45_0 & 0xFFFF
//  430     }
//  431     
//  432     // Return unprocessed events
//  433     return (events ^ ZDO_STATE_CHANGE_EVT);
??CrossCallReturnLabel_71:
        MOV     A,#0x10
        SJMP    ??ZDApp_event_loop_3
//  434   }
//  435 
//  436   if ( events & ZDO_COMMAND_CNF )
??ZDApp_event_loop_9:
        MOV     A,R6
        ANL     A,#0x8
        JZ      ??ZDApp_event_loop_10
//  437   {
//  438     // User defined logic
//  439 
//  440     // Return unprocessed events
//  441     return (events ^ ZDO_COMMAND_CNF);
        MOV     A,#0x8
        XRL     A,R6
        MOV     R2,A
        SJMP    ??ZDApp_event_loop_5
//  442   }
//  443   
//  444   if ( events & ZDO_NWK_UPDATE_NV )
??ZDApp_event_loop_10:
        MOV     A,#0x2
        ANL     A,R7
        MOV     R1,A
        CLR     A
        JNZ     ??ZDApp_event_loop_11
        MOV     A,R1
??ZDApp_event_loop_11:
        JZ      ??ZDApp_event_loop_12
//  445   {
//  446     ZDApp_SaveNetworkStateEvt();
//  447 
//  448     // Return unprocessed events
//  449     return (events ^ ZDO_NWK_UPDATE_NV);
        MOV     A,#0x2
        SJMP    ??ZDApp_event_loop_8
//  450   }
//  451 
//  452   if ( events & ZDO_DEVICE_RESET )
??ZDApp_event_loop_12:
        MOV     A,R6
        ANL     A,#0x4
        JZ      ??ZDApp_event_loop_13
//  453   {
//  454     // The device has been in the UNAUTH state, so reset
//  455     // Note: there will be no return from this call
//  456     SystemResetSoft();
        ; Setup parameters for call to function Onboard_soft_reset
        LCALL   Onboard_soft_reset & 0xFFFF
//  457   }
//  458 
//  459   if ( ZG_SECURE_ENABLED )
//  460   {
//  461     return ( ZDApp_ProcessSecEvent( task_id, events ) );
//  462   }
//  463   else
//  464   {
//  465     // Discard or make more handlers
//  466     return 0;
??ZDApp_event_loop_13:
        MOV     R2,#0x0
        MOV     R3,#0x0
//  467   }
??ZDApp_event_loop_5:
        LJMP    ??Subroutine47_0 & 0xFFFF
        CFI EndBlock cfiBlock2
//  468 }
//  469 
//  470 /*********************************************************************
//  471  * @fn      ZDApp_ProcessSecEvent()
//  472  *
//  473  * @brief   Process incoming security events.
//  474  *
//  475  * @param   task_id - Task ID
//  476  * @param   events  - Bitmap of events
//  477  *
//  478  * @return  none
//  479  */

        RSEG BANKED_CODE:CODE:NOROOT(0)
//  480 UINT16 ZDApp_ProcessSecEvent( uint8 task_id, UINT16 events )
ZDApp_ProcessSecEvent:
        CFI Block cfiBlock3 Using cfiCommon0
        CFI Function ZDApp_ProcessSecEvent
//  481 {
        FUNCALL ZDApp_ProcessSecEvent, ZDApp_DeviceAuthEvt
        LOCFRAME ISTACK, 0, STACK
        LOCFRAME PSTACK, 0, STACK
        LOCFRAME XSTACK, 9, STACK
        LOCFRAME IOVERLAY, 0, STATIC
        LOCFRAME DOVERLAY, 0, STATIC
        ARGFRAME ISTACK, 0, STACK
        ARGFRAME PSTACK, 0, STACK
        ARGFRAME XSTACK, 9, STACK
        ARGFRAME IOVERLAY, 0, STATIC
        ARGFRAME DOVERLAY, 0, STATIC
        FUNCALL ZDApp_ProcessSecEvent, ZDApp_SaveNwkKey
        LOCFRAME ISTACK, 0, STACK
        LOCFRAME PSTACK, 0, STACK
        LOCFRAME XSTACK, 9, STACK
        LOCFRAME IOVERLAY, 0, STATIC
        LOCFRAME DOVERLAY, 0, STATIC
        ARGFRAME ISTACK, 0, STACK
        ARGFRAME PSTACK, 0, STACK
        ARGFRAME XSTACK, 9, STACK
        ARGFRAME IOVERLAY, 0, STATIC
        ARGFRAME DOVERLAY, 0, STATIC
        FUNCALL ZDApp_ProcessSecEvent, ZDSecMgrSaveTCLinkKey
        LOCFRAME ISTACK, 0, STACK
        LOCFRAME PSTACK, 0, STACK
        LOCFRAME XSTACK, 9, STACK
        LOCFRAME IOVERLAY, 0, STATIC
        LOCFRAME DOVERLAY, 0, STATIC
        ARGFRAME ISTACK, 0, STACK
        ARGFRAME PSTACK, 0, STACK
        ARGFRAME XSTACK, 9, STACK
        ARGFRAME IOVERLAY, 0, STATIC
        ARGFRAME DOVERLAY, 0, STATIC
        MOV     A,#-0x9
        LCALL   ?BANKED_ENTER_XDATA
        CFI DPH0 load(1, XDATA, add(CFA_XSP16, literal(-1)))
        CFI DPL0 load(1, XDATA, add(CFA_XSP16, literal(-2)))
        CFI ?BRET_EXT load(1, XDATA, add(CFA_XSP16, literal(-3)))
        CFI ?RET_HIGH load(1, XDATA, add(CFA_XSP16, literal(-4)))
        CFI ?RET_LOW load(1, XDATA, add(CFA_XSP16, literal(-5)))
        CFI R7 load(1, XDATA, add(CFA_XSP16, literal(-6)))
        CFI V0 load(1, XDATA, add(CFA_XSP16, literal(-7)))
        CFI VB load(1, XDATA, add(CFA_XSP16, literal(-8)))
        CFI R6 load(1, XDATA, add(CFA_XSP16, literal(-9)))
        CFI CFA_SP SP+0
        CFI CFA_XSP16 add(XSP16, 9)
        ; Saved register size: 9
        ; Auto size: 0
        MOV     A,R2
        MOV     R6,A
        MOV     A,R3
        MOV     R7,A
//  482   (void)task_id;  // Intentionally unreferenced parameter
//  483   
//  484   if ( ZSTACK_ROUTER_BUILD )
//  485   {
//  486     if ( events & ZDO_NEW_DEVICE )
//  487     {
//  488       // process the new device event
//  489       if ( ZDSecMgrNewDeviceEvent() == TRUE )
//  490       {
//  491         osal_start_timerEx( ZDAppTaskID, ZDO_NEW_DEVICE, 1000 );
//  492       }
//  493 
//  494       // Return unprocessed events
//  495       return (events ^ ZDO_NEW_DEVICE);
//  496     }
//  497   }
//  498 
//  499   if ( (ZG_CHECK_SECURITY_MODE == ZG_SECURITY_PRO_HIGH) 
//  500       || (ZG_CHECK_SECURITY_MODE == ZG_SECURITY_SE_STANDARD) )
//  501   {
//  502     if ( ZG_BUILD_COORDINATOR_TYPE && ZG_DEVICE_COORDINATOR_TYPE )
//  503     { 
//  504       if ( events & ZDO_SECMGR_EVENT )
//  505       {
//  506         ZDSecMgrEvent();
//  507 
//  508         // Return unprocessed events
//  509         return (events ^ ZDO_SECMGR_EVENT);
//  510       }
//  511     }
//  512   }
//  513   
//  514   if ( events & ZDO_DEVICE_AUTH )
        MOV     A,R6
        ANL     A,#0x80
        JZ      ??ZDApp_ProcessSecEvent_0
//  515   {
//  516     ZDApp_DeviceAuthEvt();
        ; Setup parameters for call to function ZDApp_DeviceAuthEvt
        LCALL   ??ZDApp_DeviceAuthEvt?relay
//  517 
//  518     // Return unprocessed events
//  519     return (events ^ ZDO_DEVICE_AUTH);
        MOV     A,#-0x80
        XRL     A,R6
        MOV     R2,A
        MOV     A,R7
??ZDApp_ProcessSecEvent_1:
        MOV     R3,A
        SJMP    ??ZDApp_ProcessSecEvent_2
//  520   }
//  521 
//  522   if ( events & ZDO_FRAMECOUNTER_CHANGE )
??ZDApp_ProcessSecEvent_0:
        MOV     A,#0x4
        ANL     A,R7
        MOV     R1,A
        CLR     A
        JNZ     ??ZDApp_ProcessSecEvent_3
        MOV     A,R1
??ZDApp_ProcessSecEvent_3:
        JZ      ??ZDApp_ProcessSecEvent_4
//  523   {
//  524     if ( nwkFrameCounterChanges++ > MAX_NWK_FRAMECOUNTER_CHANGES )
        MOV     DPTR,#nwkFrameCounterChanges
        LCALL   ??Subroutine50_0 & 0xFFFF
??CrossCallReturnLabel_76:
        MOV     A,#0x1
        ADD     A,R0
        MOV     R2,A
        CLR     A
        ADDC    A,R1
        MOV     R3,A
        MOV     DPTR,#nwkFrameCounterChanges
        LCALL   ??Subroutine55_0 & 0xFFFF
??CrossCallReturnLabel_99:
        CLR     C
        MOV     A,R0
        SUBB    A,#-0x17
        MOV     A,R1
        SUBB    A,#0x3
        JC      ??ZDApp_ProcessSecEvent_5
//  525     {
//  526       ZDApp_SaveNwkKey();
        ; Setup parameters for call to function ZDApp_SaveNwkKey
        LCALL   ??ZDApp_SaveNwkKey?relay
//  527     }
//  528 
//  529     // Return unprocessed events
//  530     return (events ^ ZDO_FRAMECOUNTER_CHANGE);
??ZDApp_ProcessSecEvent_5:
        MOV     A,R6
        MOV     R2,A
        MOV     A,#0x4
??ZDApp_ProcessSecEvent_6:
        XRL     A,R7
        SJMP    ??ZDApp_ProcessSecEvent_1
//  531   }
//  532 
//  533   if ( events & ZDO_APS_FRAMECOUNTER_CHANGE )
??ZDApp_ProcessSecEvent_4:
        MOV     A,#0x10
        ANL     A,R7
        MOV     R1,A
        CLR     A
        JNZ     ??ZDApp_ProcessSecEvent_7
        MOV     A,R1
??ZDApp_ProcessSecEvent_7:
        JZ      ??ZDApp_ProcessSecEvent_8
//  534   {
//  535 #if defined (NV_RESTORE)
//  536     ZDSecMgrSaveApsLinkKey();
//  537 #endif // (NV_RESTORE)
//  538     
//  539     // Return unprocessed events
//  540     return (events ^ ZDO_APS_FRAMECOUNTER_CHANGE);
        MOV     A,#0x10
        SJMP    ??ZDApp_ProcessSecEvent_6
//  541   }
//  542 
//  543   if ( events & ZDO_TCLK_FRAMECOUNTER_CHANGE )
??ZDApp_ProcessSecEvent_8:
        MOV     A,#0x8
        ANL     A,R7
        MOV     R1,A
        CLR     A
        JNZ     ??ZDApp_ProcessSecEvent_9
        MOV     A,R1
??ZDApp_ProcessSecEvent_9:
        JZ      ??ZDApp_ProcessSecEvent_10
//  544   {
//  545     ZDSecMgrSaveTCLinkKey();
        ; Setup parameters for call to function ZDSecMgrSaveTCLinkKey
        LCALL   ??ZDSecMgrSaveTCLinkKey?relay
//  546     
//  547     // Return unprocessed events
//  548     return (events ^ ZDO_TCLK_FRAMECOUNTER_CHANGE);
        MOV     A,R6
        MOV     R2,A
        MOV     A,#0x8
        SJMP    ??ZDApp_ProcessSecEvent_6
//  549   }
//  550   
//  551   // Discard or make more handlers
//  552   return 0;
??ZDApp_ProcessSecEvent_10:
        MOV     R2,#0x0
        MOV     R3,#0x0
??ZDApp_ProcessSecEvent_2:
        LJMP    ??Subroutine48_0 & 0xFFFF
        CFI EndBlock cfiBlock3
//  553 }
//  554 
//  555 /*********************************************************************
//  556  * Application Functions
//  557  */
//  558 
//  559 /*********************************************************************
//  560  * @fn      ZDOInitDevice
//  561  *
//  562  * @brief   Start the device in the network.  This function will read
//  563  *   ZCD_NV_STARTUP_OPTION (NV item) to determine whether or not to
//  564  *   restore the network state of the device.
//  565  *
//  566  * @param   startDelay - timeDelay to start device (in milliseconds).
//  567  *                       There is a jitter added to this delay:
//  568  *                       ((NWK_START_DELAY + startDelay)
//  569  *                       + (osal_rand() & EXTENDED_JOINING_RANDOM_MASK))
//  570  *                       When startDelay is set to ZDO_INIT_HOLD_NWK_START
//  571  *                       this function will hold the network init. Application
//  572  *                       can start the device.
//  573  *
//  574  * NOTE:    If the application would like to force a "new" join, the
//  575  *          application should set the ZCD_STARTOPT_DEFAULT_NETWORK_STATE
//  576  *          bit in the ZCD_NV_STARTUP_OPTION NV item before calling
//  577  *          this function. "new" join means to not restore the network
//  578  *          state of the device. Use zgWriteStartupOptions() to set these
//  579  *          options.
//  580  *
//  581  * @return
//  582  *    ZDO_INITDEV_RESTORED_NETWORK_STATE  - The device's network state was
//  583  *          restored.
//  584  *    ZDO_INITDEV_NEW_NETWORK_STATE - The network state was initialized.
//  585  *          This could mean that ZCD_NV_STARTUP_OPTION said to not restore, or
//  586  *          it could mean that there was no network state to restore.
//  587  *    ZDO_INITDEV_LEAVE_NOT_STARTED - Before the reset, a network leave was issued
//  588  *          with the rejoin option set to TRUE.  So, the device was not
//  589  *          started in the network (one time only).  The next time this
//  590  *          function is called it will start.
//  591  */

        RSEG BANKED_CODE:CODE:NOROOT(0)
//  592 uint8 ZDOInitDevice( uint16 startDelay )
ZDOInitDevice:
        CFI Block cfiBlock4 Using cfiCommon0
        CFI Function ZDOInitDevice
//  593 {
        FUNCALL ZDOInitDevice, zgInitItems
        LOCFRAME ISTACK, 0, STACK
        LOCFRAME PSTACK, 0, STACK
        LOCFRAME XSTACK, 12, STACK
        LOCFRAME IOVERLAY, 0, STATIC
        LOCFRAME DOVERLAY, 0, STATIC
        ARGFRAME ISTACK, 0, STACK
        ARGFRAME PSTACK, 0, STACK
        ARGFRAME XSTACK, 12, STACK
        ARGFRAME IOVERLAY, 0, STATIC
        ARGFRAME DOVERLAY, 0, STATIC
        FUNCALL ZDOInitDevice, ZDConfig_InitDescriptors
        LOCFRAME ISTACK, 0, STACK
        LOCFRAME PSTACK, 0, STACK
        LOCFRAME XSTACK, 12, STACK
        LOCFRAME IOVERLAY, 0, STATIC
        LOCFRAME DOVERLAY, 0, STATIC
        ARGFRAME ISTACK, 0, STACK
        ARGFRAME PSTACK, 0, STACK
        ARGFRAME XSTACK, 12, STACK
        ARGFRAME IOVERLAY, 0, STATIC
        ARGFRAME DOVERLAY, 0, STATIC
        FUNCALL ZDOInitDevice, ZDAppDetermineDeviceType
        LOCFRAME ISTACK, 0, STACK
        LOCFRAME PSTACK, 0, STACK
        LOCFRAME XSTACK, 12, STACK
        LOCFRAME IOVERLAY, 0, STATIC
        LOCFRAME DOVERLAY, 0, STATIC
        ARGFRAME ISTACK, 0, STACK
        ARGFRAME PSTACK, 0, STACK
        ARGFRAME XSTACK, 12, STACK
        ARGFRAME IOVERLAY, 0, STATIC
        ARGFRAME DOVERLAY, 0, STATIC
        FUNCALL ZDOInitDevice, osal_rand
        LOCFRAME ISTACK, 0, STACK
        LOCFRAME PSTACK, 0, STACK
        LOCFRAME XSTACK, 12, STACK
        LOCFRAME IOVERLAY, 0, STATIC
        LOCFRAME DOVERLAY, 0, STATIC
        ARGFRAME ISTACK, 0, STACK
        ARGFRAME PSTACK, 0, STACK
        ARGFRAME XSTACK, 12, STACK
        ARGFRAME IOVERLAY, 0, STATIC
        ARGFRAME DOVERLAY, 0, STATIC
        FUNCALL ZDOInitDevice, ZDSecMgrInit
        LOCFRAME ISTACK, 0, STACK
        LOCFRAME PSTACK, 0, STACK
        LOCFRAME XSTACK, 12, STACK
        LOCFRAME IOVERLAY, 0, STATIC
        LOCFRAME DOVERLAY, 0, STATIC
        ARGFRAME ISTACK, 0, STACK
        ARGFRAME PSTACK, 0, STACK
        ARGFRAME XSTACK, 12, STACK
        ARGFRAME IOVERLAY, 0, STATIC
        ARGFRAME DOVERLAY, 0, STATIC
        FUNCALL ZDOInitDevice, ZDApp_LeaveCtrlInit
        LOCFRAME ISTACK, 0, STACK
        LOCFRAME PSTACK, 0, STACK
        LOCFRAME XSTACK, 12, STACK
        LOCFRAME IOVERLAY, 0, STATIC
        LOCFRAME DOVERLAY, 0, STATIC
        ARGFRAME ISTACK, 0, STACK
        ARGFRAME PSTACK, 0, STACK
        ARGFRAME XSTACK, 12, STACK
        ARGFRAME IOVERLAY, 0, STATIC
        ARGFRAME DOVERLAY, 0, STATIC
        FUNCALL ZDOInitDevice, ZDApp_LeaveCtrlStartup
        LOCFRAME ISTACK, 0, STACK
        LOCFRAME PSTACK, 0, STACK
        LOCFRAME XSTACK, 12, STACK
        LOCFRAME IOVERLAY, 0, STATIC
        LOCFRAME DOVERLAY, 0, STATIC
        ARGFRAME ISTACK, 0, STACK
        ARGFRAME PSTACK, 0, STACK
        ARGFRAME XSTACK, 12, STACK
        ARGFRAME IOVERLAY, 0, STATIC
        ARGFRAME DOVERLAY, 0, STATIC
        FUNCALL ZDOInitDevice, zgWriteStartupOptions
        LOCFRAME ISTACK, 0, STACK
        LOCFRAME PSTACK, 0, STACK
        LOCFRAME XSTACK, 12, STACK
        LOCFRAME IOVERLAY, 0, STATIC
        LOCFRAME DOVERLAY, 0, STATIC
        ARGFRAME ISTACK, 0, STACK
        ARGFRAME PSTACK, 0, STACK
        ARGFRAME XSTACK, 12, STACK
        ARGFRAME IOVERLAY, 0, STATIC
        ARGFRAME DOVERLAY, 0, STATIC
        FUNCALL ZDOInitDevice, osal_set_event
        LOCFRAME ISTACK, 0, STACK
        LOCFRAME PSTACK, 0, STACK
        LOCFRAME XSTACK, 12, STACK
        LOCFRAME IOVERLAY, 0, STATIC
        LOCFRAME DOVERLAY, 0, STATIC
        ARGFRAME ISTACK, 0, STACK
        ARGFRAME PSTACK, 0, STACK
        ARGFRAME XSTACK, 12, STACK
        ARGFRAME IOVERLAY, 0, STATIC
        ARGFRAME DOVERLAY, 0, STATIC
        FUNCALL ZDOInitDevice, ZDApp_NetworkInit
        LOCFRAME ISTACK, 0, STACK
        LOCFRAME PSTACK, 0, STACK
        LOCFRAME XSTACK, 12, STACK
        LOCFRAME IOVERLAY, 0, STATIC
        LOCFRAME DOVERLAY, 0, STATIC
        ARGFRAME ISTACK, 0, STACK
        ARGFRAME PSTACK, 0, STACK
        ARGFRAME XSTACK, 12, STACK
        ARGFRAME IOVERLAY, 0, STATIC
        ARGFRAME DOVERLAY, 0, STATIC
        FUNCALL ZDOInitDevice, NLME_SetBroadcastFilter
        LOCFRAME ISTACK, 0, STACK
        LOCFRAME PSTACK, 0, STACK
        LOCFRAME XSTACK, 12, STACK
        LOCFRAME IOVERLAY, 0, STATIC
        LOCFRAME DOVERLAY, 0, STATIC
        ARGFRAME ISTACK, 0, STACK
        ARGFRAME PSTACK, 0, STACK
        ARGFRAME XSTACK, 12, STACK
        ARGFRAME IOVERLAY, 0, STATIC
        ARGFRAME DOVERLAY, 0, STATIC
        MOV     A,#-0xa
        LCALL   ?BANKED_ENTER_XDATA
        CFI DPH0 load(1, XDATA, add(CFA_XSP16, literal(-1)))
        CFI DPL0 load(1, XDATA, add(CFA_XSP16, literal(-2)))
        CFI ?BRET_EXT load(1, XDATA, add(CFA_XSP16, literal(-3)))
        CFI ?RET_HIGH load(1, XDATA, add(CFA_XSP16, literal(-4)))
        CFI ?RET_LOW load(1, XDATA, add(CFA_XSP16, literal(-5)))
        CFI R7 load(1, XDATA, add(CFA_XSP16, literal(-6)))
        CFI V1 load(1, XDATA, add(CFA_XSP16, literal(-7)))
        CFI V0 load(1, XDATA, add(CFA_XSP16, literal(-8)))
        CFI VB load(1, XDATA, add(CFA_XSP16, literal(-9)))
        CFI R6 load(1, XDATA, add(CFA_XSP16, literal(-10)))
        CFI CFA_SP SP+0
        CFI CFA_XSP16 add(XSP16, 10)
        ; Saved register size: 10
        ; Auto size: 2
        MOV     A,#-0x2
        LCALL   ?ALLOC_XSTACK8
        CFI CFA_XSP16 add(XSP16, 12)
        LCALL   ?Subroutine13 & 0xFFFF
//  594   uint8 networkStateNV = ZDO_INITDEV_NEW_NETWORK_STATE;
//  595   uint16 extendedDelay = 0;
//  596 
//  597   if ( devState == DEV_HOLD )
??CrossCallReturnLabel_104:
        MOV     DPTR,#devState
        MOVX    A,@DPTR
        JNZ     ??ZDOInitDevice_0
//  598   {    
//  599     // Initialize the RAM items table, in case an NV item has been updated.
//  600     zgInitItems( FALSE );
        ; Setup parameters for call to function zgInitItems
        MOV     R1,#0x0
        LCALL   ??zgInitItems?relay
//  601   }
//  602 
//  603   ZDConfig_InitDescriptors();
??ZDOInitDevice_0:
        ; Setup parameters for call to function ZDConfig_InitDescriptors
        LCALL   ??ZDConfig_InitDescriptors?relay
//  604   //devtag.071807.todo - fix this temporary solution
//  605   _NIB.CapabilityFlags = ZDO_Config_Node_Descriptor.CapabilityFlags;
        MOV     DPTR,#(ZDO_Config_Node_Descriptor + 2)
        MOVX    A,@DPTR
        MOV     DPTR,#(_NIB + 14)
        MOVX    @DPTR,A
//  606   
//  607 #if defined ( NV_RESTORE )
//  608   // Get Keypad directly to see if a reset nv is needed.
//  609   // Hold down the SW_BYPASS_NV key (defined in OnBoard.h)
//  610   // while booting to skip past NV Restore.
//  611   if ( HalKeyRead() == SW_BYPASS_NV )
//  612     networkStateNV = ZDO_INITDEV_NEW_NETWORK_STATE;
//  613   else
//  614   {
//  615     // Determine if NV should be restored
//  616     networkStateNV = ZDApp_ReadNetworkRestoreState();
//  617   }
//  618 
//  619   if ( networkStateNV == ZDO_INITDEV_RESTORED_NETWORK_STATE )
//  620   {
//  621     networkStateNV = ZDApp_RestoreNetworkState();
//  622   }
//  623   else
//  624   {
//  625     // Wipe out the network state in NV
//  626     NLME_InitNV();
//  627     NLME_SetDefaultNV();
//  628     // clear NWK key values
//  629     ZDSecMgrClearNVKeyValues();
//  630   }
//  631 #endif
//  632 
//  633   if ( networkStateNV == ZDO_INITDEV_NEW_NETWORK_STATE )
//  634   {
//  635     ZDAppDetermineDeviceType();
        ; Setup parameters for call to function ZDAppDetermineDeviceType
        LCALL   ??ZDAppDetermineDeviceType?relay
//  636 
//  637     // Only delay if joining network - not restoring network state
//  638     extendedDelay = (uint16)((NWK_START_DELAY + startDelay)
//  639               + (osal_rand() & EXTENDED_JOINING_RANDOM_MASK));
        ; Setup parameters for call to function osal_rand
        LCALL   ??osal_rand?relay
        MOV     ?V0 + 0,R2
        MOV     R0,?V0 + 0
        MOV     DPL,?XSP + 0
        MOV     DPH,?XSP + 1
        MOV     A,#0x7f
        ANL     A,R0
        MOV     R0,A
        MOVX    A,@DPTR
        ADD     A,R0
        MOV     R0,A
        INC     DPTR
        MOVX    A,@DPTR
        ADDC    A,#0x0
        MOV     R1,A
        MOV     A,#0x64
        ADD     A,R0
        MOV     R6,A
        CLR     A
        ADDC    A,R1
        MOV     R7,A
//  640   }
//  641 
//  642   // Initialize the security for type of device
//  643   ZDApp_SecInit( networkStateNV );
        ; Setup parameters for call to function ZDSecMgrInit
        MOV     R1,#0x1
        LCALL   ??ZDSecMgrInit?relay
//  644   
//  645   if( ZDO_INIT_HOLD_NWK_START != startDelay )
        MOV     DPL,?XSP + 0
        MOV     DPH,?XSP + 1
        MOVX    A,@DPTR
        XRL     A,#0xff
        JNZ     ??ZDOInitDevice_1
        INC     DPTR
        MOVX    A,@DPTR
        XRL     A,#0xff
??ZDOInitDevice_1:
        JZ      ??ZDOInitDevice_2
//  646   {
//  647     devState = DEV_INIT;    // Remove the Hold state
        MOV     A,#0x1
        MOV     DPTR,#devState
        MOVX    @DPTR,A
//  648     
//  649     // Initialize leave control logic
//  650     ZDApp_LeaveCtrlInit();
        ; Setup parameters for call to function ZDApp_LeaveCtrlInit
        LCALL   ??ZDApp_LeaveCtrlInit?relay
//  651     
//  652     // Check leave control reset settings
//  653     ZDApp_LeaveCtrlStartup( &devState, &startDelay );
        ; Setup parameters for call to function ZDApp_LeaveCtrlStartup
        MOV     DPL,?XSP + 0
        MOV     DPH,?XSP + 1
        MOV     R4,DPL
        MOV     R5,DPH
        MOV     R2,#(devState & 0xff)
        MOV     R3,#((devState >> 8) & 0xff)
        LCALL   ??ZDApp_LeaveCtrlStartup?relay
//  654     
//  655     // Leave may make the hold state come back
//  656     if ( devState == DEV_HOLD )
        MOV     DPTR,#devState
        MOVX    A,@DPTR
        JNZ     ??ZDOInitDevice_3
//  657     {
//  658       // Set the NV startup option to force a "new" join.
//  659       zgWriteStartupOptions( ZG_STARTUP_SET, ZCD_STARTOPT_DEFAULT_NETWORK_STATE );
        ; Setup parameters for call to function zgWriteStartupOptions
        MOV     R2,#0x2
        MOV     R1,#-0x1
        LCALL   ??zgWriteStartupOptions?relay
//  660       
//  661       // Notify the applications 
//  662       osal_set_event( ZDAppTaskID, ZDO_STATE_CHANGE_EVT );
        ; Setup parameters for call to function osal_set_event
        LCALL   ?Subroutine17 & 0xFFFF
//  663       
//  664       return ( ZDO_INITDEV_LEAVE_NOT_STARTED );   // Don't join - (one time).
??CrossCallReturnLabel_51:
        MOV     R1,#0x2
        SJMP    ??ZDOInitDevice_4
//  665     }
//  666     
//  667     // Trigger the network start
//  668     ZDApp_NetworkInit( extendedDelay );
??ZDOInitDevice_3:
        ; Setup parameters for call to function ZDApp_NetworkInit
        MOV     A,R6
        MOV     R2,A
        MOV     A,R7
        MOV     R3,A
        LCALL   ??ZDApp_NetworkInit?relay
//  669   }
//  670 
//  671   // set broadcast address mask to support broadcast filtering
//  672   NLME_SetBroadcastFilter( ZDO_Config_Node_Descriptor.CapabilityFlags );
??ZDOInitDevice_2:
        ; Setup parameters for call to function NLME_SetBroadcastFilter
        MOV     DPTR,#(ZDO_Config_Node_Descriptor + 2)
        MOVX    A,@DPTR
        MOV     R1,A
        LCALL   ??NLME_SetBroadcastFilter?relay
//  673   
//  674   return ( networkStateNV );
        MOV     R1,#0x1
??ZDOInitDevice_4:
        LJMP    ?Subroutine1 & 0xFFFF
        CFI EndBlock cfiBlock4
//  675 }

        RSEG BANKED_CODE:CODE:NOROOT(0)
?Subroutine17:
        CFI Block cfiCond5 Using cfiCommon0
        CFI NoFunction
        CFI Conditional ??CrossCallReturnLabel_51
        CFI R6 load(1, XDATA, add(CFA_XSP16, literal(-10)))
        CFI VB load(1, XDATA, add(CFA_XSP16, literal(-9)))
        CFI V0 load(1, XDATA, add(CFA_XSP16, literal(-8)))
        CFI V1 load(1, XDATA, add(CFA_XSP16, literal(-7)))
        CFI R7 load(1, XDATA, add(CFA_XSP16, literal(-6)))
        CFI ?RET_LOW load(1, XDATA, add(CFA_XSP16, literal(-5)))
        CFI ?RET_HIGH load(1, XDATA, add(CFA_XSP16, literal(-4)))
        CFI ?BRET_EXT load(1, XDATA, add(CFA_XSP16, literal(-3)))
        CFI DPL0 load(1, XDATA, add(CFA_XSP16, literal(-2)))
        CFI DPH0 load(1, XDATA, add(CFA_XSP16, literal(-1)))
        CFI CFA_SP SP+0
        CFI CFA_XSP16 add(XSP16, 12)
        CFI Block cfiCond6 Using cfiCommon0
        CFI (cfiCond6) NoFunction
        CFI (cfiCond6) Conditional ??CrossCallReturnLabel_52
        CFI (cfiCond6) R6 load(1, XDATA, add(CFA_XSP16, literal(-10)))
        CFI (cfiCond6) VB load(1, XDATA, add(CFA_XSP16, literal(-9)))
        CFI (cfiCond6) V0 load(1, XDATA, add(CFA_XSP16, literal(-8)))
        CFI (cfiCond6) V1 load(1, XDATA, add(CFA_XSP16, literal(-7)))
        CFI (cfiCond6) R7 load(1, XDATA, add(CFA_XSP16, literal(-6)))
        CFI (cfiCond6) ?RET_LOW load(1, XDATA, add(CFA_XSP16, literal(-5)))
        CFI (cfiCond6) ?RET_HIGH load(1, XDATA, add(CFA_XSP16, literal(-4)))
        CFI (cfiCond6) ?BRET_EXT load(1, XDATA, add(CFA_XSP16, literal(-3)))
        CFI (cfiCond6) DPL0 load(1, XDATA, add(CFA_XSP16, literal(-2)))
        CFI (cfiCond6) DPH0 load(1, XDATA, add(CFA_XSP16, literal(-1)))
        CFI (cfiCond6) CFA_SP SP+0
        CFI (cfiCond6) CFA_XSP16 add(XSP16, 12)
        CFI Block cfiCond7 Using cfiCommon0
        CFI (cfiCond7) NoFunction
        CFI (cfiCond7) Conditional ??CrossCallReturnLabel_53
        CFI (cfiCond7) R6 load(1, XDATA, add(CFA_XSP16, literal(-10)))
        CFI (cfiCond7) VB load(1, XDATA, add(CFA_XSP16, literal(-9)))
        CFI (cfiCond7) V0 load(1, XDATA, add(CFA_XSP16, literal(-8)))
        CFI (cfiCond7) V1 load(1, XDATA, add(CFA_XSP16, literal(-7)))
        CFI (cfiCond7) R7 load(1, XDATA, add(CFA_XSP16, literal(-6)))
        CFI (cfiCond7) ?RET_LOW load(1, XDATA, add(CFA_XSP16, literal(-5)))
        CFI (cfiCond7) ?RET_HIGH load(1, XDATA, add(CFA_XSP16, literal(-4)))
        CFI (cfiCond7) ?BRET_EXT load(1, XDATA, add(CFA_XSP16, literal(-3)))
        CFI (cfiCond7) DPL0 load(1, XDATA, add(CFA_XSP16, literal(-2)))
        CFI (cfiCond7) DPH0 load(1, XDATA, add(CFA_XSP16, literal(-1)))
        CFI (cfiCond7) CFA_SP SP+0
        CFI (cfiCond7) CFA_XSP16 add(XSP16, 12)
        CFI Block cfiCond8 Using cfiCommon0
        CFI (cfiCond8) NoFunction
        CFI (cfiCond8) Conditional ??CrossCallReturnLabel_54
        CFI (cfiCond8) DPL0 Frame(CFA_SP, 4)
        CFI (cfiCond8) DPH0 Frame(CFA_SP, 5)
        CFI (cfiCond8) CFA_SP SP+-5
        CFI Block cfiPicker9 Using cfiCommon1
        CFI (cfiPicker9) NoFunction
        CFI (cfiPicker9) Picker
        MOV     R2,#0x10
        CFI EndBlock cfiCond5
        CFI EndBlock cfiCond6
        CFI EndBlock cfiCond7
        CFI EndBlock cfiCond8
        CFI EndBlock cfiPicker9
        REQUIRE ??Subroutine40_0
        ; // Fall through to label ??Subroutine40_0

        RSEG BANKED_CODE:CODE:NOROOT(0)
??Subroutine40_0:
        CFI Block cfiCond10 Using cfiCommon0
        CFI NoFunction
        CFI Conditional ??CrossCallReturnLabel_55
        CFI DPL0 Frame(CFA_SP, 4)
        CFI DPH0 Frame(CFA_SP, 5)
        CFI CFA_SP SP+-5
        CFI Block cfiCond11 Using cfiCommon0
        CFI (cfiCond11) NoFunction
        CFI (cfiCond11) Conditional ??CrossCallReturnLabel_56
        CFI (cfiCond11) R6 load(1, XDATA, add(CFA_XSP16, literal(-9)))
        CFI (cfiCond11) VB load(1, XDATA, add(CFA_XSP16, literal(-8)))
        CFI (cfiCond11) V0 load(1, XDATA, add(CFA_XSP16, literal(-7)))
        CFI (cfiCond11) R7 load(1, XDATA, add(CFA_XSP16, literal(-6)))
        CFI (cfiCond11) ?RET_LOW load(1, XDATA, add(CFA_XSP16, literal(-5)))
        CFI (cfiCond11) ?RET_HIGH load(1, XDATA, add(CFA_XSP16, literal(-4)))
        CFI (cfiCond11) ?BRET_EXT load(1, XDATA, add(CFA_XSP16, literal(-3)))
        CFI (cfiCond11) DPL0 load(1, XDATA, add(CFA_XSP16, literal(-2)))
        CFI (cfiCond11) DPH0 load(1, XDATA, add(CFA_XSP16, literal(-1)))
        CFI (cfiCond11) CFA_SP SP+0
        CFI (cfiCond11) CFA_XSP16 add(XSP16, 9)
        CFI Block cfiCond12 Using cfiCommon0
        CFI (cfiCond12) NoFunction
        CFI (cfiCond12) Conditional ??CrossCallReturnLabel_56
        CFI (cfiCond12) R6 load(1, XDATA, add(CFA_XSP16, literal(-9)))
        CFI (cfiCond12) VB load(1, XDATA, add(CFA_XSP16, literal(-8)))
        CFI (cfiCond12) V0 load(1, XDATA, add(CFA_XSP16, literal(-7)))
        CFI (cfiCond12) R7 load(1, XDATA, add(CFA_XSP16, literal(-6)))
        CFI (cfiCond12) ?RET_LOW load(1, XDATA, add(CFA_XSP16, literal(-5)))
        CFI (cfiCond12) ?RET_HIGH load(1, XDATA, add(CFA_XSP16, literal(-4)))
        CFI (cfiCond12) ?BRET_EXT load(1, XDATA, add(CFA_XSP16, literal(-3)))
        CFI (cfiCond12) DPL0 load(1, XDATA, add(CFA_XSP16, literal(-2)))
        CFI (cfiCond12) DPH0 load(1, XDATA, add(CFA_XSP16, literal(-1)))
        CFI (cfiCond12) CFA_SP SP+0
        CFI (cfiCond12) CFA_XSP16 add(XSP16, 9)
        CFI Block cfiCond13 Using cfiCommon0
        CFI (cfiCond13) NoFunction
        CFI (cfiCond13) Conditional ??CrossCallReturnLabel_57
        CFI (cfiCond13) DPL0 Frame(CFA_SP, 4)
        CFI (cfiCond13) DPH0 Frame(CFA_SP, 5)
        CFI (cfiCond13) CFA_SP SP+-5
        CFI Block cfiCond14 Using cfiCommon0
        CFI (cfiCond14) NoFunction
        CFI (cfiCond14) Conditional ??CrossCallReturnLabel_51
        CFI (cfiCond14) R6 load(1, XDATA, add(CFA_XSP16, literal(-10)))
        CFI (cfiCond14) VB load(1, XDATA, add(CFA_XSP16, literal(-9)))
        CFI (cfiCond14) V0 load(1, XDATA, add(CFA_XSP16, literal(-8)))
        CFI (cfiCond14) V1 load(1, XDATA, add(CFA_XSP16, literal(-7)))
        CFI (cfiCond14) R7 load(1, XDATA, add(CFA_XSP16, literal(-6)))
        CFI (cfiCond14) ?RET_LOW load(1, XDATA, add(CFA_XSP16, literal(-5)))
        CFI (cfiCond14) ?RET_HIGH load(1, XDATA, add(CFA_XSP16, literal(-4)))
        CFI (cfiCond14) ?BRET_EXT load(1, XDATA, add(CFA_XSP16, literal(-3)))
        CFI (cfiCond14) DPL0 load(1, XDATA, add(CFA_XSP16, literal(-2)))
        CFI (cfiCond14) DPH0 load(1, XDATA, add(CFA_XSP16, literal(-1)))
        CFI (cfiCond14) CFA_SP SP+0
        CFI (cfiCond14) CFA_XSP16 add(XSP16, 12)
        CFI Block cfiCond15 Using cfiCommon0
        CFI (cfiCond15) NoFunction
        CFI (cfiCond15) Conditional ??CrossCallReturnLabel_52
        CFI (cfiCond15) R6 load(1, XDATA, add(CFA_XSP16, literal(-10)))
        CFI (cfiCond15) VB load(1, XDATA, add(CFA_XSP16, literal(-9)))
        CFI (cfiCond15) V0 load(1, XDATA, add(CFA_XSP16, literal(-8)))
        CFI (cfiCond15) V1 load(1, XDATA, add(CFA_XSP16, literal(-7)))
        CFI (cfiCond15) R7 load(1, XDATA, add(CFA_XSP16, literal(-6)))
        CFI (cfiCond15) ?RET_LOW load(1, XDATA, add(CFA_XSP16, literal(-5)))
        CFI (cfiCond15) ?RET_HIGH load(1, XDATA, add(CFA_XSP16, literal(-4)))
        CFI (cfiCond15) ?BRET_EXT load(1, XDATA, add(CFA_XSP16, literal(-3)))
        CFI (cfiCond15) DPL0 load(1, XDATA, add(CFA_XSP16, literal(-2)))
        CFI (cfiCond15) DPH0 load(1, XDATA, add(CFA_XSP16, literal(-1)))
        CFI (cfiCond15) CFA_SP SP+0
        CFI (cfiCond15) CFA_XSP16 add(XSP16, 12)
        CFI Block cfiCond16 Using cfiCommon0
        CFI (cfiCond16) NoFunction
        CFI (cfiCond16) Conditional ??CrossCallReturnLabel_53
        CFI (cfiCond16) R6 load(1, XDATA, add(CFA_XSP16, literal(-10)))
        CFI (cfiCond16) VB load(1, XDATA, add(CFA_XSP16, literal(-9)))
        CFI (cfiCond16) V0 load(1, XDATA, add(CFA_XSP16, literal(-8)))
        CFI (cfiCond16) V1 load(1, XDATA, add(CFA_XSP16, literal(-7)))
        CFI (cfiCond16) R7 load(1, XDATA, add(CFA_XSP16, literal(-6)))
        CFI (cfiCond16) ?RET_LOW load(1, XDATA, add(CFA_XSP16, literal(-5)))
        CFI (cfiCond16) ?RET_HIGH load(1, XDATA, add(CFA_XSP16, literal(-4)))
        CFI (cfiCond16) ?BRET_EXT load(1, XDATA, add(CFA_XSP16, literal(-3)))
        CFI (cfiCond16) DPL0 load(1, XDATA, add(CFA_XSP16, literal(-2)))
        CFI (cfiCond16) DPH0 load(1, XDATA, add(CFA_XSP16, literal(-1)))
        CFI (cfiCond16) CFA_SP SP+0
        CFI (cfiCond16) CFA_XSP16 add(XSP16, 12)
        CFI Block cfiCond17 Using cfiCommon0
        CFI (cfiCond17) NoFunction
        CFI (cfiCond17) Conditional ??CrossCallReturnLabel_54
        CFI (cfiCond17) DPL0 Frame(CFA_SP, 4)
        CFI (cfiCond17) DPH0 Frame(CFA_SP, 5)
        CFI (cfiCond17) CFA_SP SP+-5
        CFI Block cfiPicker18 Using cfiCommon1
        CFI (cfiPicker18) NoFunction
        CFI (cfiPicker18) Picker
        MOV     R3,#0x0
        MOV     DPTR,#ZDAppTaskID
        MOVX    A,@DPTR
        MOV     R1,A
        LCALL   ??osal_set_event?relay
        RET
        CFI EndBlock cfiCond10
        CFI EndBlock cfiCond11
        CFI EndBlock cfiCond12
        CFI EndBlock cfiCond13
        CFI EndBlock cfiCond14
        CFI EndBlock cfiCond15
        CFI EndBlock cfiCond16
        CFI EndBlock cfiCond17
        CFI EndBlock cfiPicker18
//  676 
//  677 /*********************************************************************
//  678  * @fn      ZDApp_ReadNetworkRestoreState
//  679  *
//  680  * @brief   Read the ZCD_NV_STARTUP_OPTION NV Item to state whether
//  681  *          or not to restore the network state.
//  682  *          If the read value has the ZCD_STARTOPT_DEFAULT_NETWORK_STATE
//  683  *          bit set return the ZDO_INITDEV_NEW_NETWORK_STATE.
//  684  *
//  685  * @param   none
//  686  *
//  687  * @return  ZDO_INITDEV_NEW_NETWORK_STATE
//  688  *          or ZDO_INITDEV_RESTORED_NETWORK_STATE based on whether or
//  689  *          not ZCD_STARTOPT_DEFAULT_NETWORK_STATE bit is set in
//  690  *          ZCD_NV_STARTUP_OPTION
//  691  */

        RSEG BANKED_CODE:CODE:NOROOT(0)
//  692 uint8 ZDApp_ReadNetworkRestoreState( void )
ZDApp_ReadNetworkRestoreState:
        CFI Block cfiBlock19 Using cfiCommon0
        CFI Function ZDApp_ReadNetworkRestoreState
//  693 {
        FUNCALL ZDApp_ReadNetworkRestoreState, zgReadStartupOptions
        LOCFRAME ISTACK, 0, STACK
        LOCFRAME PSTACK, 0, STACK
        LOCFRAME XSTACK, 9, STACK
        LOCFRAME IOVERLAY, 0, STATIC
        LOCFRAME DOVERLAY, 0, STATIC
        ARGFRAME ISTACK, 0, STACK
        ARGFRAME PSTACK, 0, STACK
        ARGFRAME XSTACK, 9, STACK
        ARGFRAME IOVERLAY, 0, STATIC
        ARGFRAME DOVERLAY, 0, STATIC
        MOV     A,#-0x9
        LCALL   ?BANKED_ENTER_XDATA
        CFI DPH0 load(1, XDATA, add(CFA_XSP16, literal(-1)))
        CFI DPL0 load(1, XDATA, add(CFA_XSP16, literal(-2)))
        CFI ?BRET_EXT load(1, XDATA, add(CFA_XSP16, literal(-3)))
        CFI ?RET_HIGH load(1, XDATA, add(CFA_XSP16, literal(-4)))
        CFI ?RET_LOW load(1, XDATA, add(CFA_XSP16, literal(-5)))
        CFI R7 load(1, XDATA, add(CFA_XSP16, literal(-6)))
        CFI V0 load(1, XDATA, add(CFA_XSP16, literal(-7)))
        CFI VB load(1, XDATA, add(CFA_XSP16, literal(-8)))
        CFI R6 load(1, XDATA, add(CFA_XSP16, literal(-9)))
        CFI CFA_SP SP+0
        CFI CFA_XSP16 add(XSP16, 9)
        ; Saved register size: 9
        ; Auto size: 0
//  694   uint8 networkStateNV = ZDO_INITDEV_RESTORED_NETWORK_STATE;
        MOV     R6,#0x0
//  695 
//  696   // Look for the New Network State option.
//  697   if ( zgReadStartupOptions() & ZCD_STARTOPT_DEFAULT_NETWORK_STATE )
        ; Setup parameters for call to function zgReadStartupOptions
        LCALL   ??zgReadStartupOptions?relay
        MOV     A,R1
        MOV     C,0xE0 /* A   */.1
        JNC     ??ZDApp_ReadNetworkRestoreState_0
//  698   {
//  699     networkStateNV = ZDO_INITDEV_NEW_NETWORK_STATE;
        INC     R6
//  700   }
//  701 
//  702   return ( networkStateNV );
??ZDApp_ReadNetworkRestoreState_0:
        MOV     A,R6
        MOV     R1,A
        LJMP    ??Subroutine48_0 & 0xFFFF
        CFI EndBlock cfiBlock19
//  703 }
//  704 
//  705 /*********************************************************************
//  706  * @fn      ZDAppDetermineDeviceType()
//  707  *
//  708  * @brief   Determines the type of device to start. 
//  709  *
//  710  *          Looks at zgDeviceLogicalType and determines what type of
//  711  *          device to start.  The types are:
//  712  *            ZG_DEVICETYPE_COORDINATOR
//  713  *            ZG_DEVICETYPE_ROUTER
//  714  *            ZG_DEVICETYPE_ENDDEVICE
//  715  *
//  716  * @param   none
//  717  *
//  718  * @return  none
//  719  */

        RSEG BANKED_CODE:CODE:NOROOT(0)
//  720 void ZDAppDetermineDeviceType( void )
ZDAppDetermineDeviceType:
        CFI Block cfiBlock20 Using cfiCommon0
        CFI Function ZDAppDetermineDeviceType
//  721 {
        FUNCALL ZDAppDetermineDeviceType, nwk_ExtPANIDValid
        LOCFRAME ISTACK, 2, STACK
        LOCFRAME PSTACK, 0, STACK
        LOCFRAME XSTACK, 0, STACK
        LOCFRAME IOVERLAY, 0, STATIC
        LOCFRAME DOVERLAY, 0, STATIC
        ARGFRAME ISTACK, 2, STACK
        ARGFRAME PSTACK, 0, STACK
        ARGFRAME XSTACK, 0, STACK
        ARGFRAME IOVERLAY, 0, STATIC
        ARGFRAME DOVERLAY, 0, STATIC
        PUSH    DPL
        CFI DPL0 Frame(CFA_SP, 4)
        CFI CFA_SP SP+-4
        PUSH    DPH
        CFI DPH0 Frame(CFA_SP, 5)
        CFI CFA_SP SP+-5
        ; Saved register size: 2
        ; Auto size: 0
//  722   if ( zgDeviceLogicalType == ZG_DEVICETYPE_COORDINATOR )
        MOV     DPTR,#zgDeviceLogicalType
        MOVX    A,@DPTR
        JNZ     ??ZDAppDetermineDeviceType_0
//  723   {
//  724     devStartMode = MODE_HARD;     // Start as a coordinator
        MOV     A,#0x2
        MOV     DPTR,#devStartMode
        MOVX    @DPTR,A
//  725     ZDO_Config_Node_Descriptor.LogicalType = NODETYPE_COORDINATOR;
        MOV     DPTR,#ZDO_Config_Node_Descriptor
        MOVX    A,@DPTR
        ANL     A,#0xf8
        SJMP    ??ZDAppDetermineDeviceType_1
//  726   }
//  727   else
//  728   {
//  729     if ( zgDeviceLogicalType == ZG_DEVICETYPE_ROUTER  )
??ZDAppDetermineDeviceType_0:
        XRL     A,#0x1
        JNZ     ??ZDAppDetermineDeviceType_2
//  730       ZDO_Config_Node_Descriptor.LogicalType = NODETYPE_ROUTER;
        MOV     DPTR,#ZDO_Config_Node_Descriptor
        MOVX    A,@DPTR
        ANL     A,#0xf8
        ORL     A,#0x1
        SJMP    ??ZDAppDetermineDeviceType_3
//  731     else if ( zgDeviceLogicalType == ZG_DEVICETYPE_ENDDEVICE )
??ZDAppDetermineDeviceType_2:
        MOVX    A,@DPTR
        XRL     A,#0x2
        JNZ     ??ZDAppDetermineDeviceType_4
//  732       ZDO_Config_Node_Descriptor.LogicalType = NODETYPE_DEVICE;
        MOV     DPTR,#ZDO_Config_Node_Descriptor
        MOVX    A,@DPTR
        ANL     A,#0xf8
        ORL     A,#0x2
??ZDAppDetermineDeviceType_3:
        MOVX    @DPTR,A
//  733     
//  734     // If AIB_apsUseExtendedPANID is set to a non-zero value by commissioning
//  735     // The device shall do rejoin the network. Otherwise, do normal join
//  736     if ( nwk_ExtPANIDValid( AIB_apsUseExtendedPANID ) == false )
??ZDAppDetermineDeviceType_4:
        ; Setup parameters for call to function nwk_ExtPANIDValid
        MOV     R2,#(AIB_apsUseExtendedPANID & 0xff)
        MOV     R3,#((AIB_apsUseExtendedPANID >> 8) & 0xff)
        LCALL   ??nwk_ExtPANIDValid?relay
        MOV     A,R1
        JNZ     ??ZDAppDetermineDeviceType_5
//  737     {
//  738       devStartMode = MODE_JOIN;     // Assume joining
        CLR     A
        SJMP    ??ZDAppDetermineDeviceType_6
//  739     }
//  740     else
//  741     {
//  742       devStartMode = MODE_REJOIN;  
??ZDAppDetermineDeviceType_5:
        MOV     A,#0x3
??ZDAppDetermineDeviceType_6:
        MOV     DPTR,#devStartMode
??ZDAppDetermineDeviceType_1:
        MOVX    @DPTR,A
//  743     }
//  744   }
//  745 }
        LJMP    ?Subroutine2 & 0xFFFF
        CFI EndBlock cfiBlock20
//  746 
//  747 /*********************************************************************
//  748  * @fn      ZDApp_NetworkStartEvt()
//  749  *
//  750  * @brief   Process the Network Start Event
//  751  *
//  752  * @param   none
//  753  *
//  754  * @return  none
//  755  */

        RSEG BANKED_CODE:CODE:NOROOT(0)
//  756 void ZDApp_NetworkStartEvt( void )
ZDApp_NetworkStartEvt:
        CFI Block cfiBlock21 Using cfiCommon0
        CFI Function ZDApp_NetworkStartEvt
//  757 {
        FUNCALL ZDApp_NetworkStartEvt, osal_pwrmgr_device
        LOCFRAME ISTACK, 2, STACK
        LOCFRAME PSTACK, 0, STACK
        LOCFRAME XSTACK, 0, STACK
        LOCFRAME IOVERLAY, 0, STATIC
        LOCFRAME DOVERLAY, 0, STATIC
        ARGFRAME ISTACK, 2, STACK
        ARGFRAME PSTACK, 0, STACK
        ARGFRAME XSTACK, 0, STACK
        ARGFRAME IOVERLAY, 0, STATIC
        ARGFRAME DOVERLAY, 0, STATIC
        FUNCALL ZDApp_NetworkStartEvt, osal_set_event
        LOCFRAME ISTACK, 2, STACK
        LOCFRAME PSTACK, 0, STACK
        LOCFRAME XSTACK, 0, STACK
        LOCFRAME IOVERLAY, 0, STATIC
        LOCFRAME DOVERLAY, 0, STATIC
        ARGFRAME ISTACK, 2, STACK
        ARGFRAME PSTACK, 0, STACK
        ARGFRAME XSTACK, 0, STACK
        ARGFRAME IOVERLAY, 0, STATIC
        ARGFRAME DOVERLAY, 0, STATIC
        FUNCALL ZDApp_NetworkStartEvt, NLME_GetEnergyThreshold
        LOCFRAME ISTACK, 2, STACK
        LOCFRAME PSTACK, 0, STACK
        LOCFRAME XSTACK, 0, STACK
        LOCFRAME IOVERLAY, 0, STATIC
        LOCFRAME DOVERLAY, 0, STATIC
        ARGFRAME ISTACK, 2, STACK
        ARGFRAME PSTACK, 0, STACK
        ARGFRAME XSTACK, 0, STACK
        ARGFRAME IOVERLAY, 0, STATIC
        ARGFRAME DOVERLAY, 0, STATIC
        FUNCALL ZDApp_NetworkStartEvt, NLME_GetEnergyThreshold
        LOCFRAME ISTACK, 2, STACK
        LOCFRAME PSTACK, 0, STACK
        LOCFRAME XSTACK, 0, STACK
        LOCFRAME IOVERLAY, 0, STATIC
        LOCFRAME DOVERLAY, 0, STATIC
        ARGFRAME ISTACK, 2, STACK
        ARGFRAME PSTACK, 0, STACK
        ARGFRAME XSTACK, 0, STACK
        ARGFRAME IOVERLAY, 0, STATIC
        ARGFRAME DOVERLAY, 0, STATIC
        FUNCALL ZDApp_NetworkStartEvt, NLME_SetEnergyThreshold
        LOCFRAME ISTACK, 2, STACK
        LOCFRAME PSTACK, 0, STACK
        LOCFRAME XSTACK, 0, STACK
        LOCFRAME IOVERLAY, 0, STATIC
        LOCFRAME DOVERLAY, 0, STATIC
        ARGFRAME ISTACK, 2, STACK
        ARGFRAME PSTACK, 0, STACK
        ARGFRAME XSTACK, 0, STACK
        ARGFRAME IOVERLAY, 0, STATIC
        ARGFRAME DOVERLAY, 0, STATIC
        FUNCALL ZDApp_NetworkStartEvt, osal_set_event
        LOCFRAME ISTACK, 2, STACK
        LOCFRAME PSTACK, 0, STACK
        LOCFRAME XSTACK, 0, STACK
        LOCFRAME IOVERLAY, 0, STATIC
        LOCFRAME DOVERLAY, 0, STATIC
        ARGFRAME ISTACK, 2, STACK
        ARGFRAME PSTACK, 0, STACK
        ARGFRAME XSTACK, 0, STACK
        ARGFRAME IOVERLAY, 0, STATIC
        ARGFRAME DOVERLAY, 0, STATIC
        FUNCALL ZDApp_NetworkStartEvt, osal_set_event
        LOCFRAME ISTACK, 2, STACK
        LOCFRAME PSTACK, 0, STACK
        LOCFRAME XSTACK, 0, STACK
        LOCFRAME IOVERLAY, 0, STATIC
        LOCFRAME DOVERLAY, 0, STATIC
        ARGFRAME ISTACK, 2, STACK
        ARGFRAME PSTACK, 0, STACK
        ARGFRAME XSTACK, 0, STACK
        ARGFRAME IOVERLAY, 0, STATIC
        ARGFRAME DOVERLAY, 0, STATIC
        PUSH    DPL
        CFI DPL0 Frame(CFA_SP, 4)
        CFI CFA_SP SP+-4
        PUSH    DPH
        CFI DPH0 Frame(CFA_SP, 5)
        CFI CFA_SP SP+-5
        ; Saved register size: 2
        ; Auto size: 0
//  758   if ( nwkStatus == ZSuccess )
        MOV     DPTR,#nwkStatus
        MOVX    A,@DPTR
        JNZ     ??ZDApp_NetworkStartEvt_0
//  759   {
//  760     // Successfully started a ZigBee network
//  761     if ( devState == DEV_COORD_STARTING )
        MOV     DPTR,#devState
        MOVX    A,@DPTR
        XRL     A,#0x8
        JNZ     ??ZDApp_NetworkStartEvt_1
//  762     {
//  763       devState = DEV_ZB_COORD;
        MOV     A,#0x9
        MOVX    @DPTR,A
//  764     }
//  765 
//  766     osal_pwrmgr_device( PWRMGR_ALWAYS_ON );
??ZDApp_NetworkStartEvt_1:
        ; Setup parameters for call to function osal_pwrmgr_device
        MOV     R1,#0x0
        LCALL   ??osal_pwrmgr_device?relay
//  767     osal_set_event( ZDAppTaskID, ZDO_STATE_CHANGE_EVT );
        ; Setup parameters for call to function osal_set_event
        SJMP    ??ZDApp_NetworkStartEvt_2
//  768   }
//  769   else
//  770   {
//  771     // Try again with a higher energy threshold !!
//  772     if ( ( NLME_GetEnergyThreshold() + ENERGY_SCAN_INCREMENT ) < 0xff )
??ZDApp_NetworkStartEvt_0:
        ; Setup parameters for call to function NLME_GetEnergyThreshold
        LCALL   ??NLME_GetEnergyThreshold?relay
        MOV     A,R1
        MOV     R0,A
        MOV     A,#0x10
        ADD     A,R0
        MOV     R0,A
        CLR     A
        ADDC    A,#0x0
        MOV     R1,A
        MOV     A,R0
        SUBB    A,#-0x1
        MOV     A,R1
        SUBB    A,#0x0
        CLR     C
        XRL     A,PSW
        RLC     A
        JNC     ??ZDApp_NetworkStartEvt_3
//  773     {
//  774       NLME_SetEnergyThreshold( (uint8)(NLME_GetEnergyThreshold() + ENERGY_SCAN_INCREMENT) );
        ; Setup parameters for call to function NLME_SetEnergyThreshold
        ; Setup parameters for call to function NLME_GetEnergyThreshold
        LCALL   ??NLME_GetEnergyThreshold?relay
        MOV     A,R1
        ADD     A,#0x10
        MOV     R1,A
        LCALL   ??NLME_SetEnergyThreshold?relay
//  775       osal_set_event( ZDAppTaskID, ZDO_NETWORK_INIT );
        ; Setup parameters for call to function osal_set_event
        MOV     R2,#0x1
        SJMP    ??ZDApp_NetworkStartEvt_4
//  776     }
//  777     else
//  778     {
//  779       // Failed to start network. Enter a dormant state (until user intervenes)
//  780       devState = DEV_INIT;
??ZDApp_NetworkStartEvt_3:
        MOV     A,#0x1
        MOV     DPTR,#devState
        MOVX    @DPTR,A
//  781       osal_set_event( ZDAppTaskID, ZDO_STATE_CHANGE_EVT );
        ; Setup parameters for call to function osal_set_event
??ZDApp_NetworkStartEvt_2:
        MOV     R2,#0x10
//  782     }
//  783   }
??ZDApp_NetworkStartEvt_4:
        LCALL   ??Subroutine40_0 & 0xFFFF
//  784 }
??CrossCallReturnLabel_55:
        LJMP    ?Subroutine2 & 0xFFFF
        CFI EndBlock cfiBlock21
//  785 
//  786 /*********************************************************************
//  787  * @fn      ZDApp_DeviceAuthEvt()
//  788  *
//  789  * @brief   Process the Device Authentic Event
//  790  *
//  791  * @param   none
//  792  *
//  793  * @return  none
//  794  */

        RSEG BANKED_CODE:CODE:NOROOT(0)
//  795 void ZDApp_DeviceAuthEvt( void )
ZDApp_DeviceAuthEvt:
        CFI Block cfiBlock22 Using cfiCommon0
        CFI Function ZDApp_DeviceAuthEvt
//  796 {
        FUNCALL ZDApp_DeviceAuthEvt, ZDApp_ResetTimerCancel
        LOCFRAME ISTACK, 2, STACK
        LOCFRAME PSTACK, 0, STACK
        LOCFRAME XSTACK, 0, STACK
        LOCFRAME IOVERLAY, 0, STATIC
        LOCFRAME DOVERLAY, 0, STATIC
        ARGFRAME ISTACK, 2, STACK
        ARGFRAME PSTACK, 0, STACK
        ARGFRAME XSTACK, 0, STACK
        ARGFRAME IOVERLAY, 0, STATIC
        ARGFRAME DOVERLAY, 0, STATIC
        FUNCALL ZDApp_DeviceAuthEvt, osal_set_event
        LOCFRAME ISTACK, 2, STACK
        LOCFRAME PSTACK, 0, STACK
        LOCFRAME XSTACK, 0, STACK
        LOCFRAME IOVERLAY, 0, STATIC
        LOCFRAME DOVERLAY, 0, STATIC
        ARGFRAME ISTACK, 2, STACK
        ARGFRAME PSTACK, 0, STACK
        ARGFRAME XSTACK, 0, STACK
        ARGFRAME IOVERLAY, 0, STATIC
        ARGFRAME DOVERLAY, 0, STATIC
        FUNCALL ZDApp_DeviceAuthEvt, ZDApp_SaveNwkKey
        LOCFRAME ISTACK, 2, STACK
        LOCFRAME PSTACK, 0, STACK
        LOCFRAME XSTACK, 0, STACK
        LOCFRAME IOVERLAY, 0, STATIC
        LOCFRAME DOVERLAY, 0, STATIC
        ARGFRAME ISTACK, 2, STACK
        ARGFRAME PSTACK, 0, STACK
        ARGFRAME XSTACK, 0, STACK
        ARGFRAME IOVERLAY, 0, STATIC
        ARGFRAME DOVERLAY, 0, STATIC
        FUNCALL ZDApp_DeviceAuthEvt, ZDApp_AnnounceNewAddress
        LOCFRAME ISTACK, 2, STACK
        LOCFRAME PSTACK, 0, STACK
        LOCFRAME XSTACK, 0, STACK
        LOCFRAME IOVERLAY, 0, STATIC
        LOCFRAME DOVERLAY, 0, STATIC
        ARGFRAME ISTACK, 2, STACK
        ARGFRAME PSTACK, 0, STACK
        ARGFRAME XSTACK, 0, STACK
        ARGFRAME IOVERLAY, 0, STATIC
        ARGFRAME DOVERLAY, 0, STATIC
        FUNCALL ZDApp_DeviceAuthEvt, NLME_SetPollRate
        LOCFRAME ISTACK, 2, STACK
        LOCFRAME PSTACK, 0, STACK
        LOCFRAME XSTACK, 0, STACK
        LOCFRAME IOVERLAY, 0, STATIC
        LOCFRAME DOVERLAY, 0, STATIC
        ARGFRAME ISTACK, 2, STACK
        ARGFRAME PSTACK, 0, STACK
        ARGFRAME XSTACK, 0, STACK
        ARGFRAME IOVERLAY, 0, STATIC
        ARGFRAME DOVERLAY, 0, STATIC
        PUSH    DPL
        CFI DPL0 Frame(CFA_SP, 4)
        CFI CFA_SP SP+-4
        PUSH    DPH
        CFI DPH0 Frame(CFA_SP, 5)
        CFI CFA_SP SP+-5
        ; Saved register size: 2
        ; Auto size: 0
//  797   // received authentication from trust center
//  798   if ( devState == DEV_END_DEVICE_UNAUTH )
        MOV     DPTR,#devState
        MOVX    A,@DPTR
        XRL     A,#0x5
        JNZ     ??ZDApp_DeviceAuthEvt_0
//  799   {
//  800     // Stop the reset timer so it doesn't reset
//  801     ZDApp_ResetTimerCancel();
        ; Setup parameters for call to function ZDApp_ResetTimerCancel
        LCALL   ??ZDApp_ResetTimerCancel?relay
//  802 
//  803     devState = DEV_END_DEVICE;
        LCALL   ?Subroutine8 & 0xFFFF
//  804     osal_set_event( ZDAppTaskID, ZDO_STATE_CHANGE_EVT );
//  805 
//  806     // Set the Power Manager Device
//  807 #if defined ( POWER_SAVING )
//  808     osal_pwrmgr_device( PWRMGR_BATTERY );
//  809 #endif
//  810 
//  811     if ( ZSTACK_ROUTER_BUILD )
//  812     {
//  813       if ( ZDO_Config_Node_Descriptor.LogicalType != NODETYPE_DEVICE )
//  814       {
//  815         // NOTE: first two parameters are not used, see NLMEDE.h for details
//  816         NLME_StartRouterRequest( 0, 0, false );
//  817       }
//  818     }
//  819 
//  820     // Notify to save info into NV
//  821     ZDApp_NVUpdate();
//  822 
//  823     // Save off the security
//  824     ZDApp_SaveNwkKey();
??CrossCallReturnLabel_0:
        ; Setup parameters for call to function ZDApp_SaveNwkKey
        LCALL   ??ZDApp_SaveNwkKey?relay
//  825 
//  826     ZDApp_AnnounceNewAddress();
        ; Setup parameters for call to function ZDApp_AnnounceNewAddress
        LCALL   ??ZDApp_AnnounceNewAddress?relay
//  827     
//  828     if ( (ZDO_Config_Node_Descriptor.CapabilityFlags & CAPINFO_RCVR_ON_IDLE) == 0 )
        MOV     DPTR,#(ZDO_Config_Node_Descriptor + 2)
        MOVX    A,@DPTR
        MOV     C,0xE0 /* A   */.3
        JC      ??ZDApp_DeviceAuthEvt_0
//  829     {
//  830       NLME_SetPollRate( ZDApp_SavedPollRate );
        ; Setup parameters for call to function NLME_SetPollRate
        MOV     DPTR,#ZDApp_SavedPollRate
        MOVX    A,@DPTR
        MOV     R2,A
        INC     DPTR
        MOVX    A,@DPTR
        MOV     R3,A
        LCALL   ??NLME_SetPollRate?relay
//  831     }
//  832   }
//  833   else
//  834   {
//  835     ZDApp_NVUpdate();
//  836   }
//  837 }
??ZDApp_DeviceAuthEvt_0:
        LJMP    ?Subroutine2 & 0xFFFF
        CFI EndBlock cfiBlock22
//  838 
//  839 /*********************************************************************
//  840  * @fn      ZDApp_SaveNetworkStateEvt()
//  841  *
//  842  * @brief   Process the Save the Network State Event
//  843  *
//  844  * @param   none
//  845  *
//  846  * @return  none
//  847  */

        RSEG BANKED_CODE:CODE:NOROOT(0)
//  848 void ZDApp_SaveNetworkStateEvt( void )
ZDApp_SaveNetworkStateEvt:
        CFI Block cfiBlock23 Using cfiCommon0
        CFI Function ZDApp_SaveNetworkStateEvt
//  849 {
        ; Saved register size: 0
        ; Auto size: 0
//  850 #if defined ( NV_RESTORE )
//  851  #if defined ( NV_TURN_OFF_RADIO )
//  852   // Turn off the radio's receiver during an NV update
//  853   uint8 RxOnIdle;
//  854   uint8 x = false;
//  855   ZMacGetReq( ZMacRxOnIdle, &RxOnIdle );
//  856   ZMacSetReq( ZMacRxOnIdle, &x );
//  857  #endif
//  858 
//  859   // Update the Network State in NV
//  860   NLME_UpdateNV( NWK_NV_NIB_ENABLE        |
//  861                  NWK_NV_DEVICELIST_ENABLE |
//  862                  NWK_NV_BINDING_ENABLE    |
//  863                  NWK_NV_ADDRMGR_ENABLE );
//  864 
//  865   // Reset the NV startup option to resume from NV by
//  866   // clearing the "New" join option.
//  867   zgWriteStartupOptions( FALSE, ZCD_STARTOPT_DEFAULT_NETWORK_STATE );
//  868 
//  869  #if defined ( NV_TURN_OFF_RADIO )
//  870   ZMacSetReq( ZMacRxOnIdle, &RxOnIdle );
//  871  #endif
//  872 #endif  // NV_RESTORE
//  873 }
        LJMP    ?BRET
        CFI EndBlock cfiBlock23
//  874 
//  875 /*********************************************************************
//  876  * @fn      ZDApp_RestoreNetworkState()
//  877  *
//  878  * @brief   This function will restore the network state of the
//  879  *          device if the network state is stored in NV.
//  880  *
//  881  * @param   none
//  882  *
//  883  * @return
//  884  *    ZDO_INITDEV_RESTORED_NETWORK_STATE  - The device's network state was
//  885  *          restored.
//  886  *    ZDO_INITDEV_NEW_NETWORK_STATE - The network state was not used.
//  887  *          This could mean that zgStartupOption said to not restore, or
//  888  *          it could mean that there was no network state to restore.
//  889  *
//  890  */

        RSEG BANKED_CODE:CODE:NOROOT(0)
//  891 uint8 ZDApp_RestoreNetworkState( void )
ZDApp_RestoreNetworkState:
        CFI Block cfiBlock24 Using cfiCommon0
        CFI Function ZDApp_RestoreNetworkState
//  892 {
        FUNCALL ZDApp_RestoreNetworkState, NLME_InitNV
        LOCFRAME ISTACK, 0, STACK
        LOCFRAME PSTACK, 0, STACK
        LOCFRAME XSTACK, 9, STACK
        LOCFRAME IOVERLAY, 0, STATIC
        LOCFRAME DOVERLAY, 0, STATIC
        ARGFRAME ISTACK, 0, STACK
        ARGFRAME PSTACK, 0, STACK
        ARGFRAME XSTACK, 9, STACK
        ARGFRAME IOVERLAY, 0, STATIC
        ARGFRAME DOVERLAY, 0, STATIC
        FUNCALL ZDApp_RestoreNetworkState, NLME_RestoreFromNV
        LOCFRAME ISTACK, 0, STACK
        LOCFRAME PSTACK, 0, STACK
        LOCFRAME XSTACK, 9, STACK
        LOCFRAME IOVERLAY, 0, STATIC
        LOCFRAME DOVERLAY, 0, STATIC
        ARGFRAME ISTACK, 0, STACK
        ARGFRAME PSTACK, 0, STACK
        ARGFRAME XSTACK, 9, STACK
        ARGFRAME IOVERLAY, 0, STATIC
        ARGFRAME DOVERLAY, 0, STATIC
        FUNCALL ZDApp_RestoreNetworkState, NLME_GetShortAddr
        LOCFRAME ISTACK, 0, STACK
        LOCFRAME PSTACK, 0, STACK
        LOCFRAME XSTACK, 9, STACK
        LOCFRAME IOVERLAY, 0, STATIC
        LOCFRAME DOVERLAY, 0, STATIC
        ARGFRAME ISTACK, 0, STACK
        ARGFRAME PSTACK, 0, STACK
        ARGFRAME XSTACK, 9, STACK
        ARGFRAME IOVERLAY, 0, STATIC
        ARGFRAME DOVERLAY, 0, STATIC
        FUNCALL ZDApp_RestoreNetworkState, sAddrExtCpy
        LOCFRAME ISTACK, 0, STACK
        LOCFRAME PSTACK, 0, STACK
        LOCFRAME XSTACK, 9, STACK
        LOCFRAME IOVERLAY, 0, STATIC
        LOCFRAME DOVERLAY, 0, STATIC
        ARGFRAME ISTACK, 0, STACK
        ARGFRAME PSTACK, 0, STACK
        ARGFRAME XSTACK, 9, STACK
        ARGFRAME IOVERLAY, 0, STATIC
        ARGFRAME DOVERLAY, 0, STATIC
        MOV     A,#-0x9
        LCALL   ?BANKED_ENTER_XDATA
        CFI DPH0 load(1, XDATA, add(CFA_XSP16, literal(-1)))
        CFI DPL0 load(1, XDATA, add(CFA_XSP16, literal(-2)))
        CFI ?BRET_EXT load(1, XDATA, add(CFA_XSP16, literal(-3)))
        CFI ?RET_HIGH load(1, XDATA, add(CFA_XSP16, literal(-4)))
        CFI ?RET_LOW load(1, XDATA, add(CFA_XSP16, literal(-5)))
        CFI R7 load(1, XDATA, add(CFA_XSP16, literal(-6)))
        CFI V0 load(1, XDATA, add(CFA_XSP16, literal(-7)))
        CFI VB load(1, XDATA, add(CFA_XSP16, literal(-8)))
        CFI R6 load(1, XDATA, add(CFA_XSP16, literal(-9)))
        CFI CFA_SP SP+0
        CFI CFA_XSP16 add(XSP16, 9)
        ; Saved register size: 9
        ; Auto size: 0
//  893   uint8 nvStat;
//  894 
//  895   // Initialize NWK NV items
//  896   nvStat = NLME_InitNV();
        ; Setup parameters for call to function NLME_InitNV
        LCALL   ??NLME_InitNV?relay
        MOV     A,R1
        MOV     R6,A
//  897 
//  898   if ( nvStat != NV_OPER_FAILED )
        MOV     A,#0xa
        XRL     A,R6
        JZ      ??ZDApp_RestoreNetworkState_0
//  899   {
//  900     if ( NLME_RestoreFromNV() )
        ; Setup parameters for call to function NLME_RestoreFromNV
        LCALL   ??NLME_RestoreFromNV?relay
        MOV     A,R1
        JZ      ??ZDApp_RestoreNetworkState_0
//  901     {
//  902       // Are we a coordinator
//  903       ZDAppNwkAddr.addr.shortAddr = NLME_GetShortAddr();
        ; Setup parameters for call to function NLME_GetShortAddr
        LCALL   ??NLME_GetShortAddr?relay
        MOV     DPTR,#ZDAppNwkAddr
        LCALL   ??Subroutine55_0 & 0xFFFF
//  904       if ( ZDAppNwkAddr.addr.shortAddr == 0 )
??CrossCallReturnLabel_100:
        MOV     DPTR,#ZDAppNwkAddr
        MOVX    A,@DPTR
        JNZ     ??ZDApp_RestoreNetworkState_1
        INC     DPTR
        MOVX    A,@DPTR
??ZDApp_RestoreNetworkState_1:
        JNZ     ??ZDApp_RestoreNetworkState_2
//  905         ZDO_Config_Node_Descriptor.LogicalType = NODETYPE_COORDINATOR;
        MOV     DPTR,#ZDO_Config_Node_Descriptor
        MOVX    A,@DPTR
        ANL     A,#0xf8
        MOVX    @DPTR,A
//  906       devStartMode = MODE_RESUME;
??ZDApp_RestoreNetworkState_2:
        MOV     A,#0x1
        MOV     DPTR,#devStartMode
        LCALL   ?Subroutine10 & 0xFFFF
//  907       osal_cpyExtAddr( ZDO_UseExtendedPANID, _NIB.extendedPANID );
//  908     }
//  909     else
//  910       nvStat = NV_ITEM_UNINIT;
//  911 
//  912     if ( ZG_SECURE_ENABLED )
//  913     {
//  914       nwkFrameCounterChanges = 0;
//  915 
//  916       if ( ZG_BUILD_COORDINATOR_TYPE && ZG_DEVICE_COORDINATOR_TYPE )
//  917       {
//  918         ZDApp_RestoreNwkKey();
//  919       }
//  920     }
//  921 
//  922     // The default for RxOnWhenIdle is true for Routers and false for end devices
//  923     // [setup in the NLME_RestoreFromNV()].  Change it here if you want something
//  924     // other than default.
//  925   }
//  926 
//  927   if ( nvStat == ZSUCCESS )
??CrossCallReturnLabel_4:
        MOV     A,R6
        JNZ     ??ZDApp_RestoreNetworkState_0
//  928     return ( ZDO_INITDEV_RESTORED_NETWORK_STATE );
        MOV     R1,#0x0
        SJMP    ??ZDApp_RestoreNetworkState_3
//  929   else
//  930     return ( ZDO_INITDEV_NEW_NETWORK_STATE );
??ZDApp_RestoreNetworkState_0:
        MOV     R1,#0x1
??ZDApp_RestoreNetworkState_3:
        LJMP    ??Subroutine48_0 & 0xFFFF
        CFI EndBlock cfiBlock24
//  931 }
//  932 
//  933 /*********************************************************************
//  934  * @fn      ZDApp_InitUserDesc()
//  935  *
//  936  * @brief   Initialize the User Descriptor, the descriptor is read from NV
//  937  *          when needed.  If you want to initialize the User descriptor to
//  938  *          something other than all zero, do it here.
//  939  *
//  940  * @param   none
//  941  *
//  942  * @return  none
//  943  */

        RSEG BANKED_CODE:CODE:NOROOT(0)
//  944 void ZDApp_InitUserDesc( void )
ZDApp_InitUserDesc:
        CFI Block cfiBlock25 Using cfiCommon0
        CFI Function ZDApp_InitUserDesc
//  945 {
        FUNCALL ZDApp_InitUserDesc, osal_memset
        LOCFRAME ISTACK, 0, STACK
        LOCFRAME PSTACK, 0, STACK
        LOCFRAME XSTACK, 27, STACK
        LOCFRAME IOVERLAY, 0, STATIC
        LOCFRAME DOVERLAY, 0, STATIC
        ARGFRAME ISTACK, 0, STACK
        ARGFRAME PSTACK, 0, STACK
        ARGFRAME XSTACK, 27, STACK
        ARGFRAME IOVERLAY, 0, STATIC
        ARGFRAME DOVERLAY, 0, STATIC
        FUNCALL ZDApp_InitUserDesc, osal_nv_item_init
        LOCFRAME ISTACK, 0, STACK
        LOCFRAME PSTACK, 0, STACK
        LOCFRAME XSTACK, 29, STACK
        LOCFRAME IOVERLAY, 0, STATIC
        LOCFRAME DOVERLAY, 0, STATIC
        ARGFRAME ISTACK, 0, STACK
        ARGFRAME PSTACK, 0, STACK
        ARGFRAME XSTACK, 29, STACK
        ARGFRAME IOVERLAY, 0, STATIC
        ARGFRAME DOVERLAY, 0, STATIC
        FUNCALL ZDApp_InitUserDesc, osal_nv_read
        LOCFRAME ISTACK, 0, STACK
        LOCFRAME PSTACK, 0, STACK
        LOCFRAME XSTACK, 31, STACK
        LOCFRAME IOVERLAY, 0, STATIC
        LOCFRAME DOVERLAY, 0, STATIC
        ARGFRAME ISTACK, 0, STACK
        ARGFRAME PSTACK, 0, STACK
        ARGFRAME XSTACK, 31, STACK
        ARGFRAME IOVERLAY, 0, STATIC
        ARGFRAME DOVERLAY, 0, STATIC
        MOV     A,#-0xa
        LCALL   ?BANKED_ENTER_XDATA
        CFI DPH0 load(1, XDATA, add(CFA_XSP16, literal(-1)))
        CFI DPL0 load(1, XDATA, add(CFA_XSP16, literal(-2)))
        CFI ?BRET_EXT load(1, XDATA, add(CFA_XSP16, literal(-3)))
        CFI ?RET_HIGH load(1, XDATA, add(CFA_XSP16, literal(-4)))
        CFI ?RET_LOW load(1, XDATA, add(CFA_XSP16, literal(-5)))
        CFI R7 load(1, XDATA, add(CFA_XSP16, literal(-6)))
        CFI V1 load(1, XDATA, add(CFA_XSP16, literal(-7)))
        CFI V0 load(1, XDATA, add(CFA_XSP16, literal(-8)))
        CFI VB load(1, XDATA, add(CFA_XSP16, literal(-9)))
        CFI R6 load(1, XDATA, add(CFA_XSP16, literal(-10)))
        CFI CFA_SP SP+0
        CFI CFA_XSP16 add(XSP16, 10)
        ; Saved register size: 10
        ; Auto size: 17
        MOV     A,#-0x11
        LCALL   ?ALLOC_XSTACK8
        CFI CFA_XSP16 add(XSP16, 27)
//  946   UserDescriptorFormat_t ZDO_DefaultUserDescriptor;
//  947 
//  948   // Initialize the User Descriptor, the descriptor is read from NV
//  949   // when needed.  If you want to initialize the User descriptor to something
//  950   // other than all zero, do it here.
//  951   osal_memset( &ZDO_DefaultUserDescriptor, 0, sizeof( UserDescriptorFormat_t ) );
        ; Setup parameters for call to function osal_memset
        MOV     R4,#0x11
        LCALL   ?Subroutine30 & 0xFFFF
//  952   if ( ZSUCCESS == osal_nv_item_init( ZCD_NV_USERDESC,
//  953          sizeof(UserDescriptorFormat_t), (void*)&ZDO_DefaultUserDescriptor ) )
??CrossCallReturnLabel_35:
        LCALL   ?PUSH_XSTACK_I_TWO
        CFI CFA_XSP16 add(XSP16, 29)
        MOV     R4,#0x11
        MOV     R5,#0x0
        MOV     R2,#-0x7f
        MOV     R3,#0x0
        LCALL   ??osal_nv_item_init?relay
        MOV     A,#0x2
        LCALL   ?DEALLOC_XSTACK8
        CFI CFA_XSP16 add(XSP16, 27)
        MOV     A,R1
        JNZ     ??ZDApp_InitUserDesc_0
//  954   {
//  955     if ( ZSUCCESS == osal_nv_read( ZCD_NV_USERDESC, 0,
//  956          sizeof(UserDescriptorFormat_t), (void*)&ZDO_DefaultUserDescriptor ) )
        ; Setup parameters for call to function osal_nv_read
        MOV     R0,#?V0 + 0
        LCALL   ?PUSH_XSTACK_I_TWO
        CFI CFA_XSP16 add(XSP16, 29)
        MOV     ?V0 + 0,#0x11
        MOV     ?V0 + 1,#0x0
        MOV     R0,#?V0 + 0
        LCALL   ?PUSH_XSTACK_I_TWO
        CFI CFA_XSP16 add(XSP16, 31)
        MOV     R4,#0x0
        MOV     R5,#0x0
        MOV     R2,#-0x7f
        MOV     R3,#0x0
        LCALL   ??osal_nv_read?relay
        MOV     A,#0x4
        LCALL   ?DEALLOC_XSTACK8
        CFI CFA_XSP16 add(XSP16, 27)
        MOV     A,R1
        JNZ     ??ZDApp_InitUserDesc_0
//  957     {
//  958       if ( ZDO_DefaultUserDescriptor.len != 0 )
        MOV     DPL,?XSP + 0
        MOV     DPH,?XSP + 1
        MOVX    A,@DPTR
        JZ      ??ZDApp_InitUserDesc_0
//  959       {
//  960         ZDO_Config_Node_Descriptor.UserDescAvail = TRUE;
        MOV     DPTR,#ZDO_Config_Node_Descriptor
        MOVX    A,@DPTR
        SETB    0xE0 /* A   */.4
        MOVX    @DPTR,A
//  961       }
//  962     }
//  963   }
//  964 }
??ZDApp_InitUserDesc_0:
        MOV     A,#0x11
        LJMP    ??Subroutine46_0 & 0xFFFF
        CFI EndBlock cfiBlock25
//  965 
//  966 /*********************************************************************
//  967  * @fn      ZDAppCheckForHoldKey()
//  968  *
//  969  * @brief   Check for key to set the device into Hold Auto Start
//  970  *
//  971  * @param   none
//  972  *
//  973  * @return  none
//  974  */

        RSEG BANKED_CODE:CODE:NOROOT(0)
//  975 void ZDAppCheckForHoldKey( void )
ZDAppCheckForHoldKey:
        CFI Block cfiBlock26 Using cfiCommon0
        CFI Function ZDAppCheckForHoldKey
//  976 {
        FUNCALL ZDAppCheckForHoldKey, HalKeyRead
        LOCFRAME ISTACK, 2, STACK
        LOCFRAME PSTACK, 0, STACK
        LOCFRAME XSTACK, 0, STACK
        LOCFRAME IOVERLAY, 0, STATIC
        LOCFRAME DOVERLAY, 0, STATIC
        ARGFRAME ISTACK, 2, STACK
        ARGFRAME PSTACK, 0, STACK
        ARGFRAME XSTACK, 0, STACK
        ARGFRAME IOVERLAY, 0, STATIC
        ARGFRAME DOVERLAY, 0, STATIC
        PUSH    DPL
        CFI DPL0 Frame(CFA_SP, 4)
        CFI CFA_SP SP+-4
        PUSH    DPH
        CFI DPH0 Frame(CFA_SP, 5)
        CFI CFA_SP SP+-5
        ; Saved register size: 2
        ; Auto size: 0
//  977 #if (defined HAL_KEY) && (HAL_KEY == TRUE)
//  978   // Get Keypad directly to see if a HOLD_START is needed.
//  979   // Hold down the SW_BYPASS_START key (see OnBoard.h)
//  980   // while booting to avoid starting up the device.
//  981   if ( HalKeyRead () == SW_BYPASS_START)
        ; Setup parameters for call to function HalKeyRead
        LCALL   ??HalKeyRead?relay
        MOV     A,R1
        XRL     A,#0x1
        JNZ     ??ZDAppCheckForHoldKey_0
//  982   {
//  983     // Change the device state to HOLD on start up
//  984     devState = DEV_HOLD;
        CLR     A
        MOV     DPTR,#devState
        MOVX    @DPTR,A
//  985   }
//  986 #endif // HAL_KEY
//  987 }
??ZDAppCheckForHoldKey_0:
        LJMP    ?Subroutine2 & 0xFFFF
        CFI EndBlock cfiBlock26
//  988 
//  989 /*********************************************************************
//  990  * @fn      ZDApp_ProcessOSALMsg()
//  991  *
//  992  * @brief   Process the incoming task message.
//  993  *
//  994  * @param   msgPtr - message to process
//  995  *
//  996  * @return  none
//  997  */

        RSEG BANKED_CODE:CODE:NOROOT(0)
//  998 void ZDApp_ProcessOSALMsg( osal_event_hdr_t *msgPtr )
ZDApp_ProcessOSALMsg:
        CFI Block cfiBlock27 Using cfiCommon0
        CFI Function ZDApp_ProcessOSALMsg
//  999 {
        FUNCALL ZDApp_ProcessOSALMsg, ZDP_IncomingData
        LOCFRAME ISTACK, 0, STACK
        LOCFRAME PSTACK, 0, STACK
        LOCFRAME XSTACK, 11, STACK
        LOCFRAME IOVERLAY, 0, STATIC
        LOCFRAME DOVERLAY, 0, STATIC
        ARGFRAME ISTACK, 0, STACK
        ARGFRAME PSTACK, 0, STACK
        ARGFRAME XSTACK, 11, STACK
        ARGFRAME IOVERLAY, 0, STATIC
        ARGFRAME DOVERLAY, 0, STATIC
        FUNCALL ZDApp_ProcessOSALMsg, ZDApp_ProcessMsgCBs
        LOCFRAME ISTACK, 0, STACK
        LOCFRAME PSTACK, 0, STACK
        LOCFRAME XSTACK, 11, STACK
        LOCFRAME IOVERLAY, 0, STATIC
        LOCFRAME DOVERLAY, 0, STATIC
        ARGFRAME ISTACK, 0, STACK
        ARGFRAME PSTACK, 0, STACK
        ARGFRAME XSTACK, 11, STACK
        ARGFRAME IOVERLAY, 0, STATIC
        ARGFRAME DOVERLAY, 0, STATIC
        FUNCALL ZDApp_ProcessOSALMsg, ZDApp_NwkDescListProcessing
        LOCFRAME ISTACK, 0, STACK
        LOCFRAME PSTACK, 0, STACK
        LOCFRAME XSTACK, 11, STACK
        LOCFRAME IOVERLAY, 0, STATIC
        LOCFRAME DOVERLAY, 0, STATIC
        ARGFRAME ISTACK, 0, STACK
        ARGFRAME PSTACK, 0, STACK
        ARGFRAME XSTACK, 11, STACK
        ARGFRAME IOVERLAY, 0, STATIC
        ARGFRAME DOVERLAY, 0, STATIC
        FUNCALL ZDApp_ProcessOSALMsg, ZDApp_NodeProfileSync
        LOCFRAME ISTACK, 0, STACK
        LOCFRAME PSTACK, 0, STACK
        LOCFRAME XSTACK, 11, STACK
        LOCFRAME IOVERLAY, 0, STATIC
        LOCFRAME DOVERLAY, 0, STATIC
        ARGFRAME ISTACK, 0, STACK
        ARGFRAME PSTACK, 0, STACK
        ARGFRAME XSTACK, 11, STACK
        ARGFRAME IOVERLAY, 0, STATIC
        ARGFRAME DOVERLAY, 0, STATIC
        FUNCALL ZDApp_ProcessOSALMsg, NLME_JoinRequest
        LOCFRAME ISTACK, 0, STACK
        LOCFRAME PSTACK, 0, STACK
        LOCFRAME XSTACK, 15, STACK
        LOCFRAME IOVERLAY, 0, STATIC
        LOCFRAME DOVERLAY, 0, STATIC
        ARGFRAME ISTACK, 0, STACK
        ARGFRAME PSTACK, 0, STACK
        ARGFRAME XSTACK, 15, STACK
        ARGFRAME IOVERLAY, 0, STATIC
        ARGFRAME DOVERLAY, 0, STATIC
        FUNCALL ZDApp_ProcessOSALMsg, osal_rand
        LOCFRAME ISTACK, 0, STACK
        LOCFRAME PSTACK, 0, STACK
        LOCFRAME XSTACK, 11, STACK
        LOCFRAME IOVERLAY, 0, STATIC
        LOCFRAME DOVERLAY, 0, STATIC
        ARGFRAME ISTACK, 0, STACK
        ARGFRAME PSTACK, 0, STACK
        ARGFRAME XSTACK, 11, STACK
        ARGFRAME IOVERLAY, 0, STATIC
        ARGFRAME DOVERLAY, 0, STATIC
        FUNCALL ZDApp_ProcessOSALMsg, ZDApp_NetworkInit
        LOCFRAME ISTACK, 0, STACK
        LOCFRAME PSTACK, 0, STACK
        LOCFRAME XSTACK, 11, STACK
        LOCFRAME IOVERLAY, 0, STATIC
        LOCFRAME DOVERLAY, 0, STATIC
        ARGFRAME ISTACK, 0, STACK
        ARGFRAME PSTACK, 0, STACK
        ARGFRAME XSTACK, 11, STACK
        ARGFRAME IOVERLAY, 0, STATIC
        ARGFRAME DOVERLAY, 0, STATIC
        FUNCALL ZDApp_ProcessOSALMsg, osal_rand
        LOCFRAME ISTACK, 0, STACK
        LOCFRAME PSTACK, 0, STACK
        LOCFRAME XSTACK, 11, STACK
        LOCFRAME IOVERLAY, 0, STATIC
        LOCFRAME DOVERLAY, 0, STATIC
        ARGFRAME ISTACK, 0, STACK
        ARGFRAME PSTACK, 0, STACK
        ARGFRAME XSTACK, 11, STACK
        ARGFRAME IOVERLAY, 0, STATIC
        ARGFRAME DOVERLAY, 0, STATIC
        FUNCALL ZDApp_ProcessOSALMsg, ZMacSetReq
        LOCFRAME ISTACK, 0, STACK
        LOCFRAME PSTACK, 0, STACK
        LOCFRAME XSTACK, 11, STACK
        LOCFRAME IOVERLAY, 0, STATIC
        LOCFRAME DOVERLAY, 0, STATIC
        ARGFRAME ISTACK, 0, STACK
        ARGFRAME PSTACK, 0, STACK
        ARGFRAME XSTACK, 11, STACK
        ARGFRAME IOVERLAY, 0, STATIC
        ARGFRAME DOVERLAY, 0, STATIC
        FUNCALL ZDApp_ProcessOSALMsg, ZMacSetReq
        LOCFRAME ISTACK, 0, STACK
        LOCFRAME PSTACK, 0, STACK
        LOCFRAME XSTACK, 11, STACK
        LOCFRAME IOVERLAY, 0, STATIC
        LOCFRAME DOVERLAY, 0, STATIC
        ARGFRAME ISTACK, 0, STACK
        ARGFRAME PSTACK, 0, STACK
        ARGFRAME XSTACK, 11, STACK
        ARGFRAME IOVERLAY, 0, STATIC
        ARGFRAME DOVERLAY, 0, STATIC
        FUNCALL ZDApp_ProcessOSALMsg, ZMacSetReq
        LOCFRAME ISTACK, 0, STACK
        LOCFRAME PSTACK, 0, STACK
        LOCFRAME XSTACK, 11, STACK
        LOCFRAME IOVERLAY, 0, STATIC
        LOCFRAME DOVERLAY, 0, STATIC
        ARGFRAME ISTACK, 0, STACK
        ARGFRAME PSTACK, 0, STACK
        ARGFRAME XSTACK, 11, STACK
        ARGFRAME IOVERLAY, 0, STATIC
        ARGFRAME DOVERLAY, 0, STATIC
        FUNCALL ZDApp_ProcessOSALMsg, NLME_ReJoinRequest
        LOCFRAME ISTACK, 0, STACK
        LOCFRAME PSTACK, 0, STACK
        LOCFRAME XSTACK, 11, STACK
        LOCFRAME IOVERLAY, 0, STATIC
        LOCFRAME DOVERLAY, 0, STATIC
        ARGFRAME ISTACK, 0, STACK
        ARGFRAME PSTACK, 0, STACK
        ARGFRAME XSTACK, 11, STACK
        ARGFRAME IOVERLAY, 0, STATIC
        ARGFRAME DOVERLAY, 0, STATIC
        FUNCALL ZDApp_ProcessOSALMsg, osal_rand
        LOCFRAME ISTACK, 0, STACK
        LOCFRAME PSTACK, 0, STACK
        LOCFRAME XSTACK, 11, STACK
        LOCFRAME IOVERLAY, 0, STATIC
        LOCFRAME DOVERLAY, 0, STATIC
        ARGFRAME ISTACK, 0, STACK
        ARGFRAME PSTACK, 0, STACK
        ARGFRAME XSTACK, 11, STACK
        ARGFRAME IOVERLAY, 0, STATIC
        ARGFRAME DOVERLAY, 0, STATIC
        FUNCALL ZDApp_ProcessOSALMsg, ZDApp_NetworkInit
        LOCFRAME ISTACK, 0, STACK
        LOCFRAME PSTACK, 0, STACK
        LOCFRAME XSTACK, 11, STACK
        LOCFRAME IOVERLAY, 0, STATIC
        LOCFRAME DOVERLAY, 0, STATIC
        ARGFRAME ISTACK, 0, STACK
        ARGFRAME PSTACK, 0, STACK
        ARGFRAME XSTACK, 11, STACK
        ARGFRAME IOVERLAY, 0, STATIC
        ARGFRAME DOVERLAY, 0, STATIC
        FUNCALL ZDApp_ProcessOSALMsg, NLME_SetPollRate
        LOCFRAME ISTACK, 0, STACK
        LOCFRAME PSTACK, 0, STACK
        LOCFRAME XSTACK, 11, STACK
        LOCFRAME IOVERLAY, 0, STATIC
        LOCFRAME DOVERLAY, 0, STATIC
        ARGFRAME ISTACK, 0, STACK
        ARGFRAME PSTACK, 0, STACK
        ARGFRAME XSTACK, 11, STACK
        ARGFRAME IOVERLAY, 0, STATIC
        ARGFRAME DOVERLAY, 0, STATIC
        FUNCALL ZDApp_ProcessOSALMsg, NLME_SetQueuedPollRate
        LOCFRAME ISTACK, 0, STACK
        LOCFRAME PSTACK, 0, STACK
        LOCFRAME XSTACK, 11, STACK
        LOCFRAME IOVERLAY, 0, STATIC
        LOCFRAME DOVERLAY, 0, STATIC
        ARGFRAME ISTACK, 0, STACK
        ARGFRAME PSTACK, 0, STACK
        ARGFRAME XSTACK, 11, STACK
        ARGFRAME IOVERLAY, 0, STATIC
        ARGFRAME DOVERLAY, 0, STATIC
        FUNCALL ZDApp_ProcessOSALMsg, NLME_SetResponseRate
        LOCFRAME ISTACK, 0, STACK
        LOCFRAME PSTACK, 0, STACK
        LOCFRAME XSTACK, 11, STACK
        LOCFRAME IOVERLAY, 0, STATIC
        LOCFRAME DOVERLAY, 0, STATIC
        ARGFRAME ISTACK, 0, STACK
        ARGFRAME PSTACK, 0, STACK
        ARGFRAME XSTACK, 11, STACK
        ARGFRAME IOVERLAY, 0, STATIC
        ARGFRAME DOVERLAY, 0, STATIC
        FUNCALL ZDApp_ProcessOSALMsg, osal_rand
        LOCFRAME ISTACK, 0, STACK
        LOCFRAME PSTACK, 0, STACK
        LOCFRAME XSTACK, 11, STACK
        LOCFRAME IOVERLAY, 0, STATIC
        LOCFRAME DOVERLAY, 0, STATIC
        ARGFRAME ISTACK, 0, STACK
        ARGFRAME PSTACK, 0, STACK
        ARGFRAME XSTACK, 11, STACK
        ARGFRAME IOVERLAY, 0, STATIC
        ARGFRAME DOVERLAY, 0, STATIC
        FUNCALL ZDApp_ProcessOSALMsg, ZDApp_NetworkInit
        LOCFRAME ISTACK, 0, STACK
        LOCFRAME PSTACK, 0, STACK
        LOCFRAME XSTACK, 11, STACK
        LOCFRAME IOVERLAY, 0, STATIC
        LOCFRAME DOVERLAY, 0, STATIC
        ARGFRAME ISTACK, 0, STACK
        ARGFRAME PSTACK, 0, STACK
        ARGFRAME XSTACK, 11, STACK
        ARGFRAME IOVERLAY, 0, STATIC
        ARGFRAME DOVERLAY, 0, STATIC
        FUNCALL ZDApp_ProcessOSALMsg, ZDApp_ProcessNetworkJoin
        LOCFRAME ISTACK, 0, STACK
        LOCFRAME PSTACK, 0, STACK
        LOCFRAME XSTACK, 11, STACK
        LOCFRAME IOVERLAY, 0, STATIC
        LOCFRAME DOVERLAY, 0, STATIC
        ARGFRAME ISTACK, 0, STACK
        ARGFRAME PSTACK, 0, STACK
        ARGFRAME XSTACK, 11, STACK
        ARGFRAME IOVERLAY, 0, STATIC
        ARGFRAME DOVERLAY, 0, STATIC
        FUNCALL ZDApp_ProcessOSALMsg, sAddrExtCpy
        LOCFRAME ISTACK, 0, STACK
        LOCFRAME PSTACK, 0, STACK
        LOCFRAME XSTACK, 11, STACK
        LOCFRAME IOVERLAY, 0, STATIC
        LOCFRAME DOVERLAY, 0, STATIC
        ARGFRAME ISTACK, 0, STACK
        ARGFRAME PSTACK, 0, STACK
        ARGFRAME XSTACK, 11, STACK
        ARGFRAME IOVERLAY, 0, STATIC
        ARGFRAME DOVERLAY, 0, STATIC
        FUNCALL ZDApp_ProcessOSALMsg, ZDApp_NetworkInit
        LOCFRAME ISTACK, 0, STACK
        LOCFRAME PSTACK, 0, STACK
        LOCFRAME XSTACK, 11, STACK
        LOCFRAME IOVERLAY, 0, STATIC
        LOCFRAME DOVERLAY, 0, STATIC
        ARGFRAME ISTACK, 0, STACK
        ARGFRAME PSTACK, 0, STACK
        ARGFRAME XSTACK, 11, STACK
        ARGFRAME IOVERLAY, 0, STATIC
        ARGFRAME DOVERLAY, 0, STATIC
        MOV     A,#-0xa
        LCALL   ?BANKED_ENTER_XDATA
        CFI DPH0 load(1, XDATA, add(CFA_XSP16, literal(-1)))
        CFI DPL0 load(1, XDATA, add(CFA_XSP16, literal(-2)))
        CFI ?BRET_EXT load(1, XDATA, add(CFA_XSP16, literal(-3)))
        CFI ?RET_HIGH load(1, XDATA, add(CFA_XSP16, literal(-4)))
        CFI ?RET_LOW load(1, XDATA, add(CFA_XSP16, literal(-5)))
        CFI R7 load(1, XDATA, add(CFA_XSP16, literal(-6)))
        CFI V1 load(1, XDATA, add(CFA_XSP16, literal(-7)))
        CFI V0 load(1, XDATA, add(CFA_XSP16, literal(-8)))
        CFI VB load(1, XDATA, add(CFA_XSP16, literal(-9)))
        CFI R6 load(1, XDATA, add(CFA_XSP16, literal(-10)))
        CFI CFA_SP SP+0
        CFI CFA_XSP16 add(XSP16, 10)
        ; Saved register size: 10
        ; Auto size: 1
        MOV     A,#-0x1
        LCALL   ?ALLOC_XSTACK8
        CFI CFA_XSP16 add(XSP16, 11)
// 1000   // Data Confirmation message fields
// 1001   uint8 sentEP;       // This should always be 0
// 1002   uint8 sentStatus;
// 1003   afDataConfirm_t *afDataConfirm;
// 1004   uint8 tmp;
// 1005 
// 1006   switch ( msgPtr->event )
        MOV     DPL,R2
        MOV     DPH,R3
        MOVX    A,@DPTR
        LCALL   ?UC_SWITCH_SPARSE
`?<Jumptable for ZDApp_ProcessOSALMsg>_0`:
        DATA
        DB        0
        DB        6
        DB        1
        DW        ??ZDApp_ProcessOSALMsg_0
        DB        2
        DW        ??ZDApp_ProcessOSALMsg_1
        DB        3
        DW        ??ZDApp_ProcessOSALMsg_2
        DB        26
        DW        ??ZDApp_ProcessOSALMsg_3
        DB        211
        DW        ??ZDApp_ProcessOSALMsg_4
        DB        253
        DW        ??ZDApp_ProcessOSALMsg_5
        DW        ??ZDApp_ProcessOSALMsg_5
        CODE
// 1007   {
// 1008     // Incoming ZDO Message
// 1009     case AF_INCOMING_MSG_CMD:
// 1010       ZDP_IncomingData( (afIncomingMSGPacket_t *)msgPtr );
??ZDApp_ProcessOSALMsg_3:
        ; Setup parameters for call to function ZDP_IncomingData
        LCALL   ??ZDP_IncomingData?relay
        LJMP    ??ZDApp_ProcessOSALMsg_5 & 0xFFFF
// 1011       break;
// 1012       
// 1013     case ZDO_CB_MSG:
// 1014       ZDApp_ProcessMsgCBs( (zdoIncomingMsg_t *)msgPtr );
??ZDApp_ProcessOSALMsg_4:
        ; Setup parameters for call to function ZDApp_ProcessMsgCBs
        LCALL   ??ZDApp_ProcessMsgCBs?relay
        LJMP    ??ZDApp_ProcessOSALMsg_5 & 0xFFFF
// 1015       break;
// 1016 
// 1017     case AF_DATA_CONFIRM_CMD:
// 1018       // This message is received as a confirmation of a data packet sent.
// 1019       // The status is of ZStatus_t type [defined in NLMEDE.h]
// 1020       // The message fields are defined in AF.h
// 1021       afDataConfirm = (afDataConfirm_t *)msgPtr;
// 1022       sentEP = afDataConfirm->endpoint;
// 1023       sentStatus = afDataConfirm->hdr.status;
// 1024 
// 1025       // Action taken when confirmation is received.
// 1026 #if defined ( ZIGBEE_FREQ_AGILITY )
// 1027       if ( pZDNwkMgr_ProcessDataConfirm )
// 1028         pZDNwkMgr_ProcessDataConfirm( afDataConfirm );
// 1029 #endif
// 1030       (void)sentEP;
// 1031       (void)sentStatus;
// 1032       break;
// 1033 
// 1034     case ZDO_NWK_DISC_CNF:
// 1035       if (devState != DEV_NWK_DISC)
??ZDApp_ProcessOSALMsg_0:
        MOV     DPTR,#devState
        MOVX    A,@DPTR
        XRL     A,#0x2
        JZ      $+5
        LJMP    ??ZDApp_ProcessOSALMsg_5 & 0xFFFF
// 1036         break;
// 1037       
// 1038       if ( ZG_BUILD_JOINING_TYPE && ZG_DEVICE_JOINING_TYPE )
        MOV     DPTR,#zgDeviceLogicalType
        MOVX    A,@DPTR
        XRL     A,#0x1
        JZ      ??ZDApp_ProcessOSALMsg_6
        MOVX    A,@DPTR
        XRL     A,#0x2
        JZ      $+5
        LJMP    ??ZDApp_ProcessOSALMsg_5 & 0xFFFF
// 1039       {
// 1040         // Process the network discovery scan results and choose a parent
// 1041         // device to join/rejoin itself
// 1042         networkDesc_t *pChosenNwk;                       
// 1043         if ( ( (pChosenNwk = ZDApp_NwkDescListProcessing()) != NULL ) && (zdoDiscCounter > NUM_DISC_ATTEMPTS) )
??ZDApp_ProcessOSALMsg_6:
        ; Setup parameters for call to function ZDApp_NwkDescListProcessing
        LCALL   ??ZDApp_NwkDescListProcessing?relay
        MOV     ?V0 + 0,R2
        MOV     ?V0 + 1,R3
        MOV     R0,?V0 + 0
        MOV     R1,?V0 + 1
        MOV     A,R0
        MOV     R6,A
        MOV     A,R1
        MOV     R7,A
        MOV     A,R0
        JNZ     ??ZDApp_ProcessOSALMsg_7
        MOV     A,R1
??ZDApp_ProcessOSALMsg_7:
        JNZ     $+5
        LJMP    ??ZDApp_ProcessOSALMsg_8 & 0xFFFF
        MOV     DPTR,#zdoDiscCounter
        MOVX    A,@DPTR
        CLR     C
        SUBB    A,#0x3
        JNC     $+5
        LJMP    ??ZDApp_ProcessOSALMsg_8 & 0xFFFF
// 1044         {
// 1045           if ( devStartMode == MODE_JOIN )
        MOV     DPTR,#devStartMode
        MOVX    A,@DPTR
        JNZ     ??ZDApp_ProcessOSALMsg_9
// 1046           {            
// 1047             devState = DEV_NWK_JOINING;
        MOV     A,#0x3
        MOV     DPTR,#devState
        LCALL   ?Subroutine11 & 0xFFFF
// 1048             
// 1049             ZDApp_NodeProfileSync( pChosenNwk->stackProfile);
??CrossCallReturnLabel_6:
        MOVX    A,@DPTR
        MOV     R1,A
        LCALL   ??ZDApp_NodeProfileSync?relay
// 1050             
// 1051             if ( NLME_JoinRequest( pChosenNwk->extendedPANID, pChosenNwk->panId,
// 1052                                   pChosenNwk->logicalChannel, 
// 1053                                   ZDO_Config_Node_Descriptor.CapabilityFlags, 
// 1054                                   pChosenNwk->chosenRouter, pChosenNwk->chosenRouterDepth ) != ZSuccess )
        ; Setup parameters for call to function NLME_JoinRequest
        MOV     DPL,R6
        MOV     DPH,R7
        INC     DPTR
        INC     DPTR
        INC     DPTR
        INC     DPTR
        INC     DPTR
        INC     DPTR
        INC     DPTR
        INC     DPTR
        INC     DPTR
        INC     DPTR
        MOVX    A,@DPTR
        MOV     ?V0 + 0,A
        MOV     R0,#?V0 + 0
        LCALL   ?PUSH_XSTACK_I_ONE
        CFI CFA_XSP16 add(XSP16, 12)
        MOV     DPL,R6
        MOV     DPH,R7
        INC     DPTR
        INC     DPTR
        INC     DPTR
        INC     DPTR
        INC     DPTR
        INC     DPTR
        INC     DPTR
        LCALL   ?PUSH_XSTACK8_X_TWO
        CFI CFA_XSP16 add(XSP16, 14)
        MOV     DPTR,#(ZDO_Config_Node_Descriptor + 2)
        MOVX    A,@DPTR
        MOV     ?V0 + 0,A
        MOV     R0,#?V0 + 0
        LCALL   ?PUSH_XSTACK_I_ONE
        CFI CFA_XSP16 add(XSP16, 15)
        MOV     DPL,R6
        MOV     DPH,R7
        INC     DPTR
        INC     DPTR
        MOVX    A,@DPTR
        MOV     R1,A
        MOV     DPL,R6
        MOV     DPH,R7
        MOVX    A,@DPTR
        MOV     R4,A
        INC     DPTR
        MOVX    A,@DPTR
        LCALL   ?Subroutine31 & 0xFFFF
// 1055             {
// 1056               ZDApp_NetworkInit( (uint16)(NWK_START_DELAY
// 1057                                           + ((uint16)(osal_rand()& EXTENDED_JOINING_RANDOM_MASK))) );
// 1058             }             
// 1059           } // if ( devStartMode == MODE_JOIN )
??CrossCallReturnLabel_59:
        LCALL   ??NLME_JoinRequest?relay
        MOV     A,#0x4
        LCALL   ?DEALLOC_XSTACK8
        CFI CFA_XSP16 add(XSP16, 11)
        SJMP    ??ZDApp_ProcessOSALMsg_10
// 1060           else if ( devStartMode == MODE_REJOIN )
??ZDApp_ProcessOSALMsg_9:
        XRL     A,#0x3
        JNZ     ??CrossCallReturnLabel_27
// 1061           {
// 1062             devState = DEV_NWK_REJOIN;
        MOV     A,#0x4
        MOV     DPTR,#devState
        MOVX    @DPTR,A
// 1063             
// 1064             // Before trying to do rejoin, check if the device has a valid short address
// 1065             // If not, generate a random short address for itself
// 1066             if ( _NIB.nwkDevAddress == INVALID_NODE_ADDR )
        MOV     DPTR,#(_NIB + 20)
        MOVX    A,@DPTR
        XRL     A,#0xfe
        JNZ     ??ZDApp_ProcessOSALMsg_11
        INC     DPTR
        MOVX    A,@DPTR
        XRL     A,#0xff
??ZDApp_ProcessOSALMsg_11:
        JNZ     ??ZDApp_ProcessOSALMsg_12
// 1067             {
// 1068               _NIB.nwkDevAddress = osal_rand();
        ; Setup parameters for call to function osal_rand
        LCALL   ??osal_rand?relay
        MOV     DPTR,#(_NIB + 20)
        LCALL   ??Subroutine55_0 & 0xFFFF
// 1069               ZMacSetReq( ZMacShortAddress, (byte*)&_NIB.nwkDevAddress );
??CrossCallReturnLabel_101:
        ; Setup parameters for call to function ZMacSetReq
        MOV     R2,#((_NIB + 20) & 0xff)
        MOV     R3,#(((_NIB + 20) >> 8) & 0xff)
        MOV     R1,#0x53
        LCALL   ??ZMacSetReq?relay
// 1070             }
// 1071             
// 1072             if ( ZG_SECURE_ENABLED )
// 1073             {
// 1074               ZDApp_RestoreNwkKey();
// 1075             }
// 1076             
// 1077             // Check if the device has a valid PanID, if not, set it to the discovered Pan
// 1078             if ( _NIB.nwkPanId == INVALID_PAN_ID )
??ZDApp_ProcessOSALMsg_12:
        MOV     DPTR,#(_NIB + 33)
        MOVX    A,@DPTR
        XRL     A,#0xfe
        JNZ     ??ZDApp_ProcessOSALMsg_13
        INC     DPTR
        MOVX    A,@DPTR
        XRL     A,#0xff
??ZDApp_ProcessOSALMsg_13:
        JNZ     ??ZDApp_ProcessOSALMsg_14
// 1079             {
// 1080               _NIB.nwkPanId = pChosenNwk->panId;
        LCALL   ?Subroutine18 & 0xFFFF
??CrossCallReturnLabel_80:
        MOV     DPTR,#(_NIB + 33)
        MOV     A,R0
        MOVX    @DPTR,A
        INC     DPTR
        MOV     A,R1
        MOVX    @DPTR,A
// 1081               ZMacSetReq( ZMacPanId, (byte*)&(_NIB.nwkPanId) );
        ; Setup parameters for call to function ZMacSetReq
        MOV     R2,#((_NIB + 33) & 0xff)
        MOV     R3,#(((_NIB + 33) >> 8) & 0xff)
        MOV     R1,#0x50
        LCALL   ??ZMacSetReq?relay
// 1082             }
// 1083             
// 1084             tmp = true;
??ZDApp_ProcessOSALMsg_14:
        MOV     A,#0x1
        MOV     DPL,?XSP + 0
        MOV     DPH,?XSP + 1
        MOVX    @DPTR,A
// 1085             ZMacSetReq( ZMacRxOnIdle, &tmp ); // Set receiver always on during rejoin 
        ; Setup parameters for call to function ZMacSetReq
        MOV     R2,DPL
        MOV     R3,DPH
        MOV     R1,#0x52
        LCALL   ??ZMacSetReq?relay
// 1086             if ( NLME_ReJoinRequest( ZDO_UseExtendedPANID, pChosenNwk->logicalChannel) != ZSuccess )
        ; Setup parameters for call to function NLME_ReJoinRequest
        MOV     DPL,R6
        MOV     DPH,R7
        INC     DPTR
        INC     DPTR
        MOVX    A,@DPTR
        MOV     R1,A
        MOV     R2,#(ZDO_UseExtendedPANID & 0xff)
        MOV     R3,#((ZDO_UseExtendedPANID >> 8) & 0xff)
        LCALL   ??NLME_ReJoinRequest?relay
??ZDApp_ProcessOSALMsg_10:
        MOV     A,R1
        JZ      ??CrossCallReturnLabel_27
// 1087             {
// 1088               ZDApp_NetworkInit( (uint16)(NWK_START_DELAY
// 1089                                           + ((uint16)(osal_rand()& EXTENDED_JOINING_RANDOM_MASK))) );
        ; Setup parameters for call to function ZDApp_NetworkInit
        ; Setup parameters for call to function osal_rand
        LCALL   ?Subroutine25 & 0xFFFF
// 1090             }
// 1091           } // else if ( devStartMode == MODE_REJOIN )
// 1092           
// 1093           if ( ZDO_Config_Node_Descriptor.CapabilityFlags & CAPINFO_RCVR_ON_IDLE )
??CrossCallReturnLabel_27:
        MOV     DPTR,#(ZDO_Config_Node_Descriptor + 2)
        MOVX    A,@DPTR
        MOV     C,0xE0 /* A   */.3
        JNC     ??ZDApp_ProcessOSALMsg_5
// 1094           {
// 1095             // The receiver is on, turn network layer polling off.
// 1096             NLME_SetPollRate( 0 );
        ; Setup parameters for call to function NLME_SetPollRate
        LCALL   ?Subroutine29 & 0xFFFF
// 1097             NLME_SetQueuedPollRate( 0 );
// 1098             NLME_SetResponseRate( 0 );
// 1099           }
// 1100           else
// 1101           {
// 1102             if ( (ZG_SECURE_ENABLED) && (devStartMode == MODE_JOIN) )
// 1103             {
// 1104               ZDApp_SavedPollRate = zgPollRate;
// 1105               NLME_SetPollRate( zgRejoinPollRate );
// 1106             }
// 1107           }
// 1108         }
??CrossCallReturnLabel_33:
        SJMP    ??ZDApp_ProcessOSALMsg_5
// 1109         else
// 1110         {
// 1111           if ( continueJoining )
??ZDApp_ProcessOSALMsg_8:
        MOV     DPTR,#continueJoining
        MOVX    A,@DPTR
        JZ      ??ZDApp_ProcessOSALMsg_5
// 1112           {
// 1113     #if defined ( MANAGED_SCAN )
// 1114             ZDApp_NetworkInit( MANAGEDSCAN_DELAY_BETWEEN_SCANS );
// 1115     #else
// 1116             zdoDiscCounter++;
        MOV     DPTR,#zdoDiscCounter
        MOVX    A,@DPTR
        INC     A
        MOVX    @DPTR,A
// 1117             ZDApp_NetworkInit( (uint16)(BEACON_REQUEST_DELAY
// 1118                   + ((uint16)(osal_rand()& BEACON_REQ_DELAY_MASK))) );
        ; Setup parameters for call to function ZDApp_NetworkInit
        ; Setup parameters for call to function osal_rand
        LCALL   ??osal_rand?relay
        MOV     ?V0 + 0,R2
        MOV     A,#-0x1
        ANL     A,?V0 + 0
        MOV     R0,A
        MOV     A,#0x64
        ADD     A,R0
        MOV     R2,A
        CLR     A
        ADDC    A,#0x0
        MOV     R3,A
        SJMP    ??ZDApp_ProcessOSALMsg_15
// 1119     #endif
// 1120           }
// 1121         }
// 1122       }
// 1123       break;
// 1124 
// 1125     case ZDO_NWK_JOIN_IND:
// 1126       if ( ZG_BUILD_JOINING_TYPE && ZG_DEVICE_JOINING_TYPE )
??ZDApp_ProcessOSALMsg_1:
        MOV     DPTR,#zgDeviceLogicalType
        MOVX    A,@DPTR
        XRL     A,#0x1
        JZ      ??ZDApp_ProcessOSALMsg_16
        MOVX    A,@DPTR
        XRL     A,#0x2
        JNZ     ??ZDApp_ProcessOSALMsg_5
// 1127       {
// 1128         ZDApp_ProcessNetworkJoin();
??ZDApp_ProcessOSALMsg_16:
        ; Setup parameters for call to function ZDApp_ProcessNetworkJoin
        LCALL   ??ZDApp_ProcessNetworkJoin?relay
        SJMP    ??ZDApp_ProcessOSALMsg_5
// 1129       }
// 1130       break;
// 1131 
// 1132     case ZDO_NWK_JOIN_REQ:
// 1133       if ( ZG_BUILD_JOINING_TYPE && ZG_DEVICE_JOINING_TYPE )
??ZDApp_ProcessOSALMsg_2:
        MOV     DPTR,#zgDeviceLogicalType
        MOVX    A,@DPTR
        XRL     A,#0x1
        JZ      ??ZDApp_ProcessOSALMsg_17
        MOVX    A,@DPTR
        XRL     A,#0x2
        JNZ     ??ZDApp_ProcessOSALMsg_5
// 1134       {
// 1135         retryCnt = 0;
??ZDApp_ProcessOSALMsg_17:
        CLR     A
        MOV     DPTR,#retryCnt
        MOVX    @DPTR,A
// 1136         devStartMode = MODE_RESUME;
        MOV     A,#0x1
        MOV     DPTR,#devStartMode
        MOVX    @DPTR,A
// 1137         _tmpRejoinState = true;
        MOV     DPTR,#_tmpRejoinState
        LCALL   ?Subroutine10 & 0xFFFF
// 1138         osal_cpyExtAddr( ZDO_UseExtendedPANID, _NIB.extendedPANID );
// 1139         zgDefaultStartingScanDuration = BEACON_ORDER_60_MSEC;
??CrossCallReturnLabel_5:
        MOV     A,#0x2
        MOV     DPTR,#zgDefaultStartingScanDuration
        MOVX    @DPTR,A
// 1140         ZDApp_NetworkInit( 0 );
        ; Setup parameters for call to function ZDApp_NetworkInit
        MOV     R2,#0x0
        MOV     R3,#0x0
??ZDApp_ProcessOSALMsg_15:
        LCALL   ??ZDApp_NetworkInit?relay
// 1141       }
// 1142       break;
// 1143 
// 1144     default:
// 1145       if ( ZG_SECURE_ENABLED )
// 1146         ZDApp_ProcessSecMsg( msgPtr );
// 1147       break;
// 1148   }
// 1149 
// 1150 }
??ZDApp_ProcessOSALMsg_5:
        MOV     A,#0x1
        LJMP    ??Subroutine46_0 & 0xFFFF
        CFI EndBlock cfiBlock27

        RSEG BANKED_CODE:CODE:NOROOT(0)
?Subroutine31:
        CFI Block cfiCond28 Using cfiCommon0
        CFI NoFunction
        CFI Conditional ??CrossCallReturnLabel_59
        CFI R6 load(1, XDATA, add(CFA_XSP16, literal(-10)))
        CFI VB load(1, XDATA, add(CFA_XSP16, literal(-9)))
        CFI V0 load(1, XDATA, add(CFA_XSP16, literal(-8)))
        CFI V1 load(1, XDATA, add(CFA_XSP16, literal(-7)))
        CFI R7 load(1, XDATA, add(CFA_XSP16, literal(-6)))
        CFI ?RET_LOW load(1, XDATA, add(CFA_XSP16, literal(-5)))
        CFI ?RET_HIGH load(1, XDATA, add(CFA_XSP16, literal(-4)))
        CFI ?BRET_EXT load(1, XDATA, add(CFA_XSP16, literal(-3)))
        CFI DPL0 load(1, XDATA, add(CFA_XSP16, literal(-2)))
        CFI DPH0 load(1, XDATA, add(CFA_XSP16, literal(-1)))
        CFI CFA_SP SP+0
        CFI CFA_XSP16 add(XSP16, 15)
        CFI Block cfiCond29 Using cfiCommon0
        CFI (cfiCond29) NoFunction
        CFI (cfiCond29) Conditional ??CrossCallReturnLabel_60
        CFI (cfiCond29) R6 load(1, XDATA, add(CFA_XSP16, literal(-14)))
        CFI (cfiCond29) VB load(1, XDATA, add(CFA_XSP16, literal(-13)))
        CFI (cfiCond29) V0 load(1, XDATA, add(CFA_XSP16, literal(-12)))
        CFI (cfiCond29) V1 load(1, XDATA, add(CFA_XSP16, literal(-11)))
        CFI (cfiCond29) V2 load(1, XDATA, add(CFA_XSP16, literal(-10)))
        CFI (cfiCond29) V3 load(1, XDATA, add(CFA_XSP16, literal(-9)))
        CFI (cfiCond29) V4 load(1, XDATA, add(CFA_XSP16, literal(-8)))
        CFI (cfiCond29) V5 load(1, XDATA, add(CFA_XSP16, literal(-7)))
        CFI (cfiCond29) R7 load(1, XDATA, add(CFA_XSP16, literal(-6)))
        CFI (cfiCond29) ?RET_LOW load(1, XDATA, add(CFA_XSP16, literal(-5)))
        CFI (cfiCond29) ?RET_HIGH load(1, XDATA, add(CFA_XSP16, literal(-4)))
        CFI (cfiCond29) ?BRET_EXT load(1, XDATA, add(CFA_XSP16, literal(-3)))
        CFI (cfiCond29) DPL0 load(1, XDATA, add(CFA_XSP16, literal(-2)))
        CFI (cfiCond29) DPH0 load(1, XDATA, add(CFA_XSP16, literal(-1)))
        CFI (cfiCond29) CFA_SP SP+0
        CFI (cfiCond29) CFA_XSP16 add(XSP16, 14)
        CFI Block cfiPicker30 Using cfiCommon1
        CFI (cfiPicker30) NoFunction
        CFI (cfiPicker30) Picker
        MOV     R5,A
        CFI EndBlock cfiCond28
        CFI EndBlock cfiCond29
        CFI EndBlock cfiPicker30
        REQUIRE ??Subroutine41_0
        ; // Fall through to label ??Subroutine41_0

        RSEG BANKED_CODE:CODE:NOROOT(0)
??Subroutine41_0:
        CFI Block cfiCond31 Using cfiCommon0
        CFI NoFunction
        CFI Conditional ??CrossCallReturnLabel_58
        CFI R6 load(1, XDATA, add(CFA_XSP16, literal(-14)))
        CFI VB load(1, XDATA, add(CFA_XSP16, literal(-13)))
        CFI V0 load(1, XDATA, add(CFA_XSP16, literal(-12)))
        CFI V1 load(1, XDATA, add(CFA_XSP16, literal(-11)))
        CFI V2 load(1, XDATA, add(CFA_XSP16, literal(-10)))
        CFI V3 load(1, XDATA, add(CFA_XSP16, literal(-9)))
        CFI V4 load(1, XDATA, add(CFA_XSP16, literal(-8)))
        CFI V5 load(1, XDATA, add(CFA_XSP16, literal(-7)))
        CFI R7 load(1, XDATA, add(CFA_XSP16, literal(-6)))
        CFI ?RET_LOW load(1, XDATA, add(CFA_XSP16, literal(-5)))
        CFI ?RET_HIGH load(1, XDATA, add(CFA_XSP16, literal(-4)))
        CFI ?BRET_EXT load(1, XDATA, add(CFA_XSP16, literal(-3)))
        CFI DPL0 load(1, XDATA, add(CFA_XSP16, literal(-2)))
        CFI DPH0 load(1, XDATA, add(CFA_XSP16, literal(-1)))
        CFI CFA_SP SP+0
        CFI CFA_XSP16 add(XSP16, 14)
        CFI Block cfiCond32 Using cfiCommon0
        CFI (cfiCond32) NoFunction
        CFI (cfiCond32) Conditional ??CrossCallReturnLabel_59
        CFI (cfiCond32) R6 load(1, XDATA, add(CFA_XSP16, literal(-10)))
        CFI (cfiCond32) VB load(1, XDATA, add(CFA_XSP16, literal(-9)))
        CFI (cfiCond32) V0 load(1, XDATA, add(CFA_XSP16, literal(-8)))
        CFI (cfiCond32) V1 load(1, XDATA, add(CFA_XSP16, literal(-7)))
        CFI (cfiCond32) R7 load(1, XDATA, add(CFA_XSP16, literal(-6)))
        CFI (cfiCond32) ?RET_LOW load(1, XDATA, add(CFA_XSP16, literal(-5)))
        CFI (cfiCond32) ?RET_HIGH load(1, XDATA, add(CFA_XSP16, literal(-4)))
        CFI (cfiCond32) ?BRET_EXT load(1, XDATA, add(CFA_XSP16, literal(-3)))
        CFI (cfiCond32) DPL0 load(1, XDATA, add(CFA_XSP16, literal(-2)))
        CFI (cfiCond32) DPH0 load(1, XDATA, add(CFA_XSP16, literal(-1)))
        CFI (cfiCond32) CFA_SP SP+0
        CFI (cfiCond32) CFA_XSP16 add(XSP16, 15)
        CFI Block cfiCond33 Using cfiCommon0
        CFI (cfiCond33) NoFunction
        CFI (cfiCond33) Conditional ??CrossCallReturnLabel_60
        CFI (cfiCond33) R6 load(1, XDATA, add(CFA_XSP16, literal(-14)))
        CFI (cfiCond33) VB load(1, XDATA, add(CFA_XSP16, literal(-13)))
        CFI (cfiCond33) V0 load(1, XDATA, add(CFA_XSP16, literal(-12)))
        CFI (cfiCond33) V1 load(1, XDATA, add(CFA_XSP16, literal(-11)))
        CFI (cfiCond33) V2 load(1, XDATA, add(CFA_XSP16, literal(-10)))
        CFI (cfiCond33) V3 load(1, XDATA, add(CFA_XSP16, literal(-9)))
        CFI (cfiCond33) V4 load(1, XDATA, add(CFA_XSP16, literal(-8)))
        CFI (cfiCond33) V5 load(1, XDATA, add(CFA_XSP16, literal(-7)))
        CFI (cfiCond33) R7 load(1, XDATA, add(CFA_XSP16, literal(-6)))
        CFI (cfiCond33) ?RET_LOW load(1, XDATA, add(CFA_XSP16, literal(-5)))
        CFI (cfiCond33) ?RET_HIGH load(1, XDATA, add(CFA_XSP16, literal(-4)))
        CFI (cfiCond33) ?BRET_EXT load(1, XDATA, add(CFA_XSP16, literal(-3)))
        CFI (cfiCond33) DPL0 load(1, XDATA, add(CFA_XSP16, literal(-2)))
        CFI (cfiCond33) DPH0 load(1, XDATA, add(CFA_XSP16, literal(-1)))
        CFI (cfiCond33) CFA_SP SP+0
        CFI (cfiCond33) CFA_XSP16 add(XSP16, 14)
        CFI Block cfiPicker34 Using cfiCommon1
        CFI (cfiPicker34) NoFunction
        CFI (cfiPicker34) Picker
        MOV     A,R6
        ADD     A,#0xb
        MOV     R2,A
        MOV     A,R7
        ADDC    A,#0x0
        MOV     R3,A
        RET
        CFI EndBlock cfiCond31
        CFI EndBlock cfiCond32
        CFI EndBlock cfiCond33
        CFI EndBlock cfiPicker34

        RSEG BANKED_CODE:CODE:NOROOT(0)
?Subroutine10:
        CFI Block cfiCond35 Using cfiCommon0
        CFI NoFunction
        CFI Conditional ??CrossCallReturnLabel_4
        CFI R6 load(1, XDATA, add(CFA_XSP16, literal(-9)))
        CFI VB load(1, XDATA, add(CFA_XSP16, literal(-8)))
        CFI V0 load(1, XDATA, add(CFA_XSP16, literal(-7)))
        CFI R7 load(1, XDATA, add(CFA_XSP16, literal(-6)))
        CFI ?RET_LOW load(1, XDATA, add(CFA_XSP16, literal(-5)))
        CFI ?RET_HIGH load(1, XDATA, add(CFA_XSP16, literal(-4)))
        CFI ?BRET_EXT load(1, XDATA, add(CFA_XSP16, literal(-3)))
        CFI DPL0 load(1, XDATA, add(CFA_XSP16, literal(-2)))
        CFI DPH0 load(1, XDATA, add(CFA_XSP16, literal(-1)))
        CFI CFA_SP SP+0
        CFI CFA_XSP16 add(XSP16, 9)
        CFI Block cfiCond36 Using cfiCommon0
        CFI (cfiCond36) NoFunction
        CFI (cfiCond36) Conditional ??CrossCallReturnLabel_5
        CFI (cfiCond36) R6 load(1, XDATA, add(CFA_XSP16, literal(-10)))
        CFI (cfiCond36) VB load(1, XDATA, add(CFA_XSP16, literal(-9)))
        CFI (cfiCond36) V0 load(1, XDATA, add(CFA_XSP16, literal(-8)))
        CFI (cfiCond36) V1 load(1, XDATA, add(CFA_XSP16, literal(-7)))
        CFI (cfiCond36) R7 load(1, XDATA, add(CFA_XSP16, literal(-6)))
        CFI (cfiCond36) ?RET_LOW load(1, XDATA, add(CFA_XSP16, literal(-5)))
        CFI (cfiCond36) ?RET_HIGH load(1, XDATA, add(CFA_XSP16, literal(-4)))
        CFI (cfiCond36) ?BRET_EXT load(1, XDATA, add(CFA_XSP16, literal(-3)))
        CFI (cfiCond36) DPL0 load(1, XDATA, add(CFA_XSP16, literal(-2)))
        CFI (cfiCond36) DPH0 load(1, XDATA, add(CFA_XSP16, literal(-1)))
        CFI (cfiCond36) CFA_SP SP+0
        CFI (cfiCond36) CFA_XSP16 add(XSP16, 11)
        CFI Block cfiPicker37 Using cfiCommon1
        CFI (cfiPicker37) NoFunction
        CFI (cfiPicker37) Picker
        MOVX    @DPTR,A
        ; Setup parameters for call to function sAddrExtCpy
        ; Setup parameters for call to function sAddrExtCpy
        MOV     R4,#((_NIB + 53) & 0xff)
        MOV     R5,#(((_NIB + 53) >> 8) & 0xff)
        MOV     R2,#(ZDO_UseExtendedPANID & 0xff)
        MOV     R3,#((ZDO_UseExtendedPANID >> 8) & 0xff)
        LCALL   ??sAddrExtCpy?relay
        RET
        CFI EndBlock cfiCond35
        CFI EndBlock cfiCond36
        CFI EndBlock cfiPicker37
// 1151 
// 1152 /*********************************************************************
// 1153  * @fn      ZDApp_ProcessMsgCBs()
// 1154  *
// 1155  * @brief   Process response messages
// 1156  *
// 1157  * @param   none
// 1158  *
// 1159  * @return  none
// 1160  */

        RSEG BANKED_CODE:CODE:NOROOT(0)
// 1161 void ZDApp_ProcessMsgCBs( zdoIncomingMsg_t *inMsg )
ZDApp_ProcessMsgCBs:
        CFI Block cfiBlock38 Using cfiCommon0
        CFI Function ZDApp_ProcessMsgCBs
// 1162 {
        FUNCALL ZDApp_ProcessMsgCBs, ZDO_ParseAddrRsp
        LOCFRAME ISTACK, 0, STACK
        LOCFRAME PSTACK, 0, STACK
        LOCFRAME XSTACK, 31, STACK
        LOCFRAME IOVERLAY, 0, STATIC
        LOCFRAME DOVERLAY, 0, STATIC
        ARGFRAME ISTACK, 0, STACK
        ARGFRAME PSTACK, 0, STACK
        ARGFRAME XSTACK, 31, STACK
        ARGFRAME IOVERLAY, 0, STATIC
        ARGFRAME DOVERLAY, 0, STATIC
        FUNCALL ZDApp_ProcessMsgCBs, ZDO_UpdateAddrManager
        LOCFRAME ISTACK, 0, STACK
        LOCFRAME PSTACK, 0, STACK
        LOCFRAME XSTACK, 31, STACK
        LOCFRAME IOVERLAY, 0, STATIC
        LOCFRAME DOVERLAY, 0, STATIC
        ARGFRAME ISTACK, 0, STACK
        ARGFRAME PSTACK, 0, STACK
        ARGFRAME XSTACK, 31, STACK
        ARGFRAME IOVERLAY, 0, STATIC
        ARGFRAME DOVERLAY, 0, STATIC
        FUNCALL ZDApp_ProcessMsgCBs, osal_mem_free
        LOCFRAME ISTACK, 0, STACK
        LOCFRAME PSTACK, 0, STACK
        LOCFRAME XSTACK, 31, STACK
        LOCFRAME IOVERLAY, 0, STATIC
        LOCFRAME DOVERLAY, 0, STATIC
        ARGFRAME ISTACK, 0, STACK
        ARGFRAME PSTACK, 0, STACK
        ARGFRAME XSTACK, 31, STACK
        ARGFRAME IOVERLAY, 0, STATIC
        ARGFRAME DOVERLAY, 0, STATIC
        FUNCALL ZDApp_ProcessMsgCBs, ZDO_ParseBindUnbindReq
        LOCFRAME ISTACK, 0, STACK
        LOCFRAME PSTACK, 0, STACK
        LOCFRAME XSTACK, 31, STACK
        LOCFRAME IOVERLAY, 0, STATIC
        LOCFRAME DOVERLAY, 0, STATIC
        ARGFRAME ISTACK, 0, STACK
        ARGFRAME PSTACK, 0, STACK
        ARGFRAME XSTACK, 31, STACK
        ARGFRAME IOVERLAY, 0, STATIC
        ARGFRAME DOVERLAY, 0, STATIC
        FUNCALL ZDApp_ProcessMsgCBs, ZDO_ProcessBindUnbindReq
        LOCFRAME ISTACK, 0, STACK
        LOCFRAME PSTACK, 0, STACK
        LOCFRAME XSTACK, 31, STACK
        LOCFRAME IOVERLAY, 0, STATIC
        LOCFRAME DOVERLAY, 0, STATIC
        ARGFRAME ISTACK, 0, STACK
        ARGFRAME PSTACK, 0, STACK
        ARGFRAME XSTACK, 31, STACK
        ARGFRAME IOVERLAY, 0, STATIC
        ARGFRAME DOVERLAY, 0, STATIC
        MOV     A,#-0xa
        LCALL   ?BANKED_ENTER_XDATA
        CFI DPH0 load(1, XDATA, add(CFA_XSP16, literal(-1)))
        CFI DPL0 load(1, XDATA, add(CFA_XSP16, literal(-2)))
        CFI ?BRET_EXT load(1, XDATA, add(CFA_XSP16, literal(-3)))
        CFI ?RET_HIGH load(1, XDATA, add(CFA_XSP16, literal(-4)))
        CFI ?RET_LOW load(1, XDATA, add(CFA_XSP16, literal(-5)))
        CFI R7 load(1, XDATA, add(CFA_XSP16, literal(-6)))
        CFI V1 load(1, XDATA, add(CFA_XSP16, literal(-7)))
        CFI V0 load(1, XDATA, add(CFA_XSP16, literal(-8)))
        CFI VB load(1, XDATA, add(CFA_XSP16, literal(-9)))
        CFI R6 load(1, XDATA, add(CFA_XSP16, literal(-10)))
        CFI CFA_SP SP+0
        CFI CFA_XSP16 add(XSP16, 10)
        ; Saved register size: 10
        ; Auto size: 21
        MOV     A,#-0x15
        LCALL   ?ALLOC_XSTACK8
        CFI CFA_XSP16 add(XSP16, 31)
        MOV     A,R2
        MOV     R6,A
        MOV     A,R3
        MOV     R7,A
// 1163   switch ( inMsg->clusterID )
        LCALL   ?Subroutine27 & 0xFFFF
??CrossCallReturnLabel_31:
        MOV     ?V0 + 1,A
        MOV     R0,#?V0 + 0
        LCALL   ?US_SWITCH_SPARSE
`?<Jumptable for ZDApp_ProcessMsgCBs>_0`:
        DATA
        DW        2
        DW        33
        DW        34
        DW        ??ZDApp_ProcessMsgCBs_0
        DW        32768
        DW        32769
        DW        ??ZDApp_ProcessMsgCBs_1
        DW        0
        DW        ??ZDApp_ProcessMsgCBs_2
        CODE
// 1164   {
// 1165 #if defined ( ZDO_NWKADDR_REQUEST ) || defined ( ZDO_IEEEADDR_REQUEST ) || defined ( REFLECTOR )
// 1166     case NWK_addr_rsp:
// 1167     case IEEE_addr_rsp:
// 1168       {
// 1169         ZDO_NwkIEEEAddrResp_t *pAddrRsp;
// 1170         pAddrRsp = ZDO_ParseAddrRsp( inMsg );
??ZDApp_ProcessMsgCBs_1:
        ; Setup parameters for call to function ZDO_ParseAddrRsp
        LCALL   ??ZDO_ParseAddrRsp?relay
        MOV     ?V0 + 0,R2
        MOV     ?V0 + 1,R3
        MOV     R6,?V0 + 0
        MOV     R7,?V0 + 1
// 1171         if ( pAddrRsp )
        MOV     A,R6
        JNZ     ??ZDApp_ProcessMsgCBs_3
        MOV     A,R7
??ZDApp_ProcessMsgCBs_3:
        JZ      ??ZDApp_ProcessMsgCBs_2
// 1172         {
// 1173           if ( pAddrRsp->status == ZSuccess )
        MOV     DPL,R6
        MOV     DPH,R7
        MOVX    A,@DPTR
        JNZ     ??ZDApp_ProcessMsgCBs_4
// 1174           {
// 1175             ZDO_UpdateAddrManager( pAddrRsp->nwkAddr, pAddrRsp->extAddr );
        ; Setup parameters for call to function ZDO_UpdateAddrManager
        MOV     A,R6
        ADD     A,#0x3
        MOV     R4,A
        MOV     A,R7
        ADDC    A,#0x0
        MOV     R5,A
        INC     DPTR
        MOVX    A,@DPTR
        MOV     R2,A
        INC     DPTR
        MOVX    A,@DPTR
        MOV     R3,A
        LCALL   ??ZDO_UpdateAddrManager?relay
// 1176           }
// 1177           osal_mem_free( pAddrRsp );
??ZDApp_ProcessMsgCBs_4:
        ; Setup parameters for call to function osal_mem_free
        MOV     A,R6
        MOV     R2,A
        MOV     A,R7
        MOV     R3,A
        LCALL   ??osal_mem_free?relay
        SJMP    ??ZDApp_ProcessMsgCBs_2
// 1178         }
// 1179       }
// 1180       break;
// 1181 #endif
// 1182       
// 1183 #if defined ( REFLECTOR )
// 1184     case Bind_req:
// 1185     case Unbind_req:
// 1186       {
// 1187         ZDO_BindUnbindReq_t bindReq;
// 1188         ZDO_ParseBindUnbindReq( inMsg, &bindReq );
??ZDApp_ProcessMsgCBs_0:
        ; Setup parameters for call to function ZDO_ParseBindUnbindReq
        MOV     DPL,?XSP + 0
        MOV     DPH,?XSP + 1
        MOV     R4,DPL
        MOV     R5,DPH
        LCALL   ??ZDO_ParseBindUnbindReq?relay
// 1189         ZDO_ProcessBindUnbindReq( inMsg, &bindReq );
        ; Setup parameters for call to function ZDO_ProcessBindUnbindReq
        MOV     DPL,?XSP + 0
        MOV     DPH,?XSP + 1
        MOV     R4,DPL
        MOV     R5,DPH
        MOV     A,R6
        MOV     R2,A
        MOV     A,R7
        MOV     R3,A
        LCALL   ??ZDO_ProcessBindUnbindReq?relay
        CFI EndBlock cfiBlock38
// 1190       }
// 1191       break;
// 1192 #endif      
// 1193 
// 1194 #if ( ZG_BUILD_COORDINATOR_TYPE )
// 1195     case Bind_rsp:
// 1196     case Unbind_rsp:
// 1197       if (ZG_DEVICE_COORDINATOR_TYPE && matchED)
// 1198       {
// 1199         ZDMatchSendState(
// 1200              (uint8)((inMsg->clusterID == Bind_rsp) ? ZDMATCH_REASON_BIND_RSP : ZDMATCH_REASON_UNBIND_RSP),
// 1201              ZDO_ParseBindRsp(inMsg), inMsg->TransSeq );
// 1202       }
// 1203       break;
// 1204       
// 1205     case End_Device_Bind_req:
// 1206       if (ZG_DEVICE_COORDINATOR_TYPE)
// 1207       {
// 1208         ZDEndDeviceBind_t bindReq;
// 1209         ZDO_ParseEndDeviceBindReq( inMsg, &bindReq );
// 1210         ZDO_MatchEndDeviceBind( &bindReq );
// 1211         
// 1212         // Freeing the cluster lists - if allocated.
// 1213         if ( bindReq.numInClusters )
// 1214           osal_mem_free( bindReq.inClusters );
// 1215         if ( bindReq.numOutClusters )
// 1216           osal_mem_free( bindReq.outClusters );
// 1217       }
// 1218       break;
// 1219 #endif
// 1220   }
// 1221 }
??ZDApp_ProcessMsgCBs_2:
        REQUIRE ?Subroutine7
        ; // Fall through to label ?Subroutine7

        RSEG BANKED_CODE:CODE:NOROOT(0)
?Subroutine7:
        CFI Block cfiBlock39 Using cfiCommon0
        CFI NoFunction
        CFI CFA_SP SP+0
        CFI CFA_XSP16 add(XSP16, 31)
        CFI VB load(1, XDATA, add(CFA_XSP16, literal(-9)))
        CFI DPL0 load(1, XDATA, add(CFA_XSP16, literal(-2)))
        CFI DPH0 load(1, XDATA, add(CFA_XSP16, literal(-1)))
        CFI R6 load(1, XDATA, add(CFA_XSP16, literal(-10)))
        CFI R7 load(1, XDATA, add(CFA_XSP16, literal(-6)))
        CFI V0 load(1, XDATA, add(CFA_XSP16, literal(-8)))
        CFI V1 load(1, XDATA, add(CFA_XSP16, literal(-7)))
        CFI ?BRET_EXT load(1, XDATA, add(CFA_XSP16, literal(-3)))
        CFI ?RET_HIGH load(1, XDATA, add(CFA_XSP16, literal(-4)))
        CFI ?RET_LOW load(1, XDATA, add(CFA_XSP16, literal(-5)))
        MOV     A,#0x15
        LJMP    ??Subroutine46_0 & 0xFFFF
        CFI EndBlock cfiBlock39
// 1222 
// 1223 /*********************************************************************
// 1224  * @fn      ZDApp_RegisterCBs()
// 1225  *
// 1226  * @brief   Process response messages
// 1227  *
// 1228  * @param   none
// 1229  *
// 1230  * @return  none
// 1231  */

        RSEG BANKED_CODE:CODE:NOROOT(0)
// 1232 void ZDApp_RegisterCBs( void )
ZDApp_RegisterCBs:
        CFI Block cfiBlock40 Using cfiCommon0
        CFI Function ZDApp_RegisterCBs
// 1233 {
        FUNCALL ZDApp_RegisterCBs, ZDO_RegisterForZDOMsg
        LOCFRAME ISTACK, 2, STACK
        LOCFRAME PSTACK, 0, STACK
        LOCFRAME XSTACK, 0, STACK
        LOCFRAME IOVERLAY, 0, STATIC
        LOCFRAME DOVERLAY, 0, STATIC
        ARGFRAME ISTACK, 2, STACK
        ARGFRAME PSTACK, 0, STACK
        ARGFRAME XSTACK, 0, STACK
        ARGFRAME IOVERLAY, 0, STATIC
        ARGFRAME DOVERLAY, 0, STATIC
        FUNCALL ZDApp_RegisterCBs, ZDO_RegisterForZDOMsg
        LOCFRAME ISTACK, 2, STACK
        LOCFRAME PSTACK, 0, STACK
        LOCFRAME XSTACK, 0, STACK
        LOCFRAME IOVERLAY, 0, STATIC
        LOCFRAME DOVERLAY, 0, STATIC
        ARGFRAME ISTACK, 2, STACK
        ARGFRAME PSTACK, 0, STACK
        ARGFRAME XSTACK, 0, STACK
        ARGFRAME IOVERLAY, 0, STATIC
        ARGFRAME DOVERLAY, 0, STATIC
        FUNCALL ZDApp_RegisterCBs, ZDO_RegisterForZDOMsg
        LOCFRAME ISTACK, 2, STACK
        LOCFRAME PSTACK, 0, STACK
        LOCFRAME XSTACK, 0, STACK
        LOCFRAME IOVERLAY, 0, STATIC
        LOCFRAME DOVERLAY, 0, STATIC
        ARGFRAME ISTACK, 2, STACK
        ARGFRAME PSTACK, 0, STACK
        ARGFRAME XSTACK, 0, STACK
        ARGFRAME IOVERLAY, 0, STATIC
        ARGFRAME DOVERLAY, 0, STATIC
        FUNCALL ZDApp_RegisterCBs, ZDO_RegisterForZDOMsg
        LOCFRAME ISTACK, 2, STACK
        LOCFRAME PSTACK, 0, STACK
        LOCFRAME XSTACK, 0, STACK
        LOCFRAME IOVERLAY, 0, STATIC
        LOCFRAME DOVERLAY, 0, STATIC
        ARGFRAME ISTACK, 2, STACK
        ARGFRAME PSTACK, 0, STACK
        ARGFRAME XSTACK, 0, STACK
        ARGFRAME IOVERLAY, 0, STATIC
        ARGFRAME DOVERLAY, 0, STATIC
        PUSH    DPL
        CFI DPL0 Frame(CFA_SP, 4)
        CFI CFA_SP SP+-4
        PUSH    DPH
        CFI DPH0 Frame(CFA_SP, 5)
        CFI CFA_SP SP+-5
        ; Saved register size: 2
        ; Auto size: 0
// 1234 #if defined ( ZDO_IEEEADDR_REQUEST ) || defined ( REFLECTOR )
// 1235   ZDO_RegisterForZDOMsg( ZDAppTaskID, IEEE_addr_rsp );
        ; Setup parameters for call to function ZDO_RegisterForZDOMsg
        MOV     R2,#0x1
        LCALL   ?Subroutine20 & 0xFFFF
// 1236 #endif
// 1237 #if defined ( ZDO_NWKADDR_REQUEST ) || defined ( REFLECTOR )
// 1238   ZDO_RegisterForZDOMsg( ZDAppTaskID, NWK_addr_rsp );
??CrossCallReturnLabel_61:
        ; Setup parameters for call to function ZDO_RegisterForZDOMsg
        MOV     R2,#0x0
        LCALL   ?Subroutine20 & 0xFFFF
// 1239 #endif  
// 1240 #if ZG_BUILD_COORDINATOR_TYPE
// 1241   ZDO_RegisterForZDOMsg( ZDAppTaskID, Bind_rsp );
// 1242   ZDO_RegisterForZDOMsg( ZDAppTaskID, Unbind_rsp );
// 1243   ZDO_RegisterForZDOMsg( ZDAppTaskID, End_Device_Bind_req );
// 1244 #endif
// 1245 #if defined ( REFLECTOR )
// 1246   ZDO_RegisterForZDOMsg( ZDAppTaskID, Bind_req );
??CrossCallReturnLabel_62:
        ; Setup parameters for call to function ZDO_RegisterForZDOMsg
        MOV     R2,#0x21
        MOV     R3,#0x0
        LCALL   ??Subroutine42_0 & 0xFFFF
// 1247   ZDO_RegisterForZDOMsg( ZDAppTaskID, Unbind_req );
??CrossCallReturnLabel_63:
        ; Setup parameters for call to function ZDO_RegisterForZDOMsg
        MOV     R2,#0x22
        MOV     R3,#0x0
        LCALL   ??Subroutine42_0 & 0xFFFF
// 1248 #endif  
// 1249 }
??CrossCallReturnLabel_64:
        LJMP    ?Subroutine2 & 0xFFFF
        CFI EndBlock cfiBlock40

        RSEG BANKED_CODE:CODE:NOROOT(0)
?Subroutine20:
        CFI Block cfiCond41 Using cfiCommon0
        CFI NoFunction
        CFI Conditional ??CrossCallReturnLabel_61
        CFI DPL0 Frame(CFA_SP, 4)
        CFI DPH0 Frame(CFA_SP, 5)
        CFI CFA_SP SP+-5
        CFI Block cfiCond42 Using cfiCommon0
        CFI (cfiCond42) NoFunction
        CFI (cfiCond42) Conditional ??CrossCallReturnLabel_62
        CFI (cfiCond42) DPL0 Frame(CFA_SP, 4)
        CFI (cfiCond42) DPH0 Frame(CFA_SP, 5)
        CFI (cfiCond42) CFA_SP SP+-5
        CFI Block cfiPicker43 Using cfiCommon1
        CFI (cfiPicker43) NoFunction
        CFI (cfiPicker43) Picker
        MOV     R3,#-0x80
        CFI EndBlock cfiCond41
        CFI EndBlock cfiCond42
        CFI EndBlock cfiPicker43
        REQUIRE ??Subroutine42_0
        ; // Fall through to label ??Subroutine42_0

        RSEG BANKED_CODE:CODE:NOROOT(0)
??Subroutine42_0:
        CFI Block cfiCond44 Using cfiCommon0
        CFI NoFunction
        CFI Conditional ??CrossCallReturnLabel_63
        CFI DPL0 Frame(CFA_SP, 4)
        CFI DPH0 Frame(CFA_SP, 5)
        CFI CFA_SP SP+-5
        CFI Block cfiCond45 Using cfiCommon0
        CFI (cfiCond45) NoFunction
        CFI (cfiCond45) Conditional ??CrossCallReturnLabel_64
        CFI (cfiCond45) DPL0 Frame(CFA_SP, 4)
        CFI (cfiCond45) DPH0 Frame(CFA_SP, 5)
        CFI (cfiCond45) CFA_SP SP+-5
        CFI Block cfiCond46 Using cfiCommon0
        CFI (cfiCond46) NoFunction
        CFI (cfiCond46) Conditional ??CrossCallReturnLabel_61
        CFI (cfiCond46) DPL0 Frame(CFA_SP, 4)
        CFI (cfiCond46) DPH0 Frame(CFA_SP, 5)
        CFI (cfiCond46) CFA_SP SP+-5
        CFI Block cfiCond47 Using cfiCommon0
        CFI (cfiCond47) NoFunction
        CFI (cfiCond47) Conditional ??CrossCallReturnLabel_62
        CFI (cfiCond47) DPL0 Frame(CFA_SP, 4)
        CFI (cfiCond47) DPH0 Frame(CFA_SP, 5)
        CFI (cfiCond47) CFA_SP SP+-5
        CFI Block cfiPicker48 Using cfiCommon1
        CFI (cfiPicker48) NoFunction
        CFI (cfiPicker48) Picker
        MOV     DPTR,#ZDAppTaskID
        MOVX    A,@DPTR
        MOV     R1,A
        LCALL   ??ZDO_RegisterForZDOMsg?relay
        RET
        CFI EndBlock cfiCond44
        CFI EndBlock cfiCond45
        CFI EndBlock cfiCond46
        CFI EndBlock cfiCond47
        CFI EndBlock cfiPicker48
// 1250 
// 1251 /*********************************************************************
// 1252  * @fn      ZDApp_ProcessSecMsg()
// 1253  *
// 1254  * @brief   Process the incoming security message.
// 1255  *
// 1256  * @param   msgPtr - message to process
// 1257  *
// 1258  * @return  none
// 1259  */

        RSEG BANKED_CODE:CODE:NOROOT(0)
// 1260 void ZDApp_ProcessSecMsg( osal_event_hdr_t *msgPtr )
ZDApp_ProcessSecMsg:
        CFI Block cfiBlock49 Using cfiCommon0
        CFI Function ZDApp_ProcessSecMsg
// 1261 {
        FUNCALL ZDApp_ProcessSecMsg, ZDSecMgrTransportKeyInd
        LOCFRAME ISTACK, 2, STACK
        LOCFRAME PSTACK, 0, STACK
        LOCFRAME XSTACK, 0, STACK
        LOCFRAME IOVERLAY, 0, STATIC
        LOCFRAME DOVERLAY, 0, STATIC
        ARGFRAME ISTACK, 2, STACK
        ARGFRAME PSTACK, 0, STACK
        ARGFRAME XSTACK, 0, STACK
        ARGFRAME IOVERLAY, 0, STATIC
        ARGFRAME DOVERLAY, 0, STATIC
        FUNCALL ZDApp_ProcessSecMsg, ZDSecMgrSwitchKeyInd
        LOCFRAME ISTACK, 2, STACK
        LOCFRAME PSTACK, 0, STACK
        LOCFRAME XSTACK, 0, STACK
        LOCFRAME IOVERLAY, 0, STATIC
        LOCFRAME DOVERLAY, 0, STATIC
        ARGFRAME ISTACK, 2, STACK
        ARGFRAME PSTACK, 0, STACK
        ARGFRAME XSTACK, 0, STACK
        ARGFRAME IOVERLAY, 0, STATIC
        ARGFRAME DOVERLAY, 0, STATIC
        PUSH    DPL
        CFI DPL0 Frame(CFA_SP, 4)
        CFI CFA_SP SP+-4
        PUSH    DPH
        CFI DPH0 Frame(CFA_SP, 5)
        CFI CFA_SP SP+-5
        ; Saved register size: 2
        ; Auto size: 0
// 1262   switch ( msgPtr->event )
        MOV     DPL,R2
        MOV     DPH,R3
        MOVX    A,@DPTR
        LCALL   ?UC_SWITCH_DENSE
`?<Jumptable for ZDApp_ProcessSecMsg>_0`:
        DATA
        DB        4
        DB        8
        DW        ??ZDApp_ProcessSecMsg_0
        DW        ??ZDApp_ProcessSecMsg_0
        DW        ??ZDApp_ProcessSecMsg_0
        DW        ??ZDApp_ProcessSecMsg_1
        DW        ??ZDApp_ProcessSecMsg_0
        DW        ??ZDApp_ProcessSecMsg_0
        DW        ??ZDApp_ProcessSecMsg_0
        DW        ??ZDApp_ProcessSecMsg_2
        DW        ??ZDApp_ProcessSecMsg_0
        DW        ??ZDApp_ProcessSecMsg_0
        CODE
// 1263   {
// 1264     case ZDO_ESTABLISH_KEY_CFM:
// 1265       if ( ZG_CHECK_SECURITY_MODE == ZG_SECURITY_PRO_HIGH )
// 1266       {
// 1267         ZDSecMgrEstablishKeyCfm( (ZDO_EstablishKeyCfm_t*)msgPtr );
// 1268       }
// 1269       break;
// 1270 
// 1271     case ZDO_ESTABLISH_KEY_IND:
// 1272       if ( ZG_CHECK_SECURITY_MODE == ZG_SECURITY_PRO_HIGH )
// 1273       {
// 1274         if ( ZG_BUILD_JOINING_TYPE && ZG_DEVICE_JOINING_TYPE )
// 1275         {
// 1276           ZDSecMgrEstablishKeyInd( (ZDO_EstablishKeyInd_t*)msgPtr );
// 1277         }
// 1278       }
// 1279       break;
// 1280 
// 1281     case ZDO_TRANSPORT_KEY_IND:
// 1282       if ( ZG_BUILD_JOINING_TYPE && ZG_DEVICE_JOINING_TYPE )
??ZDApp_ProcessSecMsg_1:
        MOV     DPTR,#zgDeviceLogicalType
        MOVX    A,@DPTR
        XRL     A,#0x1
        JZ      ??ZDApp_ProcessSecMsg_3
        MOVX    A,@DPTR
        XRL     A,#0x2
        JNZ     ??ZDApp_ProcessSecMsg_0
// 1283       {
// 1284         ZDSecMgrTransportKeyInd( (ZDO_TransportKeyInd_t*)msgPtr );
??ZDApp_ProcessSecMsg_3:
        ; Setup parameters for call to function ZDSecMgrTransportKeyInd
        LCALL   ??ZDSecMgrTransportKeyInd?relay
        SJMP    ??ZDApp_ProcessSecMsg_0
// 1285       }
// 1286       break;
// 1287 
// 1288     case ZDO_UPDATE_DEVICE_IND:
// 1289       if ( ZG_BUILD_COORDINATOR_TYPE && ZG_DEVICE_COORDINATOR_TYPE )
// 1290       {
// 1291         ZDSecMgrUpdateDeviceInd( (ZDO_UpdateDeviceInd_t*)msgPtr );
// 1292       }
// 1293       break;
// 1294 
// 1295     case ZDO_REMOVE_DEVICE_IND:
// 1296       if ( ZG_BUILD_RTRONLY_TYPE && ( zgDeviceLogicalType == ZG_DEVICETYPE_ROUTER ) )
// 1297       {
// 1298         ZDSecMgrRemoveDeviceInd( (ZDO_RemoveDeviceInd_t*)msgPtr );
// 1299       }
// 1300       break;
// 1301 
// 1302     case ZDO_REQUEST_KEY_IND:
// 1303       if ( ZG_CHECK_SECURITY_MODE == ZG_SECURITY_PRO_HIGH )
// 1304       {
// 1305         if ( ZG_BUILD_COORDINATOR_TYPE && ZG_DEVICE_COORDINATOR_TYPE )
// 1306         {
// 1307           ZDSecMgrRequestKeyInd( (ZDO_RequestKeyInd_t*)msgPtr );
// 1308         }
// 1309       }
// 1310       break;
// 1311 
// 1312     case ZDO_SWITCH_KEY_IND:
// 1313       if ( ZG_BUILD_JOINING_TYPE && ZG_DEVICE_JOINING_TYPE )
??ZDApp_ProcessSecMsg_2:
        MOV     DPTR,#zgDeviceLogicalType
        MOVX    A,@DPTR
        XRL     A,#0x1
        JZ      ??ZDApp_ProcessSecMsg_4
        MOVX    A,@DPTR
        XRL     A,#0x2
        JNZ     ??ZDApp_ProcessSecMsg_0
// 1314       {
// 1315         ZDSecMgrSwitchKeyInd( (ZDO_SwitchKeyInd_t*)msgPtr );
??ZDApp_ProcessSecMsg_4:
        ; Setup parameters for call to function ZDSecMgrSwitchKeyInd
        LCALL   ??ZDSecMgrSwitchKeyInd?relay
// 1316       }
// 1317       break;
// 1318     
// 1319     case ZDO_AUTHENTICATE_IND:
// 1320       if ( ZG_CHECK_SECURITY_MODE == ZG_SECURITY_PRO_HIGH )
// 1321       {
// 1322         ZDSecMgrAuthenticateInd( (ZDO_AuthenticateInd_t*)msgPtr );
// 1323       }
// 1324       break;
// 1325 
// 1326     case ZDO_AUTHENTICATE_CFM:
// 1327       if ( ZG_CHECK_SECURITY_MODE == ZG_SECURITY_PRO_HIGH )
// 1328       {
// 1329         ZDSecMgrAuthenticateCfm( (ZDO_AuthenticateCfm_t*)msgPtr );
// 1330       }
// 1331       break;
// 1332 
// 1333     default:
// 1334       // Unsupported messages
// 1335       break;
// 1336   }
// 1337 }
??ZDApp_ProcessSecMsg_0:
        LJMP    ?Subroutine2 & 0xFFFF
        CFI EndBlock cfiBlock49
// 1338 
// 1339 /*********************************************************************
// 1340  * @fn      ZDApp_ProcessNetworkJoin()
// 1341  *
// 1342  * @brief
// 1343  *
// 1344  *   Save off the Network key information.
// 1345  *
// 1346  * @param   none
// 1347  *
// 1348  * @return  none
// 1349  */

        RSEG BANKED_CODE:CODE:NOROOT(0)
// 1350 void ZDApp_ProcessNetworkJoin( void )
ZDApp_ProcessNetworkJoin:
        CFI Block cfiBlock50 Using cfiCommon0
        CFI Function ZDApp_ProcessNetworkJoin
// 1351 {
        FUNCALL ZDApp_ProcessNetworkJoin, osal_set_event
        LOCFRAME ISTACK, 0, STACK
        LOCFRAME PSTACK, 0, STACK
        LOCFRAME XSTACK, 12, STACK
        LOCFRAME IOVERLAY, 0, STATIC
        LOCFRAME DOVERLAY, 0, STATIC
        ARGFRAME ISTACK, 0, STACK
        ARGFRAME PSTACK, 0, STACK
        ARGFRAME XSTACK, 12, STACK
        ARGFRAME IOVERLAY, 0, STATIC
        ARGFRAME DOVERLAY, 0, STATIC
        FUNCALL ZDApp_ProcessNetworkJoin, ZDApp_AnnounceNewAddress
        LOCFRAME ISTACK, 0, STACK
        LOCFRAME PSTACK, 0, STACK
        LOCFRAME XSTACK, 12, STACK
        LOCFRAME IOVERLAY, 0, STATIC
        LOCFRAME DOVERLAY, 0, STATIC
        ARGFRAME ISTACK, 0, STACK
        ARGFRAME PSTACK, 0, STACK
        ARGFRAME XSTACK, 12, STACK
        ARGFRAME IOVERLAY, 0, STATIC
        ARGFRAME DOVERLAY, 0, STATIC
        FUNCALL ZDApp_ProcessNetworkJoin, NLME_GetShortAddr
        LOCFRAME ISTACK, 0, STACK
        LOCFRAME PSTACK, 0, STACK
        LOCFRAME XSTACK, 12, STACK
        LOCFRAME IOVERLAY, 0, STATIC
        LOCFRAME DOVERLAY, 0, STATIC
        ARGFRAME ISTACK, 0, STACK
        ARGFRAME PSTACK, 0, STACK
        ARGFRAME XSTACK, 12, STACK
        ARGFRAME IOVERLAY, 0, STATIC
        ARGFRAME DOVERLAY, 0, STATIC
        FUNCALL ZDApp_ProcessNetworkJoin, ZMacSetReq
        LOCFRAME ISTACK, 0, STACK
        LOCFRAME PSTACK, 0, STACK
        LOCFRAME XSTACK, 12, STACK
        LOCFRAME IOVERLAY, 0, STATIC
        LOCFRAME DOVERLAY, 0, STATIC
        ARGFRAME ISTACK, 0, STACK
        ARGFRAME PSTACK, 0, STACK
        ARGFRAME XSTACK, 12, STACK
        ARGFRAME IOVERLAY, 0, STATIC
        ARGFRAME DOVERLAY, 0, STATIC
        FUNCALL ZDApp_ProcessNetworkJoin, nwkNeighborInitTable
        LOCFRAME ISTACK, 0, STACK
        LOCFRAME PSTACK, 0, STACK
        LOCFRAME XSTACK, 12, STACK
        LOCFRAME IOVERLAY, 0, STATIC
        LOCFRAME DOVERLAY, 0, STATIC
        ARGFRAME ISTACK, 0, STACK
        ARGFRAME PSTACK, 0, STACK
        ARGFRAME XSTACK, 12, STACK
        ARGFRAME IOVERLAY, 0, STATIC
        ARGFRAME DOVERLAY, 0, STATIC
        FUNCALL ZDApp_ProcessNetworkJoin, NLME_NwkDiscTerm
        LOCFRAME ISTACK, 0, STACK
        LOCFRAME PSTACK, 0, STACK
        LOCFRAME XSTACK, 12, STACK
        LOCFRAME IOVERLAY, 0, STATIC
        LOCFRAME DOVERLAY, 0, STATIC
        ARGFRAME ISTACK, 0, STACK
        ARGFRAME PSTACK, 0, STACK
        ARGFRAME XSTACK, 12, STACK
        ARGFRAME IOVERLAY, 0, STATIC
        ARGFRAME DOVERLAY, 0, STATIC
        FUNCALL ZDApp_ProcessNetworkJoin, osal_rand
        LOCFRAME ISTACK, 0, STACK
        LOCFRAME PSTACK, 0, STACK
        LOCFRAME XSTACK, 12, STACK
        LOCFRAME IOVERLAY, 0, STATIC
        LOCFRAME DOVERLAY, 0, STATIC
        ARGFRAME ISTACK, 0, STACK
        ARGFRAME PSTACK, 0, STACK
        ARGFRAME XSTACK, 12, STACK
        ARGFRAME IOVERLAY, 0, STATIC
        ARGFRAME DOVERLAY, 0, STATIC
        FUNCALL ZDApp_ProcessNetworkJoin, ZDApp_NetworkInit
        LOCFRAME ISTACK, 0, STACK
        LOCFRAME PSTACK, 0, STACK
        LOCFRAME XSTACK, 12, STACK
        LOCFRAME IOVERLAY, 0, STATIC
        LOCFRAME DOVERLAY, 0, STATIC
        ARGFRAME ISTACK, 0, STACK
        ARGFRAME PSTACK, 0, STACK
        ARGFRAME XSTACK, 12, STACK
        ARGFRAME IOVERLAY, 0, STATIC
        ARGFRAME DOVERLAY, 0, STATIC
        FUNCALL ZDApp_ProcessNetworkJoin, osal_set_event
        LOCFRAME ISTACK, 0, STACK
        LOCFRAME PSTACK, 0, STACK
        LOCFRAME XSTACK, 12, STACK
        LOCFRAME IOVERLAY, 0, STATIC
        LOCFRAME DOVERLAY, 0, STATIC
        ARGFRAME ISTACK, 0, STACK
        ARGFRAME PSTACK, 0, STACK
        ARGFRAME XSTACK, 12, STACK
        ARGFRAME IOVERLAY, 0, STATIC
        ARGFRAME DOVERLAY, 0, STATIC
        FUNCALL ZDApp_ProcessNetworkJoin, NLME_SetPollRate
        LOCFRAME ISTACK, 0, STACK
        LOCFRAME PSTACK, 0, STACK
        LOCFRAME XSTACK, 12, STACK
        LOCFRAME IOVERLAY, 0, STATIC
        LOCFRAME DOVERLAY, 0, STATIC
        ARGFRAME ISTACK, 0, STACK
        ARGFRAME PSTACK, 0, STACK
        ARGFRAME XSTACK, 12, STACK
        ARGFRAME IOVERLAY, 0, STATIC
        ARGFRAME DOVERLAY, 0, STATIC
        FUNCALL ZDApp_ProcessNetworkJoin, NLME_SetQueuedPollRate
        LOCFRAME ISTACK, 0, STACK
        LOCFRAME PSTACK, 0, STACK
        LOCFRAME XSTACK, 12, STACK
        LOCFRAME IOVERLAY, 0, STATIC
        LOCFRAME DOVERLAY, 0, STATIC
        ARGFRAME ISTACK, 0, STACK
        ARGFRAME PSTACK, 0, STACK
        ARGFRAME XSTACK, 12, STACK
        ARGFRAME IOVERLAY, 0, STATIC
        ARGFRAME DOVERLAY, 0, STATIC
        FUNCALL ZDApp_ProcessNetworkJoin, NLME_SetResponseRate
        LOCFRAME ISTACK, 0, STACK
        LOCFRAME PSTACK, 0, STACK
        LOCFRAME XSTACK, 12, STACK
        LOCFRAME IOVERLAY, 0, STATIC
        LOCFRAME DOVERLAY, 0, STATIC
        ARGFRAME ISTACK, 0, STACK
        ARGFRAME PSTACK, 0, STACK
        ARGFRAME XSTACK, 12, STACK
        ARGFRAME IOVERLAY, 0, STATIC
        ARGFRAME DOVERLAY, 0, STATIC
        FUNCALL ZDApp_ProcessNetworkJoin, ZDApp_AnnounceNewAddress
        LOCFRAME ISTACK, 0, STACK
        LOCFRAME PSTACK, 0, STACK
        LOCFRAME XSTACK, 12, STACK
        LOCFRAME IOVERLAY, 0, STATIC
        LOCFRAME DOVERLAY, 0, STATIC
        ARGFRAME ISTACK, 0, STACK
        ARGFRAME PSTACK, 0, STACK
        ARGFRAME XSTACK, 12, STACK
        ARGFRAME IOVERLAY, 0, STATIC
        ARGFRAME DOVERLAY, 0, STATIC
        FUNCALL ZDApp_ProcessNetworkJoin, nwkNeighborInitTable
        LOCFRAME ISTACK, 0, STACK
        LOCFRAME PSTACK, 0, STACK
        LOCFRAME XSTACK, 12, STACK
        LOCFRAME IOVERLAY, 0, STATIC
        LOCFRAME DOVERLAY, 0, STATIC
        ARGFRAME ISTACK, 0, STACK
        ARGFRAME PSTACK, 0, STACK
        ARGFRAME XSTACK, 12, STACK
        ARGFRAME IOVERLAY, 0, STATIC
        ARGFRAME DOVERLAY, 0, STATIC
        FUNCALL ZDApp_ProcessNetworkJoin, NLME_NwkDiscTerm
        LOCFRAME ISTACK, 0, STACK
        LOCFRAME PSTACK, 0, STACK
        LOCFRAME XSTACK, 12, STACK
        LOCFRAME IOVERLAY, 0, STATIC
        LOCFRAME DOVERLAY, 0, STATIC
        ARGFRAME ISTACK, 0, STACK
        ARGFRAME PSTACK, 0, STACK
        ARGFRAME XSTACK, 12, STACK
        ARGFRAME IOVERLAY, 0, STATIC
        ARGFRAME DOVERLAY, 0, STATIC
        FUNCALL ZDApp_ProcessNetworkJoin, osal_rand
        LOCFRAME ISTACK, 0, STACK
        LOCFRAME PSTACK, 0, STACK
        LOCFRAME XSTACK, 12, STACK
        LOCFRAME IOVERLAY, 0, STATIC
        LOCFRAME DOVERLAY, 0, STATIC
        ARGFRAME ISTACK, 0, STACK
        ARGFRAME PSTACK, 0, STACK
        ARGFRAME XSTACK, 12, STACK
        ARGFRAME IOVERLAY, 0, STATIC
        ARGFRAME DOVERLAY, 0, STATIC
        FUNCALL ZDApp_ProcessNetworkJoin, ZDApp_NetworkInit
        LOCFRAME ISTACK, 0, STACK
        LOCFRAME PSTACK, 0, STACK
        LOCFRAME XSTACK, 12, STACK
        LOCFRAME IOVERLAY, 0, STATIC
        LOCFRAME DOVERLAY, 0, STATIC
        ARGFRAME ISTACK, 0, STACK
        ARGFRAME PSTACK, 0, STACK
        ARGFRAME XSTACK, 12, STACK
        ARGFRAME IOVERLAY, 0, STATIC
        ARGFRAME DOVERLAY, 0, STATIC
        FUNCALL ZDApp_ProcessNetworkJoin, ZDApp_AnnounceNewAddress
        LOCFRAME ISTACK, 0, STACK
        LOCFRAME PSTACK, 0, STACK
        LOCFRAME XSTACK, 12, STACK
        LOCFRAME IOVERLAY, 0, STATIC
        LOCFRAME DOVERLAY, 0, STATIC
        ARGFRAME ISTACK, 0, STACK
        ARGFRAME PSTACK, 0, STACK
        ARGFRAME XSTACK, 12, STACK
        ARGFRAME IOVERLAY, 0, STATIC
        ARGFRAME DOVERLAY, 0, STATIC
        FUNCALL ZDApp_ProcessNetworkJoin, osal_set_event
        LOCFRAME ISTACK, 0, STACK
        LOCFRAME PSTACK, 0, STACK
        LOCFRAME XSTACK, 12, STACK
        LOCFRAME IOVERLAY, 0, STATIC
        LOCFRAME DOVERLAY, 0, STATIC
        ARGFRAME ISTACK, 0, STACK
        ARGFRAME PSTACK, 0, STACK
        ARGFRAME XSTACK, 12, STACK
        ARGFRAME IOVERLAY, 0, STATIC
        ARGFRAME DOVERLAY, 0, STATIC
        MOV     A,#-0xa
        LCALL   ?BANKED_ENTER_XDATA
        CFI DPH0 load(1, XDATA, add(CFA_XSP16, literal(-1)))
        CFI DPL0 load(1, XDATA, add(CFA_XSP16, literal(-2)))
        CFI ?BRET_EXT load(1, XDATA, add(CFA_XSP16, literal(-3)))
        CFI ?RET_HIGH load(1, XDATA, add(CFA_XSP16, literal(-4)))
        CFI ?RET_LOW load(1, XDATA, add(CFA_XSP16, literal(-5)))
        CFI R7 load(1, XDATA, add(CFA_XSP16, literal(-6)))
        CFI V1 load(1, XDATA, add(CFA_XSP16, literal(-7)))
        CFI V0 load(1, XDATA, add(CFA_XSP16, literal(-8)))
        CFI VB load(1, XDATA, add(CFA_XSP16, literal(-9)))
        CFI R6 load(1, XDATA, add(CFA_XSP16, literal(-10)))
        CFI CFA_SP SP+0
        CFI CFA_XSP16 add(XSP16, 10)
        ; Saved register size: 10
        ; Auto size: 2
        MOV     A,#-0x2
        LCALL   ?ALLOC_XSTACK8
        CFI CFA_XSP16 add(XSP16, 12)
// 1352   if ( (devState == DEV_NWK_JOINING) ||
// 1353       ((devState == DEV_NWK_ORPHAN)  &&
// 1354        (ZDO_Config_Node_Descriptor.LogicalType == NODETYPE_ROUTER)) )
        MOV     DPTR,#devState
        MOVX    A,@DPTR
        XRL     A,#0x3
        JZ      ??ZDApp_ProcessNetworkJoin_0
        MOVX    A,@DPTR
        XRL     A,#0xa
        JZ      $+5
        LJMP    ??ZDApp_ProcessNetworkJoin_1 & 0xFFFF
        MOV     DPTR,#ZDO_Config_Node_Descriptor
        MOVX    A,@DPTR
        ANL     A,#0x7
        XRL     A,#0x1
        JZ      $+5
        LJMP    ??ZDApp_ProcessNetworkJoin_2 & 0xFFFF
// 1355   {
// 1356     // Result of a Join attempt by this device.
// 1357     if ( nwkStatus == ZSuccess )
??ZDApp_ProcessNetworkJoin_0:
        MOV     DPTR,#nwkStatus
        MOVX    A,@DPTR
        JNZ     ??ZDApp_ProcessNetworkJoin_3
// 1358     {
// 1359       osal_set_event( ZDAppTaskID, ZDO_STATE_CHANGE_EVT );
        ; Setup parameters for call to function osal_set_event
        LCALL   ?Subroutine17 & 0xFFFF
// 1360 
// 1361 #if defined ( POWER_SAVING )
// 1362       osal_pwrmgr_device( PWRMGR_BATTERY );
// 1363 #endif
// 1364 
// 1365       if ( ZG_SECURE_ENABLED && ( ZDApp_RestoreNwkKey() == false ) )
// 1366       {
// 1367         // wait for auth from trust center!!
// 1368         devState = DEV_END_DEVICE_UNAUTH;
// 1369 
// 1370         // Start the reset timer for MAX UNAUTH time
// 1371         ZDApp_ResetTimerStart( 10000 );//MAX_DEVICE_UNAUTH_TIMEOUT );
// 1372       }
// 1373       else
// 1374       {
// 1375         if ( ZSTACK_ROUTER_BUILD )
// 1376         {
// 1377           if ( devState == DEV_NWK_ORPHAN 
// 1378             && ZDO_Config_Node_Descriptor.LogicalType != NODETYPE_DEVICE )
// 1379           {
// 1380             // Change NIB state to router for restore
// 1381             _NIB.nwkState = NWK_ROUTER;
// 1382           }
// 1383         }
// 1384                 
// 1385         if ( devState == DEV_NWK_JOINING )
??CrossCallReturnLabel_52:
        MOV     DPTR,#devState
        MOVX    A,@DPTR
        XRL     A,#0x3
        JNZ     ??ZDApp_ProcessNetworkJoin_4
// 1386         {
// 1387           ZDApp_AnnounceNewAddress();
        ; Setup parameters for call to function ZDApp_AnnounceNewAddress
        LCALL   ??ZDApp_AnnounceNewAddress?relay
// 1388         }
// 1389         
// 1390         devState = DEV_END_DEVICE;
??ZDApp_ProcessNetworkJoin_4:
        MOV     A,#0x6
        MOV     DPTR,#devState
        MOVX    @DPTR,A
// 1391         if ( ZSTACK_ROUTER_BUILD )
        LJMP    ??CrossCallReturnLabel_53 & 0xFFFF
// 1392         {
// 1393           // NOTE: first two parameters are not used, see NLMEDE.h for details
// 1394           if ( ZDO_Config_Node_Descriptor.LogicalType != NODETYPE_DEVICE )
// 1395           {
// 1396             NLME_StartRouterRequest( 0, 0, false );
// 1397           }
// 1398         }
// 1399       }
// 1400     }
// 1401     else
// 1402     {
// 1403       if ( (devStartMode == MODE_RESUME) && (++retryCnt >= MAX_RESUME_RETRY) )
??ZDApp_ProcessNetworkJoin_3:
        MOV     DPTR,#devStartMode
        MOVX    A,@DPTR
        XRL     A,#0x1
        JNZ     ??ZDApp_ProcessNetworkJoin_5
        MOV     DPTR,#retryCnt
        MOVX    A,@DPTR
        INC     A
        MOVX    @DPTR,A
        CLR     C
        SUBB    A,#0x3
        JC      ??ZDApp_ProcessNetworkJoin_5
// 1404       {
// 1405         if ( _NIB.nwkPanId == 0xFFFF || _NIB.nwkPanId == INVALID_PAN_ID )
        MOV     DPTR,#(_NIB + 33)
        MOVX    A,@DPTR
        XRL     A,#0xff
        JNZ     ??ZDApp_ProcessNetworkJoin_6
        INC     DPTR
        MOVX    A,@DPTR
        XRL     A,#0xff
??ZDApp_ProcessNetworkJoin_6:
        JZ      ??ZDApp_ProcessNetworkJoin_7
        MOV     DPTR,#(_NIB + 33)
        MOVX    A,@DPTR
        XRL     A,#0xfe
        JNZ     ??ZDApp_ProcessNetworkJoin_8
        INC     DPTR
        MOVX    A,@DPTR
        XRL     A,#0xff
??ZDApp_ProcessNetworkJoin_8:
        JNZ     ??ZDApp_ProcessNetworkJoin_9
// 1406           devStartMode = MODE_JOIN;
??ZDApp_ProcessNetworkJoin_7:
        CLR     A
        MOV     DPTR,#devStartMode
        SJMP    ??ZDApp_ProcessNetworkJoin_10
// 1407         else
// 1408         {
// 1409           devStartMode = MODE_REJOIN;
??ZDApp_ProcessNetworkJoin_9:
        MOV     A,#0x3
        MOV     DPTR,#devStartMode
        MOVX    @DPTR,A
// 1410           _tmpRejoinState = true;
        MOV     A,#0x1
        MOV     DPTR,#_tmpRejoinState
??ZDApp_ProcessNetworkJoin_10:
        MOVX    @DPTR,A
// 1411         }
// 1412       }
// 1413 
// 1414       if ( (NLME_GetShortAddr() != INVALID_NODE_ADDR) ||
// 1415            (_NIB.nwkDevAddress != INVALID_NODE_ADDR) )
??ZDApp_ProcessNetworkJoin_5:
        ; Setup parameters for call to function NLME_GetShortAddr
        LCALL   ??NLME_GetShortAddr?relay
        MOV     ?V0 + 0,R2
        MOV     ?V0 + 1,R3
        MOV     A,#-0x2
        XRL     A,?V0 + 0
        JNZ     ??ZDApp_ProcessNetworkJoin_11
        MOV     A,#-0x1
        XRL     A,?V0 + 1
??ZDApp_ProcessNetworkJoin_11:
        JNZ     ??ZDApp_ProcessNetworkJoin_12
        MOV     DPTR,#(_NIB + 20)
        MOVX    A,@DPTR
        XRL     A,#0xfe
        JNZ     ??ZDApp_ProcessNetworkJoin_13
        INC     DPTR
        MOVX    A,@DPTR
        XRL     A,#0xff
??ZDApp_ProcessNetworkJoin_13:
        JZ      ??ZDApp_ProcessNetworkJoin_14
// 1416       {
// 1417         uint16 addr = INVALID_NODE_ADDR;
??ZDApp_ProcessNetworkJoin_12:
        MOV     DPL,?XSP + 0
        MOV     DPH,?XSP + 1
        MOV     A,#-0x2
        MOVX    @DPTR,A
        INC     DPTR
        MOV     A,#-0x1
        MOVX    @DPTR,A
// 1418         // Invalidate nwk addr so end device does not use in its data reqs.
// 1419         _NIB.nwkDevAddress = INVALID_NODE_ADDR;
        MOV     DPTR,#(_NIB + 20)
        MOV     A,#-0x2
        MOVX    @DPTR,A
        INC     DPTR
        MOV     A,#-0x1
        LCALL   ?Subroutine12 & 0xFFFF
// 1420         ZMacSetReq( ZMacShortAddress, (uint8 *)&addr );
// 1421       }
??CrossCallReturnLabel_8:
        MOV     R1,#0x53
        LCALL   ??ZMacSetReq?relay
// 1422 
// 1423       // Clear the neighbor Table and network discovery tables.
// 1424       nwkNeighborInitTable();
??ZDApp_ProcessNetworkJoin_14:
        ; Setup parameters for call to function nwkNeighborInitTable
        LCALL   ??nwkNeighborInitTable?relay
// 1425       NLME_NwkDiscTerm();
        ; Setup parameters for call to function NLME_NwkDiscTerm
        LCALL   ??NLME_NwkDiscTerm?relay
// 1426 
// 1427       zdoDiscCounter = 1;
        MOV     A,#0x1
        MOV     DPTR,#zdoDiscCounter
        MOVX    @DPTR,A
// 1428 
// 1429 //      ZDApp_NetworkInit( (uint16)
// 1430 //                         ((NWK_START_DELAY * (osal_rand() & 0x0F)) +
// 1431 //                          (NWK_START_DELAY * 5)) );
// 1432       ZDApp_NetworkInit( (uint16)(NWK_START_DELAY
// 1433            + ((uint16)(osal_rand()& EXTENDED_JOINING_RANDOM_MASK))) );
        ; Setup parameters for call to function ZDApp_NetworkInit
        ; Setup parameters for call to function osal_rand
// 1434     }
// 1435   }
??ZDApp_ProcessNetworkJoin_15:
        LCALL   ?Subroutine25 & 0xFFFF
??CrossCallReturnLabel_28:
        SJMP    ??CrossCallReturnLabel_53
// 1436   else if ( devState == DEV_NWK_ORPHAN || devState == DEV_NWK_REJOIN )
??ZDApp_ProcessNetworkJoin_1:
        MOVX    A,@DPTR
        XRL     A,#0x4
        JNZ     ??ZDApp_ProcessNetworkJoin_16
// 1437   {
// 1438     // results of an orphaning attempt by this device
// 1439     if (nwkStatus == ZSuccess)
??ZDApp_ProcessNetworkJoin_2:
        MOV     DPTR,#nwkStatus
        MOVX    A,@DPTR
        JNZ     ??ZDApp_ProcessNetworkJoin_17
// 1440     {
// 1441       if ( ZG_SECURE_ENABLED )
// 1442       {
// 1443         ZDApp_RestoreNwkKey();
// 1444       }
// 1445       
// 1446       devState = DEV_END_DEVICE;
        LCALL   ?Subroutine8 & 0xFFFF
// 1447       osal_set_event( ZDAppTaskID, ZDO_STATE_CHANGE_EVT );
// 1448       // setup Power Manager Device
// 1449 #if defined ( POWER_SAVING )
// 1450       osal_pwrmgr_device( PWRMGR_BATTERY );
// 1451 #endif
// 1452 
// 1453       if ( ZDO_Config_Node_Descriptor.CapabilityFlags & CAPINFO_RCVR_ON_IDLE )
??CrossCallReturnLabel_1:
        MOV     DPTR,#(ZDO_Config_Node_Descriptor + 2)
        MOVX    A,@DPTR
        MOV     C,0xE0 /* A   */.3
        JNC     ??CrossCallReturnLabel_34
// 1454       {
// 1455         // The receiver is on, turn network layer polling off.
// 1456         NLME_SetPollRate( 0 );
        ; Setup parameters for call to function NLME_SetPollRate
        LCALL   ?Subroutine29 & 0xFFFF
// 1457         NLME_SetQueuedPollRate( 0 );
// 1458         NLME_SetResponseRate( 0 );
// 1459       }
// 1460 
// 1461       if ( ZSTACK_ROUTER_BUILD )
// 1462       {
// 1463         // NOTE: first two parameters are not used, see NLMEDE.h for details
// 1464         if ( ZDO_Config_Node_Descriptor.LogicalType != NODETYPE_DEVICE )
// 1465         {
// 1466           NLME_StartRouterRequest( 0, 0, false );
// 1467         }
// 1468       }
// 1469       
// 1470       ZDApp_AnnounceNewAddress();
??CrossCallReturnLabel_34:
        ; Setup parameters for call to function ZDApp_AnnounceNewAddress
        LCALL   ??ZDApp_AnnounceNewAddress?relay
        SJMP    ??CrossCallReturnLabel_53
// 1471     }
// 1472     else
// 1473     {
// 1474       if ( devStartMode == MODE_RESUME )
??ZDApp_ProcessNetworkJoin_17:
        MOV     DPTR,#devStartMode
        MOVX    A,@DPTR
        XRL     A,#0x1
        JNZ     ??ZDApp_ProcessNetworkJoin_18
// 1475       {
// 1476         if ( ++retryCnt <= MAX_RESUME_RETRY )
        MOV     DPTR,#retryCnt
        MOVX    A,@DPTR
        INC     A
        MOVX    @DPTR,A
        CLR     C
        SUBB    A,#0x4
        JNC     ??ZDApp_ProcessNetworkJoin_19
// 1477         {
// 1478           if ( _NIB.nwkPanId == 0xFFFF || _NIB.nwkPanId == INVALID_PAN_ID )
        MOV     DPTR,#(_NIB + 33)
        MOVX    A,@DPTR
        XRL     A,#0xff
        JNZ     ??ZDApp_ProcessNetworkJoin_20
        INC     DPTR
        MOVX    A,@DPTR
        XRL     A,#0xff
??ZDApp_ProcessNetworkJoin_20:
        JZ      ??ZDApp_ProcessNetworkJoin_21
        MOV     DPTR,#(_NIB + 33)
        MOVX    A,@DPTR
        XRL     A,#0xfe
        JNZ     ??ZDApp_ProcessNetworkJoin_22
        INC     DPTR
        MOVX    A,@DPTR
        XRL     A,#0xff
??ZDApp_ProcessNetworkJoin_22:
        JNZ     ??ZDApp_ProcessNetworkJoin_23
// 1479             devStartMode = MODE_JOIN;
??ZDApp_ProcessNetworkJoin_21:
        CLR     A
        MOV     DPTR,#devStartMode
??ZDApp_ProcessNetworkJoin_24:
        MOVX    @DPTR,A
        SJMP    ??ZDApp_ProcessNetworkJoin_18
// 1480           else
// 1481           {
// 1482             devStartMode = MODE_REJOIN;
??ZDApp_ProcessNetworkJoin_23:
        MOV     A,#0x3
        MOV     DPTR,#devStartMode
        MOVX    @DPTR,A
// 1483             _tmpRejoinState = true;
        MOV     A,#0x1
        MOV     DPTR,#_tmpRejoinState
        SJMP    ??ZDApp_ProcessNetworkJoin_24
// 1484           }
// 1485         }
// 1486         // Do a normal join to the network after certain times of rejoin retries
// 1487         else if( AIB_apsUseInsecureJoin == true )
??ZDApp_ProcessNetworkJoin_19:
        MOV     DPTR,#AIB_apsUseInsecureJoin
        MOVX    A,@DPTR
        XRL     A,#0x1
        JZ      ??ZDApp_ProcessNetworkJoin_21
// 1488         {
// 1489           devStartMode = MODE_JOIN;
// 1490         }
// 1491       }
// 1492 
// 1493       // Clear the neighbor Table and network discovery tables.
// 1494       nwkNeighborInitTable();
??ZDApp_ProcessNetworkJoin_18:
        ; Setup parameters for call to function nwkNeighborInitTable
        LCALL   ??nwkNeighborInitTable?relay
// 1495       NLME_NwkDiscTerm();
        ; Setup parameters for call to function NLME_NwkDiscTerm
        LCALL   ??NLME_NwkDiscTerm?relay
// 1496 
// 1497       // setup a retry for later...
// 1498       ZDApp_NetworkInit( (uint16)(NWK_START_DELAY
// 1499            + (osal_rand()& EXTENDED_JOINING_RANDOM_MASK)) );
        ; Setup parameters for call to function ZDApp_NetworkInit
        ; Setup parameters for call to function osal_rand
        SJMP    ??ZDApp_ProcessNetworkJoin_15
// 1500     }
// 1501   }
// 1502 #if defined ( ZIGBEE_STOCHASTIC_ADDRESSING )
// 1503   else
// 1504   {
// 1505     // Assume from address conflict
// 1506     if ( _NIB.nwkAddrAlloc == NWK_ADDRESSING_STOCHASTIC )
??ZDApp_ProcessNetworkJoin_16:
        MOV     DPTR,#(_NIB + 96)
        MOVX    A,@DPTR
        XRL     A,#0x2
        JNZ     ??CrossCallReturnLabel_53
// 1507     {
// 1508       // Notify the network
// 1509       ZDApp_AnnounceNewAddress();
        ; Setup parameters for call to function ZDApp_AnnounceNewAddress
        LCALL   ??ZDApp_AnnounceNewAddress?relay
// 1510       
// 1511       // Notify apps
// 1512       osal_set_event( ZDAppTaskID, ZDO_STATE_CHANGE_EVT );
        ; Setup parameters for call to function osal_set_event
        LCALL   ?Subroutine17 & 0xFFFF
// 1513     }
// 1514   }
// 1515 #endif
// 1516 }
??CrossCallReturnLabel_53:
        LJMP    ?Subroutine1 & 0xFFFF
        CFI EndBlock cfiBlock50

        RSEG BANKED_CODE:CODE:NOROOT(0)
?Subroutine29:
        CFI Block cfiCond51 Using cfiCommon0
        CFI NoFunction
        CFI Conditional ??CrossCallReturnLabel_33
        CFI R6 load(1, XDATA, add(CFA_XSP16, literal(-10)))
        CFI VB load(1, XDATA, add(CFA_XSP16, literal(-9)))
        CFI V0 load(1, XDATA, add(CFA_XSP16, literal(-8)))
        CFI V1 load(1, XDATA, add(CFA_XSP16, literal(-7)))
        CFI R7 load(1, XDATA, add(CFA_XSP16, literal(-6)))
        CFI ?RET_LOW load(1, XDATA, add(CFA_XSP16, literal(-5)))
        CFI ?RET_HIGH load(1, XDATA, add(CFA_XSP16, literal(-4)))
        CFI ?BRET_EXT load(1, XDATA, add(CFA_XSP16, literal(-3)))
        CFI DPL0 load(1, XDATA, add(CFA_XSP16, literal(-2)))
        CFI DPH0 load(1, XDATA, add(CFA_XSP16, literal(-1)))
        CFI CFA_SP SP+0
        CFI CFA_XSP16 add(XSP16, 11)
        CFI Block cfiCond52 Using cfiCommon0
        CFI (cfiCond52) NoFunction
        CFI (cfiCond52) Conditional ??CrossCallReturnLabel_34
        CFI (cfiCond52) R6 load(1, XDATA, add(CFA_XSP16, literal(-10)))
        CFI (cfiCond52) VB load(1, XDATA, add(CFA_XSP16, literal(-9)))
        CFI (cfiCond52) V0 load(1, XDATA, add(CFA_XSP16, literal(-8)))
        CFI (cfiCond52) V1 load(1, XDATA, add(CFA_XSP16, literal(-7)))
        CFI (cfiCond52) R7 load(1, XDATA, add(CFA_XSP16, literal(-6)))
        CFI (cfiCond52) ?RET_LOW load(1, XDATA, add(CFA_XSP16, literal(-5)))
        CFI (cfiCond52) ?RET_HIGH load(1, XDATA, add(CFA_XSP16, literal(-4)))
        CFI (cfiCond52) ?BRET_EXT load(1, XDATA, add(CFA_XSP16, literal(-3)))
        CFI (cfiCond52) DPL0 load(1, XDATA, add(CFA_XSP16, literal(-2)))
        CFI (cfiCond52) DPH0 load(1, XDATA, add(CFA_XSP16, literal(-1)))
        CFI (cfiCond52) CFA_SP SP+0
        CFI (cfiCond52) CFA_XSP16 add(XSP16, 12)
        CFI Block cfiPicker53 Using cfiCommon1
        CFI (cfiPicker53) NoFunction
        CFI (cfiPicker53) Picker
        MOV     R2,#0x0
        MOV     R3,#0x0
        LCALL   ??NLME_SetPollRate?relay
        ; Setup parameters for call to function NLME_SetQueuedPollRate
        ; Setup parameters for call to function NLME_SetQueuedPollRate
        MOV     R2,#0x0
        MOV     R3,#0x0
        LCALL   ??NLME_SetQueuedPollRate?relay
        ; Setup parameters for call to function NLME_SetResponseRate
        ; Setup parameters for call to function NLME_SetResponseRate
        MOV     R2,#0x0
        MOV     R3,#0x0
        LCALL   ??NLME_SetResponseRate?relay
        RET
        CFI EndBlock cfiCond51
        CFI EndBlock cfiCond52
        CFI EndBlock cfiPicker53

        RSEG BANKED_CODE:CODE:NOROOT(0)
?Subroutine25:
        CFI Block cfiCond54 Using cfiCommon0
        CFI NoFunction
        CFI Conditional ??CrossCallReturnLabel_27
        CFI R6 load(1, XDATA, add(CFA_XSP16, literal(-10)))
        CFI VB load(1, XDATA, add(CFA_XSP16, literal(-9)))
        CFI V0 load(1, XDATA, add(CFA_XSP16, literal(-8)))
        CFI V1 load(1, XDATA, add(CFA_XSP16, literal(-7)))
        CFI R7 load(1, XDATA, add(CFA_XSP16, literal(-6)))
        CFI ?RET_LOW load(1, XDATA, add(CFA_XSP16, literal(-5)))
        CFI ?RET_HIGH load(1, XDATA, add(CFA_XSP16, literal(-4)))
        CFI ?BRET_EXT load(1, XDATA, add(CFA_XSP16, literal(-3)))
        CFI DPL0 load(1, XDATA, add(CFA_XSP16, literal(-2)))
        CFI DPH0 load(1, XDATA, add(CFA_XSP16, literal(-1)))
        CFI CFA_SP SP+0
        CFI CFA_XSP16 add(XSP16, 11)
        CFI Block cfiCond55 Using cfiCommon0
        CFI (cfiCond55) NoFunction
        CFI (cfiCond55) Conditional ??CrossCallReturnLabel_28
        CFI (cfiCond55) R6 load(1, XDATA, add(CFA_XSP16, literal(-10)))
        CFI (cfiCond55) VB load(1, XDATA, add(CFA_XSP16, literal(-9)))
        CFI (cfiCond55) V0 load(1, XDATA, add(CFA_XSP16, literal(-8)))
        CFI (cfiCond55) V1 load(1, XDATA, add(CFA_XSP16, literal(-7)))
        CFI (cfiCond55) R7 load(1, XDATA, add(CFA_XSP16, literal(-6)))
        CFI (cfiCond55) ?RET_LOW load(1, XDATA, add(CFA_XSP16, literal(-5)))
        CFI (cfiCond55) ?RET_HIGH load(1, XDATA, add(CFA_XSP16, literal(-4)))
        CFI (cfiCond55) ?BRET_EXT load(1, XDATA, add(CFA_XSP16, literal(-3)))
        CFI (cfiCond55) DPL0 load(1, XDATA, add(CFA_XSP16, literal(-2)))
        CFI (cfiCond55) DPH0 load(1, XDATA, add(CFA_XSP16, literal(-1)))
        CFI (cfiCond55) CFA_SP SP+0
        CFI (cfiCond55) CFA_XSP16 add(XSP16, 12)
        CFI Block cfiPicker56 Using cfiCommon1
        CFI (cfiPicker56) NoFunction
        CFI (cfiPicker56) Picker
        LCALL   ??osal_rand?relay
        MOV     ?V0 + 0,R2
        MOV     A,#0x7f
        ANL     A,?V0 + 0
        MOV     R0,A
        MOV     A,#0x64
        ADD     A,R0
        MOV     R2,A
        MOV     R3,#0x0
        LCALL   ??ZDApp_NetworkInit?relay
        RET
        CFI EndBlock cfiCond54
        CFI EndBlock cfiCond55
        CFI EndBlock cfiPicker56

        RSEG BANKED_CODE:CODE:NOROOT(0)
?Subroutine8:
        CFI Block cfiCond57 Using cfiCommon0
        CFI NoFunction
        CFI Conditional ??CrossCallReturnLabel_0
        CFI DPL0 Frame(CFA_SP, 4)
        CFI DPH0 Frame(CFA_SP, 5)
        CFI CFA_SP SP+-5
        CFI Block cfiCond58 Using cfiCommon0
        CFI (cfiCond58) NoFunction
        CFI (cfiCond58) Conditional ??CrossCallReturnLabel_1
        CFI (cfiCond58) R6 load(1, XDATA, add(CFA_XSP16, literal(-10)))
        CFI (cfiCond58) VB load(1, XDATA, add(CFA_XSP16, literal(-9)))
        CFI (cfiCond58) V0 load(1, XDATA, add(CFA_XSP16, literal(-8)))
        CFI (cfiCond58) V1 load(1, XDATA, add(CFA_XSP16, literal(-7)))
        CFI (cfiCond58) R7 load(1, XDATA, add(CFA_XSP16, literal(-6)))
        CFI (cfiCond58) ?RET_LOW load(1, XDATA, add(CFA_XSP16, literal(-5)))
        CFI (cfiCond58) ?RET_HIGH load(1, XDATA, add(CFA_XSP16, literal(-4)))
        CFI (cfiCond58) ?BRET_EXT load(1, XDATA, add(CFA_XSP16, literal(-3)))
        CFI (cfiCond58) DPL0 load(1, XDATA, add(CFA_XSP16, literal(-2)))
        CFI (cfiCond58) DPH0 load(1, XDATA, add(CFA_XSP16, literal(-1)))
        CFI (cfiCond58) CFA_SP SP+0
        CFI (cfiCond58) CFA_XSP16 add(XSP16, 12)
        CFI Block cfiPicker59 Using cfiCommon1
        CFI (cfiPicker59) NoFunction
        CFI (cfiPicker59) Picker
        MOV     A,#0x6
        MOV     DPTR,#devState
        MOVX    @DPTR,A
        ; Setup parameters for call to function osal_set_event
        ; Setup parameters for call to function osal_set_event
        MOV     R2,#0x10
        MOV     R3,#0x0
        MOV     DPTR,#ZDAppTaskID
        MOVX    A,@DPTR
        MOV     R1,A
        LCALL   ??osal_set_event?relay
        RET
        CFI EndBlock cfiCond57
        CFI EndBlock cfiCond58
        CFI EndBlock cfiPicker59
// 1517 
// 1518 /*********************************************************************
// 1519  * @fn      ZDApp_SaveNwkKey()
// 1520  *
// 1521  * @brief   Save off the Network key information.
// 1522  *
// 1523  * @param   none
// 1524  *
// 1525  * @return  none
// 1526  */

        RSEG BANKED_CODE:CODE:NOROOT(0)
// 1527 void ZDApp_SaveNwkKey( void )
ZDApp_SaveNwkKey:
        CFI Block cfiBlock60 Using cfiCommon0
        CFI Function ZDApp_SaveNwkKey
// 1528 {
        FUNCALL ZDApp_SaveNwkKey, SSP_ReadNwkActiveKey
        LOCFRAME ISTACK, 0, STACK
        LOCFRAME PSTACK, 0, STACK
        LOCFRAME XSTACK, 33, STACK
        LOCFRAME IOVERLAY, 0, STATIC
        LOCFRAME DOVERLAY, 0, STATIC
        ARGFRAME ISTACK, 0, STACK
        ARGFRAME PSTACK, 0, STACK
        ARGFRAME XSTACK, 33, STACK
        ARGFRAME IOVERLAY, 0, STATIC
        ARGFRAME DOVERLAY, 0, STATIC
        FUNCALL ZDApp_SaveNwkKey, osal_nv_write
        LOCFRAME ISTACK, 0, STACK
        LOCFRAME PSTACK, 0, STACK
        LOCFRAME XSTACK, 37, STACK
        LOCFRAME IOVERLAY, 0, STATIC
        LOCFRAME DOVERLAY, 0, STATIC
        ARGFRAME ISTACK, 0, STACK
        ARGFRAME PSTACK, 0, STACK
        ARGFRAME XSTACK, 37, STACK
        ARGFRAME IOVERLAY, 0, STATIC
        ARGFRAME DOVERLAY, 0, STATIC
        FUNCALL ZDApp_SaveNwkKey, osal_memset
        LOCFRAME ISTACK, 0, STACK
        LOCFRAME PSTACK, 0, STACK
        LOCFRAME XSTACK, 33, STACK
        LOCFRAME IOVERLAY, 0, STATIC
        LOCFRAME DOVERLAY, 0, STATIC
        ARGFRAME ISTACK, 0, STACK
        ARGFRAME PSTACK, 0, STACK
        ARGFRAME XSTACK, 33, STACK
        ARGFRAME IOVERLAY, 0, STATIC
        ARGFRAME DOVERLAY, 0, STATIC
        MOV     A,#-0xc
        LCALL   ?BANKED_ENTER_XDATA
        CFI DPH0 load(1, XDATA, add(CFA_XSP16, literal(-1)))
        CFI DPL0 load(1, XDATA, add(CFA_XSP16, literal(-2)))
        CFI ?BRET_EXT load(1, XDATA, add(CFA_XSP16, literal(-3)))
        CFI ?RET_HIGH load(1, XDATA, add(CFA_XSP16, literal(-4)))
        CFI ?RET_LOW load(1, XDATA, add(CFA_XSP16, literal(-5)))
        CFI R7 load(1, XDATA, add(CFA_XSP16, literal(-6)))
        CFI V3 load(1, XDATA, add(CFA_XSP16, literal(-7)))
        CFI V2 load(1, XDATA, add(CFA_XSP16, literal(-8)))
        CFI V1 load(1, XDATA, add(CFA_XSP16, literal(-9)))
        CFI V0 load(1, XDATA, add(CFA_XSP16, literal(-10)))
        CFI VB load(1, XDATA, add(CFA_XSP16, literal(-11)))
        CFI R6 load(1, XDATA, add(CFA_XSP16, literal(-12)))
        CFI CFA_SP SP+0
        CFI CFA_XSP16 add(XSP16, 12)
        ; Saved register size: 12
        ; Auto size: 21
        MOV     A,#-0x15
        LCALL   ?ALLOC_XSTACK8
        CFI CFA_XSP16 add(XSP16, 33)
// 1529   nwkActiveKeyItems keyItems;
// 1530 
// 1531   SSP_ReadNwkActiveKey( &keyItems );
        ; Setup parameters for call to function SSP_ReadNwkActiveKey
        MOV     DPL,?XSP + 0
        MOV     DPH,?XSP + 1
        MOV     R2,DPL
        MOV     R3,DPH
        LCALL   ??SSP_ReadNwkActiveKey?relay
// 1532   keyItems.frameCounter++;
        MOV     DPTR,#__Constant_1
        MOV     R0,#?V0 + 0
        LCALL   ?L_MOV_X
        MOV     A,#0x11
        LCALL   ?XSTACK_DISP0_8
        MOV     R0,#?V0 + 0
        LCALL   ?L_ADD_TO_X
// 1533 
// 1534   osal_nv_write( ZCD_NV_NWKKEY, 0, sizeof( nwkActiveKeyItems ),
// 1535                 (void *)&keyItems );
        ; Setup parameters for call to function osal_nv_write
        MOV     DPL,?XSP + 0
        MOV     DPH,?XSP + 1
        MOV     ?V0 + 0,DPL
        MOV     ?V0 + 1,DPH
        MOV     R0,#?V0 + 0
        LCALL   ?PUSH_XSTACK_I_TWO
        CFI CFA_XSP16 add(XSP16, 35)
        MOV     ?V0 + 0,#0x15
        MOV     ?V0 + 1,#0x0
        MOV     R0,#?V0 + 0
        LCALL   ?PUSH_XSTACK_I_TWO
        CFI CFA_XSP16 add(XSP16, 37)
        LCALL   ?Subroutine35 & 0xFFFF
??CrossCallReturnLabel_65:
        LCALL   ?DEALLOC_XSTACK8
        CFI CFA_XSP16 add(XSP16, 33)
// 1536 
// 1537   nwkFrameCounterChanges = 0;
        MOV     DPTR,#nwkFrameCounterChanges
        CLR     A
        MOVX    @DPTR,A
        INC     DPTR
        MOVX    @DPTR,A
// 1538   
// 1539   // Clear copy in RAM before return. 
// 1540   osal_memset( &keyItems, 0x00, sizeof(keyItems) );
        ; Setup parameters for call to function osal_memset
        MOV     R4,#0x15
        MOV     R5,A
        MOV     R1,A
        MOV     DPL,?XSP + 0
        MOV     DPH,?XSP + 1
        MOV     R2,DPL
        MOV     R3,DPH
        LCALL   ??osal_memset?relay
        CFI EndBlock cfiBlock60
// 1541 
// 1542 }
        REQUIRE ?Subroutine4
        ; // Fall through to label ?Subroutine4

        RSEG BANKED_CODE:CODE:NOROOT(0)
?Subroutine4:
        CFI Block cfiBlock61 Using cfiCommon0
        CFI NoFunction
        CFI CFA_SP SP+0
        CFI CFA_XSP16 add(XSP16, 33)
        CFI VB load(1, XDATA, add(CFA_XSP16, literal(-11)))
        CFI DPL0 load(1, XDATA, add(CFA_XSP16, literal(-2)))
        CFI DPH0 load(1, XDATA, add(CFA_XSP16, literal(-1)))
        CFI R6 load(1, XDATA, add(CFA_XSP16, literal(-12)))
        CFI R7 load(1, XDATA, add(CFA_XSP16, literal(-6)))
        CFI V0 load(1, XDATA, add(CFA_XSP16, literal(-10)))
        CFI V1 load(1, XDATA, add(CFA_XSP16, literal(-9)))
        CFI V2 load(1, XDATA, add(CFA_XSP16, literal(-8)))
        CFI V3 load(1, XDATA, add(CFA_XSP16, literal(-7)))
        CFI ?BRET_EXT load(1, XDATA, add(CFA_XSP16, literal(-3)))
        CFI ?RET_HIGH load(1, XDATA, add(CFA_XSP16, literal(-4)))
        CFI ?RET_LOW load(1, XDATA, add(CFA_XSP16, literal(-5)))
        MOV     A,#0x15
        LCALL   ?DEALLOC_XSTACK8
        CFI EndBlock cfiBlock61
        REQUIRE ??Subroutine43_0
        ; // Fall through to label ??Subroutine43_0

        RSEG BANKED_CODE:CODE:NOROOT(0)
??Subroutine43_0:
        CFI Block cfiBlock62 Using cfiCommon0
        CFI NoFunction
        CFI CFA_SP SP+0
        CFI CFA_XSP16 add(XSP16, 12)
        CFI VB load(1, XDATA, add(CFA_XSP16, literal(-11)))
        CFI DPL0 load(1, XDATA, add(CFA_XSP16, literal(-2)))
        CFI DPH0 load(1, XDATA, add(CFA_XSP16, literal(-1)))
        CFI R6 load(1, XDATA, add(CFA_XSP16, literal(-12)))
        CFI R7 load(1, XDATA, add(CFA_XSP16, literal(-6)))
        CFI V0 load(1, XDATA, add(CFA_XSP16, literal(-10)))
        CFI V1 load(1, XDATA, add(CFA_XSP16, literal(-9)))
        CFI V2 load(1, XDATA, add(CFA_XSP16, literal(-8)))
        CFI V3 load(1, XDATA, add(CFA_XSP16, literal(-7)))
        CFI ?BRET_EXT load(1, XDATA, add(CFA_XSP16, literal(-3)))
        CFI ?RET_HIGH load(1, XDATA, add(CFA_XSP16, literal(-4)))
        CFI ?RET_LOW load(1, XDATA, add(CFA_XSP16, literal(-5)))
        MOV     R7,#0x4
        LJMP    ?BANKED_LEAVE_XDATA
        CFI EndBlock cfiBlock62

        RSEG BANKED_CODE:CODE:NOROOT(0)
?Subroutine35:
        CFI Block cfiCond63 Using cfiCommon0
        CFI NoFunction
        CFI Conditional ??CrossCallReturnLabel_65
        CFI R6 load(1, XDATA, add(CFA_XSP16, literal(-12)))
        CFI VB load(1, XDATA, add(CFA_XSP16, literal(-11)))
        CFI V0 load(1, XDATA, add(CFA_XSP16, literal(-10)))
        CFI V1 load(1, XDATA, add(CFA_XSP16, literal(-9)))
        CFI V2 load(1, XDATA, add(CFA_XSP16, literal(-8)))
        CFI V3 load(1, XDATA, add(CFA_XSP16, literal(-7)))
        CFI R7 load(1, XDATA, add(CFA_XSP16, literal(-6)))
        CFI ?RET_LOW load(1, XDATA, add(CFA_XSP16, literal(-5)))
        CFI ?RET_HIGH load(1, XDATA, add(CFA_XSP16, literal(-4)))
        CFI ?BRET_EXT load(1, XDATA, add(CFA_XSP16, literal(-3)))
        CFI DPL0 load(1, XDATA, add(CFA_XSP16, literal(-2)))
        CFI DPH0 load(1, XDATA, add(CFA_XSP16, literal(-1)))
        CFI CFA_SP SP+0
        CFI CFA_XSP16 add(XSP16, 37)
        CFI Block cfiCond64 Using cfiCommon0
        CFI (cfiCond64) NoFunction
        CFI (cfiCond64) Conditional ??CrossCallReturnLabel_66
        CFI (cfiCond64) R6 load(1, XDATA, add(CFA_XSP16, literal(-10)))
        CFI (cfiCond64) VB load(1, XDATA, add(CFA_XSP16, literal(-9)))
        CFI (cfiCond64) V0 load(1, XDATA, add(CFA_XSP16, literal(-8)))
        CFI (cfiCond64) V1 load(1, XDATA, add(CFA_XSP16, literal(-7)))
        CFI (cfiCond64) R7 load(1, XDATA, add(CFA_XSP16, literal(-6)))
        CFI (cfiCond64) ?RET_LOW load(1, XDATA, add(CFA_XSP16, literal(-5)))
        CFI (cfiCond64) ?RET_HIGH load(1, XDATA, add(CFA_XSP16, literal(-4)))
        CFI (cfiCond64) ?BRET_EXT load(1, XDATA, add(CFA_XSP16, literal(-3)))
        CFI (cfiCond64) DPL0 load(1, XDATA, add(CFA_XSP16, literal(-2)))
        CFI (cfiCond64) DPH0 load(1, XDATA, add(CFA_XSP16, literal(-1)))
        CFI (cfiCond64) CFA_SP SP+0
        CFI (cfiCond64) CFA_XSP16 add(XSP16, 35)
        CFI Block cfiPicker65 Using cfiCommon1
        CFI (cfiPicker65) NoFunction
        CFI (cfiPicker65) Picker
        MOV     R4,#0x0
        MOV     R5,#0x0
        MOV     R2,#-0x7e
        CFI EndBlock cfiCond63
        CFI EndBlock cfiCond64
        CFI EndBlock cfiPicker65
        REQUIRE ??Subroutine44_0
        ; // Fall through to label ??Subroutine44_0

        RSEG BANKED_CODE:CODE:NOROOT(0)
??Subroutine44_0:
        CFI Block cfiCond66 Using cfiCommon0
        CFI NoFunction
        CFI Conditional ??CrossCallReturnLabel_67
        CFI R6 load(1, XDATA, add(CFA_XSP16, literal(-10)))
        CFI VB load(1, XDATA, add(CFA_XSP16, literal(-9)))
        CFI V0 load(1, XDATA, add(CFA_XSP16, literal(-8)))
        CFI V1 load(1, XDATA, add(CFA_XSP16, literal(-7)))
        CFI R7 load(1, XDATA, add(CFA_XSP16, literal(-6)))
        CFI ?RET_LOW load(1, XDATA, add(CFA_XSP16, literal(-5)))
        CFI ?RET_HIGH load(1, XDATA, add(CFA_XSP16, literal(-4)))
        CFI ?BRET_EXT load(1, XDATA, add(CFA_XSP16, literal(-3)))
        CFI DPL0 load(1, XDATA, add(CFA_XSP16, literal(-2)))
        CFI DPH0 load(1, XDATA, add(CFA_XSP16, literal(-1)))
        CFI CFA_SP SP+0
        CFI CFA_XSP16 add(XSP16, 14)
        CFI Block cfiCond67 Using cfiCommon0
        CFI (cfiCond67) NoFunction
        CFI (cfiCond67) Conditional ??CrossCallReturnLabel_68
        CFI (cfiCond67) R6 load(1, XDATA, add(CFA_XSP16, literal(-10)))
        CFI (cfiCond67) VB load(1, XDATA, add(CFA_XSP16, literal(-9)))
        CFI (cfiCond67) V0 load(1, XDATA, add(CFA_XSP16, literal(-8)))
        CFI (cfiCond67) V1 load(1, XDATA, add(CFA_XSP16, literal(-7)))
        CFI (cfiCond67) R7 load(1, XDATA, add(CFA_XSP16, literal(-6)))
        CFI (cfiCond67) ?RET_LOW load(1, XDATA, add(CFA_XSP16, literal(-5)))
        CFI (cfiCond67) ?RET_HIGH load(1, XDATA, add(CFA_XSP16, literal(-4)))
        CFI (cfiCond67) ?BRET_EXT load(1, XDATA, add(CFA_XSP16, literal(-3)))
        CFI (cfiCond67) DPL0 load(1, XDATA, add(CFA_XSP16, literal(-2)))
        CFI (cfiCond67) DPH0 load(1, XDATA, add(CFA_XSP16, literal(-1)))
        CFI (cfiCond67) CFA_SP SP+0
        CFI (cfiCond67) CFA_XSP16 add(XSP16, 14)
        CFI Block cfiCond68 Using cfiCommon0
        CFI (cfiCond68) NoFunction
        CFI (cfiCond68) Conditional ??CrossCallReturnLabel_65
        CFI (cfiCond68) R6 load(1, XDATA, add(CFA_XSP16, literal(-12)))
        CFI (cfiCond68) VB load(1, XDATA, add(CFA_XSP16, literal(-11)))
        CFI (cfiCond68) V0 load(1, XDATA, add(CFA_XSP16, literal(-10)))
        CFI (cfiCond68) V1 load(1, XDATA, add(CFA_XSP16, literal(-9)))
        CFI (cfiCond68) V2 load(1, XDATA, add(CFA_XSP16, literal(-8)))
        CFI (cfiCond68) V3 load(1, XDATA, add(CFA_XSP16, literal(-7)))
        CFI (cfiCond68) R7 load(1, XDATA, add(CFA_XSP16, literal(-6)))
        CFI (cfiCond68) ?RET_LOW load(1, XDATA, add(CFA_XSP16, literal(-5)))
        CFI (cfiCond68) ?RET_HIGH load(1, XDATA, add(CFA_XSP16, literal(-4)))
        CFI (cfiCond68) ?BRET_EXT load(1, XDATA, add(CFA_XSP16, literal(-3)))
        CFI (cfiCond68) DPL0 load(1, XDATA, add(CFA_XSP16, literal(-2)))
        CFI (cfiCond68) DPH0 load(1, XDATA, add(CFA_XSP16, literal(-1)))
        CFI (cfiCond68) CFA_SP SP+0
        CFI (cfiCond68) CFA_XSP16 add(XSP16, 37)
        CFI Block cfiCond69 Using cfiCommon0
        CFI (cfiCond69) NoFunction
        CFI (cfiCond69) Conditional ??CrossCallReturnLabel_66
        CFI (cfiCond69) R6 load(1, XDATA, add(CFA_XSP16, literal(-10)))
        CFI (cfiCond69) VB load(1, XDATA, add(CFA_XSP16, literal(-9)))
        CFI (cfiCond69) V0 load(1, XDATA, add(CFA_XSP16, literal(-8)))
        CFI (cfiCond69) V1 load(1, XDATA, add(CFA_XSP16, literal(-7)))
        CFI (cfiCond69) R7 load(1, XDATA, add(CFA_XSP16, literal(-6)))
        CFI (cfiCond69) ?RET_LOW load(1, XDATA, add(CFA_XSP16, literal(-5)))
        CFI (cfiCond69) ?RET_HIGH load(1, XDATA, add(CFA_XSP16, literal(-4)))
        CFI (cfiCond69) ?BRET_EXT load(1, XDATA, add(CFA_XSP16, literal(-3)))
        CFI (cfiCond69) DPL0 load(1, XDATA, add(CFA_XSP16, literal(-2)))
        CFI (cfiCond69) DPH0 load(1, XDATA, add(CFA_XSP16, literal(-1)))
        CFI (cfiCond69) CFA_SP SP+0
        CFI (cfiCond69) CFA_XSP16 add(XSP16, 35)
        CFI Block cfiPicker70 Using cfiCommon1
        CFI (cfiPicker70) NoFunction
        CFI (cfiPicker70) Picker
        MOV     R3,#0x0
        LCALL   ??osal_nv_write?relay
        MOV     A,#0x4
        RET
        CFI EndBlock cfiCond66
        CFI EndBlock cfiCond67
        CFI EndBlock cfiCond68
        CFI EndBlock cfiCond69
        CFI EndBlock cfiPicker70
// 1543 
// 1544 /*********************************************************************
// 1545  * @fn      ZDApp_ResetNwkKey()
// 1546  *
// 1547  * @brief   Reset the Network key information in NV.
// 1548  *
// 1549  * @param   none
// 1550  *
// 1551  * @return  none
// 1552  */

        RSEG BANKED_CODE:CODE:NOROOT(0)
// 1553 void ZDApp_ResetNwkKey( void )
ZDApp_ResetNwkKey:
        CFI Block cfiBlock71 Using cfiCommon0
        CFI Function ZDApp_ResetNwkKey
// 1554 {
        FUNCALL ZDApp_ResetNwkKey, osal_memset
        LOCFRAME ISTACK, 0, STACK
        LOCFRAME PSTACK, 0, STACK
        LOCFRAME XSTACK, 31, STACK
        LOCFRAME IOVERLAY, 0, STATIC
        LOCFRAME DOVERLAY, 0, STATIC
        ARGFRAME ISTACK, 0, STACK
        ARGFRAME PSTACK, 0, STACK
        ARGFRAME XSTACK, 31, STACK
        ARGFRAME IOVERLAY, 0, STATIC
        ARGFRAME DOVERLAY, 0, STATIC
        FUNCALL ZDApp_ResetNwkKey, osal_nv_write
        LOCFRAME ISTACK, 0, STACK
        LOCFRAME PSTACK, 0, STACK
        LOCFRAME XSTACK, 35, STACK
        LOCFRAME IOVERLAY, 0, STATIC
        LOCFRAME DOVERLAY, 0, STATIC
        ARGFRAME ISTACK, 0, STACK
        ARGFRAME PSTACK, 0, STACK
        ARGFRAME XSTACK, 35, STACK
        ARGFRAME IOVERLAY, 0, STATIC
        ARGFRAME DOVERLAY, 0, STATIC
        MOV     A,#-0xa
        LCALL   ?BANKED_ENTER_XDATA
        CFI DPH0 load(1, XDATA, add(CFA_XSP16, literal(-1)))
        CFI DPL0 load(1, XDATA, add(CFA_XSP16, literal(-2)))
        CFI ?BRET_EXT load(1, XDATA, add(CFA_XSP16, literal(-3)))
        CFI ?RET_HIGH load(1, XDATA, add(CFA_XSP16, literal(-4)))
        CFI ?RET_LOW load(1, XDATA, add(CFA_XSP16, literal(-5)))
        CFI R7 load(1, XDATA, add(CFA_XSP16, literal(-6)))
        CFI V1 load(1, XDATA, add(CFA_XSP16, literal(-7)))
        CFI V0 load(1, XDATA, add(CFA_XSP16, literal(-8)))
        CFI VB load(1, XDATA, add(CFA_XSP16, literal(-9)))
        CFI R6 load(1, XDATA, add(CFA_XSP16, literal(-10)))
        CFI CFA_SP SP+0
        CFI CFA_XSP16 add(XSP16, 10)
        ; Saved register size: 10
        ; Auto size: 21
        MOV     A,#-0x15
        LCALL   ?ALLOC_XSTACK8
        CFI CFA_XSP16 add(XSP16, 31)
// 1555   nwkActiveKeyItems keyItems;
// 1556 
// 1557   osal_memset( &keyItems, 0, sizeof( nwkActiveKeyItems ) );
        ; Setup parameters for call to function osal_memset
        MOV     R4,#0x15
        LCALL   ?Subroutine30 & 0xFFFF
// 1558   osal_nv_write( ZCD_NV_NWKKEY, 0, sizeof( nwkActiveKeyItems ),
// 1559                 (void *)&keyItems );
??CrossCallReturnLabel_36:
        LCALL   ?PUSH_XSTACK_I_TWO
        CFI CFA_XSP16 add(XSP16, 33)
        MOV     ?V0 + 0,#0x15
        MOV     ?V0 + 1,#0x0
        MOV     R0,#?V0 + 0
        LCALL   ?PUSH_XSTACK_I_TWO
        CFI CFA_XSP16 add(XSP16, 35)
        LCALL   ?Subroutine35 & 0xFFFF
??CrossCallReturnLabel_66:
        LCALL   ?DEALLOC_XSTACK8
        CFI CFA_XSP16 add(XSP16, 31)
// 1560 }
        LJMP    ?Subroutine7 & 0xFFFF
        CFI EndBlock cfiBlock71

        RSEG BANKED_CODE:CODE:NOROOT(0)
?Subroutine30:
        CFI Block cfiCond72 Using cfiCommon0
        CFI NoFunction
        CFI Conditional ??CrossCallReturnLabel_35
        CFI R6 load(1, XDATA, add(CFA_XSP16, literal(-10)))
        CFI VB load(1, XDATA, add(CFA_XSP16, literal(-9)))
        CFI V0 load(1, XDATA, add(CFA_XSP16, literal(-8)))
        CFI V1 load(1, XDATA, add(CFA_XSP16, literal(-7)))
        CFI R7 load(1, XDATA, add(CFA_XSP16, literal(-6)))
        CFI ?RET_LOW load(1, XDATA, add(CFA_XSP16, literal(-5)))
        CFI ?RET_HIGH load(1, XDATA, add(CFA_XSP16, literal(-4)))
        CFI ?BRET_EXT load(1, XDATA, add(CFA_XSP16, literal(-3)))
        CFI DPL0 load(1, XDATA, add(CFA_XSP16, literal(-2)))
        CFI DPH0 load(1, XDATA, add(CFA_XSP16, literal(-1)))
        CFI CFA_SP SP+0
        CFI CFA_XSP16 add(XSP16, 27)
        CFI Block cfiCond73 Using cfiCommon0
        CFI (cfiCond73) NoFunction
        CFI (cfiCond73) Conditional ??CrossCallReturnLabel_36
        CFI (cfiCond73) R6 load(1, XDATA, add(CFA_XSP16, literal(-10)))
        CFI (cfiCond73) VB load(1, XDATA, add(CFA_XSP16, literal(-9)))
        CFI (cfiCond73) V0 load(1, XDATA, add(CFA_XSP16, literal(-8)))
        CFI (cfiCond73) V1 load(1, XDATA, add(CFA_XSP16, literal(-7)))
        CFI (cfiCond73) R7 load(1, XDATA, add(CFA_XSP16, literal(-6)))
        CFI (cfiCond73) ?RET_LOW load(1, XDATA, add(CFA_XSP16, literal(-5)))
        CFI (cfiCond73) ?RET_HIGH load(1, XDATA, add(CFA_XSP16, literal(-4)))
        CFI (cfiCond73) ?BRET_EXT load(1, XDATA, add(CFA_XSP16, literal(-3)))
        CFI (cfiCond73) DPL0 load(1, XDATA, add(CFA_XSP16, literal(-2)))
        CFI (cfiCond73) DPH0 load(1, XDATA, add(CFA_XSP16, literal(-1)))
        CFI (cfiCond73) CFA_SP SP+0
        CFI (cfiCond73) CFA_XSP16 add(XSP16, 31)
        CFI Block cfiPicker74 Using cfiCommon1
        CFI (cfiPicker74) NoFunction
        CFI (cfiPicker74) Picker
        MOV     R5,#0x0
        MOV     R1,#0x0
        MOV     DPL,?XSP + 0
        MOV     DPH,?XSP + 1
        MOV     R2,DPL
        MOV     R3,DPH
        LCALL   ??osal_memset?relay
        ; Setup parameters for call to function osal_nv_item_init
        ; Setup parameters for call to function osal_nv_write
        MOV     DPL,?XSP + 0
        MOV     DPH,?XSP + 1
        MOV     ?V0 + 0,DPL
        MOV     ?V0 + 1,DPH
        MOV     R0,#?V0 + 0
        RET
        CFI EndBlock cfiCond72
        CFI EndBlock cfiCond73
        CFI EndBlock cfiPicker74
// 1561 
// 1562 /*********************************************************************
// 1563  * @fn      ZDApp_RestoreNwkKey()
// 1564  *
// 1565  * @brief
// 1566  *
// 1567  *   Save off the Network key information.
// 1568  *
// 1569  * @param   none
// 1570  *
// 1571  * @return  true if restored from NV, false if not
// 1572  */

        RSEG BANKED_CODE:CODE:NOROOT(0)
// 1573 uint8 ZDApp_RestoreNwkKey( void )
ZDApp_RestoreNwkKey:
        CFI Block cfiBlock75 Using cfiCommon0
        CFI Function ZDApp_RestoreNwkKey
// 1574 {
        FUNCALL ZDApp_RestoreNwkKey, osal_nv_read
        LOCFRAME ISTACK, 0, STACK
        LOCFRAME PSTACK, 0, STACK
        LOCFRAME XSTACK, 37, STACK
        LOCFRAME IOVERLAY, 0, STATIC
        LOCFRAME DOVERLAY, 0, STATIC
        ARGFRAME ISTACK, 0, STACK
        ARGFRAME PSTACK, 0, STACK
        ARGFRAME XSTACK, 37, STACK
        ARGFRAME IOVERLAY, 0, STATIC
        ARGFRAME DOVERLAY, 0, STATIC
        FUNCALL ZDApp_RestoreNwkKey, osal_memset
        LOCFRAME ISTACK, 0, STACK
        LOCFRAME PSTACK, 0, STACK
        LOCFRAME XSTACK, 33, STACK
        LOCFRAME IOVERLAY, 0, STATIC
        LOCFRAME DOVERLAY, 0, STATIC
        ARGFRAME ISTACK, 0, STACK
        ARGFRAME PSTACK, 0, STACK
        ARGFRAME XSTACK, 33, STACK
        ARGFRAME IOVERLAY, 0, STATIC
        ARGFRAME DOVERLAY, 0, STATIC
        MOV     A,#-0xc
        LCALL   ?BANKED_ENTER_XDATA
        CFI DPH0 load(1, XDATA, add(CFA_XSP16, literal(-1)))
        CFI DPL0 load(1, XDATA, add(CFA_XSP16, literal(-2)))
        CFI ?BRET_EXT load(1, XDATA, add(CFA_XSP16, literal(-3)))
        CFI ?RET_HIGH load(1, XDATA, add(CFA_XSP16, literal(-4)))
        CFI ?RET_LOW load(1, XDATA, add(CFA_XSP16, literal(-5)))
        CFI R7 load(1, XDATA, add(CFA_XSP16, literal(-6)))
        CFI V3 load(1, XDATA, add(CFA_XSP16, literal(-7)))
        CFI V2 load(1, XDATA, add(CFA_XSP16, literal(-8)))
        CFI V1 load(1, XDATA, add(CFA_XSP16, literal(-9)))
        CFI V0 load(1, XDATA, add(CFA_XSP16, literal(-10)))
        CFI VB load(1, XDATA, add(CFA_XSP16, literal(-11)))
        CFI R6 load(1, XDATA, add(CFA_XSP16, literal(-12)))
        CFI CFA_SP SP+0
        CFI CFA_XSP16 add(XSP16, 12)
        ; Saved register size: 12
        ; Auto size: 21
        MOV     A,#-0x15
        LCALL   ?ALLOC_XSTACK8
        CFI CFA_XSP16 add(XSP16, 33)
// 1575   nwkActiveKeyItems keyItems;
// 1576   uint8 ret = false;
        MOV     R6,#0x0
// 1577 
// 1578   if ( osal_nv_read( ZCD_NV_NWKKEY, 0, sizeof(nwkActiveKeyItems), (void*)&keyItems )
// 1579       == ZSUCCESS )
        ; Setup parameters for call to function osal_nv_read
        MOV     DPL,?XSP + 0
        MOV     DPH,?XSP + 1
        MOV     ?V0 + 0,DPL
        MOV     ?V0 + 1,DPH
        MOV     R0,#?V0 + 0
        LCALL   ?PUSH_XSTACK_I_TWO
        CFI CFA_XSP16 add(XSP16, 35)
        MOV     ?V0 + 0,#0x15
        MOV     ?V0 + 1,R6
        MOV     R0,#?V0 + 0
        LCALL   ?PUSH_XSTACK_I_TWO
        CFI CFA_XSP16 add(XSP16, 37)
        MOV     R4,#0x0
        MOV     R5,#0x0
        MOV     R2,#-0x7e
        MOV     R3,#0x0
        LCALL   ??osal_nv_read?relay
        MOV     A,#0x4
        LCALL   ?DEALLOC_XSTACK8
        CFI CFA_XSP16 add(XSP16, 33)
        MOV     A,R1
        JNZ     ??ZDApp_RestoreNwkKey_0
// 1580   {
// 1581     if ( keyItems.frameCounter > 0 )
        MOV     A,#0x11
        LCALL   ?XSTACK_DISP0_8
        PUSH    DPL
        CFI CFA_SP SP+-1
        PUSH    DPH
        CFI CFA_SP SP+-2
        MOV     DPTR,#__Constant_0
        MOV     R0,#?V0 + 0
        LCALL   ?L_MOV_X
        POP     DPH
        CFI CFA_SP SP+-1
        POP     DPL
        CFI CFA_SP SP+0
        MOV     R0,#?V0 + 0
        LCALL   ?L_EQ_X
        JZ      ??ZDApp_RestoreNwkKey_1
// 1582     {
// 1583       // Restore the key information
// 1584       keyItems.frameCounter += MAX_NWK_FRAMECOUNTER_CHANGES;
        MOV     DPTR,#__Constant_3e8
        MOV     R0,#?V0 + 0
        LCALL   ?L_MOV_X
        MOV     A,#0x11
        LCALL   ?XSTACK_DISP0_8
        MOV     R0,#?V0 + 0
        LCALL   ?L_ADD_TO_X
// 1585       nwkFrameCounter = keyItems.frameCounter;
        MOV     A,#0x11
        LCALL   ?XSTACK_DISP0_8
        MOV     R0,#?V0 + 0
        LCALL   ?L_MOV_X
        MOV     DPTR,#nwkFrameCounter
        MOV     R0,#?V0 + 0
        LCALL   ?L_MOV_TO_X
// 1586       ret = true;
        INC     R6
// 1587     }
// 1588 
// 1589     // Force a save for the first frame counter increment
// 1590     nwkFrameCounterChanges = MAX_NWK_FRAMECOUNTER_CHANGES + 1;
??ZDApp_RestoreNwkKey_1:
        MOV     DPTR,#nwkFrameCounterChanges
        MOV     A,#-0x17
        MOVX    @DPTR,A
        INC     DPTR
        MOV     A,#0x3
        MOVX    @DPTR,A
// 1591   }
// 1592   // Clear copy in RAM before return. 
// 1593   osal_memset( &keyItems, 0x00, sizeof(keyItems) );
??ZDApp_RestoreNwkKey_0:
        ; Setup parameters for call to function osal_memset
        MOV     R4,#0x15
        MOV     R5,#0x0
        MOV     R1,#0x0
        MOV     DPL,?XSP + 0
        MOV     DPH,?XSP + 1
        MOV     R2,DPL
        MOV     R3,DPH
        LCALL   ??osal_memset?relay
// 1594   
// 1595   return ( ret );
        MOV     A,R6
        MOV     R1,A
        LJMP    ?Subroutine4 & 0xFFFF
        CFI EndBlock cfiBlock75
// 1596 }
// 1597 
// 1598 /*********************************************************************
// 1599  * @fn      ZDApp_ResetTimerStart
// 1600  *
// 1601  * @brief   Start the reset timer.
// 1602  *
// 1603  * @param   delay - delay time(ms) before reset
// 1604  *
// 1605  * @return  none
// 1606  */

        RSEG BANKED_CODE:CODE:NOROOT(0)
// 1607 void ZDApp_ResetTimerStart( uint16 delay )
ZDApp_ResetTimerStart:
        CFI Block cfiBlock76 Using cfiCommon0
        CFI Function ZDApp_ResetTimerStart
// 1608 {
        FUNCALL ZDApp_ResetTimerStart, osal_start_timerEx
        LOCFRAME ISTACK, 2, STACK
        LOCFRAME PSTACK, 0, STACK
        LOCFRAME XSTACK, 0, STACK
        LOCFRAME IOVERLAY, 0, STATIC
        LOCFRAME DOVERLAY, 0, STATIC
        ARGFRAME ISTACK, 2, STACK
        ARGFRAME PSTACK, 0, STACK
        ARGFRAME XSTACK, 0, STACK
        ARGFRAME IOVERLAY, 0, STATIC
        ARGFRAME DOVERLAY, 0, STATIC
        PUSH    DPL
        CFI DPL0 Frame(CFA_SP, 4)
        CFI CFA_SP SP+-4
        PUSH    DPH
        CFI DPH0 Frame(CFA_SP, 5)
        CFI CFA_SP SP+-5
        ; Saved register size: 2
        ; Auto size: 0
// 1609   // Start the rest timer
// 1610   osal_start_timerEx( ZDAppTaskID, ZDO_DEVICE_RESET, delay );
        ; Setup parameters for call to function osal_start_timerEx
        MOV     A,R2
        MOV     R4,A
        MOV     A,R3
        MOV     R5,A
        MOV     R2,#0x4
        LCALL   ?Subroutine23 & 0xFFFF
// 1611 }
??CrossCallReturnLabel_69:
        LJMP    ?Subroutine2 & 0xFFFF
        CFI EndBlock cfiBlock76

        RSEG BANKED_CODE:CODE:NOROOT(0)
?Subroutine23:
        CFI Block cfiCond77 Using cfiCommon0
        CFI NoFunction
        CFI Conditional ??CrossCallReturnLabel_69
        CFI DPL0 Frame(CFA_SP, 4)
        CFI DPH0 Frame(CFA_SP, 5)
        CFI CFA_SP SP+-5
        CFI Block cfiCond78 Using cfiCommon0
        CFI (cfiCond78) NoFunction
        CFI (cfiCond78) Conditional ??CrossCallReturnLabel_70
        CFI (cfiCond78) DPL0 Frame(CFA_SP, 4)
        CFI (cfiCond78) DPH0 Frame(CFA_SP, 5)
        CFI (cfiCond78) CFA_SP SP+-5
        CFI Block cfiPicker79 Using cfiCommon1
        CFI (cfiPicker79) NoFunction
        CFI (cfiPicker79) Picker
        MOV     R3,#0x0
        MOV     DPTR,#ZDAppTaskID
        CFI EndBlock cfiCond77
        CFI EndBlock cfiCond78
        CFI EndBlock cfiPicker79
        REQUIRE ??Subroutine45_0
        ; // Fall through to label ??Subroutine45_0

        RSEG BANKED_CODE:CODE:NOROOT(0)
??Subroutine45_0:
        CFI Block cfiCond80 Using cfiCommon0
        CFI NoFunction
        CFI Conditional ??CrossCallReturnLabel_71
        CFI R6 load(1, XDATA, add(CFA_XSP16, literal(-10)))
        CFI VB load(1, XDATA, add(CFA_XSP16, literal(-9)))
        CFI V0 load(1, XDATA, add(CFA_XSP16, literal(-8)))
        CFI V1 load(1, XDATA, add(CFA_XSP16, literal(-7)))
        CFI R7 load(1, XDATA, add(CFA_XSP16, literal(-6)))
        CFI ?RET_LOW load(1, XDATA, add(CFA_XSP16, literal(-5)))
        CFI ?RET_HIGH load(1, XDATA, add(CFA_XSP16, literal(-4)))
        CFI ?BRET_EXT load(1, XDATA, add(CFA_XSP16, literal(-3)))
        CFI DPL0 load(1, XDATA, add(CFA_XSP16, literal(-2)))
        CFI DPH0 load(1, XDATA, add(CFA_XSP16, literal(-1)))
        CFI CFA_SP SP+0
        CFI CFA_XSP16 add(XSP16, 10)
        CFI Block cfiCond81 Using cfiCommon0
        CFI (cfiCond81) NoFunction
        CFI (cfiCond81) Conditional ??CrossCallReturnLabel_69
        CFI (cfiCond81) DPL0 Frame(CFA_SP, 4)
        CFI (cfiCond81) DPH0 Frame(CFA_SP, 5)
        CFI (cfiCond81) CFA_SP SP+-5
        CFI Block cfiCond82 Using cfiCommon0
        CFI (cfiCond82) NoFunction
        CFI (cfiCond82) Conditional ??CrossCallReturnLabel_70
        CFI (cfiCond82) DPL0 Frame(CFA_SP, 4)
        CFI (cfiCond82) DPH0 Frame(CFA_SP, 5)
        CFI (cfiCond82) CFA_SP SP+-5
        CFI Block cfiPicker83 Using cfiCommon1
        CFI (cfiPicker83) NoFunction
        CFI (cfiPicker83) Picker
        MOVX    A,@DPTR
        MOV     R1,A
        LCALL   ??osal_start_timerEx?relay
        RET
        CFI EndBlock cfiCond80
        CFI EndBlock cfiCond81
        CFI EndBlock cfiCond82
        CFI EndBlock cfiPicker83
// 1612 
// 1613 /*********************************************************************
// 1614  * @fn      ZDApp_ResetTimerCancel
// 1615  *
// 1616  * @brief   Cancel the reset timer.
// 1617  *
// 1618  * @param   none
// 1619  *
// 1620  * @return  none
// 1621  */

        RSEG BANKED_CODE:CODE:NOROOT(0)
// 1622 void ZDApp_ResetTimerCancel( void )
ZDApp_ResetTimerCancel:
        CFI Block cfiBlock84 Using cfiCommon0
        CFI Function ZDApp_ResetTimerCancel
// 1623 {
        FUNCALL ZDApp_ResetTimerCancel, osal_stop_timerEx
        LOCFRAME ISTACK, 2, STACK
        LOCFRAME PSTACK, 0, STACK
        LOCFRAME XSTACK, 0, STACK
        LOCFRAME IOVERLAY, 0, STATIC
        LOCFRAME DOVERLAY, 0, STATIC
        ARGFRAME ISTACK, 2, STACK
        ARGFRAME PSTACK, 0, STACK
        ARGFRAME XSTACK, 0, STACK
        ARGFRAME IOVERLAY, 0, STATIC
        ARGFRAME DOVERLAY, 0, STATIC
        PUSH    DPL
        CFI DPL0 Frame(CFA_SP, 4)
        CFI CFA_SP SP+-4
        PUSH    DPH
        CFI DPH0 Frame(CFA_SP, 5)
        CFI CFA_SP SP+-5
        ; Saved register size: 2
        ; Auto size: 0
// 1624   // Cancel the reset timer
// 1625   osal_stop_timerEx( ZDAppTaskID, ZDO_DEVICE_RESET );
        ; Setup parameters for call to function osal_stop_timerEx
        MOV     R2,#0x4
        MOV     R3,#0x0
        MOV     DPTR,#ZDAppTaskID
        MOVX    A,@DPTR
        MOV     R1,A
        LCALL   ??osal_stop_timerEx?relay
// 1626 }
        LJMP    ?Subroutine2 & 0xFFFF
        CFI EndBlock cfiBlock84
// 1627 
// 1628 /*********************************************************************
// 1629  * @fn      ZDApp_LeaveCtrlInit
// 1630  *
// 1631  * @brief   Initialize the leave control logic.
// 1632  *
// 1633  * @param   none
// 1634  *
// 1635  * @return  none
// 1636  */

        RSEG BANKED_CODE:CODE:NOROOT(0)
// 1637 void ZDApp_LeaveCtrlInit( void )
ZDApp_LeaveCtrlInit:
        CFI Block cfiBlock85 Using cfiCommon0
        CFI Function ZDApp_LeaveCtrlInit
// 1638 {
        FUNCALL ZDApp_LeaveCtrlInit, osal_nv_item_init
        LOCFRAME ISTACK, 0, STACK
        LOCFRAME PSTACK, 0, STACK
        LOCFRAME XSTACK, 12, STACK
        LOCFRAME IOVERLAY, 0, STATIC
        LOCFRAME DOVERLAY, 0, STATIC
        ARGFRAME ISTACK, 0, STACK
        ARGFRAME PSTACK, 0, STACK
        ARGFRAME XSTACK, 12, STACK
        ARGFRAME IOVERLAY, 0, STATIC
        ARGFRAME DOVERLAY, 0, STATIC
        FUNCALL ZDApp_LeaveCtrlInit, osal_nv_read
        LOCFRAME ISTACK, 0, STACK
        LOCFRAME PSTACK, 0, STACK
        LOCFRAME XSTACK, 14, STACK
        LOCFRAME IOVERLAY, 0, STATIC
        LOCFRAME DOVERLAY, 0, STATIC
        ARGFRAME ISTACK, 0, STACK
        ARGFRAME PSTACK, 0, STACK
        ARGFRAME XSTACK, 14, STACK
        ARGFRAME IOVERLAY, 0, STATIC
        ARGFRAME DOVERLAY, 0, STATIC
        MOV     A,#-0xa
        LCALL   ?BANKED_ENTER_XDATA
        CFI DPH0 load(1, XDATA, add(CFA_XSP16, literal(-1)))
        CFI DPL0 load(1, XDATA, add(CFA_XSP16, literal(-2)))
        CFI ?BRET_EXT load(1, XDATA, add(CFA_XSP16, literal(-3)))
        CFI ?RET_HIGH load(1, XDATA, add(CFA_XSP16, literal(-4)))
        CFI ?RET_LOW load(1, XDATA, add(CFA_XSP16, literal(-5)))
        CFI R7 load(1, XDATA, add(CFA_XSP16, literal(-6)))
        CFI V1 load(1, XDATA, add(CFA_XSP16, literal(-7)))
        CFI V0 load(1, XDATA, add(CFA_XSP16, literal(-8)))
        CFI VB load(1, XDATA, add(CFA_XSP16, literal(-9)))
        CFI R6 load(1, XDATA, add(CFA_XSP16, literal(-10)))
        CFI CFA_SP SP+0
        CFI CFA_XSP16 add(XSP16, 10)
        ; Saved register size: 10
        ; Auto size: 0
// 1639   uint8 status;
// 1640 
// 1641 
// 1642   // Initialize control state
// 1643   ZDApp_LeaveCtrl = ZDAPP_LEAVE_CTRL_INIT;
        LCALL   ?Subroutine14 & 0xFFFF
// 1644 
// 1645   status = osal_nv_item_init( ZCD_NV_LEAVE_CTRL,
// 1646                               sizeof(ZDApp_LeaveCtrl),
// 1647                               &ZDApp_LeaveCtrl );
// 1648 
// 1649   if ( status == ZSUCCESS )
??CrossCallReturnLabel_10:
        LCALL   ?PUSH_XSTACK_I_TWO
        CFI CFA_XSP16 add(XSP16, 12)
        MOV     R4,#0x1
        MOV     R5,#0x0
        MOV     R2,#-0x7b
        MOV     R3,#0x0
        LCALL   ??osal_nv_item_init?relay
        MOV     A,#0x2
        LCALL   ?DEALLOC_XSTACK8
        CFI CFA_XSP16 add(XSP16, 10)
        MOV     A,R1
        JNZ     ??ZDApp_LeaveCtrlInit_0
// 1650   {
// 1651     // Read saved control
// 1652     osal_nv_read( ZCD_NV_LEAVE_CTRL,
// 1653                   0,
// 1654                   sizeof( uint8 ),
// 1655                   &ZDApp_LeaveCtrl);
        ; Setup parameters for call to function osal_nv_read
        MOV     R0,#?V0 + 0
        LCALL   ?PUSH_XSTACK_I_TWO
        CFI CFA_XSP16 add(XSP16, 12)
        MOV     ?V0 + 0,#0x1
        MOV     ?V0 + 1,#0x0
        MOV     R0,#?V0 + 0
        LCALL   ?PUSH_XSTACK_I_TWO
        CFI CFA_XSP16 add(XSP16, 14)
        MOV     R4,#0x0
        MOV     R5,#0x0
        MOV     R2,#-0x7b
        MOV     R3,#0x0
        LCALL   ??osal_nv_read?relay
        MOV     A,#0x4
        LCALL   ?DEALLOC_XSTACK8
        CFI CFA_XSP16 add(XSP16, 10)
// 1656   }
// 1657 }
??ZDApp_LeaveCtrlInit_0:
        SJMP    ??Subroutine47_0
        CFI EndBlock cfiBlock85
// 1658 
// 1659 /*********************************************************************
// 1660  * @fn      ZDApp_LeaveCtrlSet
// 1661  *
// 1662  * @brief   Set the leave control logic.
// 1663  *
// 1664  * @param   ra - reassociate flag
// 1665  *
// 1666  * @return  none
// 1667  */

        RSEG BANKED_CODE:CODE:NOROOT(0)
// 1668 void ZDApp_LeaveCtrlSet( uint8 ra )
ZDApp_LeaveCtrlSet:
        CFI Block cfiBlock86 Using cfiCommon0
        CFI Function ZDApp_LeaveCtrlSet
// 1669 {
        FUNCALL ZDApp_LeaveCtrlSet, osal_nv_write
        LOCFRAME ISTACK, 0, STACK
        LOCFRAME PSTACK, 0, STACK
        LOCFRAME XSTACK, 14, STACK
        LOCFRAME IOVERLAY, 0, STATIC
        LOCFRAME DOVERLAY, 0, STATIC
        ARGFRAME ISTACK, 0, STACK
        ARGFRAME PSTACK, 0, STACK
        ARGFRAME XSTACK, 14, STACK
        ARGFRAME IOVERLAY, 0, STATIC
        ARGFRAME DOVERLAY, 0, STATIC
        MOV     A,#-0xa
        LCALL   ?BANKED_ENTER_XDATA
        CFI DPH0 load(1, XDATA, add(CFA_XSP16, literal(-1)))
        CFI DPL0 load(1, XDATA, add(CFA_XSP16, literal(-2)))
        CFI ?BRET_EXT load(1, XDATA, add(CFA_XSP16, literal(-3)))
        CFI ?RET_HIGH load(1, XDATA, add(CFA_XSP16, literal(-4)))
        CFI ?RET_LOW load(1, XDATA, add(CFA_XSP16, literal(-5)))
        CFI R7 load(1, XDATA, add(CFA_XSP16, literal(-6)))
        CFI V1 load(1, XDATA, add(CFA_XSP16, literal(-7)))
        CFI V0 load(1, XDATA, add(CFA_XSP16, literal(-8)))
        CFI VB load(1, XDATA, add(CFA_XSP16, literal(-9)))
        CFI R6 load(1, XDATA, add(CFA_XSP16, literal(-10)))
        CFI CFA_SP SP+0
        CFI CFA_XSP16 add(XSP16, 10)
        ; Saved register size: 10
        ; Auto size: 0
        MOV     A,R1
        MOV     R6,A
// 1670   ZDApp_LeaveCtrl = ZDAPP_LEAVE_CTRL_SET;
        MOV     A,#0x1
        MOV     DPTR,#ZDApp_LeaveCtrl
        MOVX    @DPTR,A
// 1671 
// 1672   if ( ra == TRUE )
        XRL     A,R6
        JNZ     ??ZDApp_LeaveCtrlSet_0
// 1673   {
// 1674     ZDApp_LeaveCtrl |= ZDAPP_LEAVE_CTRL_RA;
        MOV     A,#0x3
        MOVX    @DPTR,A
// 1675   }
// 1676 
// 1677   // Write the leave control
// 1678   osal_nv_write( ZCD_NV_LEAVE_CTRL,
// 1679                  0,
// 1680                  sizeof( uint8 ),
// 1681                  &ZDApp_LeaveCtrl);
??ZDApp_LeaveCtrlSet_0:
        ; Setup parameters for call to function osal_nv_write
        MOV     ?V0 + 0,#(ZDApp_LeaveCtrl & 0xff)
        MOV     ?V0 + 1,#((ZDApp_LeaveCtrl >> 8) & 0xff)
        MOV     R0,#?V0 + 0
        LCALL   ?PUSH_XSTACK_I_TWO
        CFI CFA_XSP16 add(XSP16, 12)
        MOV     ?V0 + 0,#0x1
        MOV     ?V0 + 1,#0x0
        MOV     R0,#?V0 + 0
        LCALL   ?PUSH_XSTACK_I_TWO
        CFI CFA_XSP16 add(XSP16, 14)
        MOV     R4,#0x0
        MOV     R5,#0x0
        MOV     R2,#-0x7b
        LCALL   ??Subroutine44_0 & 0xFFFF
??CrossCallReturnLabel_67:
        SJMP    ??Subroutine46_0
        CFI EndBlock cfiBlock86
// 1682 }

        RSEG BANKED_CODE:CODE:NOROOT(0)
?Subroutine1:
        CFI Block cfiBlock87 Using cfiCommon0
        CFI NoFunction
        CFI CFA_SP SP+0
        CFI CFA_XSP16 add(XSP16, 12)
        CFI VB load(1, XDATA, add(CFA_XSP16, literal(-9)))
        CFI DPL0 load(1, XDATA, add(CFA_XSP16, literal(-2)))
        CFI DPH0 load(1, XDATA, add(CFA_XSP16, literal(-1)))
        CFI R6 load(1, XDATA, add(CFA_XSP16, literal(-10)))
        CFI R7 load(1, XDATA, add(CFA_XSP16, literal(-6)))
        CFI V0 load(1, XDATA, add(CFA_XSP16, literal(-8)))
        CFI V1 load(1, XDATA, add(CFA_XSP16, literal(-7)))
        CFI ?BRET_EXT load(1, XDATA, add(CFA_XSP16, literal(-3)))
        CFI ?RET_HIGH load(1, XDATA, add(CFA_XSP16, literal(-4)))
        CFI ?RET_LOW load(1, XDATA, add(CFA_XSP16, literal(-5)))
        MOV     A,#0x2
        CFI EndBlock cfiBlock87
        REQUIRE ??Subroutine46_0
        ; // Fall through to label ??Subroutine46_0

        RSEG BANKED_CODE:CODE:NOROOT(0)
??Subroutine46_0:
        CFI Block cfiBlock88 Using cfiCommon0
        CFI NoFunction
        CFI CFA_SP SP+0
        CFI CFA_XSP16 add(XSP16, 27)
        CFI VB load(1, XDATA, add(CFA_XSP16, literal(-9)))
        CFI DPL0 load(1, XDATA, add(CFA_XSP16, literal(-2)))
        CFI DPH0 load(1, XDATA, add(CFA_XSP16, literal(-1)))
        CFI R6 load(1, XDATA, add(CFA_XSP16, literal(-10)))
        CFI R7 load(1, XDATA, add(CFA_XSP16, literal(-6)))
        CFI V0 load(1, XDATA, add(CFA_XSP16, literal(-8)))
        CFI V1 load(1, XDATA, add(CFA_XSP16, literal(-7)))
        CFI ?BRET_EXT load(1, XDATA, add(CFA_XSP16, literal(-3)))
        CFI ?RET_HIGH load(1, XDATA, add(CFA_XSP16, literal(-4)))
        CFI ?RET_LOW load(1, XDATA, add(CFA_XSP16, literal(-5)))
        CFI Invalid
        LCALL   ?DEALLOC_XSTACK8
        CFI EndBlock cfiBlock88
        REQUIRE ??Subroutine47_0
        ; // Fall through to label ??Subroutine47_0

        RSEG BANKED_CODE:CODE:NOROOT(0)
??Subroutine47_0:
        CFI Block cfiBlock89 Using cfiCommon0
        CFI NoFunction
        CFI CFA_SP SP+0
        CFI CFA_XSP16 add(XSP16, 10)
        CFI VB load(1, XDATA, add(CFA_XSP16, literal(-9)))
        CFI DPL0 load(1, XDATA, add(CFA_XSP16, literal(-2)))
        CFI DPH0 load(1, XDATA, add(CFA_XSP16, literal(-1)))
        CFI R6 load(1, XDATA, add(CFA_XSP16, literal(-10)))
        CFI R7 load(1, XDATA, add(CFA_XSP16, literal(-6)))
        CFI V0 load(1, XDATA, add(CFA_XSP16, literal(-8)))
        CFI V1 load(1, XDATA, add(CFA_XSP16, literal(-7)))
        CFI ?BRET_EXT load(1, XDATA, add(CFA_XSP16, literal(-3)))
        CFI ?RET_HIGH load(1, XDATA, add(CFA_XSP16, literal(-4)))
        CFI ?RET_LOW load(1, XDATA, add(CFA_XSP16, literal(-5)))
        MOV     R7,#0x2
        LJMP    ?BANKED_LEAVE_XDATA
        CFI EndBlock cfiBlock89
// 1683 
// 1684 /*********************************************************************
// 1685  * @fn      ZDApp_LeaveCtrlBypass
// 1686  *
// 1687  * @brief   Check if NV restore should be skipped during a leave reset.
// 1688  *
// 1689  * @param   none
// 1690  *
// 1691  * @return  uint8 - (TRUE bypass:FALSE do not bypass)
// 1692  */

        RSEG BANKED_CODE:CODE:NOROOT(0)
// 1693 uint8 ZDApp_LeaveCtrlBypass( void )
ZDApp_LeaveCtrlBypass:
        CFI Block cfiBlock90 Using cfiCommon0
        CFI Function ZDApp_LeaveCtrlBypass
// 1694 {
        PUSH    DPL
        CFI DPL0 Frame(CFA_SP, 4)
        CFI CFA_SP SP+-4
        PUSH    DPH
        CFI DPH0 Frame(CFA_SP, 5)
        CFI CFA_SP SP+-5
        ; Saved register size: 2
        ; Auto size: 0
// 1695   uint8 bypass;
// 1696 
// 1697   if ( ZDApp_LeaveCtrl & ZDAPP_LEAVE_CTRL_SET )
// 1698   {
// 1699     bypass = TRUE;
// 1700   }
// 1701   else
// 1702   {
// 1703     bypass = FALSE;
// 1704   }
// 1705 
// 1706   return bypass;
        MOV     DPTR,#ZDApp_LeaveCtrl
        MOVX    A,@DPTR
        MOV     C,0xE0 /* A   */.0
        CLR     A
        MOV     0xE0 /* A   */.0,C
        MOV     R1,A
        LJMP    ?Subroutine2 & 0xFFFF
        CFI EndBlock cfiBlock90
// 1707 }
// 1708 
// 1709 /*********************************************************************
// 1710  * @fn      ZDApp_LeaveCtrlStartup
// 1711  *
// 1712  * @brief   Check for startup conditions during a leave reset.
// 1713  *
// 1714  * @param   state      - devState_t determined by leave control logic
// 1715  * @param   startDelay - startup delay
// 1716  *
// 1717  * @return  none
// 1718  */

        RSEG BANKED_CODE:CODE:NOROOT(0)
// 1719 void ZDApp_LeaveCtrlStartup( devStates_t* state, uint16* startDelay )
ZDApp_LeaveCtrlStartup:
        CFI Block cfiBlock91 Using cfiCommon0
        CFI Function ZDApp_LeaveCtrlStartup
// 1720 {
        FUNCALL ZDApp_LeaveCtrlStartup, osal_nv_write
        LOCFRAME ISTACK, 0, STACK
        LOCFRAME PSTACK, 0, STACK
        LOCFRAME XSTACK, 14, STACK
        LOCFRAME IOVERLAY, 0, STATIC
        LOCFRAME DOVERLAY, 0, STATIC
        ARGFRAME ISTACK, 0, STACK
        ARGFRAME PSTACK, 0, STACK
        ARGFRAME XSTACK, 14, STACK
        ARGFRAME IOVERLAY, 0, STATIC
        ARGFRAME DOVERLAY, 0, STATIC
        MOV     A,#-0xa
        LCALL   ?BANKED_ENTER_XDATA
        CFI DPH0 load(1, XDATA, add(CFA_XSP16, literal(-1)))
        CFI DPL0 load(1, XDATA, add(CFA_XSP16, literal(-2)))
        CFI ?BRET_EXT load(1, XDATA, add(CFA_XSP16, literal(-3)))
        CFI ?RET_HIGH load(1, XDATA, add(CFA_XSP16, literal(-4)))
        CFI ?RET_LOW load(1, XDATA, add(CFA_XSP16, literal(-5)))
        CFI R7 load(1, XDATA, add(CFA_XSP16, literal(-6)))
        CFI V1 load(1, XDATA, add(CFA_XSP16, literal(-7)))
        CFI V0 load(1, XDATA, add(CFA_XSP16, literal(-8)))
        CFI VB load(1, XDATA, add(CFA_XSP16, literal(-9)))
        CFI R6 load(1, XDATA, add(CFA_XSP16, literal(-10)))
        CFI CFA_SP SP+0
        CFI CFA_XSP16 add(XSP16, 10)
        ; Saved register size: 10
        ; Auto size: 0
// 1721   *startDelay = 0;
        MOV     DPL,R4
        MOV     DPH,R5
        CLR     A
        MOVX    @DPTR,A
        INC     DPTR
        MOVX    @DPTR,A
// 1722 
// 1723   if ( ZDApp_LeaveCtrl & ZDAPP_LEAVE_CTRL_SET )
        MOV     DPTR,#ZDApp_LeaveCtrl
        MOVX    A,@DPTR
        MOV     C,0xE0 /* A   */.0
        JNC     ??ZDApp_LeaveCtrlStartup_0
// 1724   {
// 1725     if ( ZDApp_LeaveCtrl & ZDAPP_LEAVE_CTRL_RA )
        MOV     C,0xE0 /* A   */.1
        JNC     ??ZDApp_LeaveCtrlStartup_1
// 1726     {
// 1727       *startDelay = 5000;
        MOV     DPL,R4
        MOV     DPH,R5
        MOV     A,#-0x78
        MOVX    @DPTR,A
        INC     DPTR
        MOV     A,#0x13
        SJMP    ??ZDApp_LeaveCtrlStartup_2
// 1728     }
// 1729     else
// 1730     {
// 1731       *state = DEV_HOLD;
??ZDApp_LeaveCtrlStartup_1:
        CLR     A
        MOV     DPL,R2
        MOV     DPH,R3
??ZDApp_LeaveCtrlStartup_2:
        MOVX    @DPTR,A
// 1732     }
// 1733 
// 1734     // Set leave control to initialized state
// 1735     ZDApp_LeaveCtrl = ZDAPP_LEAVE_CTRL_INIT;
        LCALL   ?Subroutine14 & 0xFFFF
// 1736 
// 1737     // Write initialized control
// 1738     osal_nv_write( ZCD_NV_LEAVE_CTRL,
// 1739                   0,
// 1740                   sizeof( uint8 ),
// 1741                   &ZDApp_LeaveCtrl);
// 1742   }
??CrossCallReturnLabel_11:
        LCALL   ?PUSH_XSTACK_I_TWO
        CFI CFA_XSP16 add(XSP16, 12)
        MOV     ?V0 + 0,#0x1
        MOV     ?V0 + 1,#0x0
        MOV     R0,#?V0 + 0
        LCALL   ?PUSH_XSTACK_I_TWO
        CFI CFA_XSP16 add(XSP16, 14)
        MOV     R4,#0x0
        MOV     R5,#0x0
        MOV     R2,#-0x7b
        LCALL   ??Subroutine44_0 & 0xFFFF
??CrossCallReturnLabel_68:
        LCALL   ?DEALLOC_XSTACK8
        CFI CFA_XSP16 add(XSP16, 10)
// 1743 }
??ZDApp_LeaveCtrlStartup_0:
        SJMP    ??Subroutine47_0
        CFI EndBlock cfiBlock91

        RSEG BANKED_CODE:CODE:NOROOT(0)
?Subroutine14:
        CFI Block cfiCond92 Using cfiCommon0
        CFI NoFunction
        CFI Conditional ??CrossCallReturnLabel_10
        CFI R6 load(1, XDATA, add(CFA_XSP16, literal(-10)))
        CFI VB load(1, XDATA, add(CFA_XSP16, literal(-9)))
        CFI V0 load(1, XDATA, add(CFA_XSP16, literal(-8)))
        CFI V1 load(1, XDATA, add(CFA_XSP16, literal(-7)))
        CFI R7 load(1, XDATA, add(CFA_XSP16, literal(-6)))
        CFI ?RET_LOW load(1, XDATA, add(CFA_XSP16, literal(-5)))
        CFI ?RET_HIGH load(1, XDATA, add(CFA_XSP16, literal(-4)))
        CFI ?BRET_EXT load(1, XDATA, add(CFA_XSP16, literal(-3)))
        CFI DPL0 load(1, XDATA, add(CFA_XSP16, literal(-2)))
        CFI DPH0 load(1, XDATA, add(CFA_XSP16, literal(-1)))
        CFI CFA_SP SP+0
        CFI CFA_XSP16 add(XSP16, 10)
        CFI Block cfiCond93 Using cfiCommon0
        CFI (cfiCond93) NoFunction
        CFI (cfiCond93) Conditional ??CrossCallReturnLabel_11
        CFI (cfiCond93) R6 load(1, XDATA, add(CFA_XSP16, literal(-10)))
        CFI (cfiCond93) VB load(1, XDATA, add(CFA_XSP16, literal(-9)))
        CFI (cfiCond93) V0 load(1, XDATA, add(CFA_XSP16, literal(-8)))
        CFI (cfiCond93) V1 load(1, XDATA, add(CFA_XSP16, literal(-7)))
        CFI (cfiCond93) R7 load(1, XDATA, add(CFA_XSP16, literal(-6)))
        CFI (cfiCond93) ?RET_LOW load(1, XDATA, add(CFA_XSP16, literal(-5)))
        CFI (cfiCond93) ?RET_HIGH load(1, XDATA, add(CFA_XSP16, literal(-4)))
        CFI (cfiCond93) ?BRET_EXT load(1, XDATA, add(CFA_XSP16, literal(-3)))
        CFI (cfiCond93) DPL0 load(1, XDATA, add(CFA_XSP16, literal(-2)))
        CFI (cfiCond93) DPH0 load(1, XDATA, add(CFA_XSP16, literal(-1)))
        CFI (cfiCond93) CFA_SP SP+0
        CFI (cfiCond93) CFA_XSP16 add(XSP16, 10)
        CFI Block cfiPicker94 Using cfiCommon1
        CFI (cfiPicker94) NoFunction
        CFI (cfiPicker94) Picker
        CLR     A
        MOV     DPTR,#ZDApp_LeaveCtrl
        MOVX    @DPTR,A
        ; Setup parameters for call to function osal_nv_item_init
        ; Setup parameters for call to function osal_nv_write
        MOV     ?V0 + 0,#(ZDApp_LeaveCtrl & 0xff)
        MOV     ?V0 + 1,#((ZDApp_LeaveCtrl >> 8) & 0xff)
        MOV     R0,#?V0 + 0
        RET
        CFI EndBlock cfiCond92
        CFI EndBlock cfiCond93
        CFI EndBlock cfiPicker94
// 1744 
// 1745 /*********************************************************************
// 1746  * @fn      ZDApp_LeaveReset
// 1747  *
// 1748  * @brief   Setup a device reset due to a leave indication/confirm.
// 1749  *
// 1750  * @param   ra - reassociate flag
// 1751  *
// 1752  * @return  none
// 1753  */

        RSEG BANKED_CODE:CODE:NOROOT(0)
// 1754 void ZDApp_LeaveReset( uint8 ra )
ZDApp_LeaveReset:
        CFI Block cfiBlock95 Using cfiCommon0
        CFI Function ZDApp_LeaveReset
// 1755 {
        FUNCALL ZDApp_LeaveReset, ZDApp_LeaveCtrlSet
        LOCFRAME ISTACK, 0, STACK
        LOCFRAME PSTACK, 0, STACK
        LOCFRAME XSTACK, 9, STACK
        LOCFRAME IOVERLAY, 0, STATIC
        LOCFRAME DOVERLAY, 0, STATIC
        ARGFRAME ISTACK, 0, STACK
        ARGFRAME PSTACK, 0, STACK
        ARGFRAME XSTACK, 9, STACK
        ARGFRAME IOVERLAY, 0, STATIC
        ARGFRAME DOVERLAY, 0, STATIC
        FUNCALL ZDApp_LeaveReset, ZDApp_ResetTimerStart
        LOCFRAME ISTACK, 0, STACK
        LOCFRAME PSTACK, 0, STACK
        LOCFRAME XSTACK, 9, STACK
        LOCFRAME IOVERLAY, 0, STATIC
        LOCFRAME DOVERLAY, 0, STATIC
        ARGFRAME ISTACK, 0, STACK
        ARGFRAME PSTACK, 0, STACK
        ARGFRAME XSTACK, 9, STACK
        ARGFRAME IOVERLAY, 0, STATIC
        ARGFRAME DOVERLAY, 0, STATIC
        MOV     A,#-0x9
        LCALL   ?BANKED_ENTER_XDATA
        CFI DPH0 load(1, XDATA, add(CFA_XSP16, literal(-1)))
        CFI DPL0 load(1, XDATA, add(CFA_XSP16, literal(-2)))
        CFI ?BRET_EXT load(1, XDATA, add(CFA_XSP16, literal(-3)))
        CFI ?RET_HIGH load(1, XDATA, add(CFA_XSP16, literal(-4)))
        CFI ?RET_LOW load(1, XDATA, add(CFA_XSP16, literal(-5)))
        CFI R7 load(1, XDATA, add(CFA_XSP16, literal(-6)))
        CFI V0 load(1, XDATA, add(CFA_XSP16, literal(-7)))
        CFI VB load(1, XDATA, add(CFA_XSP16, literal(-8)))
        CFI R6 load(1, XDATA, add(CFA_XSP16, literal(-9)))
        CFI CFA_SP SP+0
        CFI CFA_XSP16 add(XSP16, 9)
        ; Saved register size: 9
        ; Auto size: 0
// 1756   ZDApp_LeaveCtrlSet( ra );
        ; Setup parameters for call to function ZDApp_LeaveCtrlSet
        LCALL   ??ZDApp_LeaveCtrlSet?relay
// 1757 
// 1758   ZDApp_ResetTimerStart( 5000 );
        ; Setup parameters for call to function ZDApp_ResetTimerStart
        MOV     R2,#-0x78
        MOV     R3,#0x13
        LCALL   ??ZDApp_ResetTimerStart?relay
// 1759 }
        SJMP    ??Subroutine48_0
        CFI EndBlock cfiBlock95
// 1760 
// 1761 /*********************************************************************
// 1762  * @fn      ZDApp_LeaveUpdate
// 1763  *
// 1764  * @brief   Update local device data related to leaving device.
// 1765  *
// 1766  * @param   nwkAddr        - NWK address of leaving device
// 1767  * @param   extAddr        - EXT address of leaving device
// 1768  * @param   removeChildren - remove children of leaving device
// 1769  *
// 1770  * @return  none
// 1771  */

        RSEG BANKED_CODE:CODE:NOROOT(0)
// 1772 void ZDApp_LeaveUpdate( uint16 nwkAddr, uint8* extAddr,
ZDApp_LeaveUpdate:
        CFI Block cfiBlock96 Using cfiCommon0
        CFI Function ZDApp_LeaveUpdate
// 1773                         uint8 removeChildren )
// 1774 {
        ; Saved register size: 0
        ; Auto size: 0
// 1775   /*
// 1776   AddrMgrEntry_t entry;
// 1777   */
// 1778   (void)nwkAddr;  // Intentionally unreferenced parameter
// 1779 
// 1780   // Remove if child
// 1781   if ( ZSTACK_ROUTER_BUILD )
// 1782   {
// 1783     NLME_RemoveChild( extAddr, removeChildren );
// 1784   }
// 1785 
// 1786   /*
// 1787   // Set NWK address to invalid
// 1788   entry.user    = ADDRMGR_USER_DEFAULT;
// 1789   entry.nwkAddr = INVALID_NODE_ADDR;
// 1790   AddrMgrExtAddrSet( entry.extAddr, extAddr );
// 1791   AddrMgrEntryUpdate( &entry );
// 1792 
// 1793   // Check
// 1794   if ( removeChildren == TRUE )
// 1795   {
// 1796     // Set index to INVALID_NODE_ADDR to start search
// 1797     entry.index = INVALID_NODE_ADDR;
// 1798 
// 1799     // Get first entry
// 1800     AddrMgrEntryGetNext( &entry );
// 1801 
// 1802     // Remove all descendents
// 1803     while ( entry.index != INVALID_NODE_ADDR )
// 1804     {
// 1805       // Check NWK address allocation algorithm
// 1806       if ( RTG_ANCESTOR( entry.nwkAddr, thisAddr ) != 0 )
// 1807       {
// 1808         // Set NWK address to invalid
// 1809         entry.nwkAddr = INVALID_NODE_ADDR;
// 1810         AddrMgrEntryUpdate( &entry );
// 1811       }
// 1812 
// 1813       // Get next entry
// 1814       AddrMgrEntryGetNext( &entry );
// 1815     }
// 1816   }
// 1817   */
// 1818 }
        LJMP    ?BRET
        CFI EndBlock cfiBlock96
// 1819 
// 1820 /*********************************************************************
// 1821  * @fn      ZDApp_NetworkDiscoveryReq
// 1822  *
// 1823  * @brief   Request a network discovery.
// 1824  *
// 1825  * @param  scanChannels - 
// 1826  * @param  scanDuration - 
// 1827  *
// 1828  * @return  ZStatus_t
// 1829  */

        RSEG BANKED_CODE:CODE:NOROOT(0)
// 1830 ZStatus_t ZDApp_NetworkDiscoveryReq( uint32 scanChannels, uint8 scanDuration)
ZDApp_NetworkDiscoveryReq:
        CFI Block cfiBlock97 Using cfiCommon0
        CFI Function ZDApp_NetworkDiscoveryReq
// 1831 {
        FUNCALL ZDApp_NetworkDiscoveryReq, NLME_NetworkDiscoveryRequest
        LOCFRAME ISTACK, 0, STACK
        LOCFRAME PSTACK, 0, STACK
        LOCFRAME XSTACK, 12, STACK
        LOCFRAME IOVERLAY, 0, STATIC
        LOCFRAME DOVERLAY, 0, STATIC
        ARGFRAME ISTACK, 0, STACK
        ARGFRAME PSTACK, 0, STACK
        ARGFRAME XSTACK, 12, STACK
        ARGFRAME IOVERLAY, 0, STATIC
        ARGFRAME DOVERLAY, 0, STATIC
        MOV     A,#-0xc
        LCALL   ?BANKED_ENTER_XDATA
        CFI DPH0 load(1, XDATA, add(CFA_XSP16, literal(-1)))
        CFI DPL0 load(1, XDATA, add(CFA_XSP16, literal(-2)))
        CFI ?BRET_EXT load(1, XDATA, add(CFA_XSP16, literal(-3)))
        CFI ?RET_HIGH load(1, XDATA, add(CFA_XSP16, literal(-4)))
        CFI ?RET_LOW load(1, XDATA, add(CFA_XSP16, literal(-5)))
        CFI R7 load(1, XDATA, add(CFA_XSP16, literal(-6)))
        CFI V3 load(1, XDATA, add(CFA_XSP16, literal(-7)))
        CFI V2 load(1, XDATA, add(CFA_XSP16, literal(-8)))
        CFI V1 load(1, XDATA, add(CFA_XSP16, literal(-9)))
        CFI V0 load(1, XDATA, add(CFA_XSP16, literal(-10)))
        CFI VB load(1, XDATA, add(CFA_XSP16, literal(-11)))
        CFI R6 load(1, XDATA, add(CFA_XSP16, literal(-12)))
        CFI CFA_SP SP+0
        CFI CFA_XSP16 add(XSP16, 12)
        ; Saved register size: 12
        ; Auto size: 0
// 1832   // Setup optional filters - tbd
// 1833   
// 1834   // Request NLME network discovery
// 1835   return NLME_NetworkDiscoveryRequest(scanChannels, scanDuration);
        ; Setup parameters for call to function NLME_NetworkDiscoveryRequest
        LCALL   ??NLME_NetworkDiscoveryRequest?relay
        LJMP    ??Subroutine43_0 & 0xFFFF
        CFI EndBlock cfiBlock97
// 1836 }
// 1837 
// 1838 
// 1839 
// 1840 /*********************************************************************
// 1841  * @fn      ZDApp_JoinReq
// 1842  *
// 1843  * @brief   Request the device to join a parent in a network.
// 1844  *
// 1845  * @param   channel - 
// 1846  * @param   panID - 
// 1847  *
// 1848  * @return  ZStatus_t
// 1849  */

        RSEG BANKED_CODE:CODE:NOROOT(0)
// 1850 ZStatus_t ZDApp_JoinReq( uint8 channel, uint16 panID, uint8 *extendedPanID, 
ZDApp_JoinReq:
        CFI Block cfiBlock98 Using cfiCommon0
        CFI Function ZDApp_JoinReq
// 1851                          uint16 chosenParent, uint8 parentDepth, uint8 stackProfile )
// 1852 {  
        FUNCALL ZDApp_JoinReq, ZDApp_NodeProfileSync
        LOCFRAME ISTACK, 0, STACK
        LOCFRAME PSTACK, 0, STACK
        LOCFRAME XSTACK, 14, STACK
        LOCFRAME IOVERLAY, 0, STATIC
        LOCFRAME DOVERLAY, 0, STATIC
        ARGFRAME ISTACK, 0, STACK
        ARGFRAME PSTACK, 0, STACK
        ARGFRAME XSTACK, 14, STACK
        ARGFRAME IOVERLAY, 0, STATIC
        ARGFRAME DOVERLAY, 0, STATIC
        FUNCALL ZDApp_JoinReq, NLME_JoinRequest
        LOCFRAME ISTACK, 0, STACK
        LOCFRAME PSTACK, 0, STACK
        LOCFRAME XSTACK, 18, STACK
        LOCFRAME IOVERLAY, 0, STATIC
        LOCFRAME DOVERLAY, 0, STATIC
        ARGFRAME ISTACK, 0, STACK
        ARGFRAME PSTACK, 0, STACK
        ARGFRAME XSTACK, 18, STACK
        ARGFRAME IOVERLAY, 0, STATIC
        ARGFRAME DOVERLAY, 0, STATIC
        MOV     A,#-0xe
        LCALL   ?BANKED_ENTER_XDATA
        CFI DPH0 load(1, XDATA, add(CFA_XSP16, literal(-1)))
        CFI DPL0 load(1, XDATA, add(CFA_XSP16, literal(-2)))
        CFI ?BRET_EXT load(1, XDATA, add(CFA_XSP16, literal(-3)))
        CFI ?RET_HIGH load(1, XDATA, add(CFA_XSP16, literal(-4)))
        CFI ?RET_LOW load(1, XDATA, add(CFA_XSP16, literal(-5)))
        CFI R7 load(1, XDATA, add(CFA_XSP16, literal(-6)))
        CFI V5 load(1, XDATA, add(CFA_XSP16, literal(-7)))
        CFI V4 load(1, XDATA, add(CFA_XSP16, literal(-8)))
        CFI V3 load(1, XDATA, add(CFA_XSP16, literal(-9)))
        CFI V2 load(1, XDATA, add(CFA_XSP16, literal(-10)))
        CFI V1 load(1, XDATA, add(CFA_XSP16, literal(-11)))
        CFI V0 load(1, XDATA, add(CFA_XSP16, literal(-12)))
        CFI VB load(1, XDATA, add(CFA_XSP16, literal(-13)))
        CFI R6 load(1, XDATA, add(CFA_XSP16, literal(-14)))
        CFI CFA_SP SP+0
        CFI CFA_XSP16 add(XSP16, 14)
        ; Saved register size: 14
        ; Auto size: 0
        MOV     ?V0 + 4,R1
        MOV     ?V0 + 0,R2
        MOV     ?V0 + 1,R3
        MOV     A,R4
        MOV     R6,A
        MOV     A,R5
        MOV     R7,A
        MOV     A,#0xe
        LCALL   ?XSTACK_DISP0_8
        MOVX    A,@DPTR
        MOV     ?V0 + 2,A
        INC     DPTR
        MOVX    A,@DPTR
        MOV     ?V0 + 3,A
        MOV     A,#0x10
        LCALL   ?XSTACK_DISP0_8
        MOVX    A,@DPTR
        MOV     ?V0 + 5,A
        MOV     A,#0x11
        LCALL   ?XSTACK_DISP0_8
        MOVX    A,@DPTR
        MOV     R1,A
// 1853   // Sync up the node with the stack profile (In the case where a pro device 
// 1854   // joins a non-pro network, or verse versa)
// 1855   ZDApp_NodeProfileSync( stackProfile);
        ; Setup parameters for call to function ZDApp_NodeProfileSync
        LCALL   ??ZDApp_NodeProfileSync?relay
// 1856                 
// 1857   // Request NLME Join Request
// 1858   return NLME_JoinRequest(extendedPanID, panID,channel, 
// 1859                           ZDO_Config_Node_Descriptor.CapabilityFlags, 
// 1860                           chosenParent, parentDepth);
        ; Setup parameters for call to function NLME_JoinRequest
        MOV     R0,#?V0 + 5
        LCALL   ?PUSH_XSTACK_I_ONE
        CFI CFA_XSP16 add(XSP16, 15)
        MOV     R0,#?V0 + 2
        LCALL   ?PUSH_XSTACK_I_TWO
        CFI CFA_XSP16 add(XSP16, 17)
        MOV     DPTR,#(ZDO_Config_Node_Descriptor + 2)
        MOVX    A,@DPTR
        MOV     ?V0 + 2,A
        MOV     R0,#?V0 + 2
        LCALL   ?PUSH_XSTACK_I_ONE
        CFI CFA_XSP16 add(XSP16, 18)
        MOV     R1,?V0 + 4
        MOV     R4,?V0 + 0
        MOV     R5,?V0 + 1
        MOV     A,R6
        MOV     R2,A
        MOV     A,R7
        MOV     R3,A
        LCALL   ??NLME_JoinRequest?relay
        MOV     A,#0x4
        LCALL   ?DEALLOC_XSTACK8
        CFI EndBlock cfiBlock98
        REQUIRE ?Subroutine5
        ; // Fall through to label ?Subroutine5
// 1861 
// 1862 }

        RSEG BANKED_CODE:CODE:NOROOT(0)
?Subroutine5:
        CFI Block cfiBlock99 Using cfiCommon0
        CFI NoFunction
        CFI CFA_SP SP+0
        CFI CFA_XSP16 add(XSP16, 14)
        CFI VB load(1, XDATA, add(CFA_XSP16, literal(-13)))
        CFI DPL0 load(1, XDATA, add(CFA_XSP16, literal(-2)))
        CFI DPH0 load(1, XDATA, add(CFA_XSP16, literal(-1)))
        CFI R6 load(1, XDATA, add(CFA_XSP16, literal(-14)))
        CFI R7 load(1, XDATA, add(CFA_XSP16, literal(-6)))
        CFI V0 load(1, XDATA, add(CFA_XSP16, literal(-12)))
        CFI V1 load(1, XDATA, add(CFA_XSP16, literal(-11)))
        CFI V2 load(1, XDATA, add(CFA_XSP16, literal(-10)))
        CFI V3 load(1, XDATA, add(CFA_XSP16, literal(-9)))
        CFI V4 load(1, XDATA, add(CFA_XSP16, literal(-8)))
        CFI V5 load(1, XDATA, add(CFA_XSP16, literal(-7)))
        CFI ?BRET_EXT load(1, XDATA, add(CFA_XSP16, literal(-3)))
        CFI ?RET_HIGH load(1, XDATA, add(CFA_XSP16, literal(-4)))
        CFI ?RET_LOW load(1, XDATA, add(CFA_XSP16, literal(-5)))
        MOV     R7,#0x6
        LJMP    ?BANKED_LEAVE_XDATA
        CFI EndBlock cfiBlock99
// 1863 /*********************************************************************
// 1864  * CALLBACK FUNCTIONS
// 1865  */
// 1866 
// 1867 
// 1868 /*********************************************************************
// 1869  * @fn      ZDApp_SendEventMsg()
// 1870  *
// 1871  * @brief
// 1872  *
// 1873  *   Sends a Network Join message
// 1874  *
// 1875  * @param  cmd - command ID
// 1876  * @param  len - length (in bytes) of the buf field
// 1877  * @param  buf - buffer for the rest of the message.
// 1878  *
// 1879  * @return  none
// 1880  */

        RSEG BANKED_CODE:CODE:NOROOT(0)
// 1881 void ZDApp_SendEventMsg( uint8 cmd, uint8 len, uint8 *buf )
ZDApp_SendEventMsg:
        CFI Block cfiBlock100 Using cfiCommon0
        CFI Function ZDApp_SendEventMsg
// 1882 {
        FUNCALL ZDApp_SendEventMsg, ZDApp_SendMsg
        LOCFRAME ISTACK, 0, STACK
        LOCFRAME PSTACK, 0, STACK
        LOCFRAME XSTACK, 9, STACK
        LOCFRAME IOVERLAY, 0, STATIC
        LOCFRAME DOVERLAY, 0, STATIC
        ARGFRAME ISTACK, 0, STACK
        ARGFRAME PSTACK, 0, STACK
        ARGFRAME XSTACK, 9, STACK
        ARGFRAME IOVERLAY, 0, STATIC
        ARGFRAME DOVERLAY, 0, STATIC
        MOV     A,#-0x9
        LCALL   ?BANKED_ENTER_XDATA
        CFI DPH0 load(1, XDATA, add(CFA_XSP16, literal(-1)))
        CFI DPL0 load(1, XDATA, add(CFA_XSP16, literal(-2)))
        CFI ?BRET_EXT load(1, XDATA, add(CFA_XSP16, literal(-3)))
        CFI ?RET_HIGH load(1, XDATA, add(CFA_XSP16, literal(-4)))
        CFI ?RET_LOW load(1, XDATA, add(CFA_XSP16, literal(-5)))
        CFI R7 load(1, XDATA, add(CFA_XSP16, literal(-6)))
        CFI V0 load(1, XDATA, add(CFA_XSP16, literal(-7)))
        CFI VB load(1, XDATA, add(CFA_XSP16, literal(-8)))
        CFI R6 load(1, XDATA, add(CFA_XSP16, literal(-9)))
        CFI CFA_SP SP+0
        CFI CFA_XSP16 add(XSP16, 9)
        ; Saved register size: 9
        ; Auto size: 0
        MOV     A,R1
        MOV     R6,A
        MOV     A,R2
// 1883   ZDApp_SendMsg( ZDAppTaskID, cmd, len, buf );
        ; Setup parameters for call to function ZDApp_SendMsg
        MOV     R3,A
        MOV     A,R6
        MOV     R2,A
        LCALL   ?Subroutine21 & 0xFFFF
// 1884 }
??CrossCallReturnLabel_21:
        SJMP    ??Subroutine48_0
        CFI EndBlock cfiBlock100
// 1885 
// 1886 /*********************************************************************
// 1887  * @fn      ZDApp_SendMsg()
// 1888  *
// 1889  * @brief   Sends a OSAL message
// 1890  *
// 1891  * @param  taskID - Where to send the message
// 1892  * @param  cmd - command ID
// 1893  * @param  len - length (in bytes) of the buf field
// 1894  * @param  buf - buffer for the rest of the message.
// 1895  *
// 1896  * @return  none
// 1897  */
// 1898 void ZDApp_SendMsg( uint8 taskID, uint8 cmd, uint8 len, uint8 *buf )
// 1899 {
// 1900   osal_event_hdr_t *msgPtr;
// 1901 
// 1902   // Send the address to the task
// 1903   msgPtr = (osal_event_hdr_t *)osal_msg_allocate( len );
// 1904   if ( msgPtr )
// 1905   {
// 1906     if ( (len > 0) && (buf != NULL) )
// 1907       osal_memcpy( msgPtr, buf, len );
// 1908 
// 1909     msgPtr->event = cmd;
// 1910     osal_msg_send( taskID, (uint8 *)msgPtr );
// 1911   }
// 1912 }
// 1913 
// 1914 /*********************************************************************
// 1915  * Call Back Functions from NWK  - API
// 1916  */
// 1917 
// 1918 /*********************************************************************
// 1919  * @fn          ZDO_NetworkDiscoveryConfirmCB
// 1920  *
// 1921  * @brief       This function returns a choice of PAN to join.
// 1922  *
// 1923  * @param       status - return status of the nwk discovery confirm
// 1924  *
// 1925  * @return      ZStatus_t
// 1926  */
// 1927 ZStatus_t ZDO_NetworkDiscoveryConfirmCB(uint8 status)
// 1928 {
// 1929   osal_event_hdr_t msg;
// 1930 
// 1931   // If Scan is initiated by ZDO_MGMT_NWK_DISC_REQ
// 1932   // Send ZDO_MGMT_NWK_DISC_RSP back
// 1933 #if defined ( ZDO_MGMT_NWKDISC_RESPONSE )
// 1934   if ( zdappMgmtNwkDiscReqInProgress )
// 1935   {
// 1936     zdappMgmtNwkDiscReqInProgress = false;
// 1937     ZDO_FinishProcessingMgmtNwkDiscReq();
// 1938   }
// 1939   else
// 1940 #endif
// 1941   {
// 1942     // Pass the confirm to another task if it registers the callback
// 1943     // Otherwise, pass the confirm to ZDApp.
// 1944     if (zdoCBFunc[ZDO_NWK_DISCOVERY_CNF_CBID] != NULL )
// 1945     {      
// 1946       zdoCBFunc[ZDO_NWK_DISCOVERY_CNF_CBID]( (void*)&status );
// 1947     }
// 1948     else
// 1949     {
// 1950       // Otherwise, send scan confirm to ZDApp task to proceed
// 1951       msg.status = ZDO_SUCCESS;
// 1952       ZDApp_SendMsg( ZDAppTaskID, ZDO_NWK_DISC_CNF, sizeof(osal_event_hdr_t), (uint8 *)&msg );
// 1953     }
// 1954   }
// 1955   return (ZSuccess);
// 1956 }  // ZDO_NetworkDiscoveryConfirmCB
// 1957 
// 1958 /*********************************************************************
// 1959  * @fn          ZDApp_NwkDescListProcessing
// 1960  *
// 1961  * @brief       This function process the network discovery result and select 
// 1962  *              a parent device to join itself.
// 1963  *
// 1964  * @param       none
// 1965  *
// 1966  * @return      ZStatus_t
// 1967  */
// 1968 #define STACK_PROFILE_MAX 2
// 1969 networkDesc_t* ZDApp_NwkDescListProcessing(void)
// 1970 {
// 1971   networkDesc_t *pNwkDesc;
// 1972   uint8 i, ResultCount = 0;
// 1973   uint8 stackProfile;
// 1974   uint8 stackProfilePro;
// 1975   uint8 selected;
// 1976 
// 1977   // Count the number of nwk descriptors in the list
// 1978   pNwkDesc = nwk_getNwkDescList();
// 1979   while (pNwkDesc)
// 1980   {
// 1981     ResultCount++;
// 1982     pNwkDesc = pNwkDesc->nextDesc;
// 1983   }
// 1984 
// 1985   // process discovery results
// 1986   stackProfilePro = FALSE;
// 1987   selected = FALSE; 
// 1988   
// 1989 
// 1990   for ( stackProfile = 0; stackProfile < STACK_PROFILE_MAX; stackProfile++ )
// 1991   {
// 1992     pNwkDesc = nwk_getNwkDescList();
// 1993     for ( i = 0; i < ResultCount; i++, pNwkDesc = pNwkDesc->nextDesc )
// 1994     {
// 1995       if ( zgConfigPANID != 0xFFFF )
// 1996       {
// 1997         // PAN Id is preconfigured. check if it matches
// 1998         if ( pNwkDesc->panId != zgConfigPANID )
// 1999           continue;
// 2000       }
// 2001       
// 2002       if ( nwk_ExtPANIDValid( ZDO_UseExtendedPANID) == true ) 
// 2003       {
// 2004         // If the extended Pan ID is commissioned to a non zero value
// 2005         // Only join the Pan that has match EPID
// 2006         if ( osal_ExtAddrEqual( ZDO_UseExtendedPANID, pNwkDesc->extendedPANID) == false )
// 2007           continue;
// 2008         
// 2009       }
// 2010       
// 2011       // check that network is allowing joining
// 2012       if ( ZSTACK_ROUTER_BUILD )
// 2013       {
// 2014         if ( stackProfilePro == FALSE )
// 2015         {
// 2016           if ( !pNwkDesc->routerCapacity )
// 2017           {
// 2018             continue;
// 2019           }
// 2020         }
// 2021         else
// 2022         {
// 2023           if ( !pNwkDesc->deviceCapacity )
// 2024           {
// 2025             continue;
// 2026           }
// 2027         }
// 2028       }
// 2029       else if ( ZSTACK_END_DEVICE_BUILD )
// 2030       {
// 2031         if ( !pNwkDesc->deviceCapacity )
// 2032         {
// 2033           continue;
// 2034         }
// 2035       }
// 2036       
// 2037       // check version of zigbee protocol
// 2038       if ( pNwkDesc->version != _NIB.nwkProtocolVersion )
// 2039         continue;
// 2040       
// 2041       // check version of stack profile
// 2042       if ( pNwkDesc->stackProfile != zgStackProfile  )
// 2043       {
// 2044         if ( ((zgStackProfile == HOME_CONTROLS) && (pNwkDesc->stackProfile == ZIGBEEPRO_PROFILE)) 
// 2045             || ((zgStackProfile == ZIGBEEPRO_PROFILE) && (pNwkDesc->stackProfile == HOME_CONTROLS))  )
// 2046         {
// 2047           stackProfilePro = TRUE;
// 2048         }
// 2049         
// 2050         if ( stackProfile == 0 )
// 2051         {
// 2052           continue;
// 2053         }
// 2054       }
// 2055       
// 2056       break;
// 2057     } 
// 2058     
// 2059     if (i < ResultCount)
// 2060     {
// 2061      selected = TRUE;
// 2062       break;
// 2063     }
// 2064    
// 2065     // break if selected or stack profile pro wasn't found
// 2066     if ( (selected == TRUE) || (stackProfilePro == FALSE) )
// 2067     {
// 2068       break;
// 2069     }
// 2070   }
// 2071 
// 2072   if ( i == ResultCount )
// 2073   {
// 2074     return (NULL);   // couldn't find appropriate PAN to join !
// 2075   }
// 2076   else
// 2077   {
// 2078     return (pNwkDesc);
// 2079   }
// 2080 }// ZDApp_NwkDescListProcessing()
// 2081 
// 2082 /*********************************************************************
// 2083  * @fn          ZDO_NetworkFormationConfirmCB
// 2084  *
// 2085  * @brief       This function reports the results of the request to
// 2086  *              initialize a coordinator in a network.
// 2087  *
// 2088  * @param       Status - Result of NLME_NetworkFormationRequest()
// 2089  *
// 2090  * @return      none
// 2091  */

        RSEG BANKED_CODE:CODE:NOROOT(0)
?Subroutine0:
        CFI Block cfiBlock101 Using cfiCommon0
        CFI NoFunction
        CFI CFA_SP SP+0
        CFI CFA_XSP16 add(XSP16, 9)
        CFI VB load(1, XDATA, add(CFA_XSP16, literal(-8)))
        CFI DPL0 load(1, XDATA, add(CFA_XSP16, literal(-2)))
        CFI DPH0 load(1, XDATA, add(CFA_XSP16, literal(-1)))
        CFI R6 load(1, XDATA, add(CFA_XSP16, literal(-9)))
        CFI R7 load(1, XDATA, add(CFA_XSP16, literal(-6)))
        CFI V0 load(1, XDATA, add(CFA_XSP16, literal(-7)))
        CFI ?BRET_EXT load(1, XDATA, add(CFA_XSP16, literal(-3)))
        CFI ?RET_HIGH load(1, XDATA, add(CFA_XSP16, literal(-4)))
        CFI ?RET_LOW load(1, XDATA, add(CFA_XSP16, literal(-5)))
        LCALL   ??Subroutine40_0 & 0xFFFF
        CFI EndBlock cfiBlock101
??CrossCallReturnLabel_56:
        REQUIRE ??Subroutine48_0
        ; // Fall through to label ??Subroutine48_0

        RSEG BANKED_CODE:CODE:NOROOT(0)
??Subroutine48_0:
        CFI Block cfiBlock102 Using cfiCommon0
        CFI NoFunction
        CFI CFA_SP SP+0
        CFI CFA_XSP16 add(XSP16, 9)
        CFI VB load(1, XDATA, add(CFA_XSP16, literal(-8)))
        CFI DPL0 load(1, XDATA, add(CFA_XSP16, literal(-2)))
        CFI DPH0 load(1, XDATA, add(CFA_XSP16, literal(-1)))
        CFI R6 load(1, XDATA, add(CFA_XSP16, literal(-9)))
        CFI R7 load(1, XDATA, add(CFA_XSP16, literal(-6)))
        CFI V0 load(1, XDATA, add(CFA_XSP16, literal(-7)))
        CFI ?BRET_EXT load(1, XDATA, add(CFA_XSP16, literal(-3)))
        CFI ?RET_HIGH load(1, XDATA, add(CFA_XSP16, literal(-4)))
        CFI ?RET_LOW load(1, XDATA, add(CFA_XSP16, literal(-5)))
        MOV     R7,#0x1
        LJMP    ?BANKED_LEAVE_XDATA
        CFI EndBlock cfiBlock102

        RSEG BANKED_CODE:CODE:NOROOT(0)
ZDApp_SendMsg:
        CFI Block cfiBlock103 Using cfiCommon0
        CFI Function ZDApp_SendMsg
        FUNCALL ZDApp_SendMsg, osal_msg_allocate
        LOCFRAME ISTACK, 0, STACK
        LOCFRAME PSTACK, 0, STACK
        LOCFRAME XSTACK, 16, STACK
        LOCFRAME IOVERLAY, 0, STATIC
        LOCFRAME DOVERLAY, 0, STATIC
        ARGFRAME ISTACK, 0, STACK
        ARGFRAME PSTACK, 0, STACK
        ARGFRAME XSTACK, 16, STACK
        ARGFRAME IOVERLAY, 0, STATIC
        ARGFRAME DOVERLAY, 0, STATIC
        FUNCALL ZDApp_SendMsg, osal_memcpy
        LOCFRAME ISTACK, 0, STACK
        LOCFRAME PSTACK, 0, STACK
        LOCFRAME XSTACK, 19, STACK
        LOCFRAME IOVERLAY, 0, STATIC
        LOCFRAME DOVERLAY, 0, STATIC
        ARGFRAME ISTACK, 0, STACK
        ARGFRAME PSTACK, 0, STACK
        ARGFRAME XSTACK, 19, STACK
        ARGFRAME IOVERLAY, 0, STATIC
        ARGFRAME DOVERLAY, 0, STATIC
        FUNCALL ZDApp_SendMsg, osal_msg_send
        LOCFRAME ISTACK, 0, STACK
        LOCFRAME PSTACK, 0, STACK
        LOCFRAME XSTACK, 16, STACK
        LOCFRAME IOVERLAY, 0, STATIC
        LOCFRAME DOVERLAY, 0, STATIC
        ARGFRAME ISTACK, 0, STACK
        ARGFRAME PSTACK, 0, STACK
        ARGFRAME XSTACK, 16, STACK
        ARGFRAME IOVERLAY, 0, STATIC
        ARGFRAME DOVERLAY, 0, STATIC
        MOV     A,#-0x10
        LCALL   ?BANKED_ENTER_XDATA
        CFI DPH0 load(1, XDATA, add(CFA_XSP16, literal(-1)))
        CFI DPL0 load(1, XDATA, add(CFA_XSP16, literal(-2)))
        CFI ?BRET_EXT load(1, XDATA, add(CFA_XSP16, literal(-3)))
        CFI ?RET_HIGH load(1, XDATA, add(CFA_XSP16, literal(-4)))
        CFI ?RET_LOW load(1, XDATA, add(CFA_XSP16, literal(-5)))
        CFI R7 load(1, XDATA, add(CFA_XSP16, literal(-6)))
        CFI V7 load(1, XDATA, add(CFA_XSP16, literal(-7)))
        CFI V6 load(1, XDATA, add(CFA_XSP16, literal(-8)))
        CFI V5 load(1, XDATA, add(CFA_XSP16, literal(-9)))
        CFI V4 load(1, XDATA, add(CFA_XSP16, literal(-10)))
        CFI V3 load(1, XDATA, add(CFA_XSP16, literal(-11)))
        CFI V2 load(1, XDATA, add(CFA_XSP16, literal(-12)))
        CFI V1 load(1, XDATA, add(CFA_XSP16, literal(-13)))
        CFI V0 load(1, XDATA, add(CFA_XSP16, literal(-14)))
        CFI VB load(1, XDATA, add(CFA_XSP16, literal(-15)))
        CFI R6 load(1, XDATA, add(CFA_XSP16, literal(-16)))
        CFI CFA_SP SP+0
        CFI CFA_XSP16 add(XSP16, 16)
        ; Saved register size: 16
        ; Auto size: 0
        MOV     ?V0 + 3,R1
        MOV     ?V0 + 5,R2
        MOV     ?V0 + 4,R3
        MOV     ?V0 + 0,R4
        MOV     ?V0 + 1,R5
        ; Setup parameters for call to function osal_msg_allocate
        MOV     A,R3
        MOV     R2,A
        MOV     R3,#0x0
        LCALL   ??osal_msg_allocate?relay
        MOV     ?V0 + 6,R2
        MOV     ?V0 + 7,R3
        MOV     R6,?V0 + 6
        MOV     R7,?V0 + 7
        MOV     A,R6
        JNZ     ??ZDApp_SendMsg_0
        MOV     A,R7
??ZDApp_SendMsg_0:
        JZ      ??ZDApp_SendMsg_1
        MOV     A,?V0 + 4
        JZ      ??ZDApp_SendMsg_2
        MOV     A,?V0 + 0
        JNZ     ??ZDApp_SendMsg_3
        MOV     A,?V0 + 1
??ZDApp_SendMsg_3:
        JZ      ??ZDApp_SendMsg_2
        ; Setup parameters for call to function osal_memcpy
        MOV     ?V0 + 2,#0x0
        MOV     R0,#?V0 + 0
        LCALL   ?PUSH_XSTACK_I_THREE
        CFI CFA_XSP16 add(XSP16, 19)
        MOV     R4,?V0 + 4
        MOV     R5,#0x0
        LCALL   ??osal_memcpy?relay
        MOV     A,#0x3
        LCALL   ?DEALLOC_XSTACK8
        CFI CFA_XSP16 add(XSP16, 16)
??ZDApp_SendMsg_2:
        MOV     DPL,R6
        MOV     DPH,R7
        MOV     A,?V0 + 5
        MOVX    @DPTR,A
        ; Setup parameters for call to function osal_msg_send
        MOV     A,R6
        MOV     R2,A
        MOV     A,R7
        MOV     R3,A
        MOV     R1,?V0 + 3
        LCALL   ??osal_msg_send?relay
??ZDApp_SendMsg_1:
        MOV     R7,#0x8
        LJMP    ?BANKED_LEAVE_XDATA
        CFI EndBlock cfiBlock103

        RSEG BANKED_CODE:CODE:NOROOT(0)
ZDO_NetworkDiscoveryConfirmCB:
        CFI Block cfiBlock104 Using cfiCommon0
        CFI Function ZDO_NetworkDiscoveryConfirmCB
        FUNCALL ZDO_NetworkDiscoveryConfirmCB, ZDApp_SendMsg
        LOCFRAME ISTACK, 2, STACK
        LOCFRAME PSTACK, 0, STACK
        LOCFRAME XSTACK, 3, STACK
        LOCFRAME IOVERLAY, 0, STATIC
        LOCFRAME DOVERLAY, 0, STATIC
        ARGFRAME ISTACK, 2, STACK
        ARGFRAME PSTACK, 0, STACK
        ARGFRAME XSTACK, 3, STACK
        ARGFRAME IOVERLAY, 0, STATIC
        ARGFRAME DOVERLAY, 0, STATIC
        PUSH    DPL
        CFI DPL0 Frame(CFA_SP, 4)
        CFI CFA_SP SP+-4
        PUSH    DPH
        CFI DPH0 Frame(CFA_SP, 5)
        CFI CFA_SP SP+-5
        ; Saved register size: 2
        ; Auto size: 3
        MOV     A,#-0x3
        LCALL   ?ALLOC_XSTACK8
        CFI CFA_XSP16 add(XSP16, 3)
        MOV     A,R1
        MOV     DPL,?XSP + 0
        MOV     DPH,?XSP + 1
        MOVX    @DPTR,A
        MOV     DPTR,#(zdoCBFunc + 4)
        MOVX    A,@DPTR
        JNZ     ??ZDO_NetworkDiscoveryConfirmCB_0
        INC     DPTR
        MOVX    A,@DPTR
??ZDO_NetworkDiscoveryConfirmCB_0:
        JZ      ??ZDO_NetworkDiscoveryConfirmCB_1
        ; Setup parameters for indirect call
        MOV     DPL,?XSP + 0
        MOV     DPH,?XSP + 1
        MOV     R2,DPL
        MOV     R3,DPH
        MOV     DPTR,#(zdoCBFunc + 4)
        LCALL   ?Subroutine16 & 0xFFFF
??CrossCallReturnLabel_14:
        LCALL   ?CALL_IND
        SJMP    ??CrossCallReturnLabel_22
??ZDO_NetworkDiscoveryConfirmCB_1:
        MOV     A,#0x2
        LCALL   ?XSTACK_DISP0_8
        CLR     A
        MOVX    @DPTR,A
        ; Setup parameters for call to function ZDApp_SendMsg
        MOV     A,#0x1
        LCALL   ?XSTACK_DISP0_8
        MOV     R4,DPL
        MOV     R5,DPH
        MOV     R3,#0x2
        MOV     R2,#0x1
        LCALL   ?Subroutine21 & 0xFFFF
??CrossCallReturnLabel_22:
        MOV     R1,#0x0
        MOV     A,#0x3
        LCALL   ?DEALLOC_XSTACK8
        CFI EndBlock cfiBlock104
        REQUIRE ?Subroutine2
        ; // Fall through to label ?Subroutine2

        RSEG BANKED_CODE:CODE:NOROOT(0)
?Subroutine2:
        CFI Block cfiBlock105 Using cfiCommon0
        CFI NoFunction
        CFI CFA_SP SP+-5
        CFI DPL0 Frame(CFA_SP, 4)
        CFI DPH0 Frame(CFA_SP, 5)
        POP     DPH
        CFI CFA_SP SP+-4
        CFI DPH0 SameValue
        POP     DPL
        CFI CFA_SP SP+-3
        CFI DPL0 SameValue
        LJMP    ?BRET
        CFI EndBlock cfiBlock105

        RSEG BANKED_CODE:CODE:NOROOT(0)
ZDApp_NwkDescListProcessing:
        CFI Block cfiBlock106 Using cfiCommon0
        CFI Function ZDApp_NwkDescListProcessing
        FUNCALL ZDApp_NwkDescListProcessing, nwk_getNwkDescList
        LOCFRAME ISTACK, 0, STACK
        LOCFRAME PSTACK, 0, STACK
        LOCFRAME XSTACK, 14, STACK
        LOCFRAME IOVERLAY, 0, STATIC
        LOCFRAME DOVERLAY, 0, STATIC
        ARGFRAME ISTACK, 0, STACK
        ARGFRAME PSTACK, 0, STACK
        ARGFRAME XSTACK, 14, STACK
        ARGFRAME IOVERLAY, 0, STATIC
        ARGFRAME DOVERLAY, 0, STATIC
        FUNCALL ZDApp_NwkDescListProcessing, nwk_getNwkDescList
        LOCFRAME ISTACK, 0, STACK
        LOCFRAME PSTACK, 0, STACK
        LOCFRAME XSTACK, 14, STACK
        LOCFRAME IOVERLAY, 0, STATIC
        LOCFRAME DOVERLAY, 0, STATIC
        ARGFRAME ISTACK, 0, STACK
        ARGFRAME PSTACK, 0, STACK
        ARGFRAME XSTACK, 14, STACK
        ARGFRAME IOVERLAY, 0, STATIC
        ARGFRAME DOVERLAY, 0, STATIC
        FUNCALL ZDApp_NwkDescListProcessing, nwk_ExtPANIDValid
        LOCFRAME ISTACK, 0, STACK
        LOCFRAME PSTACK, 0, STACK
        LOCFRAME XSTACK, 14, STACK
        LOCFRAME IOVERLAY, 0, STATIC
        LOCFRAME DOVERLAY, 0, STATIC
        ARGFRAME ISTACK, 0, STACK
        ARGFRAME PSTACK, 0, STACK
        ARGFRAME XSTACK, 14, STACK
        ARGFRAME IOVERLAY, 0, STATIC
        ARGFRAME DOVERLAY, 0, STATIC
        FUNCALL ZDApp_NwkDescListProcessing, sAddrExtCmp
        LOCFRAME ISTACK, 0, STACK
        LOCFRAME PSTACK, 0, STACK
        LOCFRAME XSTACK, 14, STACK
        LOCFRAME IOVERLAY, 0, STATIC
        LOCFRAME DOVERLAY, 0, STATIC
        ARGFRAME ISTACK, 0, STACK
        ARGFRAME PSTACK, 0, STACK
        ARGFRAME XSTACK, 14, STACK
        ARGFRAME IOVERLAY, 0, STATIC
        ARGFRAME DOVERLAY, 0, STATIC
        MOV     A,#-0xe
        LCALL   ?BANKED_ENTER_XDATA
        CFI DPH0 load(1, XDATA, add(CFA_XSP16, literal(-1)))
        CFI DPL0 load(1, XDATA, add(CFA_XSP16, literal(-2)))
        CFI ?BRET_EXT load(1, XDATA, add(CFA_XSP16, literal(-3)))
        CFI ?RET_HIGH load(1, XDATA, add(CFA_XSP16, literal(-4)))
        CFI ?RET_LOW load(1, XDATA, add(CFA_XSP16, literal(-5)))
        CFI R7 load(1, XDATA, add(CFA_XSP16, literal(-6)))
        CFI V5 load(1, XDATA, add(CFA_XSP16, literal(-7)))
        CFI V4 load(1, XDATA, add(CFA_XSP16, literal(-8)))
        CFI V3 load(1, XDATA, add(CFA_XSP16, literal(-9)))
        CFI V2 load(1, XDATA, add(CFA_XSP16, literal(-10)))
        CFI V1 load(1, XDATA, add(CFA_XSP16, literal(-11)))
        CFI V0 load(1, XDATA, add(CFA_XSP16, literal(-12)))
        CFI VB load(1, XDATA, add(CFA_XSP16, literal(-13)))
        CFI R6 load(1, XDATA, add(CFA_XSP16, literal(-14)))
        CFI CFA_SP SP+0
        CFI CFA_XSP16 add(XSP16, 14)
        ; Saved register size: 14
        ; Auto size: 0
        MOV     ?V0 + 0,#0x0
        ; Setup parameters for call to function nwk_getNwkDescList
        LCALL   ??nwk_getNwkDescList?relay
        MOV     ?V0 + 2,R2
        MOV     ?V0 + 3,R3
        MOV     R6,?V0 + 2
        MOV     R7,?V0 + 3
        SJMP    ??CrossCallReturnLabel_73
??ZDApp_NwkDescListProcessing_0:
        INC     ?V0 + 0
        LCALL   ?Subroutine22 & 0xFFFF
??CrossCallReturnLabel_73:
        MOV     A,R6
        JNZ     ??ZDApp_NwkDescListProcessing_1
        MOV     A,R7
??ZDApp_NwkDescListProcessing_1:
        JNZ     ??ZDApp_NwkDescListProcessing_0
        MOV     ?V0 + 3,#0x0
        MOV     ?V0 + 1,#0x0
??ZDApp_NwkDescListProcessing_2:
        ; Setup parameters for call to function nwk_getNwkDescList
        LCALL   ??nwk_getNwkDescList?relay
        MOV     ?V0 + 4,R2
        MOV     ?V0 + 5,R3
        MOV     R6,?V0 + 4
        MOV     R7,?V0 + 5
        MOV     ?V0 + 2,#0x0
        SJMP    ??CrossCallReturnLabel_74
??ZDApp_NwkDescListProcessing_3:
        MOVX    A,@DPTR
        XRL     A,#0x2
        JNZ     ??ZDApp_NwkDescListProcessing_4
        MOV     DPL,R6
        MOV     DPH,R7
        INC     DPTR
        INC     DPTR
        INC     DPTR
        INC     DPTR
        INC     DPTR
        INC     DPTR
        MOVX    A,@DPTR
        XRL     A,#0x1
        JNZ     ??ZDApp_NwkDescListProcessing_4
??ZDApp_NwkDescListProcessing_5:
        MOV     ?V0 + 3,#0x1
??ZDApp_NwkDescListProcessing_4:
        MOV     A,?V0 + 1
        JZ      $+5
        LJMP    ??ZDApp_NwkDescListProcessing_6 & 0xFFFF
??ZDApp_NwkDescListProcessing_7:
        INC     ?V0 + 2
        LCALL   ?Subroutine22 & 0xFFFF
??CrossCallReturnLabel_74:
        MOV     A,?V0 + 2
        CLR     C
        SUBB    A,?V0 + 0
        JC      $+5
        LJMP    ??ZDApp_NwkDescListProcessing_8 & 0xFFFF
        MOV     DPTR,#zgConfigPANID
        MOVX    A,@DPTR
        XRL     A,#0xff
        JNZ     ??ZDApp_NwkDescListProcessing_9
        INC     DPTR
        MOVX    A,@DPTR
        XRL     A,#0xff
??ZDApp_NwkDescListProcessing_9:
        JZ      ??ZDApp_NwkDescListProcessing_10
        LCALL   ?Subroutine18 & 0xFFFF
??CrossCallReturnLabel_81:
        MOV     DPTR,#zgConfigPANID
        MOVX    A,@DPTR
        XRL     A,R0
        JNZ     ??ZDApp_NwkDescListProcessing_11
        INC     DPTR
        MOVX    A,@DPTR
        XRL     A,R1
??ZDApp_NwkDescListProcessing_11:
        JNZ     ??ZDApp_NwkDescListProcessing_7
??ZDApp_NwkDescListProcessing_10:
        ; Setup parameters for call to function nwk_ExtPANIDValid
        MOV     R2,#(ZDO_UseExtendedPANID & 0xff)
        MOV     R3,#((ZDO_UseExtendedPANID >> 8) & 0xff)
        LCALL   ??nwk_ExtPANIDValid?relay
        MOV     A,R1
        XRL     A,#0x1
        JNZ     ??ZDApp_NwkDescListProcessing_12
        ; Setup parameters for call to function sAddrExtCmp
        MOV     A,R6
        ADD     A,#0xb
        MOV     R4,A
        MOV     A,R7
        ADDC    A,#0x0
        MOV     R5,A
        MOV     R2,#(ZDO_UseExtendedPANID & 0xff)
        MOV     R3,#((ZDO_UseExtendedPANID >> 8) & 0xff)
        LCALL   ??sAddrExtCmp?relay
        MOV     A,R1
        JZ      ??ZDApp_NwkDescListProcessing_7
??ZDApp_NwkDescListProcessing_12:
        MOV     DPL,R6
        MOV     DPH,R7
        INC     DPTR
        INC     DPTR
        INC     DPTR
        INC     DPTR
        MOVX    A,@DPTR
        JZ      ??ZDApp_NwkDescListProcessing_7
        MOV     DPL,R6
        MOV     DPH,R7
        INC     DPTR
        INC     DPTR
        INC     DPTR
        INC     DPTR
        INC     DPTR
        MOVX    A,@DPTR
        MOV     R2,A
        MOV     DPTR,#(_NIB + 17)
        MOVX    A,@DPTR
        XRL     A,R2
        JNZ     ??ZDApp_NwkDescListProcessing_7
        MOV     DPL,R6
        MOV     DPH,R7
        INC     DPTR
        INC     DPTR
        INC     DPTR
        INC     DPTR
        INC     DPTR
        INC     DPTR
        MOVX    A,@DPTR
        MOV     R2,A
        MOV     DPTR,#zgStackProfile
        MOVX    A,@DPTR
        XRL     A,R2
        JZ      ??ZDApp_NwkDescListProcessing_6
        MOVX    A,@DPTR
        XRL     A,#0x1
        JZ      $+5
        LJMP    ??ZDApp_NwkDescListProcessing_3 & 0xFFFF
        MOV     DPL,R6
        MOV     DPH,R7
        INC     DPTR
        INC     DPTR
        INC     DPTR
        INC     DPTR
        INC     DPTR
        INC     DPTR
        MOVX    A,@DPTR
        XRL     A,#0x2
        JZ      $+5
        LJMP    ??ZDApp_NwkDescListProcessing_4 & 0xFFFF
        LJMP    ??ZDApp_NwkDescListProcessing_5 & 0xFFFF
??ZDApp_NwkDescListProcessing_8:
        MOV     A,?V0 + 3
        JZ      ??ZDApp_NwkDescListProcessing_13
        INC     ?V0 + 1
        MOV     A,?V0 + 1
        CLR     C
        SUBB    A,#0x2
        JNC     $+5
        LJMP    ??ZDApp_NwkDescListProcessing_2 & 0xFFFF
??ZDApp_NwkDescListProcessing_13:
        MOV     A,?V0 + 0
        XRL     A,?V0 + 2
        JNZ     ??ZDApp_NwkDescListProcessing_6
        MOV     R2,#0x0
        MOV     R3,#0x0
        SJMP    ??ZDApp_NwkDescListProcessing_14
??ZDApp_NwkDescListProcessing_6:
        MOV     A,R6
        MOV     R2,A
        MOV     A,R7
        MOV     R3,A
??ZDApp_NwkDescListProcessing_14:
        LJMP    ?Subroutine5 & 0xFFFF
        CFI EndBlock cfiBlock106

        RSEG BANKED_CODE:CODE:NOROOT(0)
?Subroutine22:
        CFI Block cfiCond107 Using cfiCommon0
        CFI NoFunction
        CFI Conditional ??CrossCallReturnLabel_73
        CFI R6 load(1, XDATA, add(CFA_XSP16, literal(-14)))
        CFI VB load(1, XDATA, add(CFA_XSP16, literal(-13)))
        CFI V0 load(1, XDATA, add(CFA_XSP16, literal(-12)))
        CFI V1 load(1, XDATA, add(CFA_XSP16, literal(-11)))
        CFI V2 load(1, XDATA, add(CFA_XSP16, literal(-10)))
        CFI V3 load(1, XDATA, add(CFA_XSP16, literal(-9)))
        CFI V4 load(1, XDATA, add(CFA_XSP16, literal(-8)))
        CFI V5 load(1, XDATA, add(CFA_XSP16, literal(-7)))
        CFI R7 load(1, XDATA, add(CFA_XSP16, literal(-6)))
        CFI ?RET_LOW load(1, XDATA, add(CFA_XSP16, literal(-5)))
        CFI ?RET_HIGH load(1, XDATA, add(CFA_XSP16, literal(-4)))
        CFI ?BRET_EXT load(1, XDATA, add(CFA_XSP16, literal(-3)))
        CFI DPL0 load(1, XDATA, add(CFA_XSP16, literal(-2)))
        CFI DPH0 load(1, XDATA, add(CFA_XSP16, literal(-1)))
        CFI CFA_SP SP+0
        CFI CFA_XSP16 add(XSP16, 14)
        CFI Block cfiCond108 Using cfiCommon0
        CFI (cfiCond108) NoFunction
        CFI (cfiCond108) Conditional ??CrossCallReturnLabel_74
        CFI (cfiCond108) R6 load(1, XDATA, add(CFA_XSP16, literal(-14)))
        CFI (cfiCond108) VB load(1, XDATA, add(CFA_XSP16, literal(-13)))
        CFI (cfiCond108) V0 load(1, XDATA, add(CFA_XSP16, literal(-12)))
        CFI (cfiCond108) V1 load(1, XDATA, add(CFA_XSP16, literal(-11)))
        CFI (cfiCond108) V2 load(1, XDATA, add(CFA_XSP16, literal(-10)))
        CFI (cfiCond108) V3 load(1, XDATA, add(CFA_XSP16, literal(-9)))
        CFI (cfiCond108) V4 load(1, XDATA, add(CFA_XSP16, literal(-8)))
        CFI (cfiCond108) V5 load(1, XDATA, add(CFA_XSP16, literal(-7)))
        CFI (cfiCond108) R7 load(1, XDATA, add(CFA_XSP16, literal(-6)))
        CFI (cfiCond108) ?RET_LOW load(1, XDATA, add(CFA_XSP16, literal(-5)))
        CFI (cfiCond108) ?RET_HIGH load(1, XDATA, add(CFA_XSP16, literal(-4)))
        CFI (cfiCond108) ?BRET_EXT load(1, XDATA, add(CFA_XSP16, literal(-3)))
        CFI (cfiCond108) DPL0 load(1, XDATA, add(CFA_XSP16, literal(-2)))
        CFI (cfiCond108) DPH0 load(1, XDATA, add(CFA_XSP16, literal(-1)))
        CFI (cfiCond108) CFA_SP SP+0
        CFI (cfiCond108) CFA_XSP16 add(XSP16, 14)
        CFI Block cfiCond109 Using cfiCommon0
        CFI (cfiCond109) NoFunction
        CFI (cfiCond109) Conditional ??CrossCallReturnLabel_75
        CFI (cfiCond109) R6 load(1, XDATA, add(CFA_XSP16, literal(-14)))
        CFI (cfiCond109) VB load(1, XDATA, add(CFA_XSP16, literal(-13)))
        CFI (cfiCond109) V0 load(1, XDATA, add(CFA_XSP16, literal(-12)))
        CFI (cfiCond109) V1 load(1, XDATA, add(CFA_XSP16, literal(-11)))
        CFI (cfiCond109) V2 load(1, XDATA, add(CFA_XSP16, literal(-10)))
        CFI (cfiCond109) V3 load(1, XDATA, add(CFA_XSP16, literal(-9)))
        CFI (cfiCond109) V4 load(1, XDATA, add(CFA_XSP16, literal(-8)))
        CFI (cfiCond109) V5 load(1, XDATA, add(CFA_XSP16, literal(-7)))
        CFI (cfiCond109) R7 load(1, XDATA, add(CFA_XSP16, literal(-6)))
        CFI (cfiCond109) ?RET_LOW load(1, XDATA, add(CFA_XSP16, literal(-5)))
        CFI (cfiCond109) ?RET_HIGH load(1, XDATA, add(CFA_XSP16, literal(-4)))
        CFI (cfiCond109) ?BRET_EXT load(1, XDATA, add(CFA_XSP16, literal(-3)))
        CFI (cfiCond109) DPL0 load(1, XDATA, add(CFA_XSP16, literal(-2)))
        CFI (cfiCond109) DPH0 load(1, XDATA, add(CFA_XSP16, literal(-1)))
        CFI (cfiCond109) CFA_SP SP+0
        CFI (cfiCond109) CFA_XSP16 add(XSP16, 14)
        CFI Block cfiPicker110 Using cfiCommon1
        CFI (cfiPicker110) NoFunction
        CFI (cfiPicker110) Picker
        MOV     A,R6
        ADD     A,#0x14
        LCALL   ??Subroutine51_0 & 0xFFFF
        CFI EndBlock cfiCond107
        CFI EndBlock cfiCond108
        CFI EndBlock cfiCond109
        CFI EndBlock cfiPicker110
??CrossCallReturnLabel_94:
        REQUIRE ??Subroutine49_0
        ; // Fall through to label ??Subroutine49_0

        RSEG BANKED_CODE:CODE:NOROOT(0)
??Subroutine49_0:
        CFI Block cfiCond111 Using cfiCommon0
        CFI NoFunction
        CFI Conditional ??CrossCallReturnLabel_72
        CFI R6 load(1, XDATA, add(CFA_XSP16, literal(-14)))
        CFI VB load(1, XDATA, add(CFA_XSP16, literal(-13)))
        CFI V0 load(1, XDATA, add(CFA_XSP16, literal(-12)))
        CFI V1 load(1, XDATA, add(CFA_XSP16, literal(-11)))
        CFI V2 load(1, XDATA, add(CFA_XSP16, literal(-10)))
        CFI V3 load(1, XDATA, add(CFA_XSP16, literal(-9)))
        CFI V4 load(1, XDATA, add(CFA_XSP16, literal(-8)))
        CFI V5 load(1, XDATA, add(CFA_XSP16, literal(-7)))
        CFI R7 load(1, XDATA, add(CFA_XSP16, literal(-6)))
        CFI ?RET_LOW load(1, XDATA, add(CFA_XSP16, literal(-5)))
        CFI ?RET_HIGH load(1, XDATA, add(CFA_XSP16, literal(-4)))
        CFI ?BRET_EXT load(1, XDATA, add(CFA_XSP16, literal(-3)))
        CFI DPL0 load(1, XDATA, add(CFA_XSP16, literal(-2)))
        CFI DPH0 load(1, XDATA, add(CFA_XSP16, literal(-1)))
        CFI CFA_SP SP+0
        CFI CFA_XSP16 add(XSP16, 14)
        CFI Block cfiCond112 Using cfiCommon0
        CFI (cfiCond112) NoFunction
        CFI (cfiCond112) Conditional ??CrossCallReturnLabel_73
        CFI (cfiCond112) R6 load(1, XDATA, add(CFA_XSP16, literal(-14)))
        CFI (cfiCond112) VB load(1, XDATA, add(CFA_XSP16, literal(-13)))
        CFI (cfiCond112) V0 load(1, XDATA, add(CFA_XSP16, literal(-12)))
        CFI (cfiCond112) V1 load(1, XDATA, add(CFA_XSP16, literal(-11)))
        CFI (cfiCond112) V2 load(1, XDATA, add(CFA_XSP16, literal(-10)))
        CFI (cfiCond112) V3 load(1, XDATA, add(CFA_XSP16, literal(-9)))
        CFI (cfiCond112) V4 load(1, XDATA, add(CFA_XSP16, literal(-8)))
        CFI (cfiCond112) V5 load(1, XDATA, add(CFA_XSP16, literal(-7)))
        CFI (cfiCond112) R7 load(1, XDATA, add(CFA_XSP16, literal(-6)))
        CFI (cfiCond112) ?RET_LOW load(1, XDATA, add(CFA_XSP16, literal(-5)))
        CFI (cfiCond112) ?RET_HIGH load(1, XDATA, add(CFA_XSP16, literal(-4)))
        CFI (cfiCond112) ?BRET_EXT load(1, XDATA, add(CFA_XSP16, literal(-3)))
        CFI (cfiCond112) DPL0 load(1, XDATA, add(CFA_XSP16, literal(-2)))
        CFI (cfiCond112) DPH0 load(1, XDATA, add(CFA_XSP16, literal(-1)))
        CFI (cfiCond112) CFA_SP SP+0
        CFI (cfiCond112) CFA_XSP16 add(XSP16, 14)
        CFI Block cfiCond113 Using cfiCommon0
        CFI (cfiCond113) NoFunction
        CFI (cfiCond113) Conditional ??CrossCallReturnLabel_74
        CFI (cfiCond113) R6 load(1, XDATA, add(CFA_XSP16, literal(-14)))
        CFI (cfiCond113) VB load(1, XDATA, add(CFA_XSP16, literal(-13)))
        CFI (cfiCond113) V0 load(1, XDATA, add(CFA_XSP16, literal(-12)))
        CFI (cfiCond113) V1 load(1, XDATA, add(CFA_XSP16, literal(-11)))
        CFI (cfiCond113) V2 load(1, XDATA, add(CFA_XSP16, literal(-10)))
        CFI (cfiCond113) V3 load(1, XDATA, add(CFA_XSP16, literal(-9)))
        CFI (cfiCond113) V4 load(1, XDATA, add(CFA_XSP16, literal(-8)))
        CFI (cfiCond113) V5 load(1, XDATA, add(CFA_XSP16, literal(-7)))
        CFI (cfiCond113) R7 load(1, XDATA, add(CFA_XSP16, literal(-6)))
        CFI (cfiCond113) ?RET_LOW load(1, XDATA, add(CFA_XSP16, literal(-5)))
        CFI (cfiCond113) ?RET_HIGH load(1, XDATA, add(CFA_XSP16, literal(-4)))
        CFI (cfiCond113) ?BRET_EXT load(1, XDATA, add(CFA_XSP16, literal(-3)))
        CFI (cfiCond113) DPL0 load(1, XDATA, add(CFA_XSP16, literal(-2)))
        CFI (cfiCond113) DPH0 load(1, XDATA, add(CFA_XSP16, literal(-1)))
        CFI (cfiCond113) CFA_SP SP+0
        CFI (cfiCond113) CFA_XSP16 add(XSP16, 14)
        CFI Block cfiCond114 Using cfiCommon0
        CFI (cfiCond114) NoFunction
        CFI (cfiCond114) Conditional ??CrossCallReturnLabel_75
        CFI (cfiCond114) R6 load(1, XDATA, add(CFA_XSP16, literal(-14)))
        CFI (cfiCond114) VB load(1, XDATA, add(CFA_XSP16, literal(-13)))
        CFI (cfiCond114) V0 load(1, XDATA, add(CFA_XSP16, literal(-12)))
        CFI (cfiCond114) V1 load(1, XDATA, add(CFA_XSP16, literal(-11)))
        CFI (cfiCond114) V2 load(1, XDATA, add(CFA_XSP16, literal(-10)))
        CFI (cfiCond114) V3 load(1, XDATA, add(CFA_XSP16, literal(-9)))
        CFI (cfiCond114) V4 load(1, XDATA, add(CFA_XSP16, literal(-8)))
        CFI (cfiCond114) V5 load(1, XDATA, add(CFA_XSP16, literal(-7)))
        CFI (cfiCond114) R7 load(1, XDATA, add(CFA_XSP16, literal(-6)))
        CFI (cfiCond114) ?RET_LOW load(1, XDATA, add(CFA_XSP16, literal(-5)))
        CFI (cfiCond114) ?RET_HIGH load(1, XDATA, add(CFA_XSP16, literal(-4)))
        CFI (cfiCond114) ?BRET_EXT load(1, XDATA, add(CFA_XSP16, literal(-3)))
        CFI (cfiCond114) DPL0 load(1, XDATA, add(CFA_XSP16, literal(-2)))
        CFI (cfiCond114) DPH0 load(1, XDATA, add(CFA_XSP16, literal(-1)))
        CFI (cfiCond114) CFA_SP SP+0
        CFI (cfiCond114) CFA_XSP16 add(XSP16, 14)
        CFI Block cfiPicker115 Using cfiCommon1
        CFI (cfiPicker115) NoFunction
        CFI (cfiPicker115) Picker
        MOVX    A,@DPTR
        MOV     R6,A
        INC     DPTR
        MOVX    A,@DPTR
        MOV     R7,A
        RET
        CFI EndBlock cfiCond111
        CFI EndBlock cfiCond112
        CFI EndBlock cfiCond113
        CFI EndBlock cfiCond114
        CFI EndBlock cfiPicker115

        RSEG BANKED_CODE:CODE:NOROOT(0)
// 2092 void ZDO_NetworkFormationConfirmCB( ZStatus_t Status )
ZDO_NetworkFormationConfirmCB:
        CFI Block cfiBlock116 Using cfiCommon0
        CFI Function ZDO_NetworkFormationConfirmCB
// 2093 {
        FUNCALL ZDO_NetworkFormationConfirmCB, HalLedSet
        LOCFRAME ISTACK, 0, STACK
        LOCFRAME PSTACK, 0, STACK
        LOCFRAME XSTACK, 9, STACK
        LOCFRAME IOVERLAY, 0, STATIC
        LOCFRAME DOVERLAY, 0, STATIC
        ARGFRAME ISTACK, 0, STACK
        ARGFRAME PSTACK, 0, STACK
        ARGFRAME XSTACK, 9, STACK
        ARGFRAME IOVERLAY, 0, STATIC
        ARGFRAME DOVERLAY, 0, STATIC
        FUNCALL ZDO_NetworkFormationConfirmCB, HalLedSet
        LOCFRAME ISTACK, 0, STACK
        LOCFRAME PSTACK, 0, STACK
        LOCFRAME XSTACK, 9, STACK
        LOCFRAME IOVERLAY, 0, STATIC
        LOCFRAME DOVERLAY, 0, STATIC
        ARGFRAME ISTACK, 0, STACK
        ARGFRAME PSTACK, 0, STACK
        ARGFRAME XSTACK, 9, STACK
        ARGFRAME IOVERLAY, 0, STATIC
        ARGFRAME DOVERLAY, 0, STATIC
        FUNCALL ZDO_NetworkFormationConfirmCB, HalLedSet
        LOCFRAME ISTACK, 0, STACK
        LOCFRAME PSTACK, 0, STACK
        LOCFRAME XSTACK, 9, STACK
        LOCFRAME IOVERLAY, 0, STATIC
        LOCFRAME DOVERLAY, 0, STATIC
        ARGFRAME ISTACK, 0, STACK
        ARGFRAME PSTACK, 0, STACK
        ARGFRAME XSTACK, 9, STACK
        ARGFRAME IOVERLAY, 0, STATIC
        ARGFRAME DOVERLAY, 0, STATIC
        FUNCALL ZDO_NetworkFormationConfirmCB, osal_set_event
        LOCFRAME ISTACK, 0, STACK
        LOCFRAME PSTACK, 0, STACK
        LOCFRAME XSTACK, 9, STACK
        LOCFRAME IOVERLAY, 0, STATIC
        LOCFRAME DOVERLAY, 0, STATIC
        ARGFRAME ISTACK, 0, STACK
        ARGFRAME PSTACK, 0, STACK
        ARGFRAME XSTACK, 9, STACK
        ARGFRAME IOVERLAY, 0, STATIC
        ARGFRAME DOVERLAY, 0, STATIC
        MOV     A,#-0x9
        LCALL   ?BANKED_ENTER_XDATA
        CFI DPH0 load(1, XDATA, add(CFA_XSP16, literal(-1)))
        CFI DPL0 load(1, XDATA, add(CFA_XSP16, literal(-2)))
        CFI ?BRET_EXT load(1, XDATA, add(CFA_XSP16, literal(-3)))
        CFI ?RET_HIGH load(1, XDATA, add(CFA_XSP16, literal(-4)))
        CFI ?RET_LOW load(1, XDATA, add(CFA_XSP16, literal(-5)))
        CFI R7 load(1, XDATA, add(CFA_XSP16, literal(-6)))
        CFI V0 load(1, XDATA, add(CFA_XSP16, literal(-7)))
        CFI VB load(1, XDATA, add(CFA_XSP16, literal(-8)))
        CFI R6 load(1, XDATA, add(CFA_XSP16, literal(-9)))
        CFI CFA_SP SP+0
        CFI CFA_XSP16 add(XSP16, 9)
        ; Saved register size: 9
        ; Auto size: 0
        MOV     A,R1
// 2094   nwkStatus = (byte)Status;
        MOV     DPTR,#nwkStatus
        MOVX    @DPTR,A
// 2095 
// 2096   if ( Status == ZSUCCESS )
        JNZ     ??ZDO_NetworkFormationConfirmCB_0
// 2097   {
// 2098     // LED on shows Coordinator started
// 2099     HalLedSet ( HAL_LED_3, HAL_LED_MODE_ON );
        ; Setup parameters for call to function HalLedSet
        LCALL   ?Subroutine33 & 0xFFFF
// 2100 
// 2101     // LED off forgets HOLD_AUTO_START
// 2102     HalLedSet (HAL_LED_4, HAL_LED_MODE_OFF);
// 2103 
// 2104 #if defined ( ZBIT )
// 2105     SIM_SetColor(0xd0ffd0);
// 2106 #endif
// 2107 
// 2108     if ( devState == DEV_HOLD )
??CrossCallReturnLabel_40:
        JNZ     ??ZDO_NetworkFormationConfirmCB_1
// 2109     {
// 2110       // Began with HOLD_AUTO_START
// 2111       devState = DEV_COORD_STARTING;
        MOV     A,#0x8
        MOVX    @DPTR,A
        SJMP    ??ZDO_NetworkFormationConfirmCB_1
// 2112     }
// 2113   }
// 2114 #if defined(BLINK_LEDS)
// 2115   else
// 2116   {
// 2117     HalLedSet ( HAL_LED_3, HAL_LED_MODE_FLASH );  // Flash LED to show failure
??ZDO_NetworkFormationConfirmCB_0:
        ; Setup parameters for call to function HalLedSet
        MOV     R2,#0x4
        MOV     R1,#0x4
        LCALL   ??HalLedSet?relay
// 2118   }
// 2119 #endif
// 2120 
// 2121   osal_set_event( ZDAppTaskID, ZDO_NETWORK_START );
??ZDO_NetworkFormationConfirmCB_1:
        ; Setup parameters for call to function osal_set_event
        MOV     R2,#0x2
        LJMP    ?Subroutine0 & 0xFFFF
        CFI EndBlock cfiBlock116
// 2122 }
// 2123 
// 2124 /****************************************************************************
// 2125  * @fn          ZDApp_beaconIndProcessing
// 2126  *
// 2127  * @brief       This function processes the incoming beacon indication.
// 2128  *
// 2129  *              When another task (MT or App) is registered to process
// 2130  *              beacon indication themselves, this function will parse the 
// 2131  *              beacon payload and pass the beacon descriptor to that task
// 2132  *              If no other tasks registered, this function will process
// 2133  *              the beacon payload and generate the network descriptor link
// 2134  *              list.
// 2135  *
// 2136  * @param
// 2137  *
// 2138  * @return      none
// 2139  *
// 2140  */

        RSEG BANKED_CODE:CODE:NOROOT(0)
// 2141 void ZDO_beaconNotifyIndCB( NLME_beaconInd_t *pBeacon )
ZDO_beaconNotifyIndCB:
        CFI Block cfiBlock117 Using cfiCommon0
        CFI Function ZDO_beaconNotifyIndCB
// 2142 {
        FUNCALL ZDO_beaconNotifyIndCB, osal_mem_alloc
        LOCFRAME ISTACK, 0, STACK
        LOCFRAME PSTACK, 0, STACK
        LOCFRAME XSTACK, 14, STACK
        LOCFRAME IOVERLAY, 0, STATIC
        LOCFRAME DOVERLAY, 0, STATIC
        ARGFRAME ISTACK, 0, STACK
        ARGFRAME PSTACK, 0, STACK
        ARGFRAME XSTACK, 14, STACK
        ARGFRAME IOVERLAY, 0, STATIC
        ARGFRAME DOVERLAY, 0, STATIC
        FUNCALL ZDO_beaconNotifyIndCB, osal_memset
        LOCFRAME ISTACK, 0, STACK
        LOCFRAME PSTACK, 0, STACK
        LOCFRAME XSTACK, 14, STACK
        LOCFRAME IOVERLAY, 0, STATIC
        LOCFRAME DOVERLAY, 0, STATIC
        ARGFRAME ISTACK, 0, STACK
        ARGFRAME PSTACK, 0, STACK
        ARGFRAME XSTACK, 14, STACK
        ARGFRAME IOVERLAY, 0, STATIC
        ARGFRAME DOVERLAY, 0, STATIC
        FUNCALL ZDO_beaconNotifyIndCB, sAddrExtCpy
        LOCFRAME ISTACK, 0, STACK
        LOCFRAME PSTACK, 0, STACK
        LOCFRAME XSTACK, 14, STACK
        LOCFRAME IOVERLAY, 0, STATIC
        LOCFRAME DOVERLAY, 0, STATIC
        ARGFRAME ISTACK, 0, STACK
        ARGFRAME PSTACK, 0, STACK
        ARGFRAME XSTACK, 14, STACK
        ARGFRAME IOVERLAY, 0, STATIC
        ARGFRAME DOVERLAY, 0, STATIC
        FUNCALL ZDO_beaconNotifyIndCB, osal_memset
        LOCFRAME ISTACK, 0, STACK
        LOCFRAME PSTACK, 0, STACK
        LOCFRAME XSTACK, 14, STACK
        LOCFRAME IOVERLAY, 0, STATIC
        LOCFRAME DOVERLAY, 0, STATIC
        ARGFRAME ISTACK, 0, STACK
        ARGFRAME PSTACK, 0, STACK
        ARGFRAME XSTACK, 14, STACK
        ARGFRAME IOVERLAY, 0, STATIC
        ARGFRAME DOVERLAY, 0, STATIC
        MOV     A,#-0xe
        LCALL   ?BANKED_ENTER_XDATA
        CFI DPH0 load(1, XDATA, add(CFA_XSP16, literal(-1)))
        CFI DPL0 load(1, XDATA, add(CFA_XSP16, literal(-2)))
        CFI ?BRET_EXT load(1, XDATA, add(CFA_XSP16, literal(-3)))
        CFI ?RET_HIGH load(1, XDATA, add(CFA_XSP16, literal(-4)))
        CFI ?RET_LOW load(1, XDATA, add(CFA_XSP16, literal(-5)))
        CFI R7 load(1, XDATA, add(CFA_XSP16, literal(-6)))
        CFI V5 load(1, XDATA, add(CFA_XSP16, literal(-7)))
        CFI V4 load(1, XDATA, add(CFA_XSP16, literal(-8)))
        CFI V3 load(1, XDATA, add(CFA_XSP16, literal(-9)))
        CFI V2 load(1, XDATA, add(CFA_XSP16, literal(-10)))
        CFI V1 load(1, XDATA, add(CFA_XSP16, literal(-11)))
        CFI V0 load(1, XDATA, add(CFA_XSP16, literal(-12)))
        CFI VB load(1, XDATA, add(CFA_XSP16, literal(-13)))
        CFI R6 load(1, XDATA, add(CFA_XSP16, literal(-14)))
        CFI CFA_SP SP+0
        CFI CFA_XSP16 add(XSP16, 14)
        ; Saved register size: 14
        ; Auto size: 0
        MOV     ?V0 + 0,R2
        MOV     ?V0 + 1,R3
// 2143   // Pass the beacon Indication to another task if it registers the callback
// 2144   // Otherwise, process the beacon notification here.
// 2145   if (zdoCBFunc[ZDO_BEACON_NOTIFY_IND_CBID] != NULL )
        MOV     DPTR,#(zdoCBFunc + 6)
        MOVX    A,@DPTR
        JNZ     ??ZDO_beaconNotifyIndCB_0
        INC     DPTR
        MOVX    A,@DPTR
??ZDO_beaconNotifyIndCB_0:
        JZ      ??ZDO_beaconNotifyIndCB_1
// 2146   {  
// 2147     zdoCBFunc[ZDO_BEACON_NOTIFY_IND_CBID]( (void*)pBeacon );
        ; Setup parameters for indirect call
        MOV     DPTR,#(zdoCBFunc + 6)
        LCALL   ?Subroutine16 & 0xFFFF
// 2148   }
??CrossCallReturnLabel_15:
        LCALL   ?CALL_IND
        LJMP    ??ZDO_beaconNotifyIndCB_2 & 0xFFFF
// 2149   else
// 2150   {
// 2151     networkDesc_t *pNwkDesc;
// 2152     networkDesc_t *pLastNwkDesc;
// 2153     uint8 found = false;
// 2154     
// 2155     // Add the network to the Network Descriptor List
// 2156     pNwkDesc = NwkDescList;
??ZDO_beaconNotifyIndCB_1:
        MOV     DPTR,#NwkDescList
        LCALL   ??Subroutine49_0 & 0xFFFF
// 2157     pLastNwkDesc = NwkDescList;
??CrossCallReturnLabel_72:
        MOV     DPTR,#NwkDescList
        MOVX    A,@DPTR
        MOV     ?V0 + 2,A
        INC     DPTR
        MOVX    A,@DPTR
        MOV     ?V0 + 3,A
        SJMP    ??CrossCallReturnLabel_75
// 2158     while (pNwkDesc)
// 2159     {
// 2160       if ((pNwkDesc->panId == pBeacon->panID) &&
// 2161           (pNwkDesc->logicalChannel == pBeacon->logicalChannel))
??ZDO_beaconNotifyIndCB_3:
        LCALL   ?Subroutine18 & 0xFFFF
??CrossCallReturnLabel_82:
        MOV     DPL,?V0 + 0
        MOV     DPH,R3
        INC     DPTR
        INC     DPTR
        MOVX    A,@DPTR
        XRL     A,R0
        JNZ     ??ZDO_beaconNotifyIndCB_4
        INC     DPTR
        MOVX    A,@DPTR
        XRL     A,R1
??ZDO_beaconNotifyIndCB_4:
        JNZ     ??ZDO_beaconNotifyIndCB_5
        MOV     DPL,R6
        MOV     DPH,R7
        INC     DPTR
        INC     DPTR
        MOVX    A,@DPTR
        MOV     R2,A
        MOV     DPL,?V0 + 0
        MOV     DPH,R3
        INC     DPTR
        INC     DPTR
        INC     DPTR
        INC     DPTR
        MOVX    A,@DPTR
        XRL     A,R2
        JZ      ??ZDO_beaconNotifyIndCB_6
// 2162       {
// 2163         found = true;
// 2164         break;
// 2165       }
// 2166       pLastNwkDesc = pNwkDesc;
??ZDO_beaconNotifyIndCB_5:
        MOV     ?V0 + 2,R6
        MOV     ?V0 + 3,R7
// 2167       pNwkDesc = pNwkDesc->nextDesc;
        LCALL   ?Subroutine22 & 0xFFFF
// 2168     }
??CrossCallReturnLabel_75:
        MOV     A,R6
        JNZ     ??ZDO_beaconNotifyIndCB_7
        MOV     A,R7
??ZDO_beaconNotifyIndCB_7:
        JNZ     ??ZDO_beaconNotifyIndCB_3
// 2169     
// 2170     // If no existing descriptor found, make a new one and add to the list
// 2171     if (found == false)
// 2172     {
// 2173       pNwkDesc = osal_mem_alloc( sizeof(networkDesc_t)  );
        ; Setup parameters for call to function osal_mem_alloc
        MOV     R2,#0x16
        MOV     R3,#0x0
        LCALL   ??osal_mem_alloc?relay
        MOV     ?V0 + 4,R2
        MOV     ?V0 + 5,R3
        MOV     R6,?V0 + 4
        MOV     R7,?V0 + 5
// 2174       if ( !pNwkDesc )
        MOV     A,R6
        JNZ     ??ZDO_beaconNotifyIndCB_8
        MOV     A,R7
??ZDO_beaconNotifyIndCB_8:
        JNZ     $+5
        LJMP    ??ZDO_beaconNotifyIndCB_2 & 0xFFFF
// 2175       {
// 2176         // Memory alloc failed, discard this beacon
// 2177         return;
// 2178       }
// 2179       
// 2180       // Clear the network descriptor
// 2181       osal_memset( pNwkDesc, 0, sizeof(networkDesc_t)  );
        ; Setup parameters for call to function osal_memset
        MOV     R4,#0x16
        MOV     R5,#0x0
        MOV     R1,#0x0
        LCALL   ??osal_memset?relay
// 2182       
// 2183       // Initialize the descriptor
// 2184       pNwkDesc->chosenRouter = INVALID_NODE_ADDR;
        MOV     DPL,R6
        MOV     DPH,R7
        INC     DPTR
        INC     DPTR
        INC     DPTR
        INC     DPTR
        INC     DPTR
        INC     DPTR
        INC     DPTR
        MOV     A,#-0x2
        MOVX    @DPTR,A
        INC     DPTR
        MOV     A,#-0x1
        LCALL   ?Subroutine11 & 0xFFFF
// 2185       pNwkDesc->chosenRouterDepth = 0xFF;
??CrossCallReturnLabel_7:
        INC     DPTR
        INC     DPTR
        INC     DPTR
        INC     DPTR
        MOVX    @DPTR,A
// 2186       
// 2187       // Save new entry into the descriptor list
// 2188       if ( !NwkDescList )
        MOV     DPTR,#NwkDescList
        MOVX    A,@DPTR
        JNZ     ??ZDO_beaconNotifyIndCB_9
        INC     DPTR
        MOVX    A,@DPTR
??ZDO_beaconNotifyIndCB_9:
        JNZ     ??ZDO_beaconNotifyIndCB_10
// 2189       {
// 2190         NwkDescList = pNwkDesc;
        MOV     DPTR,#NwkDescList
        SJMP    ??CrossCallReturnLabel_91
// 2191       }
// 2192       else
// 2193       {
// 2194         pLastNwkDesc->nextDesc = pNwkDesc;
??ZDO_beaconNotifyIndCB_10:
        MOV     A,?V0 + 2
        ADD     A,#0x14
        MOV     DPL,A
        MOV     A,?V0 + 3
        LCALL   ??Subroutine52_0 & 0xFFFF
// 2195       }
// 2196     }
??CrossCallReturnLabel_91:
        MOV     A,R6
        MOVX    @DPTR,A
        INC     DPTR
        MOV     A,R7
        MOVX    @DPTR,A
// 2197     
// 2198     // Update the descriptor with the incoming beacon
// 2199     pNwkDesc->stackProfile   = pBeacon->stackProfile;
??ZDO_beaconNotifyIndCB_6:
        MOV     DPL,?V0 + 0
        MOV     DPH,?V0 + 1
        INC     DPTR
        INC     DPTR
        INC     DPTR
        INC     DPTR
        INC     DPTR
        INC     DPTR
        INC     DPTR
        INC     DPTR
        INC     DPTR
        LCALL   ?Subroutine24 & 0xFFFF
??CrossCallReturnLabel_25:
        INC     DPTR
        INC     DPTR
        INC     DPTR
        MOVX    @DPTR,A
// 2200     pNwkDesc->version        = pBeacon->protocolVersion;
        MOV     A,?V0 + 0
        ADD     A,#0x8
        MOV     R0,A
        MOV     A,?V0 + 1
        ADDC    A,#0x0
        MOV     R1,A
        MOV     DPL,R0
        MOV     DPH,R1
        LCALL   ?Subroutine24 & 0xFFFF
??CrossCallReturnLabel_26:
        LCALL   ?Subroutine15 & 0xFFFF
// 2201     pNwkDesc->logicalChannel = pBeacon->logicalChannel;
??CrossCallReturnLabel_12:
        INC     DPTR
        INC     DPTR
        MOVX    A,@DPTR
        MOV     DPL,R6
        MOV     DPH,R7
        LCALL   ?Subroutine15 & 0xFFFF
// 2202     pNwkDesc->panId          = pBeacon->panID;
??CrossCallReturnLabel_13:
        MOVX    A,@DPTR
        MOV     R2,A
        INC     DPTR
        MOVX    A,@DPTR
        MOV     R3,A
        MOV     DPL,R6
        MOV     DPH,R7
        LCALL   ??Subroutine55_0 & 0xFFFF
// 2203     pNwkDesc->updateId       = pBeacon->updateID;
??CrossCallReturnLabel_102:
        MOV     A,?V0 + 0
        ADD     A,#0xc
        MOV     DPL,A
        MOV     A,?V0 + 1
        LCALL   ??Subroutine54_0 & 0xFFFF
??CrossCallReturnLabel_83:
        PUSH    A
        CFI CFA_SP SP+-1
        MOV     A,R6
        ADD     A,#0x13
        LCALL   ??Subroutine51_0 & 0xFFFF
??CrossCallReturnLabel_93:
        POP     A
        CFI CFA_SP SP+0
        MOVX    @DPTR,A
// 2204     
// 2205     // Save the extended PAN ID from the beacon payload only if 1.1 version network
// 2206     if ( pBeacon->protocolVersion != ZB_PROT_V1_0 )
        MOV     DPL,R0
        MOV     DPH,R1
        MOVX    A,@DPTR
        XRL     A,#0x1
        JZ      ??ZDO_beaconNotifyIndCB_11
// 2207     {
// 2208       osal_cpyExtAddr( pNwkDesc->extendedPANID, pBeacon->extendedPanID );
        ; Setup parameters for call to function sAddrExtCpy
        MOV     A,?V0 + 0
        ADD     A,#0xd
        MOV     R4,A
        MOV     A,?V0 + 1
        ADDC    A,#0x0
        LCALL   ?Subroutine31 & 0xFFFF
// 2209     }
??CrossCallReturnLabel_60:
        LCALL   ??sAddrExtCpy?relay
        SJMP    ??ZDO_beaconNotifyIndCB_12
// 2210     else
// 2211     {
// 2212       osal_memset( pNwkDesc->extendedPANID, 0xFF, Z_EXTADDR_LEN );
??ZDO_beaconNotifyIndCB_11:
        ; Setup parameters for call to function osal_memset
        MOV     R4,#0x8
        MOV     R5,#0x0
        MOV     R1,#-0x1
        LCALL   ??Subroutine41_0 & 0xFFFF
// 2213     }
??CrossCallReturnLabel_58:
        LCALL   ??osal_memset?relay
// 2214     
// 2215     // check if this device is a better choice to join...
// 2216     // ...dont bother checking assocPermit flag is doing a rejoin
// 2217     if ( ( pBeacon->LQI > gMIN_TREE_LINK_COST ) &&
// 2218         ( ( pBeacon->permitJoining == TRUE ) || ( _tmpRejoinState ) ) )
??ZDO_beaconNotifyIndCB_12:
        MOV     DPTR,#gMIN_TREE_LINK_COST
        MOVX    A,@DPTR
        PUSH    A
        CFI CFA_SP SP+-1
        MOV     DPL,?V0 + 0
        MOV     DPH,?V0 + 1
        INC     DPTR
        INC     DPTR
        INC     DPTR
        INC     DPTR
        INC     DPTR
        INC     DPTR
        INC     DPTR
        INC     DPTR
        INC     DPTR
        INC     DPTR
        MOVX    A,@DPTR
        MOV     R2,A
        POP     A
        CFI CFA_SP SP+0
        CLR     C
        SUBB    A,R2
        JC      $+5
        LJMP    ??ZDO_beaconNotifyIndCB_2 & 0xFFFF
        MOV     DPL,?V0 + 0
        MOV     DPH,?V0 + 1
        INC     DPTR
        INC     DPTR
        INC     DPTR
        INC     DPTR
        INC     DPTR
        MOVX    A,@DPTR
        XRL     A,#0x1
        JZ      ??ZDO_beaconNotifyIndCB_13
        MOV     DPTR,#_tmpRejoinState
        MOVX    A,@DPTR
        JNZ     $+5
        LJMP    ??ZDO_beaconNotifyIndCB_2 & 0xFFFF
// 2219     {
// 2220       uint8 selected = FALSE;
??ZDO_beaconNotifyIndCB_13:
        MOV     R3,#0x0
// 2221       uint8 capacity = FALSE;
// 2222       
// 2223       if ( _NIB.nwkAddrAlloc == NWK_ADDRESSING_STOCHASTIC )
        MOV     DPTR,#(_NIB + 96)
        MOVX    A,@DPTR
        XRL     A,#0x2
        JNZ     ??ZDO_beaconNotifyIndCB_14
// 2224       {
// 2225         if ( ((pBeacon->LQI   > pNwkDesc->chosenRouterLinkQuality) &&
// 2226               (pBeacon->depth < MAX_NODE_DEPTH)) ||
// 2227             ((pBeacon->LQI   == pNwkDesc->chosenRouterLinkQuality) &&
// 2228              (pBeacon->depth < pNwkDesc->chosenRouterDepth)) ) 
        MOV     DPL,R6
        MOV     DPH,R7
        INC     DPTR
        INC     DPTR
        INC     DPTR
        INC     DPTR
        INC     DPTR
        INC     DPTR
        INC     DPTR
        INC     DPTR
        INC     DPTR
        MOVX    A,@DPTR
        CLR     C
        SUBB    A,R2
        JNC     ??ZDO_beaconNotifyIndCB_15
        LCALL   ?Subroutine32 & 0xFFFF
??CrossCallReturnLabel_37:
        LCALL   ??Subroutine54_0 & 0xFFFF
??CrossCallReturnLabel_84:
        CLR     C
        SUBB    A,#0x14
        JC      ??ZDO_beaconNotifyIndCB_16
        SJMP    ??ZDO_beaconNotifyIndCB_17
??ZDO_beaconNotifyIndCB_15:
        MOV     DPL,R6
        MOV     DPH,R7
        INC     DPTR
        INC     DPTR
        INC     DPTR
        INC     DPTR
        INC     DPTR
        INC     DPTR
        INC     DPTR
        INC     DPTR
        INC     DPTR
        MOVX    A,@DPTR
        XRL     A,R2
        JNZ     ??ZDO_beaconNotifyIndCB_17
??ZDO_beaconNotifyIndCB_14:
        LCALL   ?Subroutine32 & 0xFFFF
??CrossCallReturnLabel_38:
        LCALL   ??Subroutine54_0 & 0xFFFF
??CrossCallReturnLabel_85:
        PUSH    A
        CFI CFA_SP SP+-1
        MOV     DPL,R6
        MOV     DPH,R7
        INC     DPTR
        INC     DPTR
        INC     DPTR
        INC     DPTR
        INC     DPTR
        INC     DPTR
        INC     DPTR
        INC     DPTR
        INC     DPTR
        INC     DPTR
        MOVX    A,@DPTR
        MOV     R2,A
        POP     A
        CFI CFA_SP SP+0
        CLR     C
        SUBB    A,R2
        JNC     ??ZDO_beaconNotifyIndCB_17
// 2229         {
// 2230           selected = TRUE;
??ZDO_beaconNotifyIndCB_16:
        INC     R3
// 2231         }
// 2232       }
// 2233       else
// 2234       {
// 2235         if ( pBeacon->depth < pNwkDesc->chosenRouterDepth )
// 2236         {
// 2237           selected = TRUE;
// 2238         }
// 2239       }
// 2240       
// 2241       if ( ZSTACK_ROUTER_BUILD )
// 2242       {
// 2243         capacity = pBeacon->routerCapacity;
// 2244       }
// 2245       else if ( ZSTACK_END_DEVICE_BUILD )
// 2246       {
// 2247         capacity = pBeacon->deviceCapacity;
// 2248       }
// 2249       
// 2250       if ( (capacity) && (selected) )
??ZDO_beaconNotifyIndCB_17:
        MOV     DPL,?V0 + 0
        MOV     DPH,?V0 + 1
        INC     DPTR
        INC     DPTR
        INC     DPTR
        INC     DPTR
        INC     DPTR
        INC     DPTR
        INC     DPTR
        MOVX    A,@DPTR
        JZ      ??ZDO_beaconNotifyIndCB_18
        MOV     A,R3
        JZ      ??ZDO_beaconNotifyIndCB_19
// 2251       {
// 2252         // this is the new chosen router for joining...
// 2253         pNwkDesc->chosenRouter            = pBeacon->sourceAddr;
        MOV     DPL,?V0 + 0
        MOV     DPH,?V0 + 1
        LCALL   ??Subroutine50_0 & 0xFFFF
??CrossCallReturnLabel_77:
        MOV     DPL,R6
        MOV     DPH,R7
        INC     DPTR
        INC     DPTR
        INC     DPTR
        INC     DPTR
        INC     DPTR
        INC     DPTR
        INC     DPTR
        MOV     A,R0
        MOVX    @DPTR,A
        INC     DPTR
        MOV     A,R1
        LCALL   ?Subroutine9 & 0xFFFF
// 2254         pNwkDesc->chosenRouterLinkQuality = pBeacon->LQI;
??CrossCallReturnLabel_2:
        INC     DPTR
        INC     DPTR
        INC     DPTR
        LCALL   ?Subroutine19 & 0xFFFF
??CrossCallReturnLabel_19:
        MOVX    @DPTR,A
// 2255         pNwkDesc->chosenRouterDepth       = pBeacon->depth;
        LCALL   ?Subroutine32 & 0xFFFF
// 2256       }
??CrossCallReturnLabel_39:
        LCALL   ??Subroutine52_0 & 0xFFFF
??CrossCallReturnLabel_92:
        LCALL   ?Subroutine19 & 0xFFFF
??CrossCallReturnLabel_20:
        INC     DPTR
        LCALL   ?Subroutine9 & 0xFFFF
// 2257       
// 2258       if ( pBeacon->deviceCapacity )
??CrossCallReturnLabel_3:
        MOVX    A,@DPTR
        JZ      ??ZDO_beaconNotifyIndCB_18
// 2259         pNwkDesc->deviceCapacity = 1;
??ZDO_beaconNotifyIndCB_19:
        MOV     A,#0x1
        MOV     DPL,R6
        MOV     DPH,R7
        INC     DPTR
        INC     DPTR
        INC     DPTR
        INC     DPTR
        MOVX    @DPTR,A
// 2260       
// 2261       if ( pBeacon->routerCapacity )
??ZDO_beaconNotifyIndCB_18:
        MOV     DPL,?V0 + 0
        MOV     DPH,?V0 + 1
        INC     DPTR
        INC     DPTR
        INC     DPTR
        INC     DPTR
        INC     DPTR
        INC     DPTR
        MOVX    A,@DPTR
        JZ      ??ZDO_beaconNotifyIndCB_2
// 2262         pNwkDesc->routerCapacity = 1;
        MOV     A,#0x1
        MOV     DPL,R6
        MOV     DPH,R7
        INC     DPTR
        INC     DPTR
        INC     DPTR
        MOVX    @DPTR,A
// 2263     }
// 2264   }
??ZDO_beaconNotifyIndCB_2:
        LJMP    ?Subroutine5 & 0xFFFF
        CFI EndBlock cfiBlock117
// 2265 }

        RSEG BANKED_CODE:CODE:NOROOT(0)
?Subroutine32:
        CFI Block cfiCond118 Using cfiCommon0
        CFI NoFunction
        CFI Conditional ??CrossCallReturnLabel_37
        CFI R6 load(1, XDATA, add(CFA_XSP16, literal(-14)))
        CFI VB load(1, XDATA, add(CFA_XSP16, literal(-13)))
        CFI V0 load(1, XDATA, add(CFA_XSP16, literal(-12)))
        CFI V1 load(1, XDATA, add(CFA_XSP16, literal(-11)))
        CFI V2 load(1, XDATA, add(CFA_XSP16, literal(-10)))
        CFI V3 load(1, XDATA, add(CFA_XSP16, literal(-9)))
        CFI V4 load(1, XDATA, add(CFA_XSP16, literal(-8)))
        CFI V5 load(1, XDATA, add(CFA_XSP16, literal(-7)))
        CFI R7 load(1, XDATA, add(CFA_XSP16, literal(-6)))
        CFI ?RET_LOW load(1, XDATA, add(CFA_XSP16, literal(-5)))
        CFI ?RET_HIGH load(1, XDATA, add(CFA_XSP16, literal(-4)))
        CFI ?BRET_EXT load(1, XDATA, add(CFA_XSP16, literal(-3)))
        CFI DPL0 load(1, XDATA, add(CFA_XSP16, literal(-2)))
        CFI DPH0 load(1, XDATA, add(CFA_XSP16, literal(-1)))
        CFI CFA_SP SP+0
        CFI CFA_XSP16 add(XSP16, 14)
        CFI Block cfiCond119 Using cfiCommon0
        CFI (cfiCond119) NoFunction
        CFI (cfiCond119) Conditional ??CrossCallReturnLabel_38
        CFI (cfiCond119) R6 load(1, XDATA, add(CFA_XSP16, literal(-14)))
        CFI (cfiCond119) VB load(1, XDATA, add(CFA_XSP16, literal(-13)))
        CFI (cfiCond119) V0 load(1, XDATA, add(CFA_XSP16, literal(-12)))
        CFI (cfiCond119) V1 load(1, XDATA, add(CFA_XSP16, literal(-11)))
        CFI (cfiCond119) V2 load(1, XDATA, add(CFA_XSP16, literal(-10)))
        CFI (cfiCond119) V3 load(1, XDATA, add(CFA_XSP16, literal(-9)))
        CFI (cfiCond119) V4 load(1, XDATA, add(CFA_XSP16, literal(-8)))
        CFI (cfiCond119) V5 load(1, XDATA, add(CFA_XSP16, literal(-7)))
        CFI (cfiCond119) R7 load(1, XDATA, add(CFA_XSP16, literal(-6)))
        CFI (cfiCond119) ?RET_LOW load(1, XDATA, add(CFA_XSP16, literal(-5)))
        CFI (cfiCond119) ?RET_HIGH load(1, XDATA, add(CFA_XSP16, literal(-4)))
        CFI (cfiCond119) ?BRET_EXT load(1, XDATA, add(CFA_XSP16, literal(-3)))
        CFI (cfiCond119) DPL0 load(1, XDATA, add(CFA_XSP16, literal(-2)))
        CFI (cfiCond119) DPH0 load(1, XDATA, add(CFA_XSP16, literal(-1)))
        CFI (cfiCond119) CFA_SP SP+0
        CFI (cfiCond119) CFA_XSP16 add(XSP16, 14)
        CFI Block cfiCond120 Using cfiCommon0
        CFI (cfiCond120) NoFunction
        CFI (cfiCond120) Conditional ??CrossCallReturnLabel_39
        CFI (cfiCond120) R6 load(1, XDATA, add(CFA_XSP16, literal(-14)))
        CFI (cfiCond120) VB load(1, XDATA, add(CFA_XSP16, literal(-13)))
        CFI (cfiCond120) V0 load(1, XDATA, add(CFA_XSP16, literal(-12)))
        CFI (cfiCond120) V1 load(1, XDATA, add(CFA_XSP16, literal(-11)))
        CFI (cfiCond120) V2 load(1, XDATA, add(CFA_XSP16, literal(-10)))
        CFI (cfiCond120) V3 load(1, XDATA, add(CFA_XSP16, literal(-9)))
        CFI (cfiCond120) V4 load(1, XDATA, add(CFA_XSP16, literal(-8)))
        CFI (cfiCond120) V5 load(1, XDATA, add(CFA_XSP16, literal(-7)))
        CFI (cfiCond120) R7 load(1, XDATA, add(CFA_XSP16, literal(-6)))
        CFI (cfiCond120) ?RET_LOW load(1, XDATA, add(CFA_XSP16, literal(-5)))
        CFI (cfiCond120) ?RET_HIGH load(1, XDATA, add(CFA_XSP16, literal(-4)))
        CFI (cfiCond120) ?BRET_EXT load(1, XDATA, add(CFA_XSP16, literal(-3)))
        CFI (cfiCond120) DPL0 load(1, XDATA, add(CFA_XSP16, literal(-2)))
        CFI (cfiCond120) DPH0 load(1, XDATA, add(CFA_XSP16, literal(-1)))
        CFI (cfiCond120) CFA_SP SP+0
        CFI (cfiCond120) CFA_XSP16 add(XSP16, 14)
        CFI Block cfiPicker121 Using cfiCommon1
        CFI (cfiPicker121) NoFunction
        CFI (cfiPicker121) Picker
        MOV     A,?V0 + 0
        ADD     A,#0xb
        MOV     DPL,A
        MOV     A,?V0 + 1
        RET
        CFI EndBlock cfiCond118
        CFI EndBlock cfiCond119
        CFI EndBlock cfiCond120
        CFI EndBlock cfiPicker121

        RSEG BANKED_CODE:CODE:NOROOT(0)
?Subroutine24:
        CFI Block cfiCond122 Using cfiCommon0
        CFI NoFunction
        CFI Conditional ??CrossCallReturnLabel_25
        CFI R6 load(1, XDATA, add(CFA_XSP16, literal(-14)))
        CFI VB load(1, XDATA, add(CFA_XSP16, literal(-13)))
        CFI V0 load(1, XDATA, add(CFA_XSP16, literal(-12)))
        CFI V1 load(1, XDATA, add(CFA_XSP16, literal(-11)))
        CFI V2 load(1, XDATA, add(CFA_XSP16, literal(-10)))
        CFI V3 load(1, XDATA, add(CFA_XSP16, literal(-9)))
        CFI V4 load(1, XDATA, add(CFA_XSP16, literal(-8)))
        CFI V5 load(1, XDATA, add(CFA_XSP16, literal(-7)))
        CFI R7 load(1, XDATA, add(CFA_XSP16, literal(-6)))
        CFI ?RET_LOW load(1, XDATA, add(CFA_XSP16, literal(-5)))
        CFI ?RET_HIGH load(1, XDATA, add(CFA_XSP16, literal(-4)))
        CFI ?BRET_EXT load(1, XDATA, add(CFA_XSP16, literal(-3)))
        CFI DPL0 load(1, XDATA, add(CFA_XSP16, literal(-2)))
        CFI DPH0 load(1, XDATA, add(CFA_XSP16, literal(-1)))
        CFI CFA_SP SP+0
        CFI CFA_XSP16 add(XSP16, 14)
        CFI Block cfiCond123 Using cfiCommon0
        CFI (cfiCond123) NoFunction
        CFI (cfiCond123) Conditional ??CrossCallReturnLabel_26
        CFI (cfiCond123) R6 load(1, XDATA, add(CFA_XSP16, literal(-14)))
        CFI (cfiCond123) VB load(1, XDATA, add(CFA_XSP16, literal(-13)))
        CFI (cfiCond123) V0 load(1, XDATA, add(CFA_XSP16, literal(-12)))
        CFI (cfiCond123) V1 load(1, XDATA, add(CFA_XSP16, literal(-11)))
        CFI (cfiCond123) V2 load(1, XDATA, add(CFA_XSP16, literal(-10)))
        CFI (cfiCond123) V3 load(1, XDATA, add(CFA_XSP16, literal(-9)))
        CFI (cfiCond123) V4 load(1, XDATA, add(CFA_XSP16, literal(-8)))
        CFI (cfiCond123) V5 load(1, XDATA, add(CFA_XSP16, literal(-7)))
        CFI (cfiCond123) R7 load(1, XDATA, add(CFA_XSP16, literal(-6)))
        CFI (cfiCond123) ?RET_LOW load(1, XDATA, add(CFA_XSP16, literal(-5)))
        CFI (cfiCond123) ?RET_HIGH load(1, XDATA, add(CFA_XSP16, literal(-4)))
        CFI (cfiCond123) ?BRET_EXT load(1, XDATA, add(CFA_XSP16, literal(-3)))
        CFI (cfiCond123) DPL0 load(1, XDATA, add(CFA_XSP16, literal(-2)))
        CFI (cfiCond123) DPH0 load(1, XDATA, add(CFA_XSP16, literal(-1)))
        CFI (cfiCond123) CFA_SP SP+0
        CFI (cfiCond123) CFA_XSP16 add(XSP16, 14)
        CFI Block cfiPicker124 Using cfiCommon1
        CFI (cfiPicker124) NoFunction
        CFI (cfiPicker124) Picker
        LCALL   ?Subroutine37 & 0xFFFF
??CrossCallReturnLabel_48:
        RET
        CFI EndBlock cfiCond122
        CFI EndBlock cfiCond123
        CFI EndBlock cfiPicker124

        RSEG BANKED_CODE:CODE:NOROOT(0)
?Subroutine37:
        CFI Block cfiCond125 Using cfiCommon0
        CFI NoFunction
        CFI Conditional ??CrossCallReturnLabel_48, ??CrossCallReturnLabel_25
        CFI R6 load(1, XDATA, add(CFA_XSP16, literal(-14)))
        CFI VB load(1, XDATA, add(CFA_XSP16, literal(-13)))
        CFI V0 load(1, XDATA, add(CFA_XSP16, literal(-12)))
        CFI V1 load(1, XDATA, add(CFA_XSP16, literal(-11)))
        CFI V2 load(1, XDATA, add(CFA_XSP16, literal(-10)))
        CFI V3 load(1, XDATA, add(CFA_XSP16, literal(-9)))
        CFI V4 load(1, XDATA, add(CFA_XSP16, literal(-8)))
        CFI V5 load(1, XDATA, add(CFA_XSP16, literal(-7)))
        CFI R7 load(1, XDATA, add(CFA_XSP16, literal(-6)))
        CFI ?RET_LOW load(1, XDATA, add(CFA_XSP16, literal(-5)))
        CFI ?RET_HIGH load(1, XDATA, add(CFA_XSP16, literal(-4)))
        CFI ?BRET_EXT load(1, XDATA, add(CFA_XSP16, literal(-3)))
        CFI DPL0 load(1, XDATA, add(CFA_XSP16, literal(-2)))
        CFI DPH0 load(1, XDATA, add(CFA_XSP16, literal(-1)))
        CFI CFA_SP SP+0
        CFI CFA_XSP16 add(XSP16, 14)
        CFI Block cfiCond126 Using cfiCommon0
        CFI (cfiCond126) NoFunction
        CFI (cfiCond126) Conditional ??CrossCallReturnLabel_48, ??CrossCallReturnLabel_26
        CFI (cfiCond126) R6 load(1, XDATA, add(CFA_XSP16, literal(-14)))
        CFI (cfiCond126) VB load(1, XDATA, add(CFA_XSP16, literal(-13)))
        CFI (cfiCond126) V0 load(1, XDATA, add(CFA_XSP16, literal(-12)))
        CFI (cfiCond126) V1 load(1, XDATA, add(CFA_XSP16, literal(-11)))
        CFI (cfiCond126) V2 load(1, XDATA, add(CFA_XSP16, literal(-10)))
        CFI (cfiCond126) V3 load(1, XDATA, add(CFA_XSP16, literal(-9)))
        CFI (cfiCond126) V4 load(1, XDATA, add(CFA_XSP16, literal(-8)))
        CFI (cfiCond126) V5 load(1, XDATA, add(CFA_XSP16, literal(-7)))
        CFI (cfiCond126) R7 load(1, XDATA, add(CFA_XSP16, literal(-6)))
        CFI (cfiCond126) ?RET_LOW load(1, XDATA, add(CFA_XSP16, literal(-5)))
        CFI (cfiCond126) ?RET_HIGH load(1, XDATA, add(CFA_XSP16, literal(-4)))
        CFI (cfiCond126) ?BRET_EXT load(1, XDATA, add(CFA_XSP16, literal(-3)))
        CFI (cfiCond126) DPL0 load(1, XDATA, add(CFA_XSP16, literal(-2)))
        CFI (cfiCond126) DPH0 load(1, XDATA, add(CFA_XSP16, literal(-1)))
        CFI (cfiCond126) CFA_SP SP+0
        CFI (cfiCond126) CFA_XSP16 add(XSP16, 14)
        CFI Block cfiCond127 Using cfiCommon0
        CFI (cfiCond127) NoFunction
        CFI (cfiCond127) Conditional ??CrossCallReturnLabel_47, ??CrossCallReturnLabel_19
        CFI (cfiCond127) R6 load(1, XDATA, add(CFA_XSP16, literal(-14)))
        CFI (cfiCond127) VB load(1, XDATA, add(CFA_XSP16, literal(-13)))
        CFI (cfiCond127) V0 load(1, XDATA, add(CFA_XSP16, literal(-12)))
        CFI (cfiCond127) V1 load(1, XDATA, add(CFA_XSP16, literal(-11)))
        CFI (cfiCond127) V2 load(1, XDATA, add(CFA_XSP16, literal(-10)))
        CFI (cfiCond127) V3 load(1, XDATA, add(CFA_XSP16, literal(-9)))
        CFI (cfiCond127) V4 load(1, XDATA, add(CFA_XSP16, literal(-8)))
        CFI (cfiCond127) V5 load(1, XDATA, add(CFA_XSP16, literal(-7)))
        CFI (cfiCond127) R7 load(1, XDATA, add(CFA_XSP16, literal(-6)))
        CFI (cfiCond127) ?RET_LOW load(1, XDATA, add(CFA_XSP16, literal(-5)))
        CFI (cfiCond127) ?RET_HIGH load(1, XDATA, add(CFA_XSP16, literal(-4)))
        CFI (cfiCond127) ?BRET_EXT load(1, XDATA, add(CFA_XSP16, literal(-3)))
        CFI (cfiCond127) DPL0 load(1, XDATA, add(CFA_XSP16, literal(-2)))
        CFI (cfiCond127) DPH0 load(1, XDATA, add(CFA_XSP16, literal(-1)))
        CFI (cfiCond127) CFA_SP SP+0
        CFI (cfiCond127) CFA_XSP16 add(XSP16, 14)
        CFI Block cfiCond128 Using cfiCommon0
        CFI (cfiCond128) NoFunction
        CFI (cfiCond128) Conditional ??CrossCallReturnLabel_47, ??CrossCallReturnLabel_20
        CFI (cfiCond128) R6 load(1, XDATA, add(CFA_XSP16, literal(-14)))
        CFI (cfiCond128) VB load(1, XDATA, add(CFA_XSP16, literal(-13)))
        CFI (cfiCond128) V0 load(1, XDATA, add(CFA_XSP16, literal(-12)))
        CFI (cfiCond128) V1 load(1, XDATA, add(CFA_XSP16, literal(-11)))
        CFI (cfiCond128) V2 load(1, XDATA, add(CFA_XSP16, literal(-10)))
        CFI (cfiCond128) V3 load(1, XDATA, add(CFA_XSP16, literal(-9)))
        CFI (cfiCond128) V4 load(1, XDATA, add(CFA_XSP16, literal(-8)))
        CFI (cfiCond128) V5 load(1, XDATA, add(CFA_XSP16, literal(-7)))
        CFI (cfiCond128) R7 load(1, XDATA, add(CFA_XSP16, literal(-6)))
        CFI (cfiCond128) ?RET_LOW load(1, XDATA, add(CFA_XSP16, literal(-5)))
        CFI (cfiCond128) ?RET_HIGH load(1, XDATA, add(CFA_XSP16, literal(-4)))
        CFI (cfiCond128) ?BRET_EXT load(1, XDATA, add(CFA_XSP16, literal(-3)))
        CFI (cfiCond128) DPL0 load(1, XDATA, add(CFA_XSP16, literal(-2)))
        CFI (cfiCond128) DPH0 load(1, XDATA, add(CFA_XSP16, literal(-1)))
        CFI (cfiCond128) CFA_SP SP+0
        CFI (cfiCond128) CFA_XSP16 add(XSP16, 14)
        CFI Block cfiPicker129 Using cfiCommon1
        CFI (cfiPicker129) NoFunction
        CFI (cfiPicker129) Picker
        MOVX    A,@DPTR
        MOV     DPL,R6
        MOV     DPH,R7
        INC     DPTR
        INC     DPTR
        INC     DPTR
        RET
        CFI EndBlock cfiCond125
        CFI EndBlock cfiCond126
        CFI EndBlock cfiCond127
        CFI EndBlock cfiCond128
        CFI EndBlock cfiPicker129

        RSEG BANKED_CODE:CODE:NOROOT(0)
?Subroutine19:
        CFI Block cfiCond130 Using cfiCommon0
        CFI NoFunction
        CFI Conditional ??CrossCallReturnLabel_19
        CFI R6 load(1, XDATA, add(CFA_XSP16, literal(-14)))
        CFI VB load(1, XDATA, add(CFA_XSP16, literal(-13)))
        CFI V0 load(1, XDATA, add(CFA_XSP16, literal(-12)))
        CFI V1 load(1, XDATA, add(CFA_XSP16, literal(-11)))
        CFI V2 load(1, XDATA, add(CFA_XSP16, literal(-10)))
        CFI V3 load(1, XDATA, add(CFA_XSP16, literal(-9)))
        CFI V4 load(1, XDATA, add(CFA_XSP16, literal(-8)))
        CFI V5 load(1, XDATA, add(CFA_XSP16, literal(-7)))
        CFI R7 load(1, XDATA, add(CFA_XSP16, literal(-6)))
        CFI ?RET_LOW load(1, XDATA, add(CFA_XSP16, literal(-5)))
        CFI ?RET_HIGH load(1, XDATA, add(CFA_XSP16, literal(-4)))
        CFI ?BRET_EXT load(1, XDATA, add(CFA_XSP16, literal(-3)))
        CFI DPL0 load(1, XDATA, add(CFA_XSP16, literal(-2)))
        CFI DPH0 load(1, XDATA, add(CFA_XSP16, literal(-1)))
        CFI CFA_SP SP+0
        CFI CFA_XSP16 add(XSP16, 14)
        CFI Block cfiCond131 Using cfiCommon0
        CFI (cfiCond131) NoFunction
        CFI (cfiCond131) Conditional ??CrossCallReturnLabel_20
        CFI (cfiCond131) R6 load(1, XDATA, add(CFA_XSP16, literal(-14)))
        CFI (cfiCond131) VB load(1, XDATA, add(CFA_XSP16, literal(-13)))
        CFI (cfiCond131) V0 load(1, XDATA, add(CFA_XSP16, literal(-12)))
        CFI (cfiCond131) V1 load(1, XDATA, add(CFA_XSP16, literal(-11)))
        CFI (cfiCond131) V2 load(1, XDATA, add(CFA_XSP16, literal(-10)))
        CFI (cfiCond131) V3 load(1, XDATA, add(CFA_XSP16, literal(-9)))
        CFI (cfiCond131) V4 load(1, XDATA, add(CFA_XSP16, literal(-8)))
        CFI (cfiCond131) V5 load(1, XDATA, add(CFA_XSP16, literal(-7)))
        CFI (cfiCond131) R7 load(1, XDATA, add(CFA_XSP16, literal(-6)))
        CFI (cfiCond131) ?RET_LOW load(1, XDATA, add(CFA_XSP16, literal(-5)))
        CFI (cfiCond131) ?RET_HIGH load(1, XDATA, add(CFA_XSP16, literal(-4)))
        CFI (cfiCond131) ?BRET_EXT load(1, XDATA, add(CFA_XSP16, literal(-3)))
        CFI (cfiCond131) DPL0 load(1, XDATA, add(CFA_XSP16, literal(-2)))
        CFI (cfiCond131) DPH0 load(1, XDATA, add(CFA_XSP16, literal(-1)))
        CFI (cfiCond131) CFA_SP SP+0
        CFI (cfiCond131) CFA_XSP16 add(XSP16, 14)
        CFI Block cfiPicker132 Using cfiCommon1
        CFI (cfiPicker132) NoFunction
        CFI (cfiPicker132) Picker
        LCALL   ?Subroutine37 & 0xFFFF
??CrossCallReturnLabel_47:
        INC     DPTR
        INC     DPTR
        INC     DPTR
        INC     DPTR
        INC     DPTR
        INC     DPTR
        RET
        CFI EndBlock cfiCond130
        CFI EndBlock cfiCond131
        CFI EndBlock cfiPicker132

        RSEG BANKED_CODE:CODE:NOROOT(0)
?Subroutine15:
        CFI Block cfiCond133 Using cfiCommon0
        CFI NoFunction
        CFI Conditional ??CrossCallReturnLabel_12
        CFI R6 load(1, XDATA, add(CFA_XSP16, literal(-14)))
        CFI VB load(1, XDATA, add(CFA_XSP16, literal(-13)))
        CFI V0 load(1, XDATA, add(CFA_XSP16, literal(-12)))
        CFI V1 load(1, XDATA, add(CFA_XSP16, literal(-11)))
        CFI V2 load(1, XDATA, add(CFA_XSP16, literal(-10)))
        CFI V3 load(1, XDATA, add(CFA_XSP16, literal(-9)))
        CFI V4 load(1, XDATA, add(CFA_XSP16, literal(-8)))
        CFI V5 load(1, XDATA, add(CFA_XSP16, literal(-7)))
        CFI R7 load(1, XDATA, add(CFA_XSP16, literal(-6)))
        CFI ?RET_LOW load(1, XDATA, add(CFA_XSP16, literal(-5)))
        CFI ?RET_HIGH load(1, XDATA, add(CFA_XSP16, literal(-4)))
        CFI ?BRET_EXT load(1, XDATA, add(CFA_XSP16, literal(-3)))
        CFI DPL0 load(1, XDATA, add(CFA_XSP16, literal(-2)))
        CFI DPH0 load(1, XDATA, add(CFA_XSP16, literal(-1)))
        CFI CFA_SP SP+0
        CFI CFA_XSP16 add(XSP16, 14)
        CFI Block cfiCond134 Using cfiCommon0
        CFI (cfiCond134) NoFunction
        CFI (cfiCond134) Conditional ??CrossCallReturnLabel_13
        CFI (cfiCond134) R6 load(1, XDATA, add(CFA_XSP16, literal(-14)))
        CFI (cfiCond134) VB load(1, XDATA, add(CFA_XSP16, literal(-13)))
        CFI (cfiCond134) V0 load(1, XDATA, add(CFA_XSP16, literal(-12)))
        CFI (cfiCond134) V1 load(1, XDATA, add(CFA_XSP16, literal(-11)))
        CFI (cfiCond134) V2 load(1, XDATA, add(CFA_XSP16, literal(-10)))
        CFI (cfiCond134) V3 load(1, XDATA, add(CFA_XSP16, literal(-9)))
        CFI (cfiCond134) V4 load(1, XDATA, add(CFA_XSP16, literal(-8)))
        CFI (cfiCond134) V5 load(1, XDATA, add(CFA_XSP16, literal(-7)))
        CFI (cfiCond134) R7 load(1, XDATA, add(CFA_XSP16, literal(-6)))
        CFI (cfiCond134) ?RET_LOW load(1, XDATA, add(CFA_XSP16, literal(-5)))
        CFI (cfiCond134) ?RET_HIGH load(1, XDATA, add(CFA_XSP16, literal(-4)))
        CFI (cfiCond134) ?BRET_EXT load(1, XDATA, add(CFA_XSP16, literal(-3)))
        CFI (cfiCond134) DPL0 load(1, XDATA, add(CFA_XSP16, literal(-2)))
        CFI (cfiCond134) DPH0 load(1, XDATA, add(CFA_XSP16, literal(-1)))
        CFI (cfiCond134) CFA_SP SP+0
        CFI (cfiCond134) CFA_XSP16 add(XSP16, 14)
        CFI Block cfiPicker135 Using cfiCommon1
        CFI (cfiPicker135) NoFunction
        CFI (cfiPicker135) Picker
        INC     DPTR
        INC     DPTR
        LCALL   ?Subroutine36 & 0xFFFF
??CrossCallReturnLabel_45:
        RET
        CFI EndBlock cfiCond133
        CFI EndBlock cfiCond134
        CFI EndBlock cfiPicker135

        RSEG BANKED_CODE:CODE:NOROOT(0)
?Subroutine36:
        CFI Block cfiCond136 Using cfiCommon0
        CFI NoFunction
        CFI Conditional ??CrossCallReturnLabel_45, ??CrossCallReturnLabel_12
        CFI R6 load(1, XDATA, add(CFA_XSP16, literal(-14)))
        CFI VB load(1, XDATA, add(CFA_XSP16, literal(-13)))
        CFI V0 load(1, XDATA, add(CFA_XSP16, literal(-12)))
        CFI V1 load(1, XDATA, add(CFA_XSP16, literal(-11)))
        CFI V2 load(1, XDATA, add(CFA_XSP16, literal(-10)))
        CFI V3 load(1, XDATA, add(CFA_XSP16, literal(-9)))
        CFI V4 load(1, XDATA, add(CFA_XSP16, literal(-8)))
        CFI V5 load(1, XDATA, add(CFA_XSP16, literal(-7)))
        CFI R7 load(1, XDATA, add(CFA_XSP16, literal(-6)))
        CFI ?RET_LOW load(1, XDATA, add(CFA_XSP16, literal(-5)))
        CFI ?RET_HIGH load(1, XDATA, add(CFA_XSP16, literal(-4)))
        CFI ?BRET_EXT load(1, XDATA, add(CFA_XSP16, literal(-3)))
        CFI DPL0 load(1, XDATA, add(CFA_XSP16, literal(-2)))
        CFI DPH0 load(1, XDATA, add(CFA_XSP16, literal(-1)))
        CFI CFA_SP SP+0
        CFI CFA_XSP16 add(XSP16, 14)
        CFI Block cfiCond137 Using cfiCommon0
        CFI (cfiCond137) NoFunction
        CFI (cfiCond137) Conditional ??CrossCallReturnLabel_45, ??CrossCallReturnLabel_13
        CFI (cfiCond137) R6 load(1, XDATA, add(CFA_XSP16, literal(-14)))
        CFI (cfiCond137) VB load(1, XDATA, add(CFA_XSP16, literal(-13)))
        CFI (cfiCond137) V0 load(1, XDATA, add(CFA_XSP16, literal(-12)))
        CFI (cfiCond137) V1 load(1, XDATA, add(CFA_XSP16, literal(-11)))
        CFI (cfiCond137) V2 load(1, XDATA, add(CFA_XSP16, literal(-10)))
        CFI (cfiCond137) V3 load(1, XDATA, add(CFA_XSP16, literal(-9)))
        CFI (cfiCond137) V4 load(1, XDATA, add(CFA_XSP16, literal(-8)))
        CFI (cfiCond137) V5 load(1, XDATA, add(CFA_XSP16, literal(-7)))
        CFI (cfiCond137) R7 load(1, XDATA, add(CFA_XSP16, literal(-6)))
        CFI (cfiCond137) ?RET_LOW load(1, XDATA, add(CFA_XSP16, literal(-5)))
        CFI (cfiCond137) ?RET_HIGH load(1, XDATA, add(CFA_XSP16, literal(-4)))
        CFI (cfiCond137) ?BRET_EXT load(1, XDATA, add(CFA_XSP16, literal(-3)))
        CFI (cfiCond137) DPL0 load(1, XDATA, add(CFA_XSP16, literal(-2)))
        CFI (cfiCond137) DPH0 load(1, XDATA, add(CFA_XSP16, literal(-1)))
        CFI (cfiCond137) CFA_SP SP+0
        CFI (cfiCond137) CFA_XSP16 add(XSP16, 14)
        CFI Block cfiCond138 Using cfiCommon0
        CFI (cfiCond138) NoFunction
        CFI (cfiCond138) Conditional ??CrossCallReturnLabel_46, ??CrossCallReturnLabel_2
        CFI (cfiCond138) R6 load(1, XDATA, add(CFA_XSP16, literal(-14)))
        CFI (cfiCond138) VB load(1, XDATA, add(CFA_XSP16, literal(-13)))
        CFI (cfiCond138) V0 load(1, XDATA, add(CFA_XSP16, literal(-12)))
        CFI (cfiCond138) V1 load(1, XDATA, add(CFA_XSP16, literal(-11)))
        CFI (cfiCond138) V2 load(1, XDATA, add(CFA_XSP16, literal(-10)))
        CFI (cfiCond138) V3 load(1, XDATA, add(CFA_XSP16, literal(-9)))
        CFI (cfiCond138) V4 load(1, XDATA, add(CFA_XSP16, literal(-8)))
        CFI (cfiCond138) V5 load(1, XDATA, add(CFA_XSP16, literal(-7)))
        CFI (cfiCond138) R7 load(1, XDATA, add(CFA_XSP16, literal(-6)))
        CFI (cfiCond138) ?RET_LOW load(1, XDATA, add(CFA_XSP16, literal(-5)))
        CFI (cfiCond138) ?RET_HIGH load(1, XDATA, add(CFA_XSP16, literal(-4)))
        CFI (cfiCond138) ?BRET_EXT load(1, XDATA, add(CFA_XSP16, literal(-3)))
        CFI (cfiCond138) DPL0 load(1, XDATA, add(CFA_XSP16, literal(-2)))
        CFI (cfiCond138) DPH0 load(1, XDATA, add(CFA_XSP16, literal(-1)))
        CFI (cfiCond138) CFA_SP SP+0
        CFI (cfiCond138) CFA_XSP16 add(XSP16, 14)
        CFI Block cfiCond139 Using cfiCommon0
        CFI (cfiCond139) NoFunction
        CFI (cfiCond139) Conditional ??CrossCallReturnLabel_46, ??CrossCallReturnLabel_3
        CFI (cfiCond139) R6 load(1, XDATA, add(CFA_XSP16, literal(-14)))
        CFI (cfiCond139) VB load(1, XDATA, add(CFA_XSP16, literal(-13)))
        CFI (cfiCond139) V0 load(1, XDATA, add(CFA_XSP16, literal(-12)))
        CFI (cfiCond139) V1 load(1, XDATA, add(CFA_XSP16, literal(-11)))
        CFI (cfiCond139) V2 load(1, XDATA, add(CFA_XSP16, literal(-10)))
        CFI (cfiCond139) V3 load(1, XDATA, add(CFA_XSP16, literal(-9)))
        CFI (cfiCond139) V4 load(1, XDATA, add(CFA_XSP16, literal(-8)))
        CFI (cfiCond139) V5 load(1, XDATA, add(CFA_XSP16, literal(-7)))
        CFI (cfiCond139) R7 load(1, XDATA, add(CFA_XSP16, literal(-6)))
        CFI (cfiCond139) ?RET_LOW load(1, XDATA, add(CFA_XSP16, literal(-5)))
        CFI (cfiCond139) ?RET_HIGH load(1, XDATA, add(CFA_XSP16, literal(-4)))
        CFI (cfiCond139) ?BRET_EXT load(1, XDATA, add(CFA_XSP16, literal(-3)))
        CFI (cfiCond139) DPL0 load(1, XDATA, add(CFA_XSP16, literal(-2)))
        CFI (cfiCond139) DPH0 load(1, XDATA, add(CFA_XSP16, literal(-1)))
        CFI (cfiCond139) CFA_SP SP+0
        CFI (cfiCond139) CFA_XSP16 add(XSP16, 14)
        CFI Block cfiPicker140 Using cfiCommon1
        CFI (cfiPicker140) NoFunction
        CFI (cfiPicker140) Picker
        MOVX    @DPTR,A
        MOV     DPL,?V0 + 0
        MOV     DPH,?V0 + 1
        INC     DPTR
        INC     DPTR
        RET
        CFI EndBlock cfiCond136
        CFI EndBlock cfiCond137
        CFI EndBlock cfiCond138
        CFI EndBlock cfiCond139
        CFI EndBlock cfiPicker140

        RSEG BANKED_CODE:CODE:NOROOT(0)
?Subroutine11:
        CFI Block cfiCond141 Using cfiCommon0
        CFI NoFunction
        CFI Conditional ??CrossCallReturnLabel_6
        CFI R6 load(1, XDATA, add(CFA_XSP16, literal(-10)))
        CFI VB load(1, XDATA, add(CFA_XSP16, literal(-9)))
        CFI V0 load(1, XDATA, add(CFA_XSP16, literal(-8)))
        CFI V1 load(1, XDATA, add(CFA_XSP16, literal(-7)))
        CFI R7 load(1, XDATA, add(CFA_XSP16, literal(-6)))
        CFI ?RET_LOW load(1, XDATA, add(CFA_XSP16, literal(-5)))
        CFI ?RET_HIGH load(1, XDATA, add(CFA_XSP16, literal(-4)))
        CFI ?BRET_EXT load(1, XDATA, add(CFA_XSP16, literal(-3)))
        CFI DPL0 load(1, XDATA, add(CFA_XSP16, literal(-2)))
        CFI DPH0 load(1, XDATA, add(CFA_XSP16, literal(-1)))
        CFI CFA_SP SP+0
        CFI CFA_XSP16 add(XSP16, 11)
        CFI Block cfiCond142 Using cfiCommon0
        CFI (cfiCond142) NoFunction
        CFI (cfiCond142) Conditional ??CrossCallReturnLabel_7
        CFI (cfiCond142) R6 load(1, XDATA, add(CFA_XSP16, literal(-14)))
        CFI (cfiCond142) VB load(1, XDATA, add(CFA_XSP16, literal(-13)))
        CFI (cfiCond142) V0 load(1, XDATA, add(CFA_XSP16, literal(-12)))
        CFI (cfiCond142) V1 load(1, XDATA, add(CFA_XSP16, literal(-11)))
        CFI (cfiCond142) V2 load(1, XDATA, add(CFA_XSP16, literal(-10)))
        CFI (cfiCond142) V3 load(1, XDATA, add(CFA_XSP16, literal(-9)))
        CFI (cfiCond142) V4 load(1, XDATA, add(CFA_XSP16, literal(-8)))
        CFI (cfiCond142) V5 load(1, XDATA, add(CFA_XSP16, literal(-7)))
        CFI (cfiCond142) R7 load(1, XDATA, add(CFA_XSP16, literal(-6)))
        CFI (cfiCond142) ?RET_LOW load(1, XDATA, add(CFA_XSP16, literal(-5)))
        CFI (cfiCond142) ?RET_HIGH load(1, XDATA, add(CFA_XSP16, literal(-4)))
        CFI (cfiCond142) ?BRET_EXT load(1, XDATA, add(CFA_XSP16, literal(-3)))
        CFI (cfiCond142) DPL0 load(1, XDATA, add(CFA_XSP16, literal(-2)))
        CFI (cfiCond142) DPH0 load(1, XDATA, add(CFA_XSP16, literal(-1)))
        CFI (cfiCond142) CFA_SP SP+0
        CFI (cfiCond142) CFA_XSP16 add(XSP16, 14)
        CFI Block cfiPicker143 Using cfiCommon1
        CFI (cfiPicker143) NoFunction
        CFI (cfiPicker143) Picker
        MOVX    @DPTR,A
        ; Setup parameters for call to function ZDApp_NodeProfileSync
        MOV     DPL,R6
        MOV     DPH,R7
        INC     DPTR
        INC     DPTR
        INC     DPTR
        INC     DPTR
        INC     DPTR
        INC     DPTR
        RET
        CFI EndBlock cfiCond141
        CFI EndBlock cfiCond142
        CFI EndBlock cfiPicker143

        RSEG BANKED_CODE:CODE:NOROOT(0)
?Subroutine9:
        CFI Block cfiCond144 Using cfiCommon0
        CFI NoFunction
        CFI Conditional ??CrossCallReturnLabel_2
        CFI R6 load(1, XDATA, add(CFA_XSP16, literal(-14)))
        CFI VB load(1, XDATA, add(CFA_XSP16, literal(-13)))
        CFI V0 load(1, XDATA, add(CFA_XSP16, literal(-12)))
        CFI V1 load(1, XDATA, add(CFA_XSP16, literal(-11)))
        CFI V2 load(1, XDATA, add(CFA_XSP16, literal(-10)))
        CFI V3 load(1, XDATA, add(CFA_XSP16, literal(-9)))
        CFI V4 load(1, XDATA, add(CFA_XSP16, literal(-8)))
        CFI V5 load(1, XDATA, add(CFA_XSP16, literal(-7)))
        CFI R7 load(1, XDATA, add(CFA_XSP16, literal(-6)))
        CFI ?RET_LOW load(1, XDATA, add(CFA_XSP16, literal(-5)))
        CFI ?RET_HIGH load(1, XDATA, add(CFA_XSP16, literal(-4)))
        CFI ?BRET_EXT load(1, XDATA, add(CFA_XSP16, literal(-3)))
        CFI DPL0 load(1, XDATA, add(CFA_XSP16, literal(-2)))
        CFI DPH0 load(1, XDATA, add(CFA_XSP16, literal(-1)))
        CFI CFA_SP SP+0
        CFI CFA_XSP16 add(XSP16, 14)
        CFI Block cfiCond145 Using cfiCommon0
        CFI (cfiCond145) NoFunction
        CFI (cfiCond145) Conditional ??CrossCallReturnLabel_3
        CFI (cfiCond145) R6 load(1, XDATA, add(CFA_XSP16, literal(-14)))
        CFI (cfiCond145) VB load(1, XDATA, add(CFA_XSP16, literal(-13)))
        CFI (cfiCond145) V0 load(1, XDATA, add(CFA_XSP16, literal(-12)))
        CFI (cfiCond145) V1 load(1, XDATA, add(CFA_XSP16, literal(-11)))
        CFI (cfiCond145) V2 load(1, XDATA, add(CFA_XSP16, literal(-10)))
        CFI (cfiCond145) V3 load(1, XDATA, add(CFA_XSP16, literal(-9)))
        CFI (cfiCond145) V4 load(1, XDATA, add(CFA_XSP16, literal(-8)))
        CFI (cfiCond145) V5 load(1, XDATA, add(CFA_XSP16, literal(-7)))
        CFI (cfiCond145) R7 load(1, XDATA, add(CFA_XSP16, literal(-6)))
        CFI (cfiCond145) ?RET_LOW load(1, XDATA, add(CFA_XSP16, literal(-5)))
        CFI (cfiCond145) ?RET_HIGH load(1, XDATA, add(CFA_XSP16, literal(-4)))
        CFI (cfiCond145) ?BRET_EXT load(1, XDATA, add(CFA_XSP16, literal(-3)))
        CFI (cfiCond145) DPL0 load(1, XDATA, add(CFA_XSP16, literal(-2)))
        CFI (cfiCond145) DPH0 load(1, XDATA, add(CFA_XSP16, literal(-1)))
        CFI (cfiCond145) CFA_SP SP+0
        CFI (cfiCond145) CFA_XSP16 add(XSP16, 14)
        CFI Block cfiPicker146 Using cfiCommon1
        CFI (cfiPicker146) NoFunction
        CFI (cfiPicker146) Picker
        LCALL   ?Subroutine36 & 0xFFFF
??CrossCallReturnLabel_46:
        INC     DPTR
        INC     DPTR
        INC     DPTR
        INC     DPTR
        INC     DPTR
        RET
        CFI EndBlock cfiCond144
        CFI EndBlock cfiCond145
        CFI EndBlock cfiPicker146
// 2266 
// 2267 /*********************************************************************
// 2268  * @fn          ZDO_StartRouterConfirmCB
// 2269  *
// 2270  * @brief       This function reports the results of the request to
// 2271  *              start functioning as a router in a network.
// 2272  *
// 2273  * @param       Status - Result of NLME_StartRouterRequest()
// 2274  *
// 2275  * @return      none
// 2276  */

        RSEG BANKED_CODE:CODE:NOROOT(0)
// 2277 void ZDO_StartRouterConfirmCB( ZStatus_t Status )
ZDO_StartRouterConfirmCB:
        CFI Block cfiBlock147 Using cfiCommon0
        CFI Function ZDO_StartRouterConfirmCB
// 2278 {
        FUNCALL ZDO_StartRouterConfirmCB, HalLedSet
        LOCFRAME ISTACK, 0, STACK
        LOCFRAME PSTACK, 0, STACK
        LOCFRAME XSTACK, 9, STACK
        LOCFRAME IOVERLAY, 0, STATIC
        LOCFRAME DOVERLAY, 0, STATIC
        ARGFRAME ISTACK, 0, STACK
        ARGFRAME PSTACK, 0, STACK
        ARGFRAME XSTACK, 9, STACK
        ARGFRAME IOVERLAY, 0, STATIC
        ARGFRAME DOVERLAY, 0, STATIC
        FUNCALL ZDO_StartRouterConfirmCB, HalLedSet
        LOCFRAME ISTACK, 0, STACK
        LOCFRAME PSTACK, 0, STACK
        LOCFRAME XSTACK, 9, STACK
        LOCFRAME IOVERLAY, 0, STATIC
        LOCFRAME DOVERLAY, 0, STATIC
        ARGFRAME ISTACK, 0, STACK
        ARGFRAME PSTACK, 0, STACK
        ARGFRAME XSTACK, 9, STACK
        ARGFRAME IOVERLAY, 0, STATIC
        ARGFRAME DOVERLAY, 0, STATIC
        FUNCALL ZDO_StartRouterConfirmCB, HalLedSet
        LOCFRAME ISTACK, 0, STACK
        LOCFRAME PSTACK, 0, STACK
        LOCFRAME XSTACK, 9, STACK
        LOCFRAME IOVERLAY, 0, STATIC
        LOCFRAME DOVERLAY, 0, STATIC
        ARGFRAME ISTACK, 0, STACK
        ARGFRAME PSTACK, 0, STACK
        ARGFRAME XSTACK, 9, STACK
        ARGFRAME IOVERLAY, 0, STATIC
        ARGFRAME DOVERLAY, 0, STATIC
        FUNCALL ZDO_StartRouterConfirmCB, osal_set_event
        LOCFRAME ISTACK, 0, STACK
        LOCFRAME PSTACK, 0, STACK
        LOCFRAME XSTACK, 9, STACK
        LOCFRAME IOVERLAY, 0, STATIC
        LOCFRAME DOVERLAY, 0, STATIC
        ARGFRAME ISTACK, 0, STACK
        ARGFRAME PSTACK, 0, STACK
        ARGFRAME XSTACK, 9, STACK
        ARGFRAME IOVERLAY, 0, STATIC
        ARGFRAME DOVERLAY, 0, STATIC
        MOV     A,#-0x9
        LCALL   ?BANKED_ENTER_XDATA
        CFI DPH0 load(1, XDATA, add(CFA_XSP16, literal(-1)))
        CFI DPL0 load(1, XDATA, add(CFA_XSP16, literal(-2)))
        CFI ?BRET_EXT load(1, XDATA, add(CFA_XSP16, literal(-3)))
        CFI ?RET_HIGH load(1, XDATA, add(CFA_XSP16, literal(-4)))
        CFI ?RET_LOW load(1, XDATA, add(CFA_XSP16, literal(-5)))
        CFI R7 load(1, XDATA, add(CFA_XSP16, literal(-6)))
        CFI V0 load(1, XDATA, add(CFA_XSP16, literal(-7)))
        CFI VB load(1, XDATA, add(CFA_XSP16, literal(-8)))
        CFI R6 load(1, XDATA, add(CFA_XSP16, literal(-9)))
        CFI CFA_SP SP+0
        CFI CFA_XSP16 add(XSP16, 9)
        ; Saved register size: 9
        ; Auto size: 0
        MOV     A,R1
// 2279   nwkStatus = (byte)Status;
        MOV     DPTR,#nwkStatus
        MOVX    @DPTR,A
// 2280 
// 2281   if ( Status == ZSUCCESS )
        JNZ     ??ZDO_StartRouterConfirmCB_0
// 2282   {
// 2283     // LED on shows Router started
// 2284     HalLedSet ( HAL_LED_3, HAL_LED_MODE_ON );
        ; Setup parameters for call to function HalLedSet
        LCALL   ?Subroutine33 & 0xFFFF
// 2285     // LED off forgets HOLD_AUTO_START
// 2286     HalLedSet ( HAL_LED_4, HAL_LED_MODE_OFF);
// 2287     if ( devState == DEV_HOLD )
??CrossCallReturnLabel_41:
        JNZ     ??ZDO_StartRouterConfirmCB_1
// 2288     {
// 2289       // Began with HOLD_AUTO_START
// 2290       devState = DEV_END_DEVICE;
        MOV     A,#0x6
        MOVX    @DPTR,A
        SJMP    ??ZDO_StartRouterConfirmCB_1
// 2291     }
// 2292   }
// 2293 #if defined(BLINK_LEDS)
// 2294   else
// 2295   {
// 2296     HalLedSet( HAL_LED_3, HAL_LED_MODE_FLASH );  // Flash LED to show failure
??ZDO_StartRouterConfirmCB_0:
        ; Setup parameters for call to function HalLedSet
        MOV     R2,#0x4
        MOV     R1,#0x4
        LCALL   ??HalLedSet?relay
// 2297   }
// 2298 #endif
// 2299 
// 2300   osal_set_event( ZDAppTaskID, ZDO_ROUTER_START );
??ZDO_StartRouterConfirmCB_1:
        ; Setup parameters for call to function osal_set_event
        MOV     R2,#0x20
        LJMP    ?Subroutine0 & 0xFFFF
        CFI EndBlock cfiBlock147
// 2301 }

        RSEG BANKED_CODE:CODE:NOROOT(0)
?Subroutine33:
        CFI Block cfiCond148 Using cfiCommon0
        CFI NoFunction
        CFI Conditional ??CrossCallReturnLabel_40
        CFI R6 load(1, XDATA, add(CFA_XSP16, literal(-9)))
        CFI VB load(1, XDATA, add(CFA_XSP16, literal(-8)))
        CFI V0 load(1, XDATA, add(CFA_XSP16, literal(-7)))
        CFI R7 load(1, XDATA, add(CFA_XSP16, literal(-6)))
        CFI ?RET_LOW load(1, XDATA, add(CFA_XSP16, literal(-5)))
        CFI ?RET_HIGH load(1, XDATA, add(CFA_XSP16, literal(-4)))
        CFI ?BRET_EXT load(1, XDATA, add(CFA_XSP16, literal(-3)))
        CFI DPL0 load(1, XDATA, add(CFA_XSP16, literal(-2)))
        CFI DPH0 load(1, XDATA, add(CFA_XSP16, literal(-1)))
        CFI CFA_SP SP+0
        CFI CFA_XSP16 add(XSP16, 9)
        CFI Block cfiCond149 Using cfiCommon0
        CFI (cfiCond149) NoFunction
        CFI (cfiCond149) Conditional ??CrossCallReturnLabel_41
        CFI (cfiCond149) R6 load(1, XDATA, add(CFA_XSP16, literal(-9)))
        CFI (cfiCond149) VB load(1, XDATA, add(CFA_XSP16, literal(-8)))
        CFI (cfiCond149) V0 load(1, XDATA, add(CFA_XSP16, literal(-7)))
        CFI (cfiCond149) R7 load(1, XDATA, add(CFA_XSP16, literal(-6)))
        CFI (cfiCond149) ?RET_LOW load(1, XDATA, add(CFA_XSP16, literal(-5)))
        CFI (cfiCond149) ?RET_HIGH load(1, XDATA, add(CFA_XSP16, literal(-4)))
        CFI (cfiCond149) ?BRET_EXT load(1, XDATA, add(CFA_XSP16, literal(-3)))
        CFI (cfiCond149) DPL0 load(1, XDATA, add(CFA_XSP16, literal(-2)))
        CFI (cfiCond149) DPH0 load(1, XDATA, add(CFA_XSP16, literal(-1)))
        CFI (cfiCond149) CFA_SP SP+0
        CFI (cfiCond149) CFA_XSP16 add(XSP16, 9)
        CFI Block cfiCond150 Using cfiCommon0
        CFI (cfiCond150) NoFunction
        CFI (cfiCond150) Conditional ??CrossCallReturnLabel_42
        CFI (cfiCond150) R6 load(1, XDATA, add(CFA_XSP16, literal(-9)))
        CFI (cfiCond150) VB load(1, XDATA, add(CFA_XSP16, literal(-8)))
        CFI (cfiCond150) V0 load(1, XDATA, add(CFA_XSP16, literal(-7)))
        CFI (cfiCond150) R7 load(1, XDATA, add(CFA_XSP16, literal(-6)))
        CFI (cfiCond150) ?RET_LOW load(1, XDATA, add(CFA_XSP16, literal(-5)))
        CFI (cfiCond150) ?RET_HIGH load(1, XDATA, add(CFA_XSP16, literal(-4)))
        CFI (cfiCond150) ?BRET_EXT load(1, XDATA, add(CFA_XSP16, literal(-3)))
        CFI (cfiCond150) DPL0 load(1, XDATA, add(CFA_XSP16, literal(-2)))
        CFI (cfiCond150) DPH0 load(1, XDATA, add(CFA_XSP16, literal(-1)))
        CFI (cfiCond150) CFA_SP SP+0
        CFI (cfiCond150) CFA_XSP16 add(XSP16, 14)
        CFI Block cfiPicker151 Using cfiCommon1
        CFI (cfiPicker151) NoFunction
        CFI (cfiPicker151) Picker
        MOV     R2,#0x1
        MOV     R1,#0x4
        LCALL   ??HalLedSet?relay
        ; Setup parameters for call to function HalLedSet
        ; Setup parameters for call to function HalLedSet
        ; Setup parameters for call to function HalLedSet
        MOV     R2,#0x0
        MOV     R1,#0x8
        LCALL   ??HalLedSet?relay
        MOV     DPTR,#devState
        MOVX    A,@DPTR
        RET
        CFI EndBlock cfiCond148
        CFI EndBlock cfiCond149
        CFI EndBlock cfiCond150
        CFI EndBlock cfiPicker151
// 2302 
// 2303 /*********************************************************************
// 2304  * @fn          ZDO_JoinConfirmCB
// 2305  *
// 2306  * @brief       This function allows the next hight layer to be notified
// 2307  *              of the results of its request to join itself or another
// 2308  *              device to a network.
// 2309  *
// 2310  * @param       Status - Result of NLME_JoinRequest()
// 2311  *
// 2312  * @return      none
// 2313  */

        RSEG BANKED_CODE:CODE:NOROOT(0)
// 2314 void ZDO_JoinConfirmCB( uint16 PanId, ZStatus_t Status )
ZDO_JoinConfirmCB:
        CFI Block cfiBlock152 Using cfiCommon0
        CFI Function ZDO_JoinConfirmCB
// 2315 {
        FUNCALL ZDO_JoinConfirmCB, HalLedSet
        LOCFRAME ISTACK, 0, STACK
        LOCFRAME PSTACK, 0, STACK
        LOCFRAME XSTACK, 14, STACK
        LOCFRAME IOVERLAY, 0, STATIC
        LOCFRAME DOVERLAY, 0, STATIC
        ARGFRAME ISTACK, 0, STACK
        ARGFRAME PSTACK, 0, STACK
        ARGFRAME XSTACK, 14, STACK
        ARGFRAME IOVERLAY, 0, STATIC
        ARGFRAME DOVERLAY, 0, STATIC
        FUNCALL ZDO_JoinConfirmCB, HalLedSet
        LOCFRAME ISTACK, 0, STACK
        LOCFRAME PSTACK, 0, STACK
        LOCFRAME XSTACK, 14, STACK
        LOCFRAME IOVERLAY, 0, STATIC
        LOCFRAME DOVERLAY, 0, STATIC
        ARGFRAME ISTACK, 0, STACK
        ARGFRAME PSTACK, 0, STACK
        ARGFRAME XSTACK, 14, STACK
        ARGFRAME IOVERLAY, 0, STATIC
        ARGFRAME DOVERLAY, 0, STATIC
        FUNCALL ZDO_JoinConfirmCB, HalLedSet
        LOCFRAME ISTACK, 0, STACK
        LOCFRAME PSTACK, 0, STACK
        LOCFRAME XSTACK, 14, STACK
        LOCFRAME IOVERLAY, 0, STATIC
        LOCFRAME DOVERLAY, 0, STATIC
        ARGFRAME ISTACK, 0, STACK
        ARGFRAME PSTACK, 0, STACK
        ARGFRAME XSTACK, 14, STACK
        ARGFRAME IOVERLAY, 0, STATIC
        ARGFRAME DOVERLAY, 0, STATIC
        FUNCALL ZDO_JoinConfirmCB, ZDApp_SendMsg
        LOCFRAME ISTACK, 0, STACK
        LOCFRAME PSTACK, 0, STACK
        LOCFRAME XSTACK, 14, STACK
        LOCFRAME IOVERLAY, 0, STATIC
        LOCFRAME DOVERLAY, 0, STATIC
        ARGFRAME ISTACK, 0, STACK
        ARGFRAME PSTACK, 0, STACK
        ARGFRAME XSTACK, 14, STACK
        ARGFRAME IOVERLAY, 0, STATIC
        ARGFRAME DOVERLAY, 0, STATIC
        MOV     A,#-0x9
        LCALL   ?BANKED_ENTER_XDATA
        CFI DPH0 load(1, XDATA, add(CFA_XSP16, literal(-1)))
        CFI DPL0 load(1, XDATA, add(CFA_XSP16, literal(-2)))
        CFI ?BRET_EXT load(1, XDATA, add(CFA_XSP16, literal(-3)))
        CFI ?RET_HIGH load(1, XDATA, add(CFA_XSP16, literal(-4)))
        CFI ?RET_LOW load(1, XDATA, add(CFA_XSP16, literal(-5)))
        CFI R7 load(1, XDATA, add(CFA_XSP16, literal(-6)))
        CFI V0 load(1, XDATA, add(CFA_XSP16, literal(-7)))
        CFI VB load(1, XDATA, add(CFA_XSP16, literal(-8)))
        CFI R6 load(1, XDATA, add(CFA_XSP16, literal(-9)))
        CFI CFA_SP SP+0
        CFI CFA_XSP16 add(XSP16, 9)
        ; Saved register size: 9
        ; Auto size: 5
        MOV     A,#-0x5
        LCALL   ?ALLOC_XSTACK8
        CFI CFA_XSP16 add(XSP16, 14)
        MOV     A,R1
        MOV     R6,A
// 2316   (void)PanId;  // remove if this parameter is used.
// 2317   
// 2318   nwkStatus = (byte)Status;
        MOV     DPTR,#nwkStatus
        MOVX    @DPTR,A
// 2319 
// 2320   if ( Status == ZSUCCESS )
        JNZ     ??ZDO_JoinConfirmCB_0
// 2321   {
// 2322     // LED on shows device joined
// 2323     HalLedSet ( HAL_LED_3, HAL_LED_MODE_ON );
        ; Setup parameters for call to function HalLedSet
        LCALL   ?Subroutine33 & 0xFFFF
// 2324     // LED off forgets HOLD_AUTO_START
// 2325     HalLedSet ( HAL_LED_4, HAL_LED_MODE_OFF);
// 2326     if ( (devState == DEV_HOLD) )
??CrossCallReturnLabel_42:
        JNZ     ??ZDO_JoinConfirmCB_1
// 2327     {
// 2328       // Began with HOLD_AUTO_START
// 2329       devState = DEV_NWK_JOINING;
        MOV     A,#0x3
        MOVX    @DPTR,A
        SJMP    ??ZDO_JoinConfirmCB_1
// 2330     }
// 2331 
// 2332     if ( !ZG_SECURE_ENABLED )
// 2333     {
// 2334       // Notify to save info into NV
// 2335       ZDApp_NVUpdate();
// 2336     }
// 2337   }
// 2338   else
// 2339   {
// 2340 #if defined(BLINK_LEDS)
// 2341     HalLedSet ( HAL_LED_3, HAL_LED_MODE_FLASH );  // Flash LED to show failure
??ZDO_JoinConfirmCB_0:
        ; Setup parameters for call to function HalLedSet
        MOV     R2,#0x4
        MOV     R1,#0x4
        LCALL   ??HalLedSet?relay
// 2342 #endif
// 2343   }
// 2344     
// 2345   // Pass the join confirm to higher layer if callback registered
// 2346   if (zdoCBFunc[ZDO_JOIN_CNF_CBID] != NULL )
??ZDO_JoinConfirmCB_1:
        MOV     DPTR,#(zdoCBFunc + 8)
        MOVX    A,@DPTR
        JNZ     ??ZDO_JoinConfirmCB_2
        INC     DPTR
        MOVX    A,@DPTR
??ZDO_JoinConfirmCB_2:
        JZ      ??ZDO_JoinConfirmCB_3
// 2347   {  
// 2348     zdoJoinCnf_t joinCnf;
// 2349     
// 2350     joinCnf.status = Status;
        MOV     A,R6
        MOV     DPL,?XSP + 0
        MOV     DPH,?XSP + 1
        MOVX    @DPTR,A
// 2351     joinCnf.deviceAddr = _NIB.nwkDevAddress;
        MOV     DPTR,#(_NIB + 20)
        LCALL   ??Subroutine50_0 & 0xFFFF
??CrossCallReturnLabel_78:
        MOV     A,#0x1
        LCALL   ?XSTACK_DISP0_8
        MOV     A,R0
        MOVX    @DPTR,A
        INC     DPTR
        MOV     A,R1
        MOVX    @DPTR,A
// 2352     joinCnf.parentAddr = _NIB.nwkCoordAddress;
        MOV     DPTR,#(_NIB + 23)
        LCALL   ??Subroutine50_0 & 0xFFFF
// 2353            
// 2354     zdoCBFunc[ZDO_JOIN_CNF_CBID]( (void*)&joinCnf );
// 2355   }
??CrossCallReturnLabel_79:
        MOV     A,#0x3
        LCALL   ?XSTACK_DISP0_8
        MOV     A,R0
        MOVX    @DPTR,A
        INC     DPTR
        MOV     A,R1
        LCALL   ?Subroutine12 & 0xFFFF
??CrossCallReturnLabel_9:
        MOV     DPTR,#(zdoCBFunc + 8)
        LCALL   ?Subroutine16 & 0xFFFF
??CrossCallReturnLabel_16:
        LCALL   ?CALL_IND
// 2356   
// 2357   // Notify ZDApp
// 2358   ZDApp_SendMsg( ZDAppTaskID, ZDO_NWK_JOIN_IND, sizeof(osal_event_hdr_t), (byte*)NULL );
??ZDO_JoinConfirmCB_3:
        ; Setup parameters for call to function ZDApp_SendMsg
        MOV     R4,#0x0
        MOV     R5,#0x0
        MOV     R3,#0x2
        MOV     R2,#0x2
        LCALL   ?Subroutine21 & 0xFFFF
        CFI EndBlock cfiBlock152
// 2359   
// 2360 }
??CrossCallReturnLabel_23:
        REQUIRE ?Subroutine6
        ; // Fall through to label ?Subroutine6

        RSEG BANKED_CODE:CODE:NOROOT(0)
?Subroutine6:
        CFI Block cfiBlock153 Using cfiCommon0
        CFI NoFunction
        CFI CFA_SP SP+0
        CFI CFA_XSP16 add(XSP16, 14)
        CFI VB load(1, XDATA, add(CFA_XSP16, literal(-8)))
        CFI DPL0 load(1, XDATA, add(CFA_XSP16, literal(-2)))
        CFI DPH0 load(1, XDATA, add(CFA_XSP16, literal(-1)))
        CFI R6 load(1, XDATA, add(CFA_XSP16, literal(-9)))
        CFI R7 load(1, XDATA, add(CFA_XSP16, literal(-6)))
        CFI V0 load(1, XDATA, add(CFA_XSP16, literal(-7)))
        CFI ?BRET_EXT load(1, XDATA, add(CFA_XSP16, literal(-3)))
        CFI ?RET_HIGH load(1, XDATA, add(CFA_XSP16, literal(-4)))
        CFI ?RET_LOW load(1, XDATA, add(CFA_XSP16, literal(-5)))
        MOV     A,#0x5
        LCALL   ?DEALLOC_XSTACK8
        CFI CFA_XSP16 add(XSP16, 9)
        LJMP    ??Subroutine48_0 & 0xFFFF
        CFI EndBlock cfiBlock153

        RSEG BANKED_CODE:CODE:NOROOT(0)
?Subroutine21:
        CFI Block cfiCond154 Using cfiCommon0
        CFI NoFunction
        CFI Conditional ??CrossCallReturnLabel_21
        CFI R6 load(1, XDATA, add(CFA_XSP16, literal(-9)))
        CFI VB load(1, XDATA, add(CFA_XSP16, literal(-8)))
        CFI V0 load(1, XDATA, add(CFA_XSP16, literal(-7)))
        CFI R7 load(1, XDATA, add(CFA_XSP16, literal(-6)))
        CFI ?RET_LOW load(1, XDATA, add(CFA_XSP16, literal(-5)))
        CFI ?RET_HIGH load(1, XDATA, add(CFA_XSP16, literal(-4)))
        CFI ?BRET_EXT load(1, XDATA, add(CFA_XSP16, literal(-3)))
        CFI DPL0 load(1, XDATA, add(CFA_XSP16, literal(-2)))
        CFI DPH0 load(1, XDATA, add(CFA_XSP16, literal(-1)))
        CFI CFA_SP SP+0
        CFI CFA_XSP16 add(XSP16, 9)
        CFI Block cfiCond155 Using cfiCommon0
        CFI (cfiCond155) NoFunction
        CFI (cfiCond155) Conditional ??CrossCallReturnLabel_22
        CFI (cfiCond155) DPL0 Frame(CFA_SP, 4)
        CFI (cfiCond155) DPH0 Frame(CFA_SP, 5)
        CFI (cfiCond155) CFA_SP SP+-5
        CFI (cfiCond155) CFA_XSP16 add(XSP16, 3)
        CFI Block cfiCond156 Using cfiCommon0
        CFI (cfiCond156) NoFunction
        CFI (cfiCond156) Conditional ??CrossCallReturnLabel_23
        CFI (cfiCond156) R6 load(1, XDATA, add(CFA_XSP16, literal(-9)))
        CFI (cfiCond156) VB load(1, XDATA, add(CFA_XSP16, literal(-8)))
        CFI (cfiCond156) V0 load(1, XDATA, add(CFA_XSP16, literal(-7)))
        CFI (cfiCond156) R7 load(1, XDATA, add(CFA_XSP16, literal(-6)))
        CFI (cfiCond156) ?RET_LOW load(1, XDATA, add(CFA_XSP16, literal(-5)))
        CFI (cfiCond156) ?RET_HIGH load(1, XDATA, add(CFA_XSP16, literal(-4)))
        CFI (cfiCond156) ?BRET_EXT load(1, XDATA, add(CFA_XSP16, literal(-3)))
        CFI (cfiCond156) DPL0 load(1, XDATA, add(CFA_XSP16, literal(-2)))
        CFI (cfiCond156) DPH0 load(1, XDATA, add(CFA_XSP16, literal(-1)))
        CFI (cfiCond156) CFA_SP SP+0
        CFI (cfiCond156) CFA_XSP16 add(XSP16, 14)
        CFI Block cfiCond157 Using cfiCommon0
        CFI (cfiCond157) NoFunction
        CFI (cfiCond157) Conditional ??CrossCallReturnLabel_24
        CFI (cfiCond157) R6 load(1, XDATA, add(CFA_XSP16, literal(-9)))
        CFI (cfiCond157) VB load(1, XDATA, add(CFA_XSP16, literal(-8)))
        CFI (cfiCond157) V0 load(1, XDATA, add(CFA_XSP16, literal(-7)))
        CFI (cfiCond157) R7 load(1, XDATA, add(CFA_XSP16, literal(-6)))
        CFI (cfiCond157) ?RET_LOW load(1, XDATA, add(CFA_XSP16, literal(-5)))
        CFI (cfiCond157) ?RET_HIGH load(1, XDATA, add(CFA_XSP16, literal(-4)))
        CFI (cfiCond157) ?BRET_EXT load(1, XDATA, add(CFA_XSP16, literal(-3)))
        CFI (cfiCond157) DPL0 load(1, XDATA, add(CFA_XSP16, literal(-2)))
        CFI (cfiCond157) DPH0 load(1, XDATA, add(CFA_XSP16, literal(-1)))
        CFI (cfiCond157) CFA_SP SP+0
        CFI (cfiCond157) CFA_XSP16 add(XSP16, 9)
        CFI Block cfiPicker158 Using cfiCommon1
        CFI (cfiPicker158) NoFunction
        CFI (cfiPicker158) Picker
        MOV     DPTR,#ZDAppTaskID
        MOVX    A,@DPTR
        MOV     R1,A
        LCALL   ??ZDApp_SendMsg?relay
        RET
        CFI EndBlock cfiCond154
        CFI EndBlock cfiCond155
        CFI EndBlock cfiCond156
        CFI EndBlock cfiCond157
        CFI EndBlock cfiPicker158

        RSEG BANKED_CODE:CODE:NOROOT(0)
?Subroutine18:
        CFI Block cfiCond159 Using cfiCommon0
        CFI NoFunction
        CFI Conditional ??CrossCallReturnLabel_80
        CFI R6 load(1, XDATA, add(CFA_XSP16, literal(-10)))
        CFI VB load(1, XDATA, add(CFA_XSP16, literal(-9)))
        CFI V0 load(1, XDATA, add(CFA_XSP16, literal(-8)))
        CFI V1 load(1, XDATA, add(CFA_XSP16, literal(-7)))
        CFI R7 load(1, XDATA, add(CFA_XSP16, literal(-6)))
        CFI ?RET_LOW load(1, XDATA, add(CFA_XSP16, literal(-5)))
        CFI ?RET_HIGH load(1, XDATA, add(CFA_XSP16, literal(-4)))
        CFI ?BRET_EXT load(1, XDATA, add(CFA_XSP16, literal(-3)))
        CFI DPL0 load(1, XDATA, add(CFA_XSP16, literal(-2)))
        CFI DPH0 load(1, XDATA, add(CFA_XSP16, literal(-1)))
        CFI CFA_SP SP+0
        CFI CFA_XSP16 add(XSP16, 11)
        CFI Block cfiCond160 Using cfiCommon0
        CFI (cfiCond160) NoFunction
        CFI (cfiCond160) Conditional ??CrossCallReturnLabel_81
        CFI (cfiCond160) R6 load(1, XDATA, add(CFA_XSP16, literal(-14)))
        CFI (cfiCond160) VB load(1, XDATA, add(CFA_XSP16, literal(-13)))
        CFI (cfiCond160) V0 load(1, XDATA, add(CFA_XSP16, literal(-12)))
        CFI (cfiCond160) V1 load(1, XDATA, add(CFA_XSP16, literal(-11)))
        CFI (cfiCond160) V2 load(1, XDATA, add(CFA_XSP16, literal(-10)))
        CFI (cfiCond160) V3 load(1, XDATA, add(CFA_XSP16, literal(-9)))
        CFI (cfiCond160) V4 load(1, XDATA, add(CFA_XSP16, literal(-8)))
        CFI (cfiCond160) V5 load(1, XDATA, add(CFA_XSP16, literal(-7)))
        CFI (cfiCond160) R7 load(1, XDATA, add(CFA_XSP16, literal(-6)))
        CFI (cfiCond160) ?RET_LOW load(1, XDATA, add(CFA_XSP16, literal(-5)))
        CFI (cfiCond160) ?RET_HIGH load(1, XDATA, add(CFA_XSP16, literal(-4)))
        CFI (cfiCond160) ?BRET_EXT load(1, XDATA, add(CFA_XSP16, literal(-3)))
        CFI (cfiCond160) DPL0 load(1, XDATA, add(CFA_XSP16, literal(-2)))
        CFI (cfiCond160) DPH0 load(1, XDATA, add(CFA_XSP16, literal(-1)))
        CFI (cfiCond160) CFA_SP SP+0
        CFI (cfiCond160) CFA_XSP16 add(XSP16, 14)
        CFI Block cfiCond161 Using cfiCommon0
        CFI (cfiCond161) NoFunction
        CFI (cfiCond161) Conditional ??CrossCallReturnLabel_82
        CFI (cfiCond161) R6 load(1, XDATA, add(CFA_XSP16, literal(-14)))
        CFI (cfiCond161) VB load(1, XDATA, add(CFA_XSP16, literal(-13)))
        CFI (cfiCond161) V0 load(1, XDATA, add(CFA_XSP16, literal(-12)))
        CFI (cfiCond161) V1 load(1, XDATA, add(CFA_XSP16, literal(-11)))
        CFI (cfiCond161) V2 load(1, XDATA, add(CFA_XSP16, literal(-10)))
        CFI (cfiCond161) V3 load(1, XDATA, add(CFA_XSP16, literal(-9)))
        CFI (cfiCond161) V4 load(1, XDATA, add(CFA_XSP16, literal(-8)))
        CFI (cfiCond161) V5 load(1, XDATA, add(CFA_XSP16, literal(-7)))
        CFI (cfiCond161) R7 load(1, XDATA, add(CFA_XSP16, literal(-6)))
        CFI (cfiCond161) ?RET_LOW load(1, XDATA, add(CFA_XSP16, literal(-5)))
        CFI (cfiCond161) ?RET_HIGH load(1, XDATA, add(CFA_XSP16, literal(-4)))
        CFI (cfiCond161) ?BRET_EXT load(1, XDATA, add(CFA_XSP16, literal(-3)))
        CFI (cfiCond161) DPL0 load(1, XDATA, add(CFA_XSP16, literal(-2)))
        CFI (cfiCond161) DPH0 load(1, XDATA, add(CFA_XSP16, literal(-1)))
        CFI (cfiCond161) CFA_SP SP+0
        CFI (cfiCond161) CFA_XSP16 add(XSP16, 14)
        CFI Block cfiPicker162 Using cfiCommon1
        CFI (cfiPicker162) NoFunction
        CFI (cfiPicker162) Picker
        MOV     DPL,R6
        MOV     DPH,R7
        CFI EndBlock cfiCond159
        CFI EndBlock cfiCond160
        CFI EndBlock cfiCond161
        CFI EndBlock cfiPicker162
        REQUIRE ??Subroutine50_0
        ; // Fall through to label ??Subroutine50_0

        RSEG BANKED_CODE:CODE:NOROOT(0)
??Subroutine50_0:
        CFI Block cfiCond163 Using cfiCommon0
        CFI NoFunction
        CFI Conditional ??CrossCallReturnLabel_76
        CFI R6 load(1, XDATA, add(CFA_XSP16, literal(-9)))
        CFI VB load(1, XDATA, add(CFA_XSP16, literal(-8)))
        CFI V0 load(1, XDATA, add(CFA_XSP16, literal(-7)))
        CFI R7 load(1, XDATA, add(CFA_XSP16, literal(-6)))
        CFI ?RET_LOW load(1, XDATA, add(CFA_XSP16, literal(-5)))
        CFI ?RET_HIGH load(1, XDATA, add(CFA_XSP16, literal(-4)))
        CFI ?BRET_EXT load(1, XDATA, add(CFA_XSP16, literal(-3)))
        CFI DPL0 load(1, XDATA, add(CFA_XSP16, literal(-2)))
        CFI DPH0 load(1, XDATA, add(CFA_XSP16, literal(-1)))
        CFI CFA_SP SP+0
        CFI CFA_XSP16 add(XSP16, 9)
        CFI Block cfiCond164 Using cfiCommon0
        CFI (cfiCond164) NoFunction
        CFI (cfiCond164) Conditional ??CrossCallReturnLabel_77
        CFI (cfiCond164) R6 load(1, XDATA, add(CFA_XSP16, literal(-14)))
        CFI (cfiCond164) VB load(1, XDATA, add(CFA_XSP16, literal(-13)))
        CFI (cfiCond164) V0 load(1, XDATA, add(CFA_XSP16, literal(-12)))
        CFI (cfiCond164) V1 load(1, XDATA, add(CFA_XSP16, literal(-11)))
        CFI (cfiCond164) V2 load(1, XDATA, add(CFA_XSP16, literal(-10)))
        CFI (cfiCond164) V3 load(1, XDATA, add(CFA_XSP16, literal(-9)))
        CFI (cfiCond164) V4 load(1, XDATA, add(CFA_XSP16, literal(-8)))
        CFI (cfiCond164) V5 load(1, XDATA, add(CFA_XSP16, literal(-7)))
        CFI (cfiCond164) R7 load(1, XDATA, add(CFA_XSP16, literal(-6)))
        CFI (cfiCond164) ?RET_LOW load(1, XDATA, add(CFA_XSP16, literal(-5)))
        CFI (cfiCond164) ?RET_HIGH load(1, XDATA, add(CFA_XSP16, literal(-4)))
        CFI (cfiCond164) ?BRET_EXT load(1, XDATA, add(CFA_XSP16, literal(-3)))
        CFI (cfiCond164) DPL0 load(1, XDATA, add(CFA_XSP16, literal(-2)))
        CFI (cfiCond164) DPH0 load(1, XDATA, add(CFA_XSP16, literal(-1)))
        CFI (cfiCond164) CFA_SP SP+0
        CFI (cfiCond164) CFA_XSP16 add(XSP16, 14)
        CFI Block cfiCond165 Using cfiCommon0
        CFI (cfiCond165) NoFunction
        CFI (cfiCond165) Conditional ??CrossCallReturnLabel_78
        CFI (cfiCond165) R6 load(1, XDATA, add(CFA_XSP16, literal(-9)))
        CFI (cfiCond165) VB load(1, XDATA, add(CFA_XSP16, literal(-8)))
        CFI (cfiCond165) V0 load(1, XDATA, add(CFA_XSP16, literal(-7)))
        CFI (cfiCond165) R7 load(1, XDATA, add(CFA_XSP16, literal(-6)))
        CFI (cfiCond165) ?RET_LOW load(1, XDATA, add(CFA_XSP16, literal(-5)))
        CFI (cfiCond165) ?RET_HIGH load(1, XDATA, add(CFA_XSP16, literal(-4)))
        CFI (cfiCond165) ?BRET_EXT load(1, XDATA, add(CFA_XSP16, literal(-3)))
        CFI (cfiCond165) DPL0 load(1, XDATA, add(CFA_XSP16, literal(-2)))
        CFI (cfiCond165) DPH0 load(1, XDATA, add(CFA_XSP16, literal(-1)))
        CFI (cfiCond165) CFA_SP SP+0
        CFI (cfiCond165) CFA_XSP16 add(XSP16, 14)
        CFI Block cfiCond166 Using cfiCommon0
        CFI (cfiCond166) NoFunction
        CFI (cfiCond166) Conditional ??CrossCallReturnLabel_79
        CFI (cfiCond166) R6 load(1, XDATA, add(CFA_XSP16, literal(-9)))
        CFI (cfiCond166) VB load(1, XDATA, add(CFA_XSP16, literal(-8)))
        CFI (cfiCond166) V0 load(1, XDATA, add(CFA_XSP16, literal(-7)))
        CFI (cfiCond166) R7 load(1, XDATA, add(CFA_XSP16, literal(-6)))
        CFI (cfiCond166) ?RET_LOW load(1, XDATA, add(CFA_XSP16, literal(-5)))
        CFI (cfiCond166) ?RET_HIGH load(1, XDATA, add(CFA_XSP16, literal(-4)))
        CFI (cfiCond166) ?BRET_EXT load(1, XDATA, add(CFA_XSP16, literal(-3)))
        CFI (cfiCond166) DPL0 load(1, XDATA, add(CFA_XSP16, literal(-2)))
        CFI (cfiCond166) DPH0 load(1, XDATA, add(CFA_XSP16, literal(-1)))
        CFI (cfiCond166) CFA_SP SP+0
        CFI (cfiCond166) CFA_XSP16 add(XSP16, 14)
        CFI Block cfiCond167 Using cfiCommon0
        CFI (cfiCond167) NoFunction
        CFI (cfiCond167) Conditional ??CrossCallReturnLabel_80
        CFI (cfiCond167) R6 load(1, XDATA, add(CFA_XSP16, literal(-10)))
        CFI (cfiCond167) VB load(1, XDATA, add(CFA_XSP16, literal(-9)))
        CFI (cfiCond167) V0 load(1, XDATA, add(CFA_XSP16, literal(-8)))
        CFI (cfiCond167) V1 load(1, XDATA, add(CFA_XSP16, literal(-7)))
        CFI (cfiCond167) R7 load(1, XDATA, add(CFA_XSP16, literal(-6)))
        CFI (cfiCond167) ?RET_LOW load(1, XDATA, add(CFA_XSP16, literal(-5)))
        CFI (cfiCond167) ?RET_HIGH load(1, XDATA, add(CFA_XSP16, literal(-4)))
        CFI (cfiCond167) ?BRET_EXT load(1, XDATA, add(CFA_XSP16, literal(-3)))
        CFI (cfiCond167) DPL0 load(1, XDATA, add(CFA_XSP16, literal(-2)))
        CFI (cfiCond167) DPH0 load(1, XDATA, add(CFA_XSP16, literal(-1)))
        CFI (cfiCond167) CFA_SP SP+0
        CFI (cfiCond167) CFA_XSP16 add(XSP16, 11)
        CFI Block cfiCond168 Using cfiCommon0
        CFI (cfiCond168) NoFunction
        CFI (cfiCond168) Conditional ??CrossCallReturnLabel_81
        CFI (cfiCond168) R6 load(1, XDATA, add(CFA_XSP16, literal(-14)))
        CFI (cfiCond168) VB load(1, XDATA, add(CFA_XSP16, literal(-13)))
        CFI (cfiCond168) V0 load(1, XDATA, add(CFA_XSP16, literal(-12)))
        CFI (cfiCond168) V1 load(1, XDATA, add(CFA_XSP16, literal(-11)))
        CFI (cfiCond168) V2 load(1, XDATA, add(CFA_XSP16, literal(-10)))
        CFI (cfiCond168) V3 load(1, XDATA, add(CFA_XSP16, literal(-9)))
        CFI (cfiCond168) V4 load(1, XDATA, add(CFA_XSP16, literal(-8)))
        CFI (cfiCond168) V5 load(1, XDATA, add(CFA_XSP16, literal(-7)))
        CFI (cfiCond168) R7 load(1, XDATA, add(CFA_XSP16, literal(-6)))
        CFI (cfiCond168) ?RET_LOW load(1, XDATA, add(CFA_XSP16, literal(-5)))
        CFI (cfiCond168) ?RET_HIGH load(1, XDATA, add(CFA_XSP16, literal(-4)))
        CFI (cfiCond168) ?BRET_EXT load(1, XDATA, add(CFA_XSP16, literal(-3)))
        CFI (cfiCond168) DPL0 load(1, XDATA, add(CFA_XSP16, literal(-2)))
        CFI (cfiCond168) DPH0 load(1, XDATA, add(CFA_XSP16, literal(-1)))
        CFI (cfiCond168) CFA_SP SP+0
        CFI (cfiCond168) CFA_XSP16 add(XSP16, 14)
        CFI Block cfiCond169 Using cfiCommon0
        CFI (cfiCond169) NoFunction
        CFI (cfiCond169) Conditional ??CrossCallReturnLabel_82
        CFI (cfiCond169) R6 load(1, XDATA, add(CFA_XSP16, literal(-14)))
        CFI (cfiCond169) VB load(1, XDATA, add(CFA_XSP16, literal(-13)))
        CFI (cfiCond169) V0 load(1, XDATA, add(CFA_XSP16, literal(-12)))
        CFI (cfiCond169) V1 load(1, XDATA, add(CFA_XSP16, literal(-11)))
        CFI (cfiCond169) V2 load(1, XDATA, add(CFA_XSP16, literal(-10)))
        CFI (cfiCond169) V3 load(1, XDATA, add(CFA_XSP16, literal(-9)))
        CFI (cfiCond169) V4 load(1, XDATA, add(CFA_XSP16, literal(-8)))
        CFI (cfiCond169) V5 load(1, XDATA, add(CFA_XSP16, literal(-7)))
        CFI (cfiCond169) R7 load(1, XDATA, add(CFA_XSP16, literal(-6)))
        CFI (cfiCond169) ?RET_LOW load(1, XDATA, add(CFA_XSP16, literal(-5)))
        CFI (cfiCond169) ?RET_HIGH load(1, XDATA, add(CFA_XSP16, literal(-4)))
        CFI (cfiCond169) ?BRET_EXT load(1, XDATA, add(CFA_XSP16, literal(-3)))
        CFI (cfiCond169) DPL0 load(1, XDATA, add(CFA_XSP16, literal(-2)))
        CFI (cfiCond169) DPH0 load(1, XDATA, add(CFA_XSP16, literal(-1)))
        CFI (cfiCond169) CFA_SP SP+0
        CFI (cfiCond169) CFA_XSP16 add(XSP16, 14)
        CFI Block cfiPicker170 Using cfiCommon1
        CFI (cfiPicker170) NoFunction
        CFI (cfiPicker170) Picker
        MOVX    A,@DPTR
        MOV     R0,A
        INC     DPTR
        MOVX    A,@DPTR
        MOV     R1,A
        RET
        CFI EndBlock cfiCond163
        CFI EndBlock cfiCond164
        CFI EndBlock cfiCond165
        CFI EndBlock cfiCond166
        CFI EndBlock cfiCond167
        CFI EndBlock cfiCond168
        CFI EndBlock cfiCond169
        CFI EndBlock cfiPicker170

        RSEG BANKED_CODE:CODE:NOROOT(0)
?Subroutine16:
        CFI Block cfiCond171 Using cfiCommon0
        CFI NoFunction
        CFI Conditional ??CrossCallReturnLabel_14
        CFI DPL0 Frame(CFA_SP, 4)
        CFI DPH0 Frame(CFA_SP, 5)
        CFI CFA_SP SP+-5
        CFI CFA_XSP16 add(XSP16, 3)
        CFI Block cfiCond172 Using cfiCommon0
        CFI (cfiCond172) NoFunction
        CFI (cfiCond172) Conditional ??CrossCallReturnLabel_15
        CFI (cfiCond172) R6 load(1, XDATA, add(CFA_XSP16, literal(-14)))
        CFI (cfiCond172) VB load(1, XDATA, add(CFA_XSP16, literal(-13)))
        CFI (cfiCond172) V0 load(1, XDATA, add(CFA_XSP16, literal(-12)))
        CFI (cfiCond172) V1 load(1, XDATA, add(CFA_XSP16, literal(-11)))
        CFI (cfiCond172) V2 load(1, XDATA, add(CFA_XSP16, literal(-10)))
        CFI (cfiCond172) V3 load(1, XDATA, add(CFA_XSP16, literal(-9)))
        CFI (cfiCond172) V4 load(1, XDATA, add(CFA_XSP16, literal(-8)))
        CFI (cfiCond172) V5 load(1, XDATA, add(CFA_XSP16, literal(-7)))
        CFI (cfiCond172) R7 load(1, XDATA, add(CFA_XSP16, literal(-6)))
        CFI (cfiCond172) ?RET_LOW load(1, XDATA, add(CFA_XSP16, literal(-5)))
        CFI (cfiCond172) ?RET_HIGH load(1, XDATA, add(CFA_XSP16, literal(-4)))
        CFI (cfiCond172) ?BRET_EXT load(1, XDATA, add(CFA_XSP16, literal(-3)))
        CFI (cfiCond172) DPL0 load(1, XDATA, add(CFA_XSP16, literal(-2)))
        CFI (cfiCond172) DPH0 load(1, XDATA, add(CFA_XSP16, literal(-1)))
        CFI (cfiCond172) CFA_SP SP+0
        CFI (cfiCond172) CFA_XSP16 add(XSP16, 14)
        CFI Block cfiCond173 Using cfiCommon0
        CFI (cfiCond173) NoFunction
        CFI (cfiCond173) Conditional ??CrossCallReturnLabel_16
        CFI (cfiCond173) R6 load(1, XDATA, add(CFA_XSP16, literal(-9)))
        CFI (cfiCond173) VB load(1, XDATA, add(CFA_XSP16, literal(-8)))
        CFI (cfiCond173) V0 load(1, XDATA, add(CFA_XSP16, literal(-7)))
        CFI (cfiCond173) R7 load(1, XDATA, add(CFA_XSP16, literal(-6)))
        CFI (cfiCond173) ?RET_LOW load(1, XDATA, add(CFA_XSP16, literal(-5)))
        CFI (cfiCond173) ?RET_HIGH load(1, XDATA, add(CFA_XSP16, literal(-4)))
        CFI (cfiCond173) ?BRET_EXT load(1, XDATA, add(CFA_XSP16, literal(-3)))
        CFI (cfiCond173) DPL0 load(1, XDATA, add(CFA_XSP16, literal(-2)))
        CFI (cfiCond173) DPH0 load(1, XDATA, add(CFA_XSP16, literal(-1)))
        CFI (cfiCond173) CFA_SP SP+0
        CFI (cfiCond173) CFA_XSP16 add(XSP16, 14)
        CFI Block cfiCond174 Using cfiCommon0
        CFI (cfiCond174) NoFunction
        CFI (cfiCond174) Conditional ??CrossCallReturnLabel_17
        CFI (cfiCond174) R6 load(1, XDATA, add(CFA_XSP16, literal(-9)))
        CFI (cfiCond174) VB load(1, XDATA, add(CFA_XSP16, literal(-8)))
        CFI (cfiCond174) V0 load(1, XDATA, add(CFA_XSP16, literal(-7)))
        CFI (cfiCond174) R7 load(1, XDATA, add(CFA_XSP16, literal(-6)))
        CFI (cfiCond174) ?RET_LOW load(1, XDATA, add(CFA_XSP16, literal(-5)))
        CFI (cfiCond174) ?RET_HIGH load(1, XDATA, add(CFA_XSP16, literal(-4)))
        CFI (cfiCond174) ?BRET_EXT load(1, XDATA, add(CFA_XSP16, literal(-3)))
        CFI (cfiCond174) DPL0 load(1, XDATA, add(CFA_XSP16, literal(-2)))
        CFI (cfiCond174) DPH0 load(1, XDATA, add(CFA_XSP16, literal(-1)))
        CFI (cfiCond174) CFA_SP SP+0
        CFI (cfiCond174) CFA_XSP16 add(XSP16, 14)
        CFI Block cfiCond175 Using cfiCommon0
        CFI (cfiCond175) NoFunction
        CFI (cfiCond175) Conditional ??CrossCallReturnLabel_18
        CFI (cfiCond175) R6 load(1, XDATA, add(CFA_XSP16, literal(-9)))
        CFI (cfiCond175) VB load(1, XDATA, add(CFA_XSP16, literal(-8)))
        CFI (cfiCond175) V0 load(1, XDATA, add(CFA_XSP16, literal(-7)))
        CFI (cfiCond175) R7 load(1, XDATA, add(CFA_XSP16, literal(-6)))
        CFI (cfiCond175) ?RET_LOW load(1, XDATA, add(CFA_XSP16, literal(-5)))
        CFI (cfiCond175) ?RET_HIGH load(1, XDATA, add(CFA_XSP16, literal(-4)))
        CFI (cfiCond175) ?BRET_EXT load(1, XDATA, add(CFA_XSP16, literal(-3)))
        CFI (cfiCond175) DPL0 load(1, XDATA, add(CFA_XSP16, literal(-2)))
        CFI (cfiCond175) DPH0 load(1, XDATA, add(CFA_XSP16, literal(-1)))
        CFI (cfiCond175) CFA_SP SP+0
        CFI (cfiCond175) CFA_XSP16 add(XSP16, 14)
        CFI Block cfiPicker176 Using cfiCommon1
        CFI (cfiPicker176) NoFunction
        CFI (cfiPicker176) Picker
        MOVX    A,@DPTR
        MOV     R0,A
        INC     DPTR
        MOVX    A,@DPTR
        MOV     DPH,A
        MOV     DPL,R0
        RET
        CFI EndBlock cfiCond171
        CFI EndBlock cfiCond172
        CFI EndBlock cfiCond173
        CFI EndBlock cfiCond174
        CFI EndBlock cfiCond175
        CFI EndBlock cfiPicker176

        RSEG BANKED_CODE:CODE:NOROOT(0)
?Subroutine12:
        CFI Block cfiCond177 Using cfiCommon0
        CFI NoFunction
        CFI Conditional ??CrossCallReturnLabel_8
        CFI R6 load(1, XDATA, add(CFA_XSP16, literal(-10)))
        CFI VB load(1, XDATA, add(CFA_XSP16, literal(-9)))
        CFI V0 load(1, XDATA, add(CFA_XSP16, literal(-8)))
        CFI V1 load(1, XDATA, add(CFA_XSP16, literal(-7)))
        CFI R7 load(1, XDATA, add(CFA_XSP16, literal(-6)))
        CFI ?RET_LOW load(1, XDATA, add(CFA_XSP16, literal(-5)))
        CFI ?RET_HIGH load(1, XDATA, add(CFA_XSP16, literal(-4)))
        CFI ?BRET_EXT load(1, XDATA, add(CFA_XSP16, literal(-3)))
        CFI DPL0 load(1, XDATA, add(CFA_XSP16, literal(-2)))
        CFI DPH0 load(1, XDATA, add(CFA_XSP16, literal(-1)))
        CFI CFA_SP SP+0
        CFI CFA_XSP16 add(XSP16, 12)
        CFI Block cfiCond178 Using cfiCommon0
        CFI (cfiCond178) NoFunction
        CFI (cfiCond178) Conditional ??CrossCallReturnLabel_9
        CFI (cfiCond178) R6 load(1, XDATA, add(CFA_XSP16, literal(-9)))
        CFI (cfiCond178) VB load(1, XDATA, add(CFA_XSP16, literal(-8)))
        CFI (cfiCond178) V0 load(1, XDATA, add(CFA_XSP16, literal(-7)))
        CFI (cfiCond178) R7 load(1, XDATA, add(CFA_XSP16, literal(-6)))
        CFI (cfiCond178) ?RET_LOW load(1, XDATA, add(CFA_XSP16, literal(-5)))
        CFI (cfiCond178) ?RET_HIGH load(1, XDATA, add(CFA_XSP16, literal(-4)))
        CFI (cfiCond178) ?BRET_EXT load(1, XDATA, add(CFA_XSP16, literal(-3)))
        CFI (cfiCond178) DPL0 load(1, XDATA, add(CFA_XSP16, literal(-2)))
        CFI (cfiCond178) DPH0 load(1, XDATA, add(CFA_XSP16, literal(-1)))
        CFI (cfiCond178) CFA_SP SP+0
        CFI (cfiCond178) CFA_XSP16 add(XSP16, 14)
        CFI Block cfiPicker179 Using cfiCommon1
        CFI (cfiPicker179) NoFunction
        CFI (cfiPicker179) Picker
        MOVX    @DPTR,A
        ; Setup parameters for call to function ZMacSetReq
        ; Setup parameters for indirect call
        MOV     DPL,?XSP + 0
        MOV     DPH,?XSP + 1
        MOV     R2,DPL
        MOV     R3,DPH
        RET
        CFI EndBlock cfiCond177
        CFI EndBlock cfiCond178
        CFI EndBlock cfiPicker179
// 2361 
// 2362 /*********************************************************************
// 2363  * @fn          ZDO_AddrChangeIndicationCB
// 2364  *
// 2365  * @brief       This function notifies the application that this
// 2366  *              device's address has changed.  Could happen in 
// 2367  *              a network with stochastic addressing (PRO).
// 2368  *
// 2369  * @param       newAddr - the new address
// 2370  *
// 2371  * @return      none
// 2372  */

        RSEG BANKED_CODE:CODE:NOROOT(0)
// 2373 void ZDO_AddrChangeIndicationCB( uint16 newAddr )
ZDO_AddrChangeIndicationCB:
        CFI Block cfiBlock180 Using cfiCommon0
        CFI Function ZDO_AddrChangeIndicationCB
// 2374 {
        FUNCALL ZDO_AddrChangeIndicationCB, osal_set_event
        LOCFRAME ISTACK, 2, STACK
        LOCFRAME PSTACK, 0, STACK
        LOCFRAME XSTACK, 0, STACK
        LOCFRAME IOVERLAY, 0, STATIC
        LOCFRAME DOVERLAY, 0, STATIC
        ARGFRAME ISTACK, 2, STACK
        ARGFRAME PSTACK, 0, STACK
        ARGFRAME XSTACK, 0, STACK
        ARGFRAME IOVERLAY, 0, STATIC
        ARGFRAME DOVERLAY, 0, STATIC
        FUNCALL ZDO_AddrChangeIndicationCB, ZDApp_AnnounceNewAddress
        LOCFRAME ISTACK, 2, STACK
        LOCFRAME PSTACK, 0, STACK
        LOCFRAME XSTACK, 0, STACK
        LOCFRAME IOVERLAY, 0, STATIC
        LOCFRAME DOVERLAY, 0, STATIC
        ARGFRAME ISTACK, 2, STACK
        ARGFRAME PSTACK, 0, STACK
        ARGFRAME XSTACK, 0, STACK
        ARGFRAME IOVERLAY, 0, STATIC
        ARGFRAME DOVERLAY, 0, STATIC
        PUSH    DPL
        CFI DPL0 Frame(CFA_SP, 4)
        CFI CFA_SP SP+-4
        PUSH    DPH
        CFI DPH0 Frame(CFA_SP, 5)
        CFI CFA_SP SP+-5
        ; Saved register size: 2
        ; Auto size: 0
// 2375   (void)newAddr;  // remove if this parameter is used
// 2376   
// 2377   // Notify to save info into NV
// 2378   ZDApp_NVUpdate();
// 2379 
// 2380   // Notify the applications   
// 2381   osal_set_event( ZDAppTaskID, ZDO_STATE_CHANGE_EVT );
        ; Setup parameters for call to function osal_set_event
        LCALL   ?Subroutine17 & 0xFFFF
// 2382 
// 2383   // Send out a device announce
// 2384   ZDApp_AnnounceNewAddress();
??CrossCallReturnLabel_54:
        ; Setup parameters for call to function ZDApp_AnnounceNewAddress
        LCALL   ??ZDApp_AnnounceNewAddress?relay
// 2385 }
        LJMP    ?Subroutine2 & 0xFFFF
        CFI EndBlock cfiBlock180
// 2386 
// 2387 /*********************************************************************
// 2388  * @fn          ZDO_JoinIndicationCB
// 2389  *
// 2390  * @brief       This function allows the next higher layer of a
// 2391  *              coordinator to be notified of a remote join request.
// 2392  *
// 2393  * @param       ShortAddress - 16-bit address
// 2394  * @param       ExtendedAddress - IEEE (64-bit) address
// 2395  * @param       CapabilityFlags - Association Capability Flags
// 2396  * @param       type - of joining - 
// 2397  *                          NWK_ASSOC_JOIN
// 2398  *                          NWK_ASSOC_REJOIN_UNSECURE
// 2399  *                          NWK_ASSOC_REJOIN_SECURE
// 2400  *
// 2401  * @return      ZStatus_t
// 2402  */

        RSEG BANKED_CODE:CODE:NOROOT(0)
// 2403 ZStatus_t ZDO_JoinIndicationCB(uint16 ShortAddress, uint8 *ExtendedAddress,
ZDO_JoinIndicationCB:
// 2404                                 uint8 CapabilityFlags, uint8 type)
// 2405 {
        ; Saved register size: 0
        ; Auto size: 0
// 2406   (void)ShortAddress;
// 2407   (void)ExtendedAddress;
// 2408 #if ZDO_NV_SAVE_RFDs
// 2409   (void)CapabilityFlags;
// 2410   
// 2411 #else  // if !ZDO_NV_SAVE_RFDs
// 2412   if (CapabilityFlags & CAPINFO_DEVICETYPE_FFD)
// 2413 #endif
// 2414   {
// 2415     ZDApp_NVUpdate();  // Notify to save info into NV.
// 2416   }
// 2417 
// 2418   if (ZG_SECURE_ENABLED)  // Send notification to TC of new device.
// 2419   {
// 2420     if (type == NWK_ASSOC_JOIN || type == NWK_ASSOC_REJOIN_UNSECURE)
// 2421     {
// 2422       osal_start_timerEx( ZDAppTaskID, ZDO_NEW_DEVICE, 600 );
// 2423     }
// 2424   }
// 2425 
// 2426   return ZSuccess;
        REQUIRE ?Subroutine3
        ; // Fall through to label ?Subroutine3

        RSEG BANKED_CODE:CODE:NOROOT(0)
?Subroutine3:
        CFI Block cfiBlock181 Using cfiCommon0
        CFI NoFunction
        MOV     R1,#0x0
        LJMP    ?BRET
        CFI EndBlock cfiBlock181
// 2427 }
// 2428 
// 2429 /*********************************************************************
// 2430  * @fn          ZDO_ConcentratorIndicationCB
// 2431  *
// 2432  * @brief       This function allows the next higher layer of a
// 2433  *              device to be notified of existence of the concentrator.
// 2434  *
// 2435  * @param       nwkAddr - 16-bit NWK address of the concentrator
// 2436  * @param       extAddr - pointer to extended Address
// 2437  *                        NULL if not available
// 2438  * @param       pktCost - PktCost from RREQ
// 2439  *
// 2440  * @return      void 
// 2441  */

        RSEG BANKED_CODE:CODE:NOROOT(0)
// 2442 void ZDO_ConcentratorIndicationCB( uint16 nwkAddr, uint8 *extAddr, uint8 pktCost )
ZDO_ConcentratorIndicationCB:
        CFI Block cfiBlock182 Using cfiCommon0
        CFI Function ZDO_ConcentratorIndicationCB
// 2443 {
        MOV     A,#-0x9
        LCALL   ?BANKED_ENTER_XDATA
        CFI DPH0 load(1, XDATA, add(CFA_XSP16, literal(-1)))
        CFI DPL0 load(1, XDATA, add(CFA_XSP16, literal(-2)))
        CFI ?BRET_EXT load(1, XDATA, add(CFA_XSP16, literal(-3)))
        CFI ?RET_HIGH load(1, XDATA, add(CFA_XSP16, literal(-4)))
        CFI ?RET_LOW load(1, XDATA, add(CFA_XSP16, literal(-5)))
        CFI R7 load(1, XDATA, add(CFA_XSP16, literal(-6)))
        CFI V0 load(1, XDATA, add(CFA_XSP16, literal(-7)))
        CFI VB load(1, XDATA, add(CFA_XSP16, literal(-8)))
        CFI R6 load(1, XDATA, add(CFA_XSP16, literal(-9)))
        CFI CFA_SP SP+0
        CFI CFA_XSP16 add(XSP16, 9)
        ; Saved register size: 9
        ; Auto size: 5
        MOV     A,#-0x5
        LCALL   ?ALLOC_XSTACK8
        CFI CFA_XSP16 add(XSP16, 14)
// 2444   zdoConcentratorInd_t conInd;
// 2445   
// 2446   conInd.nwkAddr = nwkAddr;
        LCALL   ?Subroutine13 & 0xFFFF
// 2447   conInd.extAddr = extAddr;
??CrossCallReturnLabel_105:
        MOV     A,#0x2
        LCALL   ?XSTACK_DISP0_8
        MOV     A,R4
        MOVX    @DPTR,A
        INC     DPTR
        MOV     A,R5
        MOVX    @DPTR,A
// 2448   conInd.pktCost = pktCost;
        MOV     A,#0x4
        LCALL   ?XSTACK_DISP0_8
        MOV     A,R1
        MOVX    @DPTR,A
// 2449   
// 2450   if( zdoCBFunc[ZDO_CONCENTRATOR_IND_CBID] != NULL )
        MOV     DPTR,#(zdoCBFunc + 2)
        MOVX    A,@DPTR
        JNZ     ??ZDO_ConcentratorIndicationCB_0
        INC     DPTR
        MOVX    A,@DPTR
??ZDO_ConcentratorIndicationCB_0:
        JZ      ??ZDO_ConcentratorIndicationCB_1
// 2451   {
// 2452     zdoCBFunc[ZDO_CONCENTRATOR_IND_CBID]( (void*)&conInd );
        ; Setup parameters for indirect call
        MOV     DPL,?XSP + 0
        MOV     DPH,?XSP + 1
        MOV     R2,DPL
        MOV     R3,DPH
        MOV     DPTR,#(zdoCBFunc + 2)
        LCALL   ?Subroutine16 & 0xFFFF
// 2453   }
??CrossCallReturnLabel_17:
        LCALL   ?CALL_IND
// 2454 }
??ZDO_ConcentratorIndicationCB_1:
        LJMP    ?Subroutine6 & 0xFFFF
        CFI EndBlock cfiBlock182
// 2455 
// 2456 /*********************************************************************
// 2457  * @fn          ZDO_LeaveCnf
// 2458  *
// 2459  * @brief       This function allows the next higher layer to be
// 2460  *              notified of the results of its request for this or
// 2461  *              a child device to leave the network.
// 2462  *
// 2463  * @param       cnf - NLME_LeaveCnf_t
// 2464  *
// 2465  * @return      none
// 2466  */

        RSEG BANKED_CODE:CODE:NOROOT(0)
// 2467 void ZDO_LeaveCnf( NLME_LeaveCnf_t* cnf )
ZDO_LeaveCnf:
        CFI Block cfiBlock183 Using cfiCommon0
        CFI Function ZDO_LeaveCnf
// 2468 {
        FUNCALL ZDO_LeaveCnf, NLME_GetExtAddr
        LOCFRAME ISTACK, 0, STACK
        LOCFRAME PSTACK, 0, STACK
        LOCFRAME XSTACK, 9, STACK
        LOCFRAME IOVERLAY, 0, STATIC
        LOCFRAME DOVERLAY, 0, STATIC
        ARGFRAME ISTACK, 0, STACK
        ARGFRAME PSTACK, 0, STACK
        ARGFRAME XSTACK, 9, STACK
        ARGFRAME IOVERLAY, 0, STATIC
        ARGFRAME DOVERLAY, 0, STATIC
        FUNCALL ZDO_LeaveCnf, sAddrExtCmp
        LOCFRAME ISTACK, 0, STACK
        LOCFRAME PSTACK, 0, STACK
        LOCFRAME XSTACK, 9, STACK
        LOCFRAME IOVERLAY, 0, STATIC
        LOCFRAME DOVERLAY, 0, STATIC
        ARGFRAME ISTACK, 0, STACK
        ARGFRAME PSTACK, 0, STACK
        ARGFRAME XSTACK, 9, STACK
        ARGFRAME IOVERLAY, 0, STATIC
        ARGFRAME DOVERLAY, 0, STATIC
        FUNCALL ZDO_LeaveCnf, ZDApp_LeaveReset
        LOCFRAME ISTACK, 0, STACK
        LOCFRAME PSTACK, 0, STACK
        LOCFRAME XSTACK, 9, STACK
        LOCFRAME IOVERLAY, 0, STATIC
        LOCFRAME DOVERLAY, 0, STATIC
        ARGFRAME ISTACK, 0, STACK
        ARGFRAME PSTACK, 0, STACK
        ARGFRAME XSTACK, 9, STACK
        ARGFRAME IOVERLAY, 0, STATIC
        ARGFRAME DOVERLAY, 0, STATIC
        MOV     A,#-0x9
        LCALL   ?BANKED_ENTER_XDATA
        CFI DPH0 load(1, XDATA, add(CFA_XSP16, literal(-1)))
        CFI DPL0 load(1, XDATA, add(CFA_XSP16, literal(-2)))
        CFI ?BRET_EXT load(1, XDATA, add(CFA_XSP16, literal(-3)))
        CFI ?RET_HIGH load(1, XDATA, add(CFA_XSP16, literal(-4)))
        CFI ?RET_LOW load(1, XDATA, add(CFA_XSP16, literal(-5)))
        CFI R7 load(1, XDATA, add(CFA_XSP16, literal(-6)))
        CFI V0 load(1, XDATA, add(CFA_XSP16, literal(-7)))
        CFI VB load(1, XDATA, add(CFA_XSP16, literal(-8)))
        CFI R6 load(1, XDATA, add(CFA_XSP16, literal(-9)))
        CFI CFA_SP SP+0
        CFI CFA_XSP16 add(XSP16, 9)
        ; Saved register size: 9
        ; Auto size: 0
        MOV     A,R2
        MOV     R6,A
        MOV     A,R3
        MOV     R7,A
// 2469   // Check for this device
// 2470   if ( osal_ExtAddrEqual( cnf->extAddr,
// 2471                           NLME_GetExtAddr() ) == TRUE )
        ; Setup parameters for call to function sAddrExtCmp
        ; Setup parameters for call to function NLME_GetExtAddr
        LCALL   ??NLME_GetExtAddr?relay
        MOV     A,R2
        MOV     R4,A
        MOV     A,R3
        MOV     R5,A
        MOV     A,R6
        ADD     A,#0x2
        MOV     R2,A
        MOV     A,R7
        ADDC    A,#0x0
        MOV     R3,A
        LCALL   ??sAddrExtCmp?relay
        MOV     A,R1
        XRL     A,#0x1
        JNZ     ??CrossCallReturnLabel_29
// 2472   {
// 2473     // Prepare to leave with reset
// 2474     ZDApp_LeaveReset( cnf->rejoin );
        ; Setup parameters for call to function ZDApp_LeaveReset
        MOV     A,R6
        ADD     A,#0xb
        LCALL   ?Subroutine26 & 0xFFFF
// 2475   }
// 2476   else if ( ZSTACK_ROUTER_BUILD )
// 2477   {
// 2478     // Remove device address(optionally descendents) from data
// 2479     ZDApp_LeaveUpdate( cnf->dstAddr,
// 2480                        cnf->extAddr,
// 2481                        cnf->removeChildren );
// 2482   }
// 2483 }
??CrossCallReturnLabel_29:
        LJMP    ??Subroutine48_0 & 0xFFFF
        CFI EndBlock cfiBlock183
// 2484 
// 2485 /*********************************************************************
// 2486  * @fn          ZDO_LeaveInd
// 2487  *
// 2488  * @brief       This function allows the next higher layer of a
// 2489  *              device to be notified of a remote leave request or
// 2490  *              indication.
// 2491  *
// 2492  * @param       ind - NLME_LeaveInd_t
// 2493  *
// 2494  * @return      none
// 2495  */

        RSEG BANKED_CODE:CODE:NOROOT(0)
// 2496 void ZDO_LeaveInd( NLME_LeaveInd_t* ind )
ZDO_LeaveInd:
        CFI Block cfiBlock184 Using cfiCommon0
        CFI Function ZDO_LeaveInd
// 2497 {
        FUNCALL ZDO_LeaveInd, ZDApp_LeaveReset
        LOCFRAME ISTACK, 0, STACK
        LOCFRAME PSTACK, 0, STACK
        LOCFRAME XSTACK, 10, STACK
        LOCFRAME IOVERLAY, 0, STATIC
        LOCFRAME DOVERLAY, 0, STATIC
        ARGFRAME ISTACK, 0, STACK
        ARGFRAME PSTACK, 0, STACK
        ARGFRAME XSTACK, 10, STACK
        ARGFRAME IOVERLAY, 0, STATIC
        ARGFRAME DOVERLAY, 0, STATIC
        FUNCALL ZDO_LeaveInd, NLME_GetCoordShortAddr
        LOCFRAME ISTACK, 0, STACK
        LOCFRAME PSTACK, 0, STACK
        LOCFRAME XSTACK, 10, STACK
        LOCFRAME IOVERLAY, 0, STATIC
        LOCFRAME DOVERLAY, 0, STATIC
        ARGFRAME ISTACK, 0, STACK
        ARGFRAME PSTACK, 0, STACK
        ARGFRAME XSTACK, 10, STACK
        ARGFRAME IOVERLAY, 0, STATIC
        ARGFRAME DOVERLAY, 0, STATIC
        MOV     A,#-0xa
        LCALL   ?BANKED_ENTER_XDATA
        CFI DPH0 load(1, XDATA, add(CFA_XSP16, literal(-1)))
        CFI DPL0 load(1, XDATA, add(CFA_XSP16, literal(-2)))
        CFI ?BRET_EXT load(1, XDATA, add(CFA_XSP16, literal(-3)))
        CFI ?RET_HIGH load(1, XDATA, add(CFA_XSP16, literal(-4)))
        CFI ?RET_LOW load(1, XDATA, add(CFA_XSP16, literal(-5)))
        CFI R7 load(1, XDATA, add(CFA_XSP16, literal(-6)))
        CFI V1 load(1, XDATA, add(CFA_XSP16, literal(-7)))
        CFI V0 load(1, XDATA, add(CFA_XSP16, literal(-8)))
        CFI VB load(1, XDATA, add(CFA_XSP16, literal(-9)))
        CFI R6 load(1, XDATA, add(CFA_XSP16, literal(-10)))
        CFI CFA_SP SP+0
        CFI CFA_XSP16 add(XSP16, 10)
        ; Saved register size: 10
        ; Auto size: 0
        MOV     A,R2
        MOV     R6,A
        MOV     A,R3
        MOV     R7,A
// 2498   uint8 leave;
// 2499 
// 2500 
// 2501   // Parent is requesting the leave - NWK layer filters out illegal
// 2502   // requests
// 2503   if ( ind->request == TRUE )
        MOV     DPL,R6
        MOV     DPH,R7
        INC     DPTR
        INC     DPTR
        INC     DPTR
        INC     DPTR
        INC     DPTR
        INC     DPTR
        INC     DPTR
        INC     DPTR
        INC     DPTR
        INC     DPTR
        MOVX    A,@DPTR
        XRL     A,#0x1
        JNZ     ??ZDO_LeaveInd_0
// 2504   {
// 2505     // Notify network of leave
// 2506     if ( ZSTACK_ROUTER_BUILD )
// 2507     {
// 2508       NLME_LeaveRsp_t rsp;
// 2509       rsp.rejoin         = ind->rejoin;
// 2510       rsp.removeChildren = ind->removeChildren;
// 2511       NLME_LeaveRsp( &rsp );
// 2512     }
// 2513 
// 2514     // Prepare to leave with reset
// 2515     ZDApp_LeaveReset( ind->rejoin );
??ZDO_LeaveInd_1:
        ; Setup parameters for call to function ZDApp_LeaveReset
        MOV     A,R6
        ADD     A,#0xc
        LCALL   ?Subroutine26 & 0xFFFF
// 2516   }
??CrossCallReturnLabel_30:
        SJMP    ??ZDO_LeaveInd_2
// 2517   else
// 2518   {
// 2519     leave = FALSE;
// 2520 
// 2521     // Check if this device needs to leave as a child or descendent
// 2522     if ( ind->srcAddr == NLME_GetCoordShortAddr() )
??ZDO_LeaveInd_0:
        ; Setup parameters for call to function NLME_GetCoordShortAddr
        LCALL   ??NLME_GetCoordShortAddr?relay
        MOV     ?V0 + 0,R2
        MOV     ?V0 + 1,R3
        MOV     R0,?V0 + 0
        MOV     R1,?V0 + 1
        MOV     DPL,R6
        MOV     DPH,R7
        MOVX    A,@DPTR
        XRL     A,R0
        JNZ     ??ZDO_LeaveInd_3
        INC     DPTR
        MOVX    A,@DPTR
        XRL     A,R1
??ZDO_LeaveInd_3:
        JNZ     ??ZDO_LeaveInd_2
// 2523     {
// 2524       if ( ( ind->removeChildren == TRUE               ) ||
// 2525            ( ZDO_Config_Node_Descriptor.LogicalType ==
// 2526              NODETYPE_DEVICE                           )    )
        LCALL   ?Subroutine28 & 0xFFFF
// 2527       {
// 2528         leave = TRUE;
// 2529       }
// 2530     }
// 2531     else if ( ind->removeChildren == TRUE )
// 2532     {
// 2533       // Check NWK address allocation algorithm
// 2534       //leave = RTG_ANCESTOR(nwkAddr,thisAddr);
// 2535     }
// 2536 
// 2537     if ( leave == TRUE )
// 2538     {
// 2539       // Prepare to leave with reset
// 2540       ZDApp_LeaveReset( ind->rejoin );
// 2541     }
// 2542     else
// 2543     {
// 2544       // Remove device address(optionally descendents) from data
// 2545       ZDApp_LeaveUpdate( ind->srcAddr,
// 2546                          ind->extAddr,
// 2547                          ind->removeChildren );
// 2548     }
// 2549   }
??CrossCallReturnLabel_89:
        XRL     A,#0x1
        JZ      ??ZDO_LeaveInd_1
        MOV     DPTR,#ZDO_Config_Node_Descriptor
        MOVX    A,@DPTR
        ANL     A,#0x7
        XRL     A,#0x2
        JZ      ??ZDO_LeaveInd_1
// 2550 }
??ZDO_LeaveInd_2:
        LJMP    ??Subroutine47_0 & 0xFFFF
        CFI EndBlock cfiBlock184

        RSEG BANKED_CODE:CODE:NOROOT(0)
?Subroutine26:
        CFI Block cfiCond185 Using cfiCommon0
        CFI NoFunction
        CFI Conditional ??CrossCallReturnLabel_29
        CFI R6 load(1, XDATA, add(CFA_XSP16, literal(-9)))
        CFI VB load(1, XDATA, add(CFA_XSP16, literal(-8)))
        CFI V0 load(1, XDATA, add(CFA_XSP16, literal(-7)))
        CFI R7 load(1, XDATA, add(CFA_XSP16, literal(-6)))
        CFI ?RET_LOW load(1, XDATA, add(CFA_XSP16, literal(-5)))
        CFI ?RET_HIGH load(1, XDATA, add(CFA_XSP16, literal(-4)))
        CFI ?BRET_EXT load(1, XDATA, add(CFA_XSP16, literal(-3)))
        CFI DPL0 load(1, XDATA, add(CFA_XSP16, literal(-2)))
        CFI DPH0 load(1, XDATA, add(CFA_XSP16, literal(-1)))
        CFI CFA_SP SP+0
        CFI CFA_XSP16 add(XSP16, 9)
        CFI Block cfiCond186 Using cfiCommon0
        CFI (cfiCond186) NoFunction
        CFI (cfiCond186) Conditional ??CrossCallReturnLabel_30
        CFI (cfiCond186) R6 load(1, XDATA, add(CFA_XSP16, literal(-10)))
        CFI (cfiCond186) VB load(1, XDATA, add(CFA_XSP16, literal(-9)))
        CFI (cfiCond186) V0 load(1, XDATA, add(CFA_XSP16, literal(-8)))
        CFI (cfiCond186) V1 load(1, XDATA, add(CFA_XSP16, literal(-7)))
        CFI (cfiCond186) R7 load(1, XDATA, add(CFA_XSP16, literal(-6)))
        CFI (cfiCond186) ?RET_LOW load(1, XDATA, add(CFA_XSP16, literal(-5)))
        CFI (cfiCond186) ?RET_HIGH load(1, XDATA, add(CFA_XSP16, literal(-4)))
        CFI (cfiCond186) ?BRET_EXT load(1, XDATA, add(CFA_XSP16, literal(-3)))
        CFI (cfiCond186) DPL0 load(1, XDATA, add(CFA_XSP16, literal(-2)))
        CFI (cfiCond186) DPH0 load(1, XDATA, add(CFA_XSP16, literal(-1)))
        CFI (cfiCond186) CFA_SP SP+0
        CFI (cfiCond186) CFA_XSP16 add(XSP16, 10)
        CFI Block cfiPicker187 Using cfiCommon1
        CFI (cfiPicker187) NoFunction
        CFI (cfiPicker187) Picker
        LCALL   ??Subroutine51_0 & 0xFFFF
??CrossCallReturnLabel_95:
        MOVX    A,@DPTR
        MOV     R1,A
        LCALL   ??ZDApp_LeaveReset?relay
        RET
        CFI EndBlock cfiCond185
        CFI EndBlock cfiCond186
        CFI EndBlock cfiPicker187

        RSEG BANKED_CODE:CODE:NOROOT(0)
?Subroutine38:
        CFI Block cfiCond188 Using cfiCommon0
        CFI NoFunction
        CFI Conditional ??CrossCallReturnLabel_96
        CFI R6 load(1, XDATA, add(CFA_XSP16, literal(-10)))
        CFI VB load(1, XDATA, add(CFA_XSP16, literal(-9)))
        CFI V0 load(1, XDATA, add(CFA_XSP16, literal(-8)))
        CFI V1 load(1, XDATA, add(CFA_XSP16, literal(-7)))
        CFI R7 load(1, XDATA, add(CFA_XSP16, literal(-6)))
        CFI ?RET_LOW load(1, XDATA, add(CFA_XSP16, literal(-5)))
        CFI ?RET_HIGH load(1, XDATA, add(CFA_XSP16, literal(-4)))
        CFI ?BRET_EXT load(1, XDATA, add(CFA_XSP16, literal(-3)))
        CFI DPL0 load(1, XDATA, add(CFA_XSP16, literal(-2)))
        CFI DPH0 load(1, XDATA, add(CFA_XSP16, literal(-1)))
        CFI CFA_SP SP+0
        CFI CFA_XSP16 add(XSP16, 10)
        CFI Block cfiCond189 Using cfiCommon0
        CFI (cfiCond189) NoFunction
        CFI (cfiCond189) Conditional ??CrossCallReturnLabel_97, ??CrossCallReturnLabel_31
        CFI (cfiCond189) R6 load(1, XDATA, add(CFA_XSP16, literal(-10)))
        CFI (cfiCond189) VB load(1, XDATA, add(CFA_XSP16, literal(-9)))
        CFI (cfiCond189) V0 load(1, XDATA, add(CFA_XSP16, literal(-8)))
        CFI (cfiCond189) V1 load(1, XDATA, add(CFA_XSP16, literal(-7)))
        CFI (cfiCond189) R7 load(1, XDATA, add(CFA_XSP16, literal(-6)))
        CFI (cfiCond189) ?RET_LOW load(1, XDATA, add(CFA_XSP16, literal(-5)))
        CFI (cfiCond189) ?RET_HIGH load(1, XDATA, add(CFA_XSP16, literal(-4)))
        CFI (cfiCond189) ?BRET_EXT load(1, XDATA, add(CFA_XSP16, literal(-3)))
        CFI (cfiCond189) DPL0 load(1, XDATA, add(CFA_XSP16, literal(-2)))
        CFI (cfiCond189) DPH0 load(1, XDATA, add(CFA_XSP16, literal(-1)))
        CFI (cfiCond189) CFA_SP SP+0
        CFI (cfiCond189) CFA_XSP16 add(XSP16, 31)
        CFI Block cfiCond190 Using cfiCommon0
        CFI (cfiCond190) NoFunction
        CFI (cfiCond190) Conditional ??CrossCallReturnLabel_97, ??CrossCallReturnLabel_32
        CFI (cfiCond190) R6 load(1, XDATA, add(CFA_XSP16, literal(-10)))
        CFI (cfiCond190) VB load(1, XDATA, add(CFA_XSP16, literal(-9)))
        CFI (cfiCond190) V0 load(1, XDATA, add(CFA_XSP16, literal(-8)))
        CFI (cfiCond190) V1 load(1, XDATA, add(CFA_XSP16, literal(-7)))
        CFI (cfiCond190) R7 load(1, XDATA, add(CFA_XSP16, literal(-6)))
        CFI (cfiCond190) ?RET_LOW load(1, XDATA, add(CFA_XSP16, literal(-5)))
        CFI (cfiCond190) ?RET_HIGH load(1, XDATA, add(CFA_XSP16, literal(-4)))
        CFI (cfiCond190) ?BRET_EXT load(1, XDATA, add(CFA_XSP16, literal(-3)))
        CFI (cfiCond190) DPL0 load(1, XDATA, add(CFA_XSP16, literal(-2)))
        CFI (cfiCond190) DPH0 load(1, XDATA, add(CFA_XSP16, literal(-1)))
        CFI (cfiCond190) CFA_SP SP+0
        CFI (cfiCond190) CFA_XSP16 add(XSP16, 10)
        CFI Block cfiPicker191 Using cfiCommon1
        CFI (cfiPicker191) NoFunction
        CFI (cfiPicker191) Picker
        MOV     A,R6
        ADD     A,#0xc
        CFI EndBlock cfiCond188
        CFI EndBlock cfiCond189
        CFI EndBlock cfiCond190
        CFI EndBlock cfiPicker191
        REQUIRE ??Subroutine51_0
        ; // Fall through to label ??Subroutine51_0

        RSEG BANKED_CODE:CODE:NOROOT(0)
??Subroutine51_0:
        CFI Block cfiCond192 Using cfiCommon0
        CFI NoFunction
        CFI Conditional ??CrossCallReturnLabel_94, ??CrossCallReturnLabel_73
        CFI R6 load(1, XDATA, add(CFA_XSP16, literal(-14)))
        CFI VB load(1, XDATA, add(CFA_XSP16, literal(-13)))
        CFI V0 load(1, XDATA, add(CFA_XSP16, literal(-12)))
        CFI V1 load(1, XDATA, add(CFA_XSP16, literal(-11)))
        CFI V2 load(1, XDATA, add(CFA_XSP16, literal(-10)))
        CFI V3 load(1, XDATA, add(CFA_XSP16, literal(-9)))
        CFI V4 load(1, XDATA, add(CFA_XSP16, literal(-8)))
        CFI V5 load(1, XDATA, add(CFA_XSP16, literal(-7)))
        CFI R7 load(1, XDATA, add(CFA_XSP16, literal(-6)))
        CFI ?RET_LOW load(1, XDATA, add(CFA_XSP16, literal(-5)))
        CFI ?RET_HIGH load(1, XDATA, add(CFA_XSP16, literal(-4)))
        CFI ?BRET_EXT load(1, XDATA, add(CFA_XSP16, literal(-3)))
        CFI DPL0 load(1, XDATA, add(CFA_XSP16, literal(-2)))
        CFI DPH0 load(1, XDATA, add(CFA_XSP16, literal(-1)))
        CFI CFA_SP SP+0
        CFI CFA_XSP16 add(XSP16, 14)
        CFI Block cfiCond193 Using cfiCommon0
        CFI (cfiCond193) NoFunction
        CFI (cfiCond193) Conditional ??CrossCallReturnLabel_94, ??CrossCallReturnLabel_74
        CFI (cfiCond193) R6 load(1, XDATA, add(CFA_XSP16, literal(-14)))
        CFI (cfiCond193) VB load(1, XDATA, add(CFA_XSP16, literal(-13)))
        CFI (cfiCond193) V0 load(1, XDATA, add(CFA_XSP16, literal(-12)))
        CFI (cfiCond193) V1 load(1, XDATA, add(CFA_XSP16, literal(-11)))
        CFI (cfiCond193) V2 load(1, XDATA, add(CFA_XSP16, literal(-10)))
        CFI (cfiCond193) V3 load(1, XDATA, add(CFA_XSP16, literal(-9)))
        CFI (cfiCond193) V4 load(1, XDATA, add(CFA_XSP16, literal(-8)))
        CFI (cfiCond193) V5 load(1, XDATA, add(CFA_XSP16, literal(-7)))
        CFI (cfiCond193) R7 load(1, XDATA, add(CFA_XSP16, literal(-6)))
        CFI (cfiCond193) ?RET_LOW load(1, XDATA, add(CFA_XSP16, literal(-5)))
        CFI (cfiCond193) ?RET_HIGH load(1, XDATA, add(CFA_XSP16, literal(-4)))
        CFI (cfiCond193) ?BRET_EXT load(1, XDATA, add(CFA_XSP16, literal(-3)))
        CFI (cfiCond193) DPL0 load(1, XDATA, add(CFA_XSP16, literal(-2)))
        CFI (cfiCond193) DPH0 load(1, XDATA, add(CFA_XSP16, literal(-1)))
        CFI (cfiCond193) CFA_SP SP+0
        CFI (cfiCond193) CFA_XSP16 add(XSP16, 14)
        CFI Block cfiCond194 Using cfiCommon0
        CFI (cfiCond194) NoFunction
        CFI (cfiCond194) Conditional ??CrossCallReturnLabel_94, ??CrossCallReturnLabel_75
        CFI (cfiCond194) R6 load(1, XDATA, add(CFA_XSP16, literal(-14)))
        CFI (cfiCond194) VB load(1, XDATA, add(CFA_XSP16, literal(-13)))
        CFI (cfiCond194) V0 load(1, XDATA, add(CFA_XSP16, literal(-12)))
        CFI (cfiCond194) V1 load(1, XDATA, add(CFA_XSP16, literal(-11)))
        CFI (cfiCond194) V2 load(1, XDATA, add(CFA_XSP16, literal(-10)))
        CFI (cfiCond194) V3 load(1, XDATA, add(CFA_XSP16, literal(-9)))
        CFI (cfiCond194) V4 load(1, XDATA, add(CFA_XSP16, literal(-8)))
        CFI (cfiCond194) V5 load(1, XDATA, add(CFA_XSP16, literal(-7)))
        CFI (cfiCond194) R7 load(1, XDATA, add(CFA_XSP16, literal(-6)))
        CFI (cfiCond194) ?RET_LOW load(1, XDATA, add(CFA_XSP16, literal(-5)))
        CFI (cfiCond194) ?RET_HIGH load(1, XDATA, add(CFA_XSP16, literal(-4)))
        CFI (cfiCond194) ?BRET_EXT load(1, XDATA, add(CFA_XSP16, literal(-3)))
        CFI (cfiCond194) DPL0 load(1, XDATA, add(CFA_XSP16, literal(-2)))
        CFI (cfiCond194) DPH0 load(1, XDATA, add(CFA_XSP16, literal(-1)))
        CFI (cfiCond194) CFA_SP SP+0
        CFI (cfiCond194) CFA_XSP16 add(XSP16, 14)
        CFI Block cfiCond195 Using cfiCommon0
        CFI (cfiCond195) NoFunction
        CFI (cfiCond195) Conditional ??CrossCallReturnLabel_93
        CFI (cfiCond195) R6 load(1, XDATA, add(CFA_XSP16, literal(-14)))
        CFI (cfiCond195) VB load(1, XDATA, add(CFA_XSP16, literal(-13)))
        CFI (cfiCond195) V0 load(1, XDATA, add(CFA_XSP16, literal(-12)))
        CFI (cfiCond195) V1 load(1, XDATA, add(CFA_XSP16, literal(-11)))
        CFI (cfiCond195) V2 load(1, XDATA, add(CFA_XSP16, literal(-10)))
        CFI (cfiCond195) V3 load(1, XDATA, add(CFA_XSP16, literal(-9)))
        CFI (cfiCond195) V4 load(1, XDATA, add(CFA_XSP16, literal(-8)))
        CFI (cfiCond195) V5 load(1, XDATA, add(CFA_XSP16, literal(-7)))
        CFI (cfiCond195) R7 load(1, XDATA, add(CFA_XSP16, literal(-6)))
        CFI (cfiCond195) ?RET_LOW load(1, XDATA, add(CFA_XSP16, literal(-5)))
        CFI (cfiCond195) ?RET_HIGH load(1, XDATA, add(CFA_XSP16, literal(-4)))
        CFI (cfiCond195) ?BRET_EXT load(1, XDATA, add(CFA_XSP16, literal(-3)))
        CFI (cfiCond195) DPL0 load(1, XDATA, add(CFA_XSP16, literal(-2)))
        CFI (cfiCond195) DPH0 load(1, XDATA, add(CFA_XSP16, literal(-1)))
        CFI (cfiCond195) CFA_SP SP+-1
        CFI (cfiCond195) CFA_XSP16 add(XSP16, 14)
        CFI Block cfiCond196 Using cfiCommon0
        CFI (cfiCond196) NoFunction
        CFI (cfiCond196) Conditional ??CrossCallReturnLabel_95, ??CrossCallReturnLabel_29
        CFI (cfiCond196) R6 load(1, XDATA, add(CFA_XSP16, literal(-9)))
        CFI (cfiCond196) VB load(1, XDATA, add(CFA_XSP16, literal(-8)))
        CFI (cfiCond196) V0 load(1, XDATA, add(CFA_XSP16, literal(-7)))
        CFI (cfiCond196) R7 load(1, XDATA, add(CFA_XSP16, literal(-6)))
        CFI (cfiCond196) ?RET_LOW load(1, XDATA, add(CFA_XSP16, literal(-5)))
        CFI (cfiCond196) ?RET_HIGH load(1, XDATA, add(CFA_XSP16, literal(-4)))
        CFI (cfiCond196) ?BRET_EXT load(1, XDATA, add(CFA_XSP16, literal(-3)))
        CFI (cfiCond196) DPL0 load(1, XDATA, add(CFA_XSP16, literal(-2)))
        CFI (cfiCond196) DPH0 load(1, XDATA, add(CFA_XSP16, literal(-1)))
        CFI (cfiCond196) CFA_SP SP+0
        CFI (cfiCond196) CFA_XSP16 add(XSP16, 9)
        CFI Block cfiCond197 Using cfiCommon0
        CFI (cfiCond197) NoFunction
        CFI (cfiCond197) Conditional ??CrossCallReturnLabel_95, ??CrossCallReturnLabel_30
        CFI (cfiCond197) R6 load(1, XDATA, add(CFA_XSP16, literal(-10)))
        CFI (cfiCond197) VB load(1, XDATA, add(CFA_XSP16, literal(-9)))
        CFI (cfiCond197) V0 load(1, XDATA, add(CFA_XSP16, literal(-8)))
        CFI (cfiCond197) V1 load(1, XDATA, add(CFA_XSP16, literal(-7)))
        CFI (cfiCond197) R7 load(1, XDATA, add(CFA_XSP16, literal(-6)))
        CFI (cfiCond197) ?RET_LOW load(1, XDATA, add(CFA_XSP16, literal(-5)))
        CFI (cfiCond197) ?RET_HIGH load(1, XDATA, add(CFA_XSP16, literal(-4)))
        CFI (cfiCond197) ?BRET_EXT load(1, XDATA, add(CFA_XSP16, literal(-3)))
        CFI (cfiCond197) DPL0 load(1, XDATA, add(CFA_XSP16, literal(-2)))
        CFI (cfiCond197) DPH0 load(1, XDATA, add(CFA_XSP16, literal(-1)))
        CFI (cfiCond197) CFA_SP SP+0
        CFI (cfiCond197) CFA_XSP16 add(XSP16, 10)
        CFI Block cfiCond198 Using cfiCommon0
        CFI (cfiCond198) NoFunction
        CFI (cfiCond198) Conditional ??CrossCallReturnLabel_96
        CFI (cfiCond198) R6 load(1, XDATA, add(CFA_XSP16, literal(-10)))
        CFI (cfiCond198) VB load(1, XDATA, add(CFA_XSP16, literal(-9)))
        CFI (cfiCond198) V0 load(1, XDATA, add(CFA_XSP16, literal(-8)))
        CFI (cfiCond198) V1 load(1, XDATA, add(CFA_XSP16, literal(-7)))
        CFI (cfiCond198) R7 load(1, XDATA, add(CFA_XSP16, literal(-6)))
        CFI (cfiCond198) ?RET_LOW load(1, XDATA, add(CFA_XSP16, literal(-5)))
        CFI (cfiCond198) ?RET_HIGH load(1, XDATA, add(CFA_XSP16, literal(-4)))
        CFI (cfiCond198) ?BRET_EXT load(1, XDATA, add(CFA_XSP16, literal(-3)))
        CFI (cfiCond198) DPL0 load(1, XDATA, add(CFA_XSP16, literal(-2)))
        CFI (cfiCond198) DPH0 load(1, XDATA, add(CFA_XSP16, literal(-1)))
        CFI (cfiCond198) CFA_SP SP+0
        CFI (cfiCond198) CFA_XSP16 add(XSP16, 10)
        CFI Block cfiCond199 Using cfiCommon0
        CFI (cfiCond199) NoFunction
        CFI (cfiCond199) Conditional ??CrossCallReturnLabel_97, ??CrossCallReturnLabel_31
        CFI (cfiCond199) R6 load(1, XDATA, add(CFA_XSP16, literal(-10)))
        CFI (cfiCond199) VB load(1, XDATA, add(CFA_XSP16, literal(-9)))
        CFI (cfiCond199) V0 load(1, XDATA, add(CFA_XSP16, literal(-8)))
        CFI (cfiCond199) V1 load(1, XDATA, add(CFA_XSP16, literal(-7)))
        CFI (cfiCond199) R7 load(1, XDATA, add(CFA_XSP16, literal(-6)))
        CFI (cfiCond199) ?RET_LOW load(1, XDATA, add(CFA_XSP16, literal(-5)))
        CFI (cfiCond199) ?RET_HIGH load(1, XDATA, add(CFA_XSP16, literal(-4)))
        CFI (cfiCond199) ?BRET_EXT load(1, XDATA, add(CFA_XSP16, literal(-3)))
        CFI (cfiCond199) DPL0 load(1, XDATA, add(CFA_XSP16, literal(-2)))
        CFI (cfiCond199) DPH0 load(1, XDATA, add(CFA_XSP16, literal(-1)))
        CFI (cfiCond199) CFA_SP SP+0
        CFI (cfiCond199) CFA_XSP16 add(XSP16, 31)
        CFI Block cfiCond200 Using cfiCommon0
        CFI (cfiCond200) NoFunction
        CFI (cfiCond200) Conditional ??CrossCallReturnLabel_97, ??CrossCallReturnLabel_32
        CFI (cfiCond200) R6 load(1, XDATA, add(CFA_XSP16, literal(-10)))
        CFI (cfiCond200) VB load(1, XDATA, add(CFA_XSP16, literal(-9)))
        CFI (cfiCond200) V0 load(1, XDATA, add(CFA_XSP16, literal(-8)))
        CFI (cfiCond200) V1 load(1, XDATA, add(CFA_XSP16, literal(-7)))
        CFI (cfiCond200) R7 load(1, XDATA, add(CFA_XSP16, literal(-6)))
        CFI (cfiCond200) ?RET_LOW load(1, XDATA, add(CFA_XSP16, literal(-5)))
        CFI (cfiCond200) ?RET_HIGH load(1, XDATA, add(CFA_XSP16, literal(-4)))
        CFI (cfiCond200) ?BRET_EXT load(1, XDATA, add(CFA_XSP16, literal(-3)))
        CFI (cfiCond200) DPL0 load(1, XDATA, add(CFA_XSP16, literal(-2)))
        CFI (cfiCond200) DPH0 load(1, XDATA, add(CFA_XSP16, literal(-1)))
        CFI (cfiCond200) CFA_SP SP+0
        CFI (cfiCond200) CFA_XSP16 add(XSP16, 10)
        CFI Block cfiPicker201 Using cfiCommon1
        CFI (cfiPicker201) NoFunction
        CFI (cfiPicker201) Picker
        MOV     DPL,A
        MOV     A,R7
        CFI EndBlock cfiCond192
        CFI EndBlock cfiCond193
        CFI EndBlock cfiCond194
        CFI EndBlock cfiCond195
        CFI EndBlock cfiCond196
        CFI EndBlock cfiCond197
        CFI EndBlock cfiCond198
        CFI EndBlock cfiCond199
        CFI EndBlock cfiCond200
        CFI EndBlock cfiPicker201
        REQUIRE ??Subroutine52_0
        ; // Fall through to label ??Subroutine52_0

        RSEG BANKED_CODE:CODE:NOROOT(0)
??Subroutine52_0:
        CFI Block cfiCond202 Using cfiCommon0
        CFI NoFunction
        CFI Conditional ??CrossCallReturnLabel_91
        CFI R6 load(1, XDATA, add(CFA_XSP16, literal(-14)))
        CFI VB load(1, XDATA, add(CFA_XSP16, literal(-13)))
        CFI V0 load(1, XDATA, add(CFA_XSP16, literal(-12)))
        CFI V1 load(1, XDATA, add(CFA_XSP16, literal(-11)))
        CFI V2 load(1, XDATA, add(CFA_XSP16, literal(-10)))
        CFI V3 load(1, XDATA, add(CFA_XSP16, literal(-9)))
        CFI V4 load(1, XDATA, add(CFA_XSP16, literal(-8)))
        CFI V5 load(1, XDATA, add(CFA_XSP16, literal(-7)))
        CFI R7 load(1, XDATA, add(CFA_XSP16, literal(-6)))
        CFI ?RET_LOW load(1, XDATA, add(CFA_XSP16, literal(-5)))
        CFI ?RET_HIGH load(1, XDATA, add(CFA_XSP16, literal(-4)))
        CFI ?BRET_EXT load(1, XDATA, add(CFA_XSP16, literal(-3)))
        CFI DPL0 load(1, XDATA, add(CFA_XSP16, literal(-2)))
        CFI DPH0 load(1, XDATA, add(CFA_XSP16, literal(-1)))
        CFI CFA_SP SP+0
        CFI CFA_XSP16 add(XSP16, 14)
        CFI Block cfiCond203 Using cfiCommon0
        CFI (cfiCond203) NoFunction
        CFI (cfiCond203) Conditional ??CrossCallReturnLabel_92
        CFI (cfiCond203) R6 load(1, XDATA, add(CFA_XSP16, literal(-14)))
        CFI (cfiCond203) VB load(1, XDATA, add(CFA_XSP16, literal(-13)))
        CFI (cfiCond203) V0 load(1, XDATA, add(CFA_XSP16, literal(-12)))
        CFI (cfiCond203) V1 load(1, XDATA, add(CFA_XSP16, literal(-11)))
        CFI (cfiCond203) V2 load(1, XDATA, add(CFA_XSP16, literal(-10)))
        CFI (cfiCond203) V3 load(1, XDATA, add(CFA_XSP16, literal(-9)))
        CFI (cfiCond203) V4 load(1, XDATA, add(CFA_XSP16, literal(-8)))
        CFI (cfiCond203) V5 load(1, XDATA, add(CFA_XSP16, literal(-7)))
        CFI (cfiCond203) R7 load(1, XDATA, add(CFA_XSP16, literal(-6)))
        CFI (cfiCond203) ?RET_LOW load(1, XDATA, add(CFA_XSP16, literal(-5)))
        CFI (cfiCond203) ?RET_HIGH load(1, XDATA, add(CFA_XSP16, literal(-4)))
        CFI (cfiCond203) ?BRET_EXT load(1, XDATA, add(CFA_XSP16, literal(-3)))
        CFI (cfiCond203) DPL0 load(1, XDATA, add(CFA_XSP16, literal(-2)))
        CFI (cfiCond203) DPH0 load(1, XDATA, add(CFA_XSP16, literal(-1)))
        CFI (cfiCond203) CFA_SP SP+0
        CFI (cfiCond203) CFA_XSP16 add(XSP16, 14)
        CFI Block cfiCond204 Using cfiCommon0
        CFI (cfiCond204) NoFunction
        CFI (cfiCond204) Conditional ??CrossCallReturnLabel_98, ??CrossCallReturnLabel_89
        CFI (cfiCond204) R6 load(1, XDATA, add(CFA_XSP16, literal(-10)))
        CFI (cfiCond204) VB load(1, XDATA, add(CFA_XSP16, literal(-9)))
        CFI (cfiCond204) V0 load(1, XDATA, add(CFA_XSP16, literal(-8)))
        CFI (cfiCond204) V1 load(1, XDATA, add(CFA_XSP16, literal(-7)))
        CFI (cfiCond204) R7 load(1, XDATA, add(CFA_XSP16, literal(-6)))
        CFI (cfiCond204) ?RET_LOW load(1, XDATA, add(CFA_XSP16, literal(-5)))
        CFI (cfiCond204) ?RET_HIGH load(1, XDATA, add(CFA_XSP16, literal(-4)))
        CFI (cfiCond204) ?BRET_EXT load(1, XDATA, add(CFA_XSP16, literal(-3)))
        CFI (cfiCond204) DPL0 load(1, XDATA, add(CFA_XSP16, literal(-2)))
        CFI (cfiCond204) DPH0 load(1, XDATA, add(CFA_XSP16, literal(-1)))
        CFI (cfiCond204) CFA_SP SP+0
        CFI (cfiCond204) CFA_XSP16 add(XSP16, 10)
        CFI Block cfiCond205 Using cfiCommon0
        CFI (cfiCond205) NoFunction
        CFI (cfiCond205) Conditional ??CrossCallReturnLabel_98, ??CrossCallReturnLabel_90
        CFI (cfiCond205) R6 load(1, XDATA, add(CFA_XSP16, literal(-10)))
        CFI (cfiCond205) VB load(1, XDATA, add(CFA_XSP16, literal(-9)))
        CFI (cfiCond205) V0 load(1, XDATA, add(CFA_XSP16, literal(-8)))
        CFI (cfiCond205) V1 load(1, XDATA, add(CFA_XSP16, literal(-7)))
        CFI (cfiCond205) R7 load(1, XDATA, add(CFA_XSP16, literal(-6)))
        CFI (cfiCond205) ?RET_LOW load(1, XDATA, add(CFA_XSP16, literal(-5)))
        CFI (cfiCond205) ?RET_HIGH load(1, XDATA, add(CFA_XSP16, literal(-4)))
        CFI (cfiCond205) ?BRET_EXT load(1, XDATA, add(CFA_XSP16, literal(-3)))
        CFI (cfiCond205) DPL0 load(1, XDATA, add(CFA_XSP16, literal(-2)))
        CFI (cfiCond205) DPH0 load(1, XDATA, add(CFA_XSP16, literal(-1)))
        CFI (cfiCond205) CFA_SP SP+0
        CFI (cfiCond205) CFA_XSP16 add(XSP16, 10)
        CFI Block cfiCond206 Using cfiCommon0
        CFI (cfiCond206) NoFunction
        CFI (cfiCond206) Conditional ??CrossCallReturnLabel_98, ??CrossCallReturnLabel_86
        CFI (cfiCond206) R6 load(1, XDATA, add(CFA_XSP16, literal(-10)))
        CFI (cfiCond206) VB load(1, XDATA, add(CFA_XSP16, literal(-9)))
        CFI (cfiCond206) V0 load(1, XDATA, add(CFA_XSP16, literal(-8)))
        CFI (cfiCond206) V1 load(1, XDATA, add(CFA_XSP16, literal(-7)))
        CFI (cfiCond206) R7 load(1, XDATA, add(CFA_XSP16, literal(-6)))
        CFI (cfiCond206) ?RET_LOW load(1, XDATA, add(CFA_XSP16, literal(-5)))
        CFI (cfiCond206) ?RET_HIGH load(1, XDATA, add(CFA_XSP16, literal(-4)))
        CFI (cfiCond206) ?BRET_EXT load(1, XDATA, add(CFA_XSP16, literal(-3)))
        CFI (cfiCond206) DPL0 load(1, XDATA, add(CFA_XSP16, literal(-2)))
        CFI (cfiCond206) DPH0 load(1, XDATA, add(CFA_XSP16, literal(-1)))
        CFI (cfiCond206) CFA_SP SP+0
        CFI (cfiCond206) CFA_XSP16 add(XSP16, 10)
        CFI Block cfiCond207 Using cfiCommon0
        CFI (cfiCond207) NoFunction
        CFI (cfiCond207) Conditional ??CrossCallReturnLabel_98, ??CrossCallReturnLabel_87
        CFI (cfiCond207) R6 load(1, XDATA, add(CFA_XSP16, literal(-10)))
        CFI (cfiCond207) VB load(1, XDATA, add(CFA_XSP16, literal(-9)))
        CFI (cfiCond207) V0 load(1, XDATA, add(CFA_XSP16, literal(-8)))
        CFI (cfiCond207) V1 load(1, XDATA, add(CFA_XSP16, literal(-7)))
        CFI (cfiCond207) R7 load(1, XDATA, add(CFA_XSP16, literal(-6)))
        CFI (cfiCond207) ?RET_LOW load(1, XDATA, add(CFA_XSP16, literal(-5)))
        CFI (cfiCond207) ?RET_HIGH load(1, XDATA, add(CFA_XSP16, literal(-4)))
        CFI (cfiCond207) ?BRET_EXT load(1, XDATA, add(CFA_XSP16, literal(-3)))
        CFI (cfiCond207) DPL0 load(1, XDATA, add(CFA_XSP16, literal(-2)))
        CFI (cfiCond207) DPH0 load(1, XDATA, add(CFA_XSP16, literal(-1)))
        CFI (cfiCond207) CFA_SP SP+0
        CFI (cfiCond207) CFA_XSP16 add(XSP16, 14)
        CFI Block cfiCond208 Using cfiCommon0
        CFI (cfiCond208) NoFunction
        CFI (cfiCond208) Conditional ??CrossCallReturnLabel_98, ??CrossCallReturnLabel_88
        CFI (cfiCond208) R6 load(1, XDATA, add(CFA_XSP16, literal(-10)))
        CFI (cfiCond208) VB load(1, XDATA, add(CFA_XSP16, literal(-9)))
        CFI (cfiCond208) V0 load(1, XDATA, add(CFA_XSP16, literal(-8)))
        CFI (cfiCond208) V1 load(1, XDATA, add(CFA_XSP16, literal(-7)))
        CFI (cfiCond208) R7 load(1, XDATA, add(CFA_XSP16, literal(-6)))
        CFI (cfiCond208) ?RET_LOW load(1, XDATA, add(CFA_XSP16, literal(-5)))
        CFI (cfiCond208) ?RET_HIGH load(1, XDATA, add(CFA_XSP16, literal(-4)))
        CFI (cfiCond208) ?BRET_EXT load(1, XDATA, add(CFA_XSP16, literal(-3)))
        CFI (cfiCond208) DPL0 load(1, XDATA, add(CFA_XSP16, literal(-2)))
        CFI (cfiCond208) DPH0 load(1, XDATA, add(CFA_XSP16, literal(-1)))
        CFI (cfiCond208) CFA_SP SP+0
        CFI (cfiCond208) CFA_XSP16 add(XSP16, 14)
        CFI Block cfiCond209 Using cfiCommon0
        CFI (cfiCond209) NoFunction
        CFI (cfiCond209) Conditional ??CrossCallReturnLabel_98, ??CrossCallReturnLabel_83
        CFI (cfiCond209) R6 load(1, XDATA, add(CFA_XSP16, literal(-14)))
        CFI (cfiCond209) VB load(1, XDATA, add(CFA_XSP16, literal(-13)))
        CFI (cfiCond209) V0 load(1, XDATA, add(CFA_XSP16, literal(-12)))
        CFI (cfiCond209) V1 load(1, XDATA, add(CFA_XSP16, literal(-11)))
        CFI (cfiCond209) V2 load(1, XDATA, add(CFA_XSP16, literal(-10)))
        CFI (cfiCond209) V3 load(1, XDATA, add(CFA_XSP16, literal(-9)))
        CFI (cfiCond209) V4 load(1, XDATA, add(CFA_XSP16, literal(-8)))
        CFI (cfiCond209) V5 load(1, XDATA, add(CFA_XSP16, literal(-7)))
        CFI (cfiCond209) R7 load(1, XDATA, add(CFA_XSP16, literal(-6)))
        CFI (cfiCond209) ?RET_LOW load(1, XDATA, add(CFA_XSP16, literal(-5)))
        CFI (cfiCond209) ?RET_HIGH load(1, XDATA, add(CFA_XSP16, literal(-4)))
        CFI (cfiCond209) ?BRET_EXT load(1, XDATA, add(CFA_XSP16, literal(-3)))
        CFI (cfiCond209) DPL0 load(1, XDATA, add(CFA_XSP16, literal(-2)))
        CFI (cfiCond209) DPH0 load(1, XDATA, add(CFA_XSP16, literal(-1)))
        CFI (cfiCond209) CFA_SP SP+0
        CFI (cfiCond209) CFA_XSP16 add(XSP16, 14)
        CFI Block cfiCond210 Using cfiCommon0
        CFI (cfiCond210) NoFunction
        CFI (cfiCond210) Conditional ??CrossCallReturnLabel_98, ??CrossCallReturnLabel_84
        CFI (cfiCond210) R6 load(1, XDATA, add(CFA_XSP16, literal(-14)))
        CFI (cfiCond210) VB load(1, XDATA, add(CFA_XSP16, literal(-13)))
        CFI (cfiCond210) V0 load(1, XDATA, add(CFA_XSP16, literal(-12)))
        CFI (cfiCond210) V1 load(1, XDATA, add(CFA_XSP16, literal(-11)))
        CFI (cfiCond210) V2 load(1, XDATA, add(CFA_XSP16, literal(-10)))
        CFI (cfiCond210) V3 load(1, XDATA, add(CFA_XSP16, literal(-9)))
        CFI (cfiCond210) V4 load(1, XDATA, add(CFA_XSP16, literal(-8)))
        CFI (cfiCond210) V5 load(1, XDATA, add(CFA_XSP16, literal(-7)))
        CFI (cfiCond210) R7 load(1, XDATA, add(CFA_XSP16, literal(-6)))
        CFI (cfiCond210) ?RET_LOW load(1, XDATA, add(CFA_XSP16, literal(-5)))
        CFI (cfiCond210) ?RET_HIGH load(1, XDATA, add(CFA_XSP16, literal(-4)))
        CFI (cfiCond210) ?BRET_EXT load(1, XDATA, add(CFA_XSP16, literal(-3)))
        CFI (cfiCond210) DPL0 load(1, XDATA, add(CFA_XSP16, literal(-2)))
        CFI (cfiCond210) DPH0 load(1, XDATA, add(CFA_XSP16, literal(-1)))
        CFI (cfiCond210) CFA_SP SP+0
        CFI (cfiCond210) CFA_XSP16 add(XSP16, 14)
        CFI Block cfiCond211 Using cfiCommon0
        CFI (cfiCond211) NoFunction
        CFI (cfiCond211) Conditional ??CrossCallReturnLabel_98, ??CrossCallReturnLabel_85
        CFI (cfiCond211) R6 load(1, XDATA, add(CFA_XSP16, literal(-14)))
        CFI (cfiCond211) VB load(1, XDATA, add(CFA_XSP16, literal(-13)))
        CFI (cfiCond211) V0 load(1, XDATA, add(CFA_XSP16, literal(-12)))
        CFI (cfiCond211) V1 load(1, XDATA, add(CFA_XSP16, literal(-11)))
        CFI (cfiCond211) V2 load(1, XDATA, add(CFA_XSP16, literal(-10)))
        CFI (cfiCond211) V3 load(1, XDATA, add(CFA_XSP16, literal(-9)))
        CFI (cfiCond211) V4 load(1, XDATA, add(CFA_XSP16, literal(-8)))
        CFI (cfiCond211) V5 load(1, XDATA, add(CFA_XSP16, literal(-7)))
        CFI (cfiCond211) R7 load(1, XDATA, add(CFA_XSP16, literal(-6)))
        CFI (cfiCond211) ?RET_LOW load(1, XDATA, add(CFA_XSP16, literal(-5)))
        CFI (cfiCond211) ?RET_HIGH load(1, XDATA, add(CFA_XSP16, literal(-4)))
        CFI (cfiCond211) ?BRET_EXT load(1, XDATA, add(CFA_XSP16, literal(-3)))
        CFI (cfiCond211) DPL0 load(1, XDATA, add(CFA_XSP16, literal(-2)))
        CFI (cfiCond211) DPH0 load(1, XDATA, add(CFA_XSP16, literal(-1)))
        CFI (cfiCond211) CFA_SP SP+0
        CFI (cfiCond211) CFA_XSP16 add(XSP16, 14)
        CFI Block cfiCond212 Using cfiCommon0
        CFI (cfiCond212) NoFunction
        CFI (cfiCond212) Conditional ??CrossCallReturnLabel_94, ??CrossCallReturnLabel_73
        CFI (cfiCond212) R6 load(1, XDATA, add(CFA_XSP16, literal(-14)))
        CFI (cfiCond212) VB load(1, XDATA, add(CFA_XSP16, literal(-13)))
        CFI (cfiCond212) V0 load(1, XDATA, add(CFA_XSP16, literal(-12)))
        CFI (cfiCond212) V1 load(1, XDATA, add(CFA_XSP16, literal(-11)))
        CFI (cfiCond212) V2 load(1, XDATA, add(CFA_XSP16, literal(-10)))
        CFI (cfiCond212) V3 load(1, XDATA, add(CFA_XSP16, literal(-9)))
        CFI (cfiCond212) V4 load(1, XDATA, add(CFA_XSP16, literal(-8)))
        CFI (cfiCond212) V5 load(1, XDATA, add(CFA_XSP16, literal(-7)))
        CFI (cfiCond212) R7 load(1, XDATA, add(CFA_XSP16, literal(-6)))
        CFI (cfiCond212) ?RET_LOW load(1, XDATA, add(CFA_XSP16, literal(-5)))
        CFI (cfiCond212) ?RET_HIGH load(1, XDATA, add(CFA_XSP16, literal(-4)))
        CFI (cfiCond212) ?BRET_EXT load(1, XDATA, add(CFA_XSP16, literal(-3)))
        CFI (cfiCond212) DPL0 load(1, XDATA, add(CFA_XSP16, literal(-2)))
        CFI (cfiCond212) DPH0 load(1, XDATA, add(CFA_XSP16, literal(-1)))
        CFI (cfiCond212) CFA_SP SP+0
        CFI (cfiCond212) CFA_XSP16 add(XSP16, 14)
        CFI Block cfiCond213 Using cfiCommon0
        CFI (cfiCond213) NoFunction
        CFI (cfiCond213) Conditional ??CrossCallReturnLabel_94, ??CrossCallReturnLabel_74
        CFI (cfiCond213) R6 load(1, XDATA, add(CFA_XSP16, literal(-14)))
        CFI (cfiCond213) VB load(1, XDATA, add(CFA_XSP16, literal(-13)))
        CFI (cfiCond213) V0 load(1, XDATA, add(CFA_XSP16, literal(-12)))
        CFI (cfiCond213) V1 load(1, XDATA, add(CFA_XSP16, literal(-11)))
        CFI (cfiCond213) V2 load(1, XDATA, add(CFA_XSP16, literal(-10)))
        CFI (cfiCond213) V3 load(1, XDATA, add(CFA_XSP16, literal(-9)))
        CFI (cfiCond213) V4 load(1, XDATA, add(CFA_XSP16, literal(-8)))
        CFI (cfiCond213) V5 load(1, XDATA, add(CFA_XSP16, literal(-7)))
        CFI (cfiCond213) R7 load(1, XDATA, add(CFA_XSP16, literal(-6)))
        CFI (cfiCond213) ?RET_LOW load(1, XDATA, add(CFA_XSP16, literal(-5)))
        CFI (cfiCond213) ?RET_HIGH load(1, XDATA, add(CFA_XSP16, literal(-4)))
        CFI (cfiCond213) ?BRET_EXT load(1, XDATA, add(CFA_XSP16, literal(-3)))
        CFI (cfiCond213) DPL0 load(1, XDATA, add(CFA_XSP16, literal(-2)))
        CFI (cfiCond213) DPH0 load(1, XDATA, add(CFA_XSP16, literal(-1)))
        CFI (cfiCond213) CFA_SP SP+0
        CFI (cfiCond213) CFA_XSP16 add(XSP16, 14)
        CFI Block cfiCond214 Using cfiCommon0
        CFI (cfiCond214) NoFunction
        CFI (cfiCond214) Conditional ??CrossCallReturnLabel_94, ??CrossCallReturnLabel_75
        CFI (cfiCond214) R6 load(1, XDATA, add(CFA_XSP16, literal(-14)))
        CFI (cfiCond214) VB load(1, XDATA, add(CFA_XSP16, literal(-13)))
        CFI (cfiCond214) V0 load(1, XDATA, add(CFA_XSP16, literal(-12)))
        CFI (cfiCond214) V1 load(1, XDATA, add(CFA_XSP16, literal(-11)))
        CFI (cfiCond214) V2 load(1, XDATA, add(CFA_XSP16, literal(-10)))
        CFI (cfiCond214) V3 load(1, XDATA, add(CFA_XSP16, literal(-9)))
        CFI (cfiCond214) V4 load(1, XDATA, add(CFA_XSP16, literal(-8)))
        CFI (cfiCond214) V5 load(1, XDATA, add(CFA_XSP16, literal(-7)))
        CFI (cfiCond214) R7 load(1, XDATA, add(CFA_XSP16, literal(-6)))
        CFI (cfiCond214) ?RET_LOW load(1, XDATA, add(CFA_XSP16, literal(-5)))
        CFI (cfiCond214) ?RET_HIGH load(1, XDATA, add(CFA_XSP16, literal(-4)))
        CFI (cfiCond214) ?BRET_EXT load(1, XDATA, add(CFA_XSP16, literal(-3)))
        CFI (cfiCond214) DPL0 load(1, XDATA, add(CFA_XSP16, literal(-2)))
        CFI (cfiCond214) DPH0 load(1, XDATA, add(CFA_XSP16, literal(-1)))
        CFI (cfiCond214) CFA_SP SP+0
        CFI (cfiCond214) CFA_XSP16 add(XSP16, 14)
        CFI Block cfiCond215 Using cfiCommon0
        CFI (cfiCond215) NoFunction
        CFI (cfiCond215) Conditional ??CrossCallReturnLabel_93
        CFI (cfiCond215) R6 load(1, XDATA, add(CFA_XSP16, literal(-14)))
        CFI (cfiCond215) VB load(1, XDATA, add(CFA_XSP16, literal(-13)))
        CFI (cfiCond215) V0 load(1, XDATA, add(CFA_XSP16, literal(-12)))
        CFI (cfiCond215) V1 load(1, XDATA, add(CFA_XSP16, literal(-11)))
        CFI (cfiCond215) V2 load(1, XDATA, add(CFA_XSP16, literal(-10)))
        CFI (cfiCond215) V3 load(1, XDATA, add(CFA_XSP16, literal(-9)))
        CFI (cfiCond215) V4 load(1, XDATA, add(CFA_XSP16, literal(-8)))
        CFI (cfiCond215) V5 load(1, XDATA, add(CFA_XSP16, literal(-7)))
        CFI (cfiCond215) R7 load(1, XDATA, add(CFA_XSP16, literal(-6)))
        CFI (cfiCond215) ?RET_LOW load(1, XDATA, add(CFA_XSP16, literal(-5)))
        CFI (cfiCond215) ?RET_HIGH load(1, XDATA, add(CFA_XSP16, literal(-4)))
        CFI (cfiCond215) ?BRET_EXT load(1, XDATA, add(CFA_XSP16, literal(-3)))
        CFI (cfiCond215) DPL0 load(1, XDATA, add(CFA_XSP16, literal(-2)))
        CFI (cfiCond215) DPH0 load(1, XDATA, add(CFA_XSP16, literal(-1)))
        CFI (cfiCond215) CFA_SP SP+-1
        CFI (cfiCond215) CFA_XSP16 add(XSP16, 14)
        CFI Block cfiCond216 Using cfiCommon0
        CFI (cfiCond216) NoFunction
        CFI (cfiCond216) Conditional ??CrossCallReturnLabel_95, ??CrossCallReturnLabel_29
        CFI (cfiCond216) R6 load(1, XDATA, add(CFA_XSP16, literal(-9)))
        CFI (cfiCond216) VB load(1, XDATA, add(CFA_XSP16, literal(-8)))
        CFI (cfiCond216) V0 load(1, XDATA, add(CFA_XSP16, literal(-7)))
        CFI (cfiCond216) R7 load(1, XDATA, add(CFA_XSP16, literal(-6)))
        CFI (cfiCond216) ?RET_LOW load(1, XDATA, add(CFA_XSP16, literal(-5)))
        CFI (cfiCond216) ?RET_HIGH load(1, XDATA, add(CFA_XSP16, literal(-4)))
        CFI (cfiCond216) ?BRET_EXT load(1, XDATA, add(CFA_XSP16, literal(-3)))
        CFI (cfiCond216) DPL0 load(1, XDATA, add(CFA_XSP16, literal(-2)))
        CFI (cfiCond216) DPH0 load(1, XDATA, add(CFA_XSP16, literal(-1)))
        CFI (cfiCond216) CFA_SP SP+0
        CFI (cfiCond216) CFA_XSP16 add(XSP16, 9)
        CFI Block cfiCond217 Using cfiCommon0
        CFI (cfiCond217) NoFunction
        CFI (cfiCond217) Conditional ??CrossCallReturnLabel_95, ??CrossCallReturnLabel_30
        CFI (cfiCond217) R6 load(1, XDATA, add(CFA_XSP16, literal(-10)))
        CFI (cfiCond217) VB load(1, XDATA, add(CFA_XSP16, literal(-9)))
        CFI (cfiCond217) V0 load(1, XDATA, add(CFA_XSP16, literal(-8)))
        CFI (cfiCond217) V1 load(1, XDATA, add(CFA_XSP16, literal(-7)))
        CFI (cfiCond217) R7 load(1, XDATA, add(CFA_XSP16, literal(-6)))
        CFI (cfiCond217) ?RET_LOW load(1, XDATA, add(CFA_XSP16, literal(-5)))
        CFI (cfiCond217) ?RET_HIGH load(1, XDATA, add(CFA_XSP16, literal(-4)))
        CFI (cfiCond217) ?BRET_EXT load(1, XDATA, add(CFA_XSP16, literal(-3)))
        CFI (cfiCond217) DPL0 load(1, XDATA, add(CFA_XSP16, literal(-2)))
        CFI (cfiCond217) DPH0 load(1, XDATA, add(CFA_XSP16, literal(-1)))
        CFI (cfiCond217) CFA_SP SP+0
        CFI (cfiCond217) CFA_XSP16 add(XSP16, 10)
        CFI Block cfiCond218 Using cfiCommon0
        CFI (cfiCond218) NoFunction
        CFI (cfiCond218) Conditional ??CrossCallReturnLabel_96
        CFI (cfiCond218) R6 load(1, XDATA, add(CFA_XSP16, literal(-10)))
        CFI (cfiCond218) VB load(1, XDATA, add(CFA_XSP16, literal(-9)))
        CFI (cfiCond218) V0 load(1, XDATA, add(CFA_XSP16, literal(-8)))
        CFI (cfiCond218) V1 load(1, XDATA, add(CFA_XSP16, literal(-7)))
        CFI (cfiCond218) R7 load(1, XDATA, add(CFA_XSP16, literal(-6)))
        CFI (cfiCond218) ?RET_LOW load(1, XDATA, add(CFA_XSP16, literal(-5)))
        CFI (cfiCond218) ?RET_HIGH load(1, XDATA, add(CFA_XSP16, literal(-4)))
        CFI (cfiCond218) ?BRET_EXT load(1, XDATA, add(CFA_XSP16, literal(-3)))
        CFI (cfiCond218) DPL0 load(1, XDATA, add(CFA_XSP16, literal(-2)))
        CFI (cfiCond218) DPH0 load(1, XDATA, add(CFA_XSP16, literal(-1)))
        CFI (cfiCond218) CFA_SP SP+0
        CFI (cfiCond218) CFA_XSP16 add(XSP16, 10)
        CFI Block cfiCond219 Using cfiCommon0
        CFI (cfiCond219) NoFunction
        CFI (cfiCond219) Conditional ??CrossCallReturnLabel_97, ??CrossCallReturnLabel_31
        CFI (cfiCond219) R6 load(1, XDATA, add(CFA_XSP16, literal(-10)))
        CFI (cfiCond219) VB load(1, XDATA, add(CFA_XSP16, literal(-9)))
        CFI (cfiCond219) V0 load(1, XDATA, add(CFA_XSP16, literal(-8)))
        CFI (cfiCond219) V1 load(1, XDATA, add(CFA_XSP16, literal(-7)))
        CFI (cfiCond219) R7 load(1, XDATA, add(CFA_XSP16, literal(-6)))
        CFI (cfiCond219) ?RET_LOW load(1, XDATA, add(CFA_XSP16, literal(-5)))
        CFI (cfiCond219) ?RET_HIGH load(1, XDATA, add(CFA_XSP16, literal(-4)))
        CFI (cfiCond219) ?BRET_EXT load(1, XDATA, add(CFA_XSP16, literal(-3)))
        CFI (cfiCond219) DPL0 load(1, XDATA, add(CFA_XSP16, literal(-2)))
        CFI (cfiCond219) DPH0 load(1, XDATA, add(CFA_XSP16, literal(-1)))
        CFI (cfiCond219) CFA_SP SP+0
        CFI (cfiCond219) CFA_XSP16 add(XSP16, 31)
        CFI Block cfiCond220 Using cfiCommon0
        CFI (cfiCond220) NoFunction
        CFI (cfiCond220) Conditional ??CrossCallReturnLabel_97, ??CrossCallReturnLabel_32
        CFI (cfiCond220) R6 load(1, XDATA, add(CFA_XSP16, literal(-10)))
        CFI (cfiCond220) VB load(1, XDATA, add(CFA_XSP16, literal(-9)))
        CFI (cfiCond220) V0 load(1, XDATA, add(CFA_XSP16, literal(-8)))
        CFI (cfiCond220) V1 load(1, XDATA, add(CFA_XSP16, literal(-7)))
        CFI (cfiCond220) R7 load(1, XDATA, add(CFA_XSP16, literal(-6)))
        CFI (cfiCond220) ?RET_LOW load(1, XDATA, add(CFA_XSP16, literal(-5)))
        CFI (cfiCond220) ?RET_HIGH load(1, XDATA, add(CFA_XSP16, literal(-4)))
        CFI (cfiCond220) ?BRET_EXT load(1, XDATA, add(CFA_XSP16, literal(-3)))
        CFI (cfiCond220) DPL0 load(1, XDATA, add(CFA_XSP16, literal(-2)))
        CFI (cfiCond220) DPH0 load(1, XDATA, add(CFA_XSP16, literal(-1)))
        CFI (cfiCond220) CFA_SP SP+0
        CFI (cfiCond220) CFA_XSP16 add(XSP16, 10)
        CFI Block cfiPicker221 Using cfiCommon1
        CFI (cfiPicker221) NoFunction
        CFI (cfiPicker221) Picker
        ADDC    A,#0x0
        MOV     DPH,A
        RET
        CFI EndBlock cfiCond202
        CFI EndBlock cfiCond203
        CFI EndBlock cfiCond204
        CFI EndBlock cfiCond205
        CFI EndBlock cfiCond206
        CFI EndBlock cfiCond207
        CFI EndBlock cfiCond208
        CFI EndBlock cfiCond209
        CFI EndBlock cfiCond210
        CFI EndBlock cfiCond211
        CFI EndBlock cfiCond212
        CFI EndBlock cfiCond213
        CFI EndBlock cfiCond214
        CFI EndBlock cfiCond215
        CFI EndBlock cfiCond216
        CFI EndBlock cfiCond217
        CFI EndBlock cfiCond218
        CFI EndBlock cfiCond219
        CFI EndBlock cfiCond220
        CFI EndBlock cfiPicker221
// 2551 
// 2552 /*********************************************************************
// 2553  * @fn          ZDO_SyncIndicationCB
// 2554  *
// 2555  * @brief       This function allows the next higher layer of a
// 2556  *              coordinator to be notified of a loss of synchronization
// 2557  *                          with the parent/child device.
// 2558  *
// 2559  * @param       type: 0 - child; 1 - parent
// 2560  *
// 2561  *
// 2562  * @return      none
// 2563  */

        RSEG BANKED_CODE:CODE:NOROOT(0)
// 2564 void ZDO_SyncIndicationCB( uint8 type, uint16 shortAddr )
ZDO_SyncIndicationCB:
        CFI Block cfiBlock222 Using cfiCommon0
        CFI Function ZDO_SyncIndicationCB
// 2565 {
        FUNCALL ZDO_SyncIndicationCB, nwkNeighborInitTable
        LOCFRAME ISTACK, 0, STACK
        LOCFRAME PSTACK, 0, STACK
        LOCFRAME XSTACK, 9, STACK
        LOCFRAME IOVERLAY, 0, STATIC
        LOCFRAME DOVERLAY, 0, STATIC
        ARGFRAME ISTACK, 0, STACK
        ARGFRAME PSTACK, 0, STACK
        ARGFRAME XSTACK, 9, STACK
        ARGFRAME IOVERLAY, 0, STATIC
        ARGFRAME DOVERLAY, 0, STATIC
        FUNCALL ZDO_SyncIndicationCB, ZDApp_SendMsg
        LOCFRAME ISTACK, 0, STACK
        LOCFRAME PSTACK, 0, STACK
        LOCFRAME XSTACK, 9, STACK
        LOCFRAME IOVERLAY, 0, STATIC
        LOCFRAME DOVERLAY, 0, STATIC
        ARGFRAME ISTACK, 0, STACK
        ARGFRAME PSTACK, 0, STACK
        ARGFRAME XSTACK, 9, STACK
        ARGFRAME IOVERLAY, 0, STATIC
        ARGFRAME DOVERLAY, 0, STATIC
        MOV     A,#-0x9
        LCALL   ?BANKED_ENTER_XDATA
        CFI DPH0 load(1, XDATA, add(CFA_XSP16, literal(-1)))
        CFI DPL0 load(1, XDATA, add(CFA_XSP16, literal(-2)))
        CFI ?BRET_EXT load(1, XDATA, add(CFA_XSP16, literal(-3)))
        CFI ?RET_HIGH load(1, XDATA, add(CFA_XSP16, literal(-4)))
        CFI ?RET_LOW load(1, XDATA, add(CFA_XSP16, literal(-5)))
        CFI R7 load(1, XDATA, add(CFA_XSP16, literal(-6)))
        CFI V0 load(1, XDATA, add(CFA_XSP16, literal(-7)))
        CFI VB load(1, XDATA, add(CFA_XSP16, literal(-8)))
        CFI R6 load(1, XDATA, add(CFA_XSP16, literal(-9)))
        CFI CFA_SP SP+0
        CFI CFA_XSP16 add(XSP16, 9)
        ; Saved register size: 9
        ; Auto size: 0
        MOV     A,R1
        MOV     R6,A
// 2566   (void)shortAddr;  // Remove this line if this parameter is used.
// 2567   
// 2568   if ( ZSTACK_END_DEVICE_BUILD
// 2569     || (ZSTACK_ROUTER_BUILD && ((_NIB.CapabilityFlags & ZMAC_ASSOC_CAPINFO_FFD_TYPE) == 0)))
// 2570   {
// 2571     if ( type == 1 )
        MOV     A,#0x1
        XRL     A,R6
        JNZ     ??CrossCallReturnLabel_24
// 2572     {
// 2573       // We lost contact with our parent.  Clear the neighbor Table.
// 2574       nwkNeighborInitTable();
        ; Setup parameters for call to function nwkNeighborInitTable
        LCALL   ??nwkNeighborInitTable?relay
// 2575       
// 2576       // Start the rejoin process.
// 2577       ZDApp_SendMsg( ZDAppTaskID, ZDO_NWK_JOIN_REQ, sizeof(osal_event_hdr_t), NULL );
        ; Setup parameters for call to function ZDApp_SendMsg
        MOV     R4,#0x0
        MOV     R5,#0x0
        MOV     R3,#0x2
        MOV     R2,#0x3
        LCALL   ?Subroutine21 & 0xFFFF
// 2578     }
// 2579   }
// 2580 }
??CrossCallReturnLabel_24:
        LJMP    ??Subroutine48_0 & 0xFFFF
        CFI EndBlock cfiBlock222
// 2581 
// 2582 /*********************************************************************
// 2583  * @fn          ZDO_ManytoOneFailureIndicationCB
// 2584  *
// 2585  * @brief       This function allows the next higher layer of a
// 2586  *              concentrator to be notified of a many-to-one route 
// 2587  *              failure. 
// 2588  *
// 2589  * @param       none
// 2590  *
// 2591  *
// 2592  * @return      none
// 2593  */

        RSEG BANKED_CODE:CODE:NOROOT(0)
// 2594 void ZDO_ManytoOneFailureIndicationCB()
ZDO_ManytoOneFailureIndicationCB:
        CFI Block cfiBlock223 Using cfiCommon0
        CFI Function ZDO_ManytoOneFailureIndicationCB
// 2595 {
        FUNCALL ZDO_ManytoOneFailureIndicationCB, RTG_MTORouteReq
        LOCFRAME ISTACK, 2, STACK
        LOCFRAME PSTACK, 0, STACK
        LOCFRAME XSTACK, 0, STACK
        LOCFRAME IOVERLAY, 0, STATIC
        LOCFRAME DOVERLAY, 0, STATIC
        ARGFRAME ISTACK, 2, STACK
        ARGFRAME PSTACK, 0, STACK
        ARGFRAME XSTACK, 0, STACK
        ARGFRAME IOVERLAY, 0, STATIC
        ARGFRAME DOVERLAY, 0, STATIC
        PUSH    DPL
        CFI DPL0 Frame(CFA_SP, 4)
        CFI CFA_SP SP+-4
        PUSH    DPH
        CFI DPH0 Frame(CFA_SP, 5)
        CFI CFA_SP SP+-5
        ; Saved register size: 2
        ; Auto size: 0
// 2596   // By default, the concentrator automatically redo many-to-one route 
// 2597   // discovery to update all many-to-one routes in the network
// 2598   // If you want anything processing other than the default,
// 2599   // please replace the following code.
// 2600   
// 2601   RTG_MTORouteReq();
        ; Setup parameters for call to function RTG_MTORouteReq
        LCALL   ??RTG_MTORouteReq?relay
// 2602 }
        LJMP    ?Subroutine2 & 0xFFFF
        CFI EndBlock cfiBlock223
// 2603 
// 2604 /*********************************************************************
// 2605  * @fn          ZDO_PollConfirmCB
// 2606  *
// 2607  * @brief       This function allows the next higher layer to be
// 2608  *              notified of a Poll Confirm.
// 2609  *
// 2610  * @param       none
// 2611  *
// 2612  * @return      none
// 2613  */

        RSEG BANKED_CODE:CODE:NOROOT(0)
// 2614 void ZDO_PollConfirmCB( uint8 status )
ZDO_PollConfirmCB:
        CFI Block cfiBlock224 Using cfiCommon0
        CFI Function ZDO_PollConfirmCB
// 2615 {
        ; Saved register size: 0
        ; Auto size: 0
// 2616   (void)status;  // Remove this line if this parameter is used.
// 2617   return;
        LJMP    ?BRET
        CFI EndBlock cfiBlock224
// 2618 }
// 2619 
// 2620 /******************************************************************************
// 2621  * @fn          ZDApp_NwkWriteNVRequest (stubs AddrMgrWriteNVRequest)
// 2622  *
// 2623  * @brief       Stub routine implemented by NHLE. NHLE should call
// 2624  *              <AddrMgrWriteNV> when appropriate.
// 2625  *
// 2626  * @param       none
// 2627  *
// 2628  * @return      none
// 2629  */

        RSEG BANKED_CODE:CODE:NOROOT(0)
// 2630 void ZDApp_NwkWriteNVRequest( void )
AddrMgrWriteNVRequest:
        CFI Block cfiBlock225 Using cfiCommon0
        CFI Function AddrMgrWriteNVRequest
// 2631 {
        ; Saved register size: 0
        ; Auto size: 0
// 2632 #if defined ( NV_RESTORE )  
// 2633   if ( !osal_get_timeoutEx( ZDAppTaskID, ZDO_NWK_UPDATE_NV ) )
// 2634   {
// 2635     // Trigger to save info into NV
// 2636     ZDApp_NVUpdate();
// 2637   }
// 2638 #endif
// 2639 }
        LJMP    ?BRET
        CFI EndBlock cfiBlock225
// 2640 
// 2641 /*********************************************************************
// 2642  * Call Back Functions from Security  - API
// 2643  */
// 2644 
// 2645  /*********************************************************************
// 2646  * @fn          ZDO_UpdateDeviceIndication
// 2647  *
// 2648  * @brief       This function notifies the "Trust Center" of a
// 2649  *              network when a device joins or leaves the network.
// 2650  *
// 2651  * @param       extAddr - pointer to 64 bit address of new device
// 2652  * @param       status  - 0 if a new device joined securely
// 2653  *                      - 1 if a new device joined un-securely
// 2654  *                      - 2 if a device left the network
// 2655  *
// 2656  * @return      true if newly joined device should be allowed to
// 2657  *                                              remain on network
// 2658  */

        RSEG BANKED_CODE:CODE:NOROOT(0)
// 2659 ZStatus_t ZDO_UpdateDeviceIndication( uint8 *extAddr, uint8 status )
ZDO_UpdateDeviceIndication:
        CFI Block cfiBlock226 Using cfiCommon0
        CFI Function ZDO_UpdateDeviceIndication
// 2660 {
        ; Saved register size: 0
        ; Auto size: 0
// 2661   // can implement a network access policy based on the
// 2662   // IEEE address of newly joining devices...
// 2663   (void)extAddr;
// 2664   (void)status;
// 2665   
// 2666   return ZSuccess;
        LJMP    ?Subroutine3 & 0xFFFF
        CFI EndBlock cfiBlock226
// 2667 }
// 2668 
// 2669 /*********************************************************************
// 2670  * @fn          ZDApp_InMsgCB
// 2671  *
// 2672  * @brief       This function is called to pass up any message that is
// 2673  *              not yet supported.  This allows for the developer to
// 2674  *              support features themselves..
// 2675  *
// 2676  * @return      none
// 2677  */

        RSEG BANKED_CODE:CODE:NOROOT(0)
// 2678 void ZDApp_InMsgCB( zdoIncomingMsg_t *inMsg )
ZDApp_InMsgCB:
        CFI Block cfiBlock227 Using cfiCommon0
        CFI Function ZDApp_InMsgCB
// 2679 {
        FUNCALL ZDApp_InMsgCB, ZDP_GenericRsp
        LOCFRAME ISTACK, 0, STACK
        LOCFRAME PSTACK, 0, STACK
        LOCFRAME XSTACK, 14, STACK
        LOCFRAME IOVERLAY, 0, STATIC
        LOCFRAME DOVERLAY, 0, STATIC
        ARGFRAME ISTACK, 0, STACK
        ARGFRAME PSTACK, 0, STACK
        ARGFRAME XSTACK, 14, STACK
        ARGFRAME IOVERLAY, 0, STATIC
        ARGFRAME DOVERLAY, 0, STATIC
        MOV     A,#-0xa
        LCALL   ?BANKED_ENTER_XDATA
        CFI DPH0 load(1, XDATA, add(CFA_XSP16, literal(-1)))
        CFI DPL0 load(1, XDATA, add(CFA_XSP16, literal(-2)))
        CFI ?BRET_EXT load(1, XDATA, add(CFA_XSP16, literal(-3)))
        CFI ?RET_HIGH load(1, XDATA, add(CFA_XSP16, literal(-4)))
        CFI ?RET_LOW load(1, XDATA, add(CFA_XSP16, literal(-5)))
        CFI R7 load(1, XDATA, add(CFA_XSP16, literal(-6)))
        CFI V1 load(1, XDATA, add(CFA_XSP16, literal(-7)))
        CFI V0 load(1, XDATA, add(CFA_XSP16, literal(-8)))
        CFI VB load(1, XDATA, add(CFA_XSP16, literal(-9)))
        CFI R6 load(1, XDATA, add(CFA_XSP16, literal(-10)))
        CFI CFA_SP SP+0
        CFI CFA_XSP16 add(XSP16, 10)
        ; Saved register size: 10
        ; Auto size: 0
        MOV     A,R2
        MOV     R6,A
        MOV     A,R3
        MOV     R7,A
// 2680   if ( inMsg->clusterID & ZDO_RESPONSE_BIT )
        LCALL   ?Subroutine38 & 0xFFFF
??CrossCallReturnLabel_96:
        INC     DPTR
        MOVX    A,@DPTR
        ANL     A,#0x80
        MOV     R1,A
        CLR     A
        JNZ     ??ZDApp_InMsgCB_0
        MOV     A,R1
??ZDApp_InMsgCB_0:
        JNZ     ??ZDApp_InMsgCB_1
// 2681   {
// 2682     // Handle the response message
// 2683   }
// 2684   else
// 2685   {
// 2686     // Handle the request message by sending a generic "not supported".
// 2687     // Device Announce doesn't have a response.
// 2688     if ( !(inMsg->wasBroadcast) && inMsg->clusterID != Device_annce )
        LCALL   ?Subroutine28 & 0xFFFF
??CrossCallReturnLabel_90:
        JNZ     ??ZDApp_InMsgCB_1
        MOV     A,R6
        ADD     A,#0xc
        LCALL   ??Subroutine53_0 & 0xFFFF
??CrossCallReturnLabel_86:
        XRL     A,#0x13
        JNZ     ??ZDApp_InMsgCB_2
        INC     DPTR
        MOVX    A,@DPTR
??ZDApp_InMsgCB_2:
        JZ      ??ZDApp_InMsgCB_1
// 2689     {
// 2690       ZDP_GenericRsp( inMsg->TransSeq, &(inMsg->srcAddr), ZDP_NOT_SUPPORTED, 0,
// 2691                       (uint16)(inMsg->clusterID | ZDO_RESPONSE_BIT), inMsg->SecurityUse );
        ; Setup parameters for call to function ZDP_GenericRsp
        LCALL   ?Subroutine27 & 0xFFFF
// 2692     }
// 2693   }
??CrossCallReturnLabel_32:
        ORL     A,#0x80
        MOV     ?V0 + 1,A
        MOV     R0,#?V0 + 0
        LCALL   ?PUSH_XSTACK_I_TWO
        CFI CFA_XSP16 add(XSP16, 12)
        MOV     ?V0 + 0,#0x0
        MOV     ?V0 + 1,#0x0
        MOV     R0,#?V0 + 0
        LCALL   ?PUSH_XSTACK_I_TWO
        CFI CFA_XSP16 add(XSP16, 14)
        MOV     A,R6
        ADD     A,#0xe
        LCALL   ??Subroutine53_0 & 0xFFFF
??CrossCallReturnLabel_87:
        MOV     R5,A
        MOV     R4,#-0x7c
        MOV     A,R6
        ADD     A,#0x2
        INC     R2
        INC     R2
        MOV     A,R7
        ADDC    A,#0x0
        MOV     R3,A
        MOV     A,R6
        ADD     A,#0xf
        LCALL   ??Subroutine53_0 & 0xFFFF
??CrossCallReturnLabel_88:
        MOV     R1,A
        LCALL   ??ZDP_GenericRsp?relay
        MOV     A,#0x4
        LCALL   ?DEALLOC_XSTACK8
        CFI CFA_XSP16 add(XSP16, 10)
// 2694 }
??ZDApp_InMsgCB_1:
        LJMP    ??Subroutine47_0 & 0xFFFF
        CFI EndBlock cfiBlock227

        RSEG BANKED_CODE:CODE:NOROOT(0)
?Subroutine28:
        CFI Block cfiCond228 Using cfiCommon0
        CFI NoFunction
        CFI Conditional ??CrossCallReturnLabel_89
        CFI R6 load(1, XDATA, add(CFA_XSP16, literal(-10)))
        CFI VB load(1, XDATA, add(CFA_XSP16, literal(-9)))
        CFI V0 load(1, XDATA, add(CFA_XSP16, literal(-8)))
        CFI V1 load(1, XDATA, add(CFA_XSP16, literal(-7)))
        CFI R7 load(1, XDATA, add(CFA_XSP16, literal(-6)))
        CFI ?RET_LOW load(1, XDATA, add(CFA_XSP16, literal(-5)))
        CFI ?RET_HIGH load(1, XDATA, add(CFA_XSP16, literal(-4)))
        CFI ?BRET_EXT load(1, XDATA, add(CFA_XSP16, literal(-3)))
        CFI DPL0 load(1, XDATA, add(CFA_XSP16, literal(-2)))
        CFI DPH0 load(1, XDATA, add(CFA_XSP16, literal(-1)))
        CFI CFA_SP SP+0
        CFI CFA_XSP16 add(XSP16, 10)
        CFI Block cfiCond229 Using cfiCommon0
        CFI (cfiCond229) NoFunction
        CFI (cfiCond229) Conditional ??CrossCallReturnLabel_90
        CFI (cfiCond229) R6 load(1, XDATA, add(CFA_XSP16, literal(-10)))
        CFI (cfiCond229) VB load(1, XDATA, add(CFA_XSP16, literal(-9)))
        CFI (cfiCond229) V0 load(1, XDATA, add(CFA_XSP16, literal(-8)))
        CFI (cfiCond229) V1 load(1, XDATA, add(CFA_XSP16, literal(-7)))
        CFI (cfiCond229) R7 load(1, XDATA, add(CFA_XSP16, literal(-6)))
        CFI (cfiCond229) ?RET_LOW load(1, XDATA, add(CFA_XSP16, literal(-5)))
        CFI (cfiCond229) ?RET_HIGH load(1, XDATA, add(CFA_XSP16, literal(-4)))
        CFI (cfiCond229) ?BRET_EXT load(1, XDATA, add(CFA_XSP16, literal(-3)))
        CFI (cfiCond229) DPL0 load(1, XDATA, add(CFA_XSP16, literal(-2)))
        CFI (cfiCond229) DPH0 load(1, XDATA, add(CFA_XSP16, literal(-1)))
        CFI (cfiCond229) CFA_SP SP+0
        CFI (cfiCond229) CFA_XSP16 add(XSP16, 10)
        CFI Block cfiPicker230 Using cfiCommon1
        CFI (cfiPicker230) NoFunction
        CFI (cfiPicker230) Picker
        MOV     A,R6
        ADD     A,#0xb
        CFI EndBlock cfiCond228
        CFI EndBlock cfiCond229
        CFI EndBlock cfiPicker230
        REQUIRE ??Subroutine53_0
        ; // Fall through to label ??Subroutine53_0

        RSEG BANKED_CODE:CODE:NOROOT(0)
??Subroutine53_0:
        CFI Block cfiCond231 Using cfiCommon0
        CFI NoFunction
        CFI Conditional ??CrossCallReturnLabel_86
        CFI R6 load(1, XDATA, add(CFA_XSP16, literal(-10)))
        CFI VB load(1, XDATA, add(CFA_XSP16, literal(-9)))
        CFI V0 load(1, XDATA, add(CFA_XSP16, literal(-8)))
        CFI V1 load(1, XDATA, add(CFA_XSP16, literal(-7)))
        CFI R7 load(1, XDATA, add(CFA_XSP16, literal(-6)))
        CFI ?RET_LOW load(1, XDATA, add(CFA_XSP16, literal(-5)))
        CFI ?RET_HIGH load(1, XDATA, add(CFA_XSP16, literal(-4)))
        CFI ?BRET_EXT load(1, XDATA, add(CFA_XSP16, literal(-3)))
        CFI DPL0 load(1, XDATA, add(CFA_XSP16, literal(-2)))
        CFI DPH0 load(1, XDATA, add(CFA_XSP16, literal(-1)))
        CFI CFA_SP SP+0
        CFI CFA_XSP16 add(XSP16, 10)
        CFI Block cfiCond232 Using cfiCommon0
        CFI (cfiCond232) NoFunction
        CFI (cfiCond232) Conditional ??CrossCallReturnLabel_87
        CFI (cfiCond232) R6 load(1, XDATA, add(CFA_XSP16, literal(-10)))
        CFI (cfiCond232) VB load(1, XDATA, add(CFA_XSP16, literal(-9)))
        CFI (cfiCond232) V0 load(1, XDATA, add(CFA_XSP16, literal(-8)))
        CFI (cfiCond232) V1 load(1, XDATA, add(CFA_XSP16, literal(-7)))
        CFI (cfiCond232) R7 load(1, XDATA, add(CFA_XSP16, literal(-6)))
        CFI (cfiCond232) ?RET_LOW load(1, XDATA, add(CFA_XSP16, literal(-5)))
        CFI (cfiCond232) ?RET_HIGH load(1, XDATA, add(CFA_XSP16, literal(-4)))
        CFI (cfiCond232) ?BRET_EXT load(1, XDATA, add(CFA_XSP16, literal(-3)))
        CFI (cfiCond232) DPL0 load(1, XDATA, add(CFA_XSP16, literal(-2)))
        CFI (cfiCond232) DPH0 load(1, XDATA, add(CFA_XSP16, literal(-1)))
        CFI (cfiCond232) CFA_SP SP+0
        CFI (cfiCond232) CFA_XSP16 add(XSP16, 14)
        CFI Block cfiCond233 Using cfiCommon0
        CFI (cfiCond233) NoFunction
        CFI (cfiCond233) Conditional ??CrossCallReturnLabel_88
        CFI (cfiCond233) R6 load(1, XDATA, add(CFA_XSP16, literal(-10)))
        CFI (cfiCond233) VB load(1, XDATA, add(CFA_XSP16, literal(-9)))
        CFI (cfiCond233) V0 load(1, XDATA, add(CFA_XSP16, literal(-8)))
        CFI (cfiCond233) V1 load(1, XDATA, add(CFA_XSP16, literal(-7)))
        CFI (cfiCond233) R7 load(1, XDATA, add(CFA_XSP16, literal(-6)))
        CFI (cfiCond233) ?RET_LOW load(1, XDATA, add(CFA_XSP16, literal(-5)))
        CFI (cfiCond233) ?RET_HIGH load(1, XDATA, add(CFA_XSP16, literal(-4)))
        CFI (cfiCond233) ?BRET_EXT load(1, XDATA, add(CFA_XSP16, literal(-3)))
        CFI (cfiCond233) DPL0 load(1, XDATA, add(CFA_XSP16, literal(-2)))
        CFI (cfiCond233) DPH0 load(1, XDATA, add(CFA_XSP16, literal(-1)))
        CFI (cfiCond233) CFA_SP SP+0
        CFI (cfiCond233) CFA_XSP16 add(XSP16, 14)
        CFI Block cfiCond234 Using cfiCommon0
        CFI (cfiCond234) NoFunction
        CFI (cfiCond234) Conditional ??CrossCallReturnLabel_89
        CFI (cfiCond234) R6 load(1, XDATA, add(CFA_XSP16, literal(-10)))
        CFI (cfiCond234) VB load(1, XDATA, add(CFA_XSP16, literal(-9)))
        CFI (cfiCond234) V0 load(1, XDATA, add(CFA_XSP16, literal(-8)))
        CFI (cfiCond234) V1 load(1, XDATA, add(CFA_XSP16, literal(-7)))
        CFI (cfiCond234) R7 load(1, XDATA, add(CFA_XSP16, literal(-6)))
        CFI (cfiCond234) ?RET_LOW load(1, XDATA, add(CFA_XSP16, literal(-5)))
        CFI (cfiCond234) ?RET_HIGH load(1, XDATA, add(CFA_XSP16, literal(-4)))
        CFI (cfiCond234) ?BRET_EXT load(1, XDATA, add(CFA_XSP16, literal(-3)))
        CFI (cfiCond234) DPL0 load(1, XDATA, add(CFA_XSP16, literal(-2)))
        CFI (cfiCond234) DPH0 load(1, XDATA, add(CFA_XSP16, literal(-1)))
        CFI (cfiCond234) CFA_SP SP+0
        CFI (cfiCond234) CFA_XSP16 add(XSP16, 10)
        CFI Block cfiCond235 Using cfiCommon0
        CFI (cfiCond235) NoFunction
        CFI (cfiCond235) Conditional ??CrossCallReturnLabel_90
        CFI (cfiCond235) R6 load(1, XDATA, add(CFA_XSP16, literal(-10)))
        CFI (cfiCond235) VB load(1, XDATA, add(CFA_XSP16, literal(-9)))
        CFI (cfiCond235) V0 load(1, XDATA, add(CFA_XSP16, literal(-8)))
        CFI (cfiCond235) V1 load(1, XDATA, add(CFA_XSP16, literal(-7)))
        CFI (cfiCond235) R7 load(1, XDATA, add(CFA_XSP16, literal(-6)))
        CFI (cfiCond235) ?RET_LOW load(1, XDATA, add(CFA_XSP16, literal(-5)))
        CFI (cfiCond235) ?RET_HIGH load(1, XDATA, add(CFA_XSP16, literal(-4)))
        CFI (cfiCond235) ?BRET_EXT load(1, XDATA, add(CFA_XSP16, literal(-3)))
        CFI (cfiCond235) DPL0 load(1, XDATA, add(CFA_XSP16, literal(-2)))
        CFI (cfiCond235) DPH0 load(1, XDATA, add(CFA_XSP16, literal(-1)))
        CFI (cfiCond235) CFA_SP SP+0
        CFI (cfiCond235) CFA_XSP16 add(XSP16, 10)
        CFI Block cfiPicker236 Using cfiCommon1
        CFI (cfiPicker236) NoFunction
        CFI (cfiPicker236) Picker
        MOV     DPL,A
        MOV     A,R7
        CFI EndBlock cfiCond231
        CFI EndBlock cfiCond232
        CFI EndBlock cfiCond233
        CFI EndBlock cfiCond234
        CFI EndBlock cfiCond235
        CFI EndBlock cfiPicker236
        REQUIRE ??Subroutine54_0
        ; // Fall through to label ??Subroutine54_0

        RSEG BANKED_CODE:CODE:NOROOT(0)
??Subroutine54_0:
        CFI Block cfiCond237 Using cfiCommon0
        CFI NoFunction
        CFI Conditional ??CrossCallReturnLabel_83
        CFI R6 load(1, XDATA, add(CFA_XSP16, literal(-14)))
        CFI VB load(1, XDATA, add(CFA_XSP16, literal(-13)))
        CFI V0 load(1, XDATA, add(CFA_XSP16, literal(-12)))
        CFI V1 load(1, XDATA, add(CFA_XSP16, literal(-11)))
        CFI V2 load(1, XDATA, add(CFA_XSP16, literal(-10)))
        CFI V3 load(1, XDATA, add(CFA_XSP16, literal(-9)))
        CFI V4 load(1, XDATA, add(CFA_XSP16, literal(-8)))
        CFI V5 load(1, XDATA, add(CFA_XSP16, literal(-7)))
        CFI R7 load(1, XDATA, add(CFA_XSP16, literal(-6)))
        CFI ?RET_LOW load(1, XDATA, add(CFA_XSP16, literal(-5)))
        CFI ?RET_HIGH load(1, XDATA, add(CFA_XSP16, literal(-4)))
        CFI ?BRET_EXT load(1, XDATA, add(CFA_XSP16, literal(-3)))
        CFI DPL0 load(1, XDATA, add(CFA_XSP16, literal(-2)))
        CFI DPH0 load(1, XDATA, add(CFA_XSP16, literal(-1)))
        CFI CFA_SP SP+0
        CFI CFA_XSP16 add(XSP16, 14)
        CFI Block cfiCond238 Using cfiCommon0
        CFI (cfiCond238) NoFunction
        CFI (cfiCond238) Conditional ??CrossCallReturnLabel_84
        CFI (cfiCond238) R6 load(1, XDATA, add(CFA_XSP16, literal(-14)))
        CFI (cfiCond238) VB load(1, XDATA, add(CFA_XSP16, literal(-13)))
        CFI (cfiCond238) V0 load(1, XDATA, add(CFA_XSP16, literal(-12)))
        CFI (cfiCond238) V1 load(1, XDATA, add(CFA_XSP16, literal(-11)))
        CFI (cfiCond238) V2 load(1, XDATA, add(CFA_XSP16, literal(-10)))
        CFI (cfiCond238) V3 load(1, XDATA, add(CFA_XSP16, literal(-9)))
        CFI (cfiCond238) V4 load(1, XDATA, add(CFA_XSP16, literal(-8)))
        CFI (cfiCond238) V5 load(1, XDATA, add(CFA_XSP16, literal(-7)))
        CFI (cfiCond238) R7 load(1, XDATA, add(CFA_XSP16, literal(-6)))
        CFI (cfiCond238) ?RET_LOW load(1, XDATA, add(CFA_XSP16, literal(-5)))
        CFI (cfiCond238) ?RET_HIGH load(1, XDATA, add(CFA_XSP16, literal(-4)))
        CFI (cfiCond238) ?BRET_EXT load(1, XDATA, add(CFA_XSP16, literal(-3)))
        CFI (cfiCond238) DPL0 load(1, XDATA, add(CFA_XSP16, literal(-2)))
        CFI (cfiCond238) DPH0 load(1, XDATA, add(CFA_XSP16, literal(-1)))
        CFI (cfiCond238) CFA_SP SP+0
        CFI (cfiCond238) CFA_XSP16 add(XSP16, 14)
        CFI Block cfiCond239 Using cfiCommon0
        CFI (cfiCond239) NoFunction
        CFI (cfiCond239) Conditional ??CrossCallReturnLabel_85
        CFI (cfiCond239) R6 load(1, XDATA, add(CFA_XSP16, literal(-14)))
        CFI (cfiCond239) VB load(1, XDATA, add(CFA_XSP16, literal(-13)))
        CFI (cfiCond239) V0 load(1, XDATA, add(CFA_XSP16, literal(-12)))
        CFI (cfiCond239) V1 load(1, XDATA, add(CFA_XSP16, literal(-11)))
        CFI (cfiCond239) V2 load(1, XDATA, add(CFA_XSP16, literal(-10)))
        CFI (cfiCond239) V3 load(1, XDATA, add(CFA_XSP16, literal(-9)))
        CFI (cfiCond239) V4 load(1, XDATA, add(CFA_XSP16, literal(-8)))
        CFI (cfiCond239) V5 load(1, XDATA, add(CFA_XSP16, literal(-7)))
        CFI (cfiCond239) R7 load(1, XDATA, add(CFA_XSP16, literal(-6)))
        CFI (cfiCond239) ?RET_LOW load(1, XDATA, add(CFA_XSP16, literal(-5)))
        CFI (cfiCond239) ?RET_HIGH load(1, XDATA, add(CFA_XSP16, literal(-4)))
        CFI (cfiCond239) ?BRET_EXT load(1, XDATA, add(CFA_XSP16, literal(-3)))
        CFI (cfiCond239) DPL0 load(1, XDATA, add(CFA_XSP16, literal(-2)))
        CFI (cfiCond239) DPH0 load(1, XDATA, add(CFA_XSP16, literal(-1)))
        CFI (cfiCond239) CFA_SP SP+0
        CFI (cfiCond239) CFA_XSP16 add(XSP16, 14)
        CFI Block cfiCond240 Using cfiCommon0
        CFI (cfiCond240) NoFunction
        CFI (cfiCond240) Conditional ??CrossCallReturnLabel_86
        CFI (cfiCond240) R6 load(1, XDATA, add(CFA_XSP16, literal(-10)))
        CFI (cfiCond240) VB load(1, XDATA, add(CFA_XSP16, literal(-9)))
        CFI (cfiCond240) V0 load(1, XDATA, add(CFA_XSP16, literal(-8)))
        CFI (cfiCond240) V1 load(1, XDATA, add(CFA_XSP16, literal(-7)))
        CFI (cfiCond240) R7 load(1, XDATA, add(CFA_XSP16, literal(-6)))
        CFI (cfiCond240) ?RET_LOW load(1, XDATA, add(CFA_XSP16, literal(-5)))
        CFI (cfiCond240) ?RET_HIGH load(1, XDATA, add(CFA_XSP16, literal(-4)))
        CFI (cfiCond240) ?BRET_EXT load(1, XDATA, add(CFA_XSP16, literal(-3)))
        CFI (cfiCond240) DPL0 load(1, XDATA, add(CFA_XSP16, literal(-2)))
        CFI (cfiCond240) DPH0 load(1, XDATA, add(CFA_XSP16, literal(-1)))
        CFI (cfiCond240) CFA_SP SP+0
        CFI (cfiCond240) CFA_XSP16 add(XSP16, 10)
        CFI Block cfiCond241 Using cfiCommon0
        CFI (cfiCond241) NoFunction
        CFI (cfiCond241) Conditional ??CrossCallReturnLabel_87
        CFI (cfiCond241) R6 load(1, XDATA, add(CFA_XSP16, literal(-10)))
        CFI (cfiCond241) VB load(1, XDATA, add(CFA_XSP16, literal(-9)))
        CFI (cfiCond241) V0 load(1, XDATA, add(CFA_XSP16, literal(-8)))
        CFI (cfiCond241) V1 load(1, XDATA, add(CFA_XSP16, literal(-7)))
        CFI (cfiCond241) R7 load(1, XDATA, add(CFA_XSP16, literal(-6)))
        CFI (cfiCond241) ?RET_LOW load(1, XDATA, add(CFA_XSP16, literal(-5)))
        CFI (cfiCond241) ?RET_HIGH load(1, XDATA, add(CFA_XSP16, literal(-4)))
        CFI (cfiCond241) ?BRET_EXT load(1, XDATA, add(CFA_XSP16, literal(-3)))
        CFI (cfiCond241) DPL0 load(1, XDATA, add(CFA_XSP16, literal(-2)))
        CFI (cfiCond241) DPH0 load(1, XDATA, add(CFA_XSP16, literal(-1)))
        CFI (cfiCond241) CFA_SP SP+0
        CFI (cfiCond241) CFA_XSP16 add(XSP16, 14)
        CFI Block cfiCond242 Using cfiCommon0
        CFI (cfiCond242) NoFunction
        CFI (cfiCond242) Conditional ??CrossCallReturnLabel_88
        CFI (cfiCond242) R6 load(1, XDATA, add(CFA_XSP16, literal(-10)))
        CFI (cfiCond242) VB load(1, XDATA, add(CFA_XSP16, literal(-9)))
        CFI (cfiCond242) V0 load(1, XDATA, add(CFA_XSP16, literal(-8)))
        CFI (cfiCond242) V1 load(1, XDATA, add(CFA_XSP16, literal(-7)))
        CFI (cfiCond242) R7 load(1, XDATA, add(CFA_XSP16, literal(-6)))
        CFI (cfiCond242) ?RET_LOW load(1, XDATA, add(CFA_XSP16, literal(-5)))
        CFI (cfiCond242) ?RET_HIGH load(1, XDATA, add(CFA_XSP16, literal(-4)))
        CFI (cfiCond242) ?BRET_EXT load(1, XDATA, add(CFA_XSP16, literal(-3)))
        CFI (cfiCond242) DPL0 load(1, XDATA, add(CFA_XSP16, literal(-2)))
        CFI (cfiCond242) DPH0 load(1, XDATA, add(CFA_XSP16, literal(-1)))
        CFI (cfiCond242) CFA_SP SP+0
        CFI (cfiCond242) CFA_XSP16 add(XSP16, 14)
        CFI Block cfiCond243 Using cfiCommon0
        CFI (cfiCond243) NoFunction
        CFI (cfiCond243) Conditional ??CrossCallReturnLabel_89
        CFI (cfiCond243) R6 load(1, XDATA, add(CFA_XSP16, literal(-10)))
        CFI (cfiCond243) VB load(1, XDATA, add(CFA_XSP16, literal(-9)))
        CFI (cfiCond243) V0 load(1, XDATA, add(CFA_XSP16, literal(-8)))
        CFI (cfiCond243) V1 load(1, XDATA, add(CFA_XSP16, literal(-7)))
        CFI (cfiCond243) R7 load(1, XDATA, add(CFA_XSP16, literal(-6)))
        CFI (cfiCond243) ?RET_LOW load(1, XDATA, add(CFA_XSP16, literal(-5)))
        CFI (cfiCond243) ?RET_HIGH load(1, XDATA, add(CFA_XSP16, literal(-4)))
        CFI (cfiCond243) ?BRET_EXT load(1, XDATA, add(CFA_XSP16, literal(-3)))
        CFI (cfiCond243) DPL0 load(1, XDATA, add(CFA_XSP16, literal(-2)))
        CFI (cfiCond243) DPH0 load(1, XDATA, add(CFA_XSP16, literal(-1)))
        CFI (cfiCond243) CFA_SP SP+0
        CFI (cfiCond243) CFA_XSP16 add(XSP16, 10)
        CFI Block cfiCond244 Using cfiCommon0
        CFI (cfiCond244) NoFunction
        CFI (cfiCond244) Conditional ??CrossCallReturnLabel_90
        CFI (cfiCond244) R6 load(1, XDATA, add(CFA_XSP16, literal(-10)))
        CFI (cfiCond244) VB load(1, XDATA, add(CFA_XSP16, literal(-9)))
        CFI (cfiCond244) V0 load(1, XDATA, add(CFA_XSP16, literal(-8)))
        CFI (cfiCond244) V1 load(1, XDATA, add(CFA_XSP16, literal(-7)))
        CFI (cfiCond244) R7 load(1, XDATA, add(CFA_XSP16, literal(-6)))
        CFI (cfiCond244) ?RET_LOW load(1, XDATA, add(CFA_XSP16, literal(-5)))
        CFI (cfiCond244) ?RET_HIGH load(1, XDATA, add(CFA_XSP16, literal(-4)))
        CFI (cfiCond244) ?BRET_EXT load(1, XDATA, add(CFA_XSP16, literal(-3)))
        CFI (cfiCond244) DPL0 load(1, XDATA, add(CFA_XSP16, literal(-2)))
        CFI (cfiCond244) DPH0 load(1, XDATA, add(CFA_XSP16, literal(-1)))
        CFI (cfiCond244) CFA_SP SP+0
        CFI (cfiCond244) CFA_XSP16 add(XSP16, 10)
        CFI Block cfiPicker245 Using cfiCommon1
        CFI (cfiPicker245) NoFunction
        CFI (cfiPicker245) Picker
        LCALL   ??Subroutine52_0 & 0xFFFF
??CrossCallReturnLabel_98:
        MOVX    A,@DPTR
        RET
        CFI EndBlock cfiCond237
        CFI EndBlock cfiCond238
        CFI EndBlock cfiCond239
        CFI EndBlock cfiCond240
        CFI EndBlock cfiCond241
        CFI EndBlock cfiCond242
        CFI EndBlock cfiCond243
        CFI EndBlock cfiCond244
        CFI EndBlock cfiPicker245

        RSEG BANKED_CODE:CODE:NOROOT(0)
?Subroutine27:
        CFI Block cfiCond246 Using cfiCommon0
        CFI NoFunction
        CFI Conditional ??CrossCallReturnLabel_31
        CFI R6 load(1, XDATA, add(CFA_XSP16, literal(-10)))
        CFI VB load(1, XDATA, add(CFA_XSP16, literal(-9)))
        CFI V0 load(1, XDATA, add(CFA_XSP16, literal(-8)))
        CFI V1 load(1, XDATA, add(CFA_XSP16, literal(-7)))
        CFI R7 load(1, XDATA, add(CFA_XSP16, literal(-6)))
        CFI ?RET_LOW load(1, XDATA, add(CFA_XSP16, literal(-5)))
        CFI ?RET_HIGH load(1, XDATA, add(CFA_XSP16, literal(-4)))
        CFI ?BRET_EXT load(1, XDATA, add(CFA_XSP16, literal(-3)))
        CFI DPL0 load(1, XDATA, add(CFA_XSP16, literal(-2)))
        CFI DPH0 load(1, XDATA, add(CFA_XSP16, literal(-1)))
        CFI CFA_SP SP+0
        CFI CFA_XSP16 add(XSP16, 31)
        CFI Block cfiCond247 Using cfiCommon0
        CFI (cfiCond247) NoFunction
        CFI (cfiCond247) Conditional ??CrossCallReturnLabel_32
        CFI (cfiCond247) R6 load(1, XDATA, add(CFA_XSP16, literal(-10)))
        CFI (cfiCond247) VB load(1, XDATA, add(CFA_XSP16, literal(-9)))
        CFI (cfiCond247) V0 load(1, XDATA, add(CFA_XSP16, literal(-8)))
        CFI (cfiCond247) V1 load(1, XDATA, add(CFA_XSP16, literal(-7)))
        CFI (cfiCond247) R7 load(1, XDATA, add(CFA_XSP16, literal(-6)))
        CFI (cfiCond247) ?RET_LOW load(1, XDATA, add(CFA_XSP16, literal(-5)))
        CFI (cfiCond247) ?RET_HIGH load(1, XDATA, add(CFA_XSP16, literal(-4)))
        CFI (cfiCond247) ?BRET_EXT load(1, XDATA, add(CFA_XSP16, literal(-3)))
        CFI (cfiCond247) DPL0 load(1, XDATA, add(CFA_XSP16, literal(-2)))
        CFI (cfiCond247) DPH0 load(1, XDATA, add(CFA_XSP16, literal(-1)))
        CFI (cfiCond247) CFA_SP SP+0
        CFI (cfiCond247) CFA_XSP16 add(XSP16, 10)
        CFI Block cfiPicker248 Using cfiCommon1
        CFI (cfiPicker248) NoFunction
        CFI (cfiPicker248) Picker
        LCALL   ?Subroutine38 & 0xFFFF
??CrossCallReturnLabel_97:
        MOVX    A,@DPTR
        MOV     ?V0 + 0,A
        INC     DPTR
        MOVX    A,@DPTR
        RET
        CFI EndBlock cfiCond246
        CFI EndBlock cfiCond247
        CFI EndBlock cfiPicker248
// 2695 
// 2696 
// 2697 /*********************************************************************
// 2698  * @fn      ZDApp_ChangeMatchDescRespPermission()
// 2699  *
// 2700  * @brief   Changes the Match Descriptor Response permission.
// 2701  *
// 2702  * @param   endpoint - endpoint to allow responses
// 2703  * @param   action - true to allow responses, false to not
// 2704  *
// 2705  * @return  none
// 2706  */

        RSEG BANKED_CODE:CODE:NOROOT(0)
// 2707 void ZDApp_ChangeMatchDescRespPermission( uint8 endpoint, uint8 action )
ZDApp_ChangeMatchDescRespPermission:
        CFI Block cfiBlock249 Using cfiCommon0
        CFI Function ZDApp_ChangeMatchDescRespPermission
// 2708 {
        FUNCALL ZDApp_ChangeMatchDescRespPermission, afSetMatch
        LOCFRAME ISTACK, 0, STACK
        LOCFRAME PSTACK, 0, STACK
        LOCFRAME XSTACK, 9, STACK
        LOCFRAME IOVERLAY, 0, STATIC
        LOCFRAME DOVERLAY, 0, STATIC
        ARGFRAME ISTACK, 0, STACK
        ARGFRAME PSTACK, 0, STACK
        ARGFRAME XSTACK, 9, STACK
        ARGFRAME IOVERLAY, 0, STATIC
        ARGFRAME DOVERLAY, 0, STATIC
        MOV     A,#-0x9
        LCALL   ?BANKED_ENTER_XDATA
        CFI DPH0 load(1, XDATA, add(CFA_XSP16, literal(-1)))
        CFI DPL0 load(1, XDATA, add(CFA_XSP16, literal(-2)))
        CFI ?BRET_EXT load(1, XDATA, add(CFA_XSP16, literal(-3)))
        CFI ?RET_HIGH load(1, XDATA, add(CFA_XSP16, literal(-4)))
        CFI ?RET_LOW load(1, XDATA, add(CFA_XSP16, literal(-5)))
        CFI R7 load(1, XDATA, add(CFA_XSP16, literal(-6)))
        CFI V0 load(1, XDATA, add(CFA_XSP16, literal(-7)))
        CFI VB load(1, XDATA, add(CFA_XSP16, literal(-8)))
        CFI R6 load(1, XDATA, add(CFA_XSP16, literal(-9)))
        CFI CFA_SP SP+0
        CFI CFA_XSP16 add(XSP16, 9)
        ; Saved register size: 9
        ; Auto size: 0
// 2709   // Store the action
// 2710   afSetMatch( endpoint, action );
        ; Setup parameters for call to function afSetMatch
        LCALL   ??afSetMatch?relay
// 2711 }
        LJMP    ??Subroutine48_0 & 0xFFFF
        CFI EndBlock cfiBlock249
// 2712 
// 2713 /*********************************************************************
// 2714  * @fn      ZDApp_NetworkInit()
// 2715  *
// 2716  * @brief   Used to start the network joining process
// 2717  *
// 2718  * @param   delay - mSec delay to wait before starting
// 2719  *
// 2720  * @return  none
// 2721  */

        RSEG BANKED_CODE:CODE:NOROOT(0)
// 2722 void ZDApp_NetworkInit( uint16 delay )
ZDApp_NetworkInit:
        CFI Block cfiBlock250 Using cfiCommon0
        CFI Function ZDApp_NetworkInit
// 2723 {
        FUNCALL ZDApp_NetworkInit, osal_start_timerEx
        LOCFRAME ISTACK, 2, STACK
        LOCFRAME PSTACK, 0, STACK
        LOCFRAME XSTACK, 0, STACK
        LOCFRAME IOVERLAY, 0, STATIC
        LOCFRAME DOVERLAY, 0, STATIC
        ARGFRAME ISTACK, 2, STACK
        ARGFRAME PSTACK, 0, STACK
        ARGFRAME XSTACK, 0, STACK
        ARGFRAME IOVERLAY, 0, STATIC
        ARGFRAME DOVERLAY, 0, STATIC
        FUNCALL ZDApp_NetworkInit, osal_set_event
        LOCFRAME ISTACK, 2, STACK
        LOCFRAME PSTACK, 0, STACK
        LOCFRAME XSTACK, 0, STACK
        LOCFRAME IOVERLAY, 0, STATIC
        LOCFRAME DOVERLAY, 0, STATIC
        ARGFRAME ISTACK, 2, STACK
        ARGFRAME PSTACK, 0, STACK
        ARGFRAME XSTACK, 0, STACK
        ARGFRAME IOVERLAY, 0, STATIC
        ARGFRAME DOVERLAY, 0, STATIC
        PUSH    DPL
        CFI DPL0 Frame(CFA_SP, 4)
        CFI CFA_SP SP+-4
        PUSH    DPH
        CFI DPH0 Frame(CFA_SP, 5)
        CFI CFA_SP SP+-5
        ; Saved register size: 2
        ; Auto size: 0
// 2724   if ( delay )
        MOV     A,R2
        JNZ     ??ZDApp_NetworkInit_0
        MOV     A,R3
??ZDApp_NetworkInit_0:
        JZ      ??ZDApp_NetworkInit_1
// 2725   {
// 2726     // Wait awhile before starting the device
// 2727     osal_start_timerEx( ZDAppTaskID, ZDO_NETWORK_INIT, delay );
        ; Setup parameters for call to function osal_start_timerEx
        MOV     A,R2
        MOV     R4,A
        MOV     A,R3
        MOV     R5,A
        MOV     R2,#0x1
        LCALL   ?Subroutine23 & 0xFFFF
// 2728   }
??CrossCallReturnLabel_70:
        SJMP    ??CrossCallReturnLabel_57
// 2729   else
// 2730   {
// 2731     osal_set_event( ZDAppTaskID, ZDO_NETWORK_INIT );
??ZDApp_NetworkInit_1:
        ; Setup parameters for call to function osal_set_event
        MOV     R2,#0x1
        LCALL   ??Subroutine40_0 & 0xFFFF
// 2732   }
// 2733 }
??CrossCallReturnLabel_57:
        LJMP    ?Subroutine2 & 0xFFFF
        CFI EndBlock cfiBlock250
// 2734 
// 2735 /*********************************************************************
// 2736  * @fn      ZDApp_NwkStateUpdateCB()
// 2737  *
// 2738  * @brief   This function notifies that this device's network 
// 2739  *          state info has been changed.
// 2740  *
// 2741  * @param   none
// 2742  *
// 2743  * @return  none
// 2744  */

        RSEG BANKED_CODE:CODE:NOROOT(0)
// 2745 void ZDApp_NwkStateUpdateCB( void )
ZDApp_NwkStateUpdateCB:
        CFI Block cfiBlock251 Using cfiCommon0
        CFI Function ZDApp_NwkStateUpdateCB
// 2746 {
        FUNCALL ZDApp_NwkStateUpdateCB, osal_get_timeoutEx
        LOCFRAME ISTACK, 2, STACK
        LOCFRAME PSTACK, 0, STACK
        LOCFRAME XSTACK, 0, STACK
        LOCFRAME IOVERLAY, 0, STATIC
        LOCFRAME DOVERLAY, 0, STATIC
        ARGFRAME ISTACK, 2, STACK
        ARGFRAME PSTACK, 0, STACK
        ARGFRAME XSTACK, 0, STACK
        ARGFRAME IOVERLAY, 0, STATIC
        ARGFRAME DOVERLAY, 0, STATIC
        PUSH    DPL
        CFI DPL0 Frame(CFA_SP, 4)
        CFI CFA_SP SP+-4
        PUSH    DPH
        CFI DPH0 Frame(CFA_SP, 5)
        CFI CFA_SP SP+-5
        ; Saved register size: 2
        ; Auto size: 0
// 2747   // Notify to save info into NV
// 2748   if ( !osal_get_timeoutEx( ZDAppTaskID, ZDO_NWK_UPDATE_NV ) )
        ; Setup parameters for call to function osal_get_timeoutEx
        MOV     R2,#0x0
        MOV     R3,#0x2
        MOV     DPTR,#ZDAppTaskID
        MOVX    A,@DPTR
        MOV     R1,A
        LCALL   ??osal_get_timeoutEx?relay
// 2749   {
// 2750     // Trigger to save info into NV
// 2751     ZDApp_NVUpdate();
// 2752   }
// 2753 }
        LJMP    ?Subroutine2 & 0xFFFF
        CFI EndBlock cfiBlock251
// 2754 
// 2755 /*********************************************************************
// 2756  * @fn      ZDApp_NodeProfileSync()
// 2757  *
// 2758  * @brief   Sync node with stack profile.
// 2759  *
// 2760  * @param   stackProfile - stack profile of the network to join
// 2761  *
// 2762  * @return  none
// 2763  */

        RSEG BANKED_CODE:CODE:NOROOT(0)
// 2764 void ZDApp_NodeProfileSync( uint8 stackProfile )
ZDApp_NodeProfileSync:
        CFI Block cfiBlock252 Using cfiCommon0
        CFI Function ZDApp_NodeProfileSync
// 2765 {
        FUNCALL ZDApp_NodeProfileSync, NLME_SetBroadcastFilter
        LOCFRAME ISTACK, 0, STACK
        LOCFRAME PSTACK, 0, STACK
        LOCFRAME XSTACK, 9, STACK
        LOCFRAME IOVERLAY, 0, STATIC
        LOCFRAME DOVERLAY, 0, STATIC
        ARGFRAME ISTACK, 0, STACK
        ARGFRAME PSTACK, 0, STACK
        ARGFRAME XSTACK, 9, STACK
        ARGFRAME IOVERLAY, 0, STATIC
        ARGFRAME DOVERLAY, 0, STATIC
        MOV     A,#-0x9
        LCALL   ?BANKED_ENTER_XDATA
        CFI DPH0 load(1, XDATA, add(CFA_XSP16, literal(-1)))
        CFI DPL0 load(1, XDATA, add(CFA_XSP16, literal(-2)))
        CFI ?BRET_EXT load(1, XDATA, add(CFA_XSP16, literal(-3)))
        CFI ?RET_HIGH load(1, XDATA, add(CFA_XSP16, literal(-4)))
        CFI ?RET_LOW load(1, XDATA, add(CFA_XSP16, literal(-5)))
        CFI R7 load(1, XDATA, add(CFA_XSP16, literal(-6)))
        CFI V0 load(1, XDATA, add(CFA_XSP16, literal(-7)))
        CFI VB load(1, XDATA, add(CFA_XSP16, literal(-8)))
        CFI R6 load(1, XDATA, add(CFA_XSP16, literal(-9)))
        CFI CFA_SP SP+0
        CFI CFA_XSP16 add(XSP16, 9)
        ; Saved register size: 9
        ; Auto size: 0
        MOV     A,R1
        MOV     R6,A
// 2766   if ( ZDO_Config_Node_Descriptor.CapabilityFlags & CAPINFO_DEVICETYPE_FFD  )
        MOV     DPTR,#(ZDO_Config_Node_Descriptor + 2)
        MOVX    A,@DPTR
        MOV     C,0xE0 /* A   */.1
        JNC     ??ZDApp_NodeProfileSync_0
// 2767   {
// 2768     if ( stackProfile != zgStackProfile )
        MOV     DPTR,#zgStackProfile
        MOVX    A,@DPTR
        XRL     A,R6
        JZ      ??ZDApp_NodeProfileSync_0
// 2769     {
// 2770       ZDO_Config_Node_Descriptor.LogicalType = NODETYPE_DEVICE;
        MOV     DPTR,#ZDO_Config_Node_Descriptor
        MOVX    A,@DPTR
        ANL     A,#0xf8
        ORL     A,#0x2
        MOVX    @DPTR,A
// 2771       ZDO_Config_Node_Descriptor.CapabilityFlags = CAPINFO_DEVICETYPE_RFD | CAPINFO_POWER_AC | CAPINFO_RCVR_ON_IDLE;
        MOV     A,#0xc
        MOV     DPTR,#(ZDO_Config_Node_Descriptor + 2)
        MOVX    @DPTR,A
// 2772       NLME_SetBroadcastFilter( ZDO_Config_Node_Descriptor.CapabilityFlags );
        ; Setup parameters for call to function NLME_SetBroadcastFilter
        MOV     R1,A
        LCALL   ??NLME_SetBroadcastFilter?relay
// 2773     }
// 2774   }
// 2775 }
??ZDApp_NodeProfileSync_0:
        LJMP    ??Subroutine48_0 & 0xFFFF
        CFI EndBlock cfiBlock252
// 2776 
// 2777 /*********************************************************************
// 2778  * @fn      ZDApp_StartJoiningCycle()
// 2779  *
// 2780  * @brief   Starts the joining cycle of a device.  This will only 
// 2781  *          continue an already started (or stopped) joining cycle.
// 2782  *
// 2783  * @param   none
// 2784  *
// 2785  * @return  TRUE if joining stopped, FALSE if joining or rejoining
// 2786  */

        RSEG BANKED_CODE:CODE:NOROOT(0)
// 2787 uint8 ZDApp_StartJoiningCycle( void )
ZDApp_StartJoiningCycle:
        CFI Block cfiBlock253 Using cfiCommon0
        CFI Function ZDApp_StartJoiningCycle
// 2788 {
        FUNCALL ZDApp_StartJoiningCycle, ZDApp_NetworkInit
        LOCFRAME ISTACK, 2, STACK
        LOCFRAME PSTACK, 0, STACK
        LOCFRAME XSTACK, 0, STACK
        LOCFRAME IOVERLAY, 0, STATIC
        LOCFRAME DOVERLAY, 0, STATIC
        ARGFRAME ISTACK, 2, STACK
        ARGFRAME PSTACK, 0, STACK
        ARGFRAME XSTACK, 0, STACK
        ARGFRAME IOVERLAY, 0, STATIC
        ARGFRAME DOVERLAY, 0, STATIC
        PUSH    DPL
        CFI DPL0 Frame(CFA_SP, 4)
        CFI CFA_SP SP+-4
        PUSH    DPH
        CFI DPH0 Frame(CFA_SP, 5)
        CFI CFA_SP SP+-5
        ; Saved register size: 2
        ; Auto size: 0
// 2789   if ( devState == DEV_INIT || devState == DEV_NWK_DISC )
        MOV     DPTR,#devState
        MOVX    A,@DPTR
        XRL     A,#0x1
        JZ      ??ZDApp_StartJoiningCycle_0
        MOVX    A,@DPTR
        XRL     A,#0x2
        JNZ     ??ZDApp_StartJoiningCycle_1
// 2790   {
// 2791     continueJoining = TRUE;
??ZDApp_StartJoiningCycle_0:
        MOV     A,#0x1
        MOV     DPTR,#continueJoining
        MOVX    @DPTR,A
// 2792     ZDApp_NetworkInit( 0 );
        ; Setup parameters for call to function ZDApp_NetworkInit
        MOV     R2,#0x0
        MOV     R3,#0x0
        LCALL   ??ZDApp_NetworkInit?relay
// 2793 
// 2794     return ( TRUE );
        MOV     R1,#0x1
        SJMP    ??ZDApp_StartJoiningCycle_2
// 2795   }
// 2796   else
// 2797     return ( FALSE );
??ZDApp_StartJoiningCycle_1:
        MOV     R1,#0x0
??ZDApp_StartJoiningCycle_2:
        LJMP    ?Subroutine2 & 0xFFFF
        CFI EndBlock cfiBlock253
// 2798 }
// 2799 
// 2800 /*********************************************************************
// 2801  * @fn      ZDApp_StopJoiningCycle()
// 2802  *
// 2803  * @brief   Stops the joining or rejoining process of a device.
// 2804  *
// 2805  * @param   none
// 2806  *
// 2807  * @return  TRUE if joining stopped, FALSE if joining or rejoining
// 2808  */

        RSEG BANKED_CODE:CODE:NOROOT(0)
// 2809 uint8 ZDApp_StopJoiningCycle( void )
ZDApp_StopJoiningCycle:
        CFI Block cfiBlock254 Using cfiCommon0
        CFI Function ZDApp_StopJoiningCycle
// 2810 {
        PUSH    DPL
        CFI DPL0 Frame(CFA_SP, 4)
        CFI CFA_SP SP+-4
        PUSH    DPH
        CFI DPH0 Frame(CFA_SP, 5)
        CFI CFA_SP SP+-5
        ; Saved register size: 2
        ; Auto size: 0
// 2811   if ( devState == DEV_INIT || devState == DEV_NWK_DISC )
        MOV     DPTR,#devState
        MOVX    A,@DPTR
        XRL     A,#0x1
        JZ      ??ZDApp_StopJoiningCycle_0
        MOVX    A,@DPTR
        XRL     A,#0x2
        JNZ     ??ZDApp_StopJoiningCycle_1
// 2812   {
// 2813     continueJoining = FALSE;
??ZDApp_StopJoiningCycle_0:
        CLR     A
        MOV     DPTR,#continueJoining
        MOVX    @DPTR,A
// 2814     return ( TRUE );
        MOV     R1,#0x1
        SJMP    ??ZDApp_StopJoiningCycle_2
// 2815   }
// 2816   else
// 2817     return ( FALSE );
??ZDApp_StopJoiningCycle_1:
        MOV     R1,#0x0
??ZDApp_StopJoiningCycle_2:
        LJMP    ?Subroutine2 & 0xFFFF
        CFI EndBlock cfiBlock254
// 2818 }
// 2819 
// 2820 /*********************************************************************
// 2821  * @fn      ZDApp_AnnounceNewAddress()
// 2822  *
// 2823  * @brief   Send Device Announce and hold all transmissions for 
// 2824  *          new address timeout.
// 2825  *
// 2826  * @param   none
// 2827  *
// 2828  * @return  none
// 2829  */

        RSEG BANKED_CODE:CODE:NOROOT(0)
// 2830 void ZDApp_AnnounceNewAddress( void )
ZDApp_AnnounceNewAddress:
        CFI Block cfiBlock255 Using cfiCommon0
        CFI Function ZDApp_AnnounceNewAddress
// 2831 {
        FUNCALL ZDApp_AnnounceNewAddress, APSME_HoldDataRequests
        LOCFRAME ISTACK, 0, STACK
        LOCFRAME PSTACK, 0, STACK
        LOCFRAME XSTACK, 10, STACK
        LOCFRAME IOVERLAY, 0, STATIC
        LOCFRAME DOVERLAY, 0, STATIC
        ARGFRAME ISTACK, 0, STACK
        ARGFRAME PSTACK, 0, STACK
        ARGFRAME XSTACK, 10, STACK
        ARGFRAME IOVERLAY, 0, STATIC
        ARGFRAME DOVERLAY, 0, STATIC
        FUNCALL ZDApp_AnnounceNewAddress, NLME_GetExtAddr
        LOCFRAME ISTACK, 0, STACK
        LOCFRAME PSTACK, 0, STACK
        LOCFRAME XSTACK, 10, STACK
        LOCFRAME IOVERLAY, 0, STATIC
        LOCFRAME DOVERLAY, 0, STATIC
        ARGFRAME ISTACK, 0, STACK
        ARGFRAME PSTACK, 0, STACK
        ARGFRAME XSTACK, 10, STACK
        ARGFRAME IOVERLAY, 0, STATIC
        ARGFRAME DOVERLAY, 0, STATIC
        FUNCALL ZDApp_AnnounceNewAddress, NLME_GetShortAddr
        LOCFRAME ISTACK, 0, STACK
        LOCFRAME PSTACK, 0, STACK
        LOCFRAME XSTACK, 10, STACK
        LOCFRAME IOVERLAY, 0, STATIC
        LOCFRAME DOVERLAY, 0, STATIC
        ARGFRAME ISTACK, 0, STACK
        ARGFRAME PSTACK, 0, STACK
        ARGFRAME XSTACK, 10, STACK
        ARGFRAME IOVERLAY, 0, STATIC
        ARGFRAME DOVERLAY, 0, STATIC
        FUNCALL ZDApp_AnnounceNewAddress, ZDP_DeviceAnnce
        LOCFRAME ISTACK, 0, STACK
        LOCFRAME PSTACK, 0, STACK
        LOCFRAME XSTACK, 11, STACK
        LOCFRAME IOVERLAY, 0, STATIC
        LOCFRAME DOVERLAY, 0, STATIC
        ARGFRAME ISTACK, 0, STACK
        ARGFRAME PSTACK, 0, STACK
        ARGFRAME XSTACK, 11, STACK
        ARGFRAME IOVERLAY, 0, STATIC
        ARGFRAME DOVERLAY, 0, STATIC
        FUNCALL ZDApp_AnnounceNewAddress, APSME_HoldDataRequests
        LOCFRAME ISTACK, 0, STACK
        LOCFRAME PSTACK, 0, STACK
        LOCFRAME XSTACK, 10, STACK
        LOCFRAME IOVERLAY, 0, STATIC
        LOCFRAME DOVERLAY, 0, STATIC
        ARGFRAME ISTACK, 0, STACK
        ARGFRAME PSTACK, 0, STACK
        ARGFRAME XSTACK, 10, STACK
        ARGFRAME IOVERLAY, 0, STATIC
        ARGFRAME DOVERLAY, 0, STATIC
        MOV     A,#-0xa
        LCALL   ?BANKED_ENTER_XDATA
        CFI DPH0 load(1, XDATA, add(CFA_XSP16, literal(-1)))
        CFI DPL0 load(1, XDATA, add(CFA_XSP16, literal(-2)))
        CFI ?BRET_EXT load(1, XDATA, add(CFA_XSP16, literal(-3)))
        CFI ?RET_HIGH load(1, XDATA, add(CFA_XSP16, literal(-4)))
        CFI ?RET_LOW load(1, XDATA, add(CFA_XSP16, literal(-5)))
        CFI R7 load(1, XDATA, add(CFA_XSP16, literal(-6)))
        CFI V1 load(1, XDATA, add(CFA_XSP16, literal(-7)))
        CFI V0 load(1, XDATA, add(CFA_XSP16, literal(-8)))
        CFI VB load(1, XDATA, add(CFA_XSP16, literal(-9)))
        CFI R6 load(1, XDATA, add(CFA_XSP16, literal(-10)))
        CFI CFA_SP SP+0
        CFI CFA_XSP16 add(XSP16, 10)
        ; Saved register size: 10
        ; Auto size: 0
// 2832 #if defined ( ZIGBEE_NWK_UNIQUE_ADDR_CHECK )
// 2833   // Turn off data request hold
// 2834   APSME_HoldDataRequests( 0 );
        ; Setup parameters for call to function APSME_HoldDataRequests
        MOV     R2,#0x0
        MOV     R3,#0x0
        LCALL   ??APSME_HoldDataRequests?relay
// 2835 #endif
// 2836   
// 2837   ZDP_DeviceAnnce( NLME_GetShortAddr(), NLME_GetExtAddr(),
// 2838                      ZDO_Config_Node_Descriptor.CapabilityFlags, 0 );
        ; Setup parameters for call to function NLME_GetExtAddr
        LCALL   ??NLME_GetExtAddr?relay
        MOV     ?V0 + 0,R2
        MOV     ?V0 + 1,R3
        MOV     R6,?V0 + 0
        ; Setup parameters for call to function NLME_GetShortAddr
        LCALL   ??NLME_GetShortAddr?relay
        ; Setup parameters for call to function ZDP_DeviceAnnce
        MOV     ?V0 + 0,#0x0
        MOV     R0,#?V0 + 0
        LCALL   ?PUSH_XSTACK_I_ONE
        CFI CFA_XSP16 add(XSP16, 11)
        MOV     DPTR,#(ZDO_Config_Node_Descriptor + 2)
        MOVX    A,@DPTR
        MOV     R1,A
        MOV     A,R6
        MOV     R4,A
        MOV     R5,?V0 + 1
        LCALL   ??ZDP_DeviceAnnce?relay
        MOV     A,#0x1
        LCALL   ?DEALLOC_XSTACK8
        CFI CFA_XSP16 add(XSP16, 10)
// 2839   
// 2840 #if defined ( ZIGBEE_NWK_UNIQUE_ADDR_CHECK )
// 2841   // Setup the timeout
// 2842   APSME_HoldDataRequests( ZDAPP_HOLD_DATA_REQUESTS_TIMEOUT );
        ; Setup parameters for call to function APSME_HoldDataRequests
        MOV     R2,#0x0
        MOV     R3,#0x0
        LCALL   ??APSME_HoldDataRequests?relay
// 2843 #endif  
// 2844 }
        LJMP    ??Subroutine47_0 & 0xFFFF
        CFI EndBlock cfiBlock255
// 2845 
// 2846 /*********************************************************************
// 2847  * @fn          ZDApp_NVUpdate
// 2848  *
// 2849  * @brief       Set the NV Update Timer.
// 2850  *
// 2851  * @param       none
// 2852  *
// 2853  * @return      none
// 2854  */

        RSEG BANKED_CODE:CODE:NOROOT(0)
// 2855 void ZDApp_NVUpdate( void )
ZDApp_NVUpdate:
        CFI Block cfiBlock256 Using cfiCommon0
        CFI Function ZDApp_NVUpdate
// 2856 {
        ; Saved register size: 0
        ; Auto size: 0
// 2857 #if defined ( NV_RESTORE )
// 2858   osal_start_timerEx( ZDAppTaskID, ZDO_NWK_UPDATE_NV, ZDAPP_UPDATE_NWK_NV_TIME );
// 2859 #endif
// 2860 }
        LJMP    ?BRET
        CFI EndBlock cfiBlock256
// 2861 
// 2862 /*********************************************************************
// 2863  * @fn      ZDApp_CoordStartPANIDConflictCB()
// 2864  *
// 2865  * @brief   Returns a PAN ID for the network layer to use during
// 2866  *          a coordinator start and there is another network with 
// 2867  *          the intended PANID.
// 2868  *
// 2869  * @param   panid - the intended PAN ID
// 2870  *
// 2871  * @return  PANID to try
// 2872  */

        RSEG BANKED_CODE:CODE:NOROOT(0)
// 2873 uint16 ZDApp_CoordStartPANIDConflictCB( uint16 panid )
ZDApp_CoordStartPANIDConflictCB:
        CFI Block cfiBlock257 Using cfiCommon0
        CFI Function ZDApp_CoordStartPANIDConflictCB
// 2874 {
        ; Saved register size: 0
        ; Auto size: 0
// 2875   return ( panid + 1 );
        MOV     A,#0x1
        ADD     A,R2
        INC     R2
        CLR     A
        ADDC    A,R3
        MOV     R3,A
        LJMP    ?BRET
        CFI EndBlock cfiBlock257
// 2876 }
// 2877 
// 2878 /*********************************************************************
// 2879  * @fn          ZDO_SrcRtgIndCB
// 2880  *
// 2881  * @brief       This function notifies the ZDO available src route record received.
// 2882  *
// 2883  * @param       srcAddr - source address of the source route
// 2884  * @param       relayCnt - number of devices in the relay list
// 2885  * @param       relayList - relay list of the source route
// 2886  *
// 2887  * @return      none
// 2888  */

        RSEG BANKED_CODE:CODE:NOROOT(0)
// 2889 void ZDO_SrcRtgIndCB (uint16 srcAddr, uint8 relayCnt, uint16* pRelayList )
ZDO_SrcRtgIndCB:
        CFI Block cfiBlock258 Using cfiCommon0
        CFI Function ZDO_SrcRtgIndCB
// 2890 {
        MOV     A,#-0x9
        LCALL   ?BANKED_ENTER_XDATA
        CFI DPH0 load(1, XDATA, add(CFA_XSP16, literal(-1)))
        CFI DPL0 load(1, XDATA, add(CFA_XSP16, literal(-2)))
        CFI ?BRET_EXT load(1, XDATA, add(CFA_XSP16, literal(-3)))
        CFI ?RET_HIGH load(1, XDATA, add(CFA_XSP16, literal(-4)))
        CFI ?RET_LOW load(1, XDATA, add(CFA_XSP16, literal(-5)))
        CFI R7 load(1, XDATA, add(CFA_XSP16, literal(-6)))
        CFI V0 load(1, XDATA, add(CFA_XSP16, literal(-7)))
        CFI VB load(1, XDATA, add(CFA_XSP16, literal(-8)))
        CFI R6 load(1, XDATA, add(CFA_XSP16, literal(-9)))
        CFI CFA_SP SP+0
        CFI CFA_XSP16 add(XSP16, 9)
        ; Saved register size: 9
        ; Auto size: 5
        MOV     A,#-0x5
        LCALL   ?ALLOC_XSTACK8
        CFI CFA_XSP16 add(XSP16, 14)
// 2891   zdoSrcRtg_t srcRtg;
// 2892   
// 2893   srcRtg.srcAddr = srcAddr;
        LCALL   ?Subroutine13 & 0xFFFF
// 2894   srcRtg.relayCnt = relayCnt;
??CrossCallReturnLabel_106:
        MOV     A,#0x2
        LCALL   ?XSTACK_DISP0_8
        MOV     A,R1
        MOVX    @DPTR,A
// 2895   srcRtg.pRelayList = pRelayList;
        MOV     A,#0x3
        LCALL   ?XSTACK_DISP0_8
        MOV     A,R4
        MOVX    @DPTR,A
        INC     DPTR
        MOV     A,R5
        MOVX    @DPTR,A
// 2896   
// 2897   if( zdoCBFunc[ZDO_SRC_RTG_IND_CBID] != NULL )
        MOV     DPTR,#zdoCBFunc
        MOVX    A,@DPTR
        JNZ     ??ZDO_SrcRtgIndCB_0
        INC     DPTR
        MOVX    A,@DPTR
??ZDO_SrcRtgIndCB_0:
        JZ      ??ZDO_SrcRtgIndCB_1
// 2898   {
// 2899     zdoCBFunc[ZDO_SRC_RTG_IND_CBID]( (void*)&srcRtg );
        ; Setup parameters for indirect call
        MOV     DPL,?XSP + 0
        MOV     DPH,?XSP + 1
        MOV     R2,DPL
        MOV     R3,DPH
        MOV     DPTR,#zdoCBFunc
        LCALL   ?Subroutine16 & 0xFFFF
// 2900   }
??CrossCallReturnLabel_18:
        LCALL   ?CALL_IND
// 2901 }
??ZDO_SrcRtgIndCB_1:
        LJMP    ?Subroutine6 & 0xFFFF
        CFI EndBlock cfiBlock258
// 2902 
// 2903 /*********************************************************************
// 2904  * @fn          ZDApp_InitZdoCBFunc
// 2905  *
// 2906  * @brief       Call this function to initialize zdoCBFunc[]
// 2907  *
// 2908  * @param       none
// 2909  *
// 2910  * @return      none
// 2911  */

        RSEG BANKED_CODE:CODE:NOROOT(0)
// 2912 void ZDApp_InitZdoCBFunc( void )
ZDApp_InitZdoCBFunc:
        CFI Block cfiBlock259 Using cfiCommon0
        CFI Function ZDApp_InitZdoCBFunc
// 2913 {
        PUSH    DPL
        CFI DPL0 Frame(CFA_SP, 4)
        CFI CFA_SP SP+-4
        PUSH    DPH
        CFI DPH0 Frame(CFA_SP, 5)
        CFI CFA_SP SP+-5
        ; Saved register size: 2
        ; Auto size: 0
// 2914   uint8 i;
// 2915   
// 2916   for ( i=0; i< MAX_ZDO_CB_FUNC; i++ )
        MOV     R2,#0x0
// 2917   {
// 2918     zdoCBFunc[i] = NULL;
??ZDApp_InitZdoCBFunc_0:
        LCALL   ?Subroutine34 & 0xFFFF
// 2919   }
??CrossCallReturnLabel_43:
        INC     R2
        MOV     A,R2
        CLR     C
        SUBB    A,#0x5
        JC      ??ZDApp_InitZdoCBFunc_0
// 2920 }
        LJMP    ?Subroutine2 & 0xFFFF
        CFI EndBlock cfiBlock259
// 2921 
// 2922 /*********************************************************************
// 2923  * @fn          ZDO_RegisterForZdoCB
// 2924  *
// 2925  * @brief       Call this function to register the higher layer (for 
// 2926  *              example, the Application layer or MT layer) with ZDO 
// 2927  *              callbacks to get notified of some ZDO indication like
// 2928  *              existence of a concentrator or receipt of a source 
// 2929  *              route record.
// 2930  *
// 2931  * @param       indID - ZDO Indication ID
// 2932  * @param       pFn   - Callback function pointer
// 2933  *
// 2934  * @return      ZSuccess - successful, ZInvalidParameter if not
// 2935  */

        RSEG BANKED_CODE:CODE:NOROOT(0)
// 2936 ZStatus_t ZDO_RegisterForZdoCB( uint8 indID, pfnZdoCb pFn )
ZDO_RegisterForZdoCB:
        CFI Block cfiBlock260 Using cfiCommon0
        CFI Function ZDO_RegisterForZdoCB
// 2937 {
        PUSH    DPL
        CFI DPL0 Frame(CFA_SP, 4)
        CFI CFA_SP SP+-4
        PUSH    DPH
        CFI DPH0 Frame(CFA_SP, 5)
        CFI CFA_SP SP+-5
        ; Saved register size: 2
        ; Auto size: 0
        MOV     A,R1
        MOV     R4,A
// 2938   // Check the range of the indication ID
// 2939   if ( indID < MAX_ZDO_CB_FUNC )
        CLR     C
        SUBB    A,#0x5
        JNC     ??ZDO_RegisterForZdoCB_0
// 2940   {
// 2941     zdoCBFunc[indID] = pFn;
        MOV     A,R4
        LCALL   ?Subroutine39 & 0xFFFF
??CrossCallReturnLabel_49:
        LCALL   ??Subroutine55_0 & 0xFFFF
// 2942     return ZSuccess;
??CrossCallReturnLabel_103:
        MOV     R1,#0x0
        SJMP    ??ZDO_RegisterForZdoCB_1
// 2943   }
// 2944   
// 2945   return ZInvalidParameter;
??ZDO_RegisterForZdoCB_0:
        MOV     R1,#0x2
??ZDO_RegisterForZdoCB_1:
        LJMP    ?Subroutine2 & 0xFFFF
        CFI EndBlock cfiBlock260
// 2946 }

        RSEG BANKED_CODE:CODE:NOROOT(0)
?Subroutine13:
        CFI Block cfiCond261 Using cfiCommon0
        CFI NoFunction
        CFI Conditional ??CrossCallReturnLabel_104
        CFI R6 load(1, XDATA, add(CFA_XSP16, literal(-10)))
        CFI VB load(1, XDATA, add(CFA_XSP16, literal(-9)))
        CFI V0 load(1, XDATA, add(CFA_XSP16, literal(-8)))
        CFI V1 load(1, XDATA, add(CFA_XSP16, literal(-7)))
        CFI R7 load(1, XDATA, add(CFA_XSP16, literal(-6)))
        CFI ?RET_LOW load(1, XDATA, add(CFA_XSP16, literal(-5)))
        CFI ?RET_HIGH load(1, XDATA, add(CFA_XSP16, literal(-4)))
        CFI ?BRET_EXT load(1, XDATA, add(CFA_XSP16, literal(-3)))
        CFI DPL0 load(1, XDATA, add(CFA_XSP16, literal(-2)))
        CFI DPH0 load(1, XDATA, add(CFA_XSP16, literal(-1)))
        CFI CFA_SP SP+0
        CFI CFA_XSP16 add(XSP16, 12)
        CFI Block cfiCond262 Using cfiCommon0
        CFI (cfiCond262) NoFunction
        CFI (cfiCond262) Conditional ??CrossCallReturnLabel_105
        CFI (cfiCond262) R6 load(1, XDATA, add(CFA_XSP16, literal(-9)))
        CFI (cfiCond262) VB load(1, XDATA, add(CFA_XSP16, literal(-8)))
        CFI (cfiCond262) V0 load(1, XDATA, add(CFA_XSP16, literal(-7)))
        CFI (cfiCond262) R7 load(1, XDATA, add(CFA_XSP16, literal(-6)))
        CFI (cfiCond262) ?RET_LOW load(1, XDATA, add(CFA_XSP16, literal(-5)))
        CFI (cfiCond262) ?RET_HIGH load(1, XDATA, add(CFA_XSP16, literal(-4)))
        CFI (cfiCond262) ?BRET_EXT load(1, XDATA, add(CFA_XSP16, literal(-3)))
        CFI (cfiCond262) DPL0 load(1, XDATA, add(CFA_XSP16, literal(-2)))
        CFI (cfiCond262) DPH0 load(1, XDATA, add(CFA_XSP16, literal(-1)))
        CFI (cfiCond262) CFA_SP SP+0
        CFI (cfiCond262) CFA_XSP16 add(XSP16, 14)
        CFI Block cfiCond263 Using cfiCommon0
        CFI (cfiCond263) NoFunction
        CFI (cfiCond263) Conditional ??CrossCallReturnLabel_106
        CFI (cfiCond263) R6 load(1, XDATA, add(CFA_XSP16, literal(-9)))
        CFI (cfiCond263) VB load(1, XDATA, add(CFA_XSP16, literal(-8)))
        CFI (cfiCond263) V0 load(1, XDATA, add(CFA_XSP16, literal(-7)))
        CFI (cfiCond263) R7 load(1, XDATA, add(CFA_XSP16, literal(-6)))
        CFI (cfiCond263) ?RET_LOW load(1, XDATA, add(CFA_XSP16, literal(-5)))
        CFI (cfiCond263) ?RET_HIGH load(1, XDATA, add(CFA_XSP16, literal(-4)))
        CFI (cfiCond263) ?BRET_EXT load(1, XDATA, add(CFA_XSP16, literal(-3)))
        CFI (cfiCond263) DPL0 load(1, XDATA, add(CFA_XSP16, literal(-2)))
        CFI (cfiCond263) DPH0 load(1, XDATA, add(CFA_XSP16, literal(-1)))
        CFI (cfiCond263) CFA_SP SP+0
        CFI (cfiCond263) CFA_XSP16 add(XSP16, 14)
        CFI Block cfiPicker264 Using cfiCommon1
        CFI (cfiPicker264) NoFunction
        CFI (cfiPicker264) Picker
        MOV     DPL,?XSP + 0
        MOV     DPH,?XSP + 1
        CFI EndBlock cfiCond261
        CFI EndBlock cfiCond262
        CFI EndBlock cfiCond263
        CFI EndBlock cfiPicker264
        REQUIRE ??Subroutine55_0
        ; // Fall through to label ??Subroutine55_0

        RSEG BANKED_CODE:CODE:NOROOT(0)
??Subroutine55_0:
        CFI Block cfiCond265 Using cfiCommon0
        CFI NoFunction
        CFI Conditional ??CrossCallReturnLabel_99
        CFI R6 load(1, XDATA, add(CFA_XSP16, literal(-9)))
        CFI VB load(1, XDATA, add(CFA_XSP16, literal(-8)))
        CFI V0 load(1, XDATA, add(CFA_XSP16, literal(-7)))
        CFI R7 load(1, XDATA, add(CFA_XSP16, literal(-6)))
        CFI ?RET_LOW load(1, XDATA, add(CFA_XSP16, literal(-5)))
        CFI ?RET_HIGH load(1, XDATA, add(CFA_XSP16, literal(-4)))
        CFI ?BRET_EXT load(1, XDATA, add(CFA_XSP16, literal(-3)))
        CFI DPL0 load(1, XDATA, add(CFA_XSP16, literal(-2)))
        CFI DPH0 load(1, XDATA, add(CFA_XSP16, literal(-1)))
        CFI CFA_SP SP+0
        CFI CFA_XSP16 add(XSP16, 9)
        CFI Block cfiCond266 Using cfiCommon0
        CFI (cfiCond266) NoFunction
        CFI (cfiCond266) Conditional ??CrossCallReturnLabel_100
        CFI (cfiCond266) R6 load(1, XDATA, add(CFA_XSP16, literal(-9)))
        CFI (cfiCond266) VB load(1, XDATA, add(CFA_XSP16, literal(-8)))
        CFI (cfiCond266) V0 load(1, XDATA, add(CFA_XSP16, literal(-7)))
        CFI (cfiCond266) R7 load(1, XDATA, add(CFA_XSP16, literal(-6)))
        CFI (cfiCond266) ?RET_LOW load(1, XDATA, add(CFA_XSP16, literal(-5)))
        CFI (cfiCond266) ?RET_HIGH load(1, XDATA, add(CFA_XSP16, literal(-4)))
        CFI (cfiCond266) ?BRET_EXT load(1, XDATA, add(CFA_XSP16, literal(-3)))
        CFI (cfiCond266) DPL0 load(1, XDATA, add(CFA_XSP16, literal(-2)))
        CFI (cfiCond266) DPH0 load(1, XDATA, add(CFA_XSP16, literal(-1)))
        CFI (cfiCond266) CFA_SP SP+0
        CFI (cfiCond266) CFA_XSP16 add(XSP16, 9)
        CFI Block cfiCond267 Using cfiCommon0
        CFI (cfiCond267) NoFunction
        CFI (cfiCond267) Conditional ??CrossCallReturnLabel_101
        CFI (cfiCond267) R6 load(1, XDATA, add(CFA_XSP16, literal(-10)))
        CFI (cfiCond267) VB load(1, XDATA, add(CFA_XSP16, literal(-9)))
        CFI (cfiCond267) V0 load(1, XDATA, add(CFA_XSP16, literal(-8)))
        CFI (cfiCond267) V1 load(1, XDATA, add(CFA_XSP16, literal(-7)))
        CFI (cfiCond267) R7 load(1, XDATA, add(CFA_XSP16, literal(-6)))
        CFI (cfiCond267) ?RET_LOW load(1, XDATA, add(CFA_XSP16, literal(-5)))
        CFI (cfiCond267) ?RET_HIGH load(1, XDATA, add(CFA_XSP16, literal(-4)))
        CFI (cfiCond267) ?BRET_EXT load(1, XDATA, add(CFA_XSP16, literal(-3)))
        CFI (cfiCond267) DPL0 load(1, XDATA, add(CFA_XSP16, literal(-2)))
        CFI (cfiCond267) DPH0 load(1, XDATA, add(CFA_XSP16, literal(-1)))
        CFI (cfiCond267) CFA_SP SP+0
        CFI (cfiCond267) CFA_XSP16 add(XSP16, 11)
        CFI Block cfiCond268 Using cfiCommon0
        CFI (cfiCond268) NoFunction
        CFI (cfiCond268) Conditional ??CrossCallReturnLabel_102
        CFI (cfiCond268) R6 load(1, XDATA, add(CFA_XSP16, literal(-14)))
        CFI (cfiCond268) VB load(1, XDATA, add(CFA_XSP16, literal(-13)))
        CFI (cfiCond268) V0 load(1, XDATA, add(CFA_XSP16, literal(-12)))
        CFI (cfiCond268) V1 load(1, XDATA, add(CFA_XSP16, literal(-11)))
        CFI (cfiCond268) V2 load(1, XDATA, add(CFA_XSP16, literal(-10)))
        CFI (cfiCond268) V3 load(1, XDATA, add(CFA_XSP16, literal(-9)))
        CFI (cfiCond268) V4 load(1, XDATA, add(CFA_XSP16, literal(-8)))
        CFI (cfiCond268) V5 load(1, XDATA, add(CFA_XSP16, literal(-7)))
        CFI (cfiCond268) R7 load(1, XDATA, add(CFA_XSP16, literal(-6)))
        CFI (cfiCond268) ?RET_LOW load(1, XDATA, add(CFA_XSP16, literal(-5)))
        CFI (cfiCond268) ?RET_HIGH load(1, XDATA, add(CFA_XSP16, literal(-4)))
        CFI (cfiCond268) ?BRET_EXT load(1, XDATA, add(CFA_XSP16, literal(-3)))
        CFI (cfiCond268) DPL0 load(1, XDATA, add(CFA_XSP16, literal(-2)))
        CFI (cfiCond268) DPH0 load(1, XDATA, add(CFA_XSP16, literal(-1)))
        CFI (cfiCond268) CFA_SP SP+0
        CFI (cfiCond268) CFA_XSP16 add(XSP16, 14)
        CFI Block cfiCond269 Using cfiCommon0
        CFI (cfiCond269) NoFunction
        CFI (cfiCond269) Conditional ??CrossCallReturnLabel_103
        CFI (cfiCond269) DPL0 Frame(CFA_SP, 4)
        CFI (cfiCond269) DPH0 Frame(CFA_SP, 5)
        CFI (cfiCond269) CFA_SP SP+-5
        CFI Block cfiCond270 Using cfiCommon0
        CFI (cfiCond270) NoFunction
        CFI (cfiCond270) Conditional ??CrossCallReturnLabel_104
        CFI (cfiCond270) R6 load(1, XDATA, add(CFA_XSP16, literal(-10)))
        CFI (cfiCond270) VB load(1, XDATA, add(CFA_XSP16, literal(-9)))
        CFI (cfiCond270) V0 load(1, XDATA, add(CFA_XSP16, literal(-8)))
        CFI (cfiCond270) V1 load(1, XDATA, add(CFA_XSP16, literal(-7)))
        CFI (cfiCond270) R7 load(1, XDATA, add(CFA_XSP16, literal(-6)))
        CFI (cfiCond270) ?RET_LOW load(1, XDATA, add(CFA_XSP16, literal(-5)))
        CFI (cfiCond270) ?RET_HIGH load(1, XDATA, add(CFA_XSP16, literal(-4)))
        CFI (cfiCond270) ?BRET_EXT load(1, XDATA, add(CFA_XSP16, literal(-3)))
        CFI (cfiCond270) DPL0 load(1, XDATA, add(CFA_XSP16, literal(-2)))
        CFI (cfiCond270) DPH0 load(1, XDATA, add(CFA_XSP16, literal(-1)))
        CFI (cfiCond270) CFA_SP SP+0
        CFI (cfiCond270) CFA_XSP16 add(XSP16, 12)
        CFI Block cfiCond271 Using cfiCommon0
        CFI (cfiCond271) NoFunction
        CFI (cfiCond271) Conditional ??CrossCallReturnLabel_105
        CFI (cfiCond271) R6 load(1, XDATA, add(CFA_XSP16, literal(-9)))
        CFI (cfiCond271) VB load(1, XDATA, add(CFA_XSP16, literal(-8)))
        CFI (cfiCond271) V0 load(1, XDATA, add(CFA_XSP16, literal(-7)))
        CFI (cfiCond271) R7 load(1, XDATA, add(CFA_XSP16, literal(-6)))
        CFI (cfiCond271) ?RET_LOW load(1, XDATA, add(CFA_XSP16, literal(-5)))
        CFI (cfiCond271) ?RET_HIGH load(1, XDATA, add(CFA_XSP16, literal(-4)))
        CFI (cfiCond271) ?BRET_EXT load(1, XDATA, add(CFA_XSP16, literal(-3)))
        CFI (cfiCond271) DPL0 load(1, XDATA, add(CFA_XSP16, literal(-2)))
        CFI (cfiCond271) DPH0 load(1, XDATA, add(CFA_XSP16, literal(-1)))
        CFI (cfiCond271) CFA_SP SP+0
        CFI (cfiCond271) CFA_XSP16 add(XSP16, 14)
        CFI Block cfiCond272 Using cfiCommon0
        CFI (cfiCond272) NoFunction
        CFI (cfiCond272) Conditional ??CrossCallReturnLabel_106
        CFI (cfiCond272) R6 load(1, XDATA, add(CFA_XSP16, literal(-9)))
        CFI (cfiCond272) VB load(1, XDATA, add(CFA_XSP16, literal(-8)))
        CFI (cfiCond272) V0 load(1, XDATA, add(CFA_XSP16, literal(-7)))
        CFI (cfiCond272) R7 load(1, XDATA, add(CFA_XSP16, literal(-6)))
        CFI (cfiCond272) ?RET_LOW load(1, XDATA, add(CFA_XSP16, literal(-5)))
        CFI (cfiCond272) ?RET_HIGH load(1, XDATA, add(CFA_XSP16, literal(-4)))
        CFI (cfiCond272) ?BRET_EXT load(1, XDATA, add(CFA_XSP16, literal(-3)))
        CFI (cfiCond272) DPL0 load(1, XDATA, add(CFA_XSP16, literal(-2)))
        CFI (cfiCond272) DPH0 load(1, XDATA, add(CFA_XSP16, literal(-1)))
        CFI (cfiCond272) CFA_SP SP+0
        CFI (cfiCond272) CFA_XSP16 add(XSP16, 14)
        CFI Block cfiPicker273 Using cfiCommon1
        CFI (cfiPicker273) NoFunction
        CFI (cfiPicker273) Picker
        MOV     A,R2
        MOVX    @DPTR,A
        INC     DPTR
        MOV     A,R3
        MOVX    @DPTR,A
        RET
        CFI EndBlock cfiCond265
        CFI EndBlock cfiCond266
        CFI EndBlock cfiCond267
        CFI EndBlock cfiCond268
        CFI EndBlock cfiCond269
        CFI EndBlock cfiCond270
        CFI EndBlock cfiCond271
        CFI EndBlock cfiCond272
        CFI EndBlock cfiPicker273
// 2947 
// 2948 /*********************************************************************
// 2949  * @fn          ZDO_DeregisterForZdoCB
// 2950  *
// 2951  * @brief       Call this function to de-register the higher layer (for 
// 2952  *              example, the Application layer or MT layer) with ZDO 
// 2953  *              callbacks to get notified of some ZDO indication like
// 2954  *              existence of a concentrator or receipt of a source 
// 2955  *              route record.
// 2956  *
// 2957  * @param       indID - ZDO Indication ID
// 2958  *
// 2959  * @return      ZSuccess - successful, ZInvalidParameter if not
// 2960  */

        RSEG BANKED_CODE:CODE:NOROOT(0)
// 2961 ZStatus_t ZDO_DeregisterForZdoCB( uint8 indID )
ZDO_DeregisterForZdoCB:
        CFI Block cfiBlock274 Using cfiCommon0
        CFI Function ZDO_DeregisterForZdoCB
// 2962 {
        PUSH    DPL
        CFI DPL0 Frame(CFA_SP, 4)
        CFI CFA_SP SP+-4
        PUSH    DPH
        CFI DPH0 Frame(CFA_SP, 5)
        CFI CFA_SP SP+-5
        ; Saved register size: 2
        ; Auto size: 0
        MOV     A,R1
        MOV     R2,A
// 2963   // Check the range of the indication ID
// 2964   if ( indID < MAX_ZDO_CB_FUNC )
        CLR     C
        SUBB    A,#0x5
        JNC     ??ZDO_DeregisterForZdoCB_0
// 2965   {
// 2966     zdoCBFunc[indID] = NULL;
        LCALL   ?Subroutine34 & 0xFFFF
// 2967     return ZSuccess;
??CrossCallReturnLabel_44:
        MOV     R1,A
        SJMP    ??ZDO_DeregisterForZdoCB_1
// 2968   }
// 2969   
// 2970   return ZInvalidParameter;
??ZDO_DeregisterForZdoCB_0:
        MOV     R1,#0x2
??ZDO_DeregisterForZdoCB_1:
        LJMP    ?Subroutine2 & 0xFFFF
        CFI EndBlock cfiBlock274
// 2971 }

        RSEG BANKED_CODE:CODE:NOROOT(0)
?Subroutine34:
        CFI Block cfiCond275 Using cfiCommon0
        CFI NoFunction
        CFI Conditional ??CrossCallReturnLabel_43
        CFI DPL0 Frame(CFA_SP, 4)
        CFI DPH0 Frame(CFA_SP, 5)
        CFI CFA_SP SP+-5
        CFI Block cfiCond276 Using cfiCommon0
        CFI (cfiCond276) NoFunction
        CFI (cfiCond276) Conditional ??CrossCallReturnLabel_44
        CFI (cfiCond276) DPL0 Frame(CFA_SP, 4)
        CFI (cfiCond276) DPH0 Frame(CFA_SP, 5)
        CFI (cfiCond276) CFA_SP SP+-5
        CFI Block cfiPicker277 Using cfiCommon1
        CFI (cfiPicker277) NoFunction
        CFI (cfiPicker277) Picker
        MOV     A,R2
        LCALL   ?Subroutine39 & 0xFFFF
??CrossCallReturnLabel_50:
        CLR     A
        MOVX    @DPTR,A
        INC     DPTR
        MOVX    @DPTR,A
        RET
        CFI EndBlock cfiCond275
        CFI EndBlock cfiCond276
        CFI EndBlock cfiPicker277

        RSEG BANKED_CODE:CODE:NOROOT(0)
?Subroutine39:
        CFI Block cfiCond278 Using cfiCommon0
        CFI NoFunction
        CFI Conditional ??CrossCallReturnLabel_49
        CFI DPL0 Frame(CFA_SP, 4)
        CFI DPH0 Frame(CFA_SP, 5)
        CFI CFA_SP SP+-5
        CFI Block cfiCond279 Using cfiCommon0
        CFI (cfiCond279) NoFunction
        CFI (cfiCond279) Conditional ??CrossCallReturnLabel_50, ??CrossCallReturnLabel_43
        CFI (cfiCond279) DPL0 Frame(CFA_SP, 4)
        CFI (cfiCond279) DPH0 Frame(CFA_SP, 5)
        CFI (cfiCond279) CFA_SP SP+-5
        CFI Block cfiCond280 Using cfiCommon0
        CFI (cfiCond280) NoFunction
        CFI (cfiCond280) Conditional ??CrossCallReturnLabel_50, ??CrossCallReturnLabel_44
        CFI (cfiCond280) DPL0 Frame(CFA_SP, 4)
        CFI (cfiCond280) DPH0 Frame(CFA_SP, 5)
        CFI (cfiCond280) CFA_SP SP+-5
        CFI Block cfiPicker281 Using cfiCommon1
        CFI (cfiPicker281) NoFunction
        CFI (cfiPicker281) Picker
        CLR     C
        RLC     A
        MOV     R0,A
        CLR     A
        RLC     A
        MOV     R1,A
        MOV     A,R0
        ADD     A,#(zdoCBFunc & 0xff)
        MOV     DPL,A
        MOV     A,R1
        ADDC    A,#((zdoCBFunc >> 8) & 0xff)
        MOV     DPH,A
        RET
        CFI EndBlock cfiCond278
        CFI EndBlock cfiCond279
        CFI EndBlock cfiCond280
        CFI EndBlock cfiPicker281

        RSEG XDATA_ID:CODE:NOROOT(0)
        DATA
`?<Initializer for zdoDiscCounter>`:
        DB 1

        RSEG XDATA_ID:CODE:NOROOT(0)
        DATA
`?<Initializer for continueJoining>`:
        DB 1

        RSEG XDATA_ID:CODE:NOROOT(0)
        DATA
`?<Initializer for devState>`:
        DB 1

        RSEG XDATA_ID:CODE:NOROOT(0)
        DATA
`?<Initializer for ZDApp_epDesc>`:
        DB 0
        DW ZDAppTaskID, 0H
        DB 0

        RSEG XDATA_ID:CODE:NOROOT(0)
        DATA
`?<Initializer for ZDApp_SavedPollRate>`:
        DW 1000

        RSEG XDATA_ROM_C:CONST:REORDER:NOROOT(0)
        DATA
__Constant_1:
        DD 1

        RSEG XDATA_ROM_C:CONST:REORDER:NOROOT(0)
        DATA
__Constant_0:
        DD 0

        RSEG XDATA_ROM_C:CONST:REORDER:NOROOT(0)
        DATA
__Constant_3e8:
        DD 1000

        RSEG BANK_RELAYS:CODE:REORDER:NOROOT(0)
??ZDApp_Init?relay:
        LCALL   ?BDISPATCH
        DATA
        DC24    ZDApp_Init

        RSEG BANK_RELAYS:CODE:REORDER:NOROOT(0)
??ZDApp_SecInit?relay:
        LCALL   ?BDISPATCH
        DATA
        DC24    ZDApp_SecInit

        RSEG BANK_RELAYS:CODE:REORDER:NOROOT(0)
??ZDApp_event_loop?relay:
        LCALL   ?BDISPATCH
        DATA
        DC24    ZDApp_event_loop

        RSEG BANK_RELAYS:CODE:REORDER:NOROOT(0)
??ZDApp_ProcessSecEvent?relay:
        LCALL   ?BDISPATCH
        DATA
        DC24    ZDApp_ProcessSecEvent

        RSEG BANK_RELAYS:CODE:REORDER:NOROOT(0)
??ZDOInitDevice?relay:
        LCALL   ?BDISPATCH
        DATA
        DC24    ZDOInitDevice

        RSEG BANK_RELAYS:CODE:REORDER:NOROOT(0)
??ZDApp_ReadNetworkRestoreState?relay:
        LCALL   ?BDISPATCH
        DATA
        DC24    ZDApp_ReadNetworkRestoreState

        RSEG BANK_RELAYS:CODE:REORDER:NOROOT(0)
??ZDAppDetermineDeviceType?relay:
        LCALL   ?BDISPATCH
        DATA
        DC24    ZDAppDetermineDeviceType

        RSEG BANK_RELAYS:CODE:REORDER:NOROOT(0)
??ZDApp_NetworkStartEvt?relay:
        LCALL   ?BDISPATCH
        DATA
        DC24    ZDApp_NetworkStartEvt

        RSEG BANK_RELAYS:CODE:REORDER:NOROOT(0)
??ZDApp_DeviceAuthEvt?relay:
        LCALL   ?BDISPATCH
        DATA
        DC24    ZDApp_DeviceAuthEvt

        RSEG BANK_RELAYS:CODE:REORDER:NOROOT(0)
??ZDApp_SaveNetworkStateEvt?relay:
        LCALL   ?BDISPATCH
        DATA
        DC24    ZDApp_SaveNetworkStateEvt

        RSEG BANK_RELAYS:CODE:REORDER:NOROOT(0)
??ZDApp_RestoreNetworkState?relay:
        LCALL   ?BDISPATCH
        DATA
        DC24    ZDApp_RestoreNetworkState

        RSEG BANK_RELAYS:CODE:REORDER:NOROOT(0)
??ZDApp_InitUserDesc?relay:
        LCALL   ?BDISPATCH
        DATA
        DC24    ZDApp_InitUserDesc

        RSEG BANK_RELAYS:CODE:REORDER:NOROOT(0)
??ZDAppCheckForHoldKey?relay:
        LCALL   ?BDISPATCH
        DATA
        DC24    ZDAppCheckForHoldKey

        RSEG BANK_RELAYS:CODE:REORDER:NOROOT(0)
??ZDApp_ProcessOSALMsg?relay:
        LCALL   ?BDISPATCH
        DATA
        DC24    ZDApp_ProcessOSALMsg

        RSEG BANK_RELAYS:CODE:REORDER:NOROOT(0)
??ZDApp_ProcessMsgCBs?relay:
        LCALL   ?BDISPATCH
        DATA
        DC24    ZDApp_ProcessMsgCBs

        RSEG BANK_RELAYS:CODE:REORDER:NOROOT(0)
??ZDApp_RegisterCBs?relay:
        LCALL   ?BDISPATCH
        DATA
        DC24    ZDApp_RegisterCBs

        RSEG BANK_RELAYS:CODE:REORDER:NOROOT(0)
??ZDApp_ProcessSecMsg?relay:
        LCALL   ?BDISPATCH
        DATA
        DC24    ZDApp_ProcessSecMsg

        RSEG BANK_RELAYS:CODE:REORDER:NOROOT(0)
??ZDApp_ProcessNetworkJoin?relay:
        LCALL   ?BDISPATCH
        DATA
        DC24    ZDApp_ProcessNetworkJoin

        RSEG BANK_RELAYS:CODE:REORDER:NOROOT(0)
??ZDApp_SaveNwkKey?relay:
        LCALL   ?BDISPATCH
        DATA
        DC24    ZDApp_SaveNwkKey

        RSEG BANK_RELAYS:CODE:REORDER:NOROOT(0)
??ZDApp_ResetNwkKey?relay:
        LCALL   ?BDISPATCH
        DATA
        DC24    ZDApp_ResetNwkKey

        RSEG BANK_RELAYS:CODE:REORDER:NOROOT(0)
??ZDApp_RestoreNwkKey?relay:
        LCALL   ?BDISPATCH
        DATA
        DC24    ZDApp_RestoreNwkKey

        RSEG BANK_RELAYS:CODE:REORDER:NOROOT(0)
??ZDApp_ResetTimerStart?relay:
        LCALL   ?BDISPATCH
        DATA
        DC24    ZDApp_ResetTimerStart

        RSEG BANK_RELAYS:CODE:REORDER:NOROOT(0)
??ZDApp_ResetTimerCancel?relay:
        LCALL   ?BDISPATCH
        DATA
        DC24    ZDApp_ResetTimerCancel

        RSEG BANK_RELAYS:CODE:REORDER:NOROOT(0)
??ZDApp_LeaveCtrlInit?relay:
        LCALL   ?BDISPATCH
        DATA
        DC24    ZDApp_LeaveCtrlInit

        RSEG BANK_RELAYS:CODE:REORDER:NOROOT(0)
??ZDApp_LeaveCtrlSet?relay:
        LCALL   ?BDISPATCH
        DATA
        DC24    ZDApp_LeaveCtrlSet

        RSEG BANK_RELAYS:CODE:REORDER:NOROOT(0)
??ZDApp_LeaveCtrlBypass?relay:
        LCALL   ?BDISPATCH
        DATA
        DC24    ZDApp_LeaveCtrlBypass

        RSEG BANK_RELAYS:CODE:REORDER:NOROOT(0)
??ZDApp_LeaveCtrlStartup?relay:
        LCALL   ?BDISPATCH
        DATA
        DC24    ZDApp_LeaveCtrlStartup

        RSEG BANK_RELAYS:CODE:REORDER:NOROOT(0)
??ZDApp_LeaveReset?relay:
        LCALL   ?BDISPATCH
        DATA
        DC24    ZDApp_LeaveReset

        RSEG BANK_RELAYS:CODE:REORDER:NOROOT(0)
??ZDApp_LeaveUpdate?relay:
        LCALL   ?BDISPATCH
        DATA
        DC24    ZDApp_LeaveUpdate

        RSEG BANK_RELAYS:CODE:REORDER:NOROOT(0)
??ZDApp_NetworkDiscoveryReq?relay:
        LCALL   ?BDISPATCH
        DATA
        DC24    ZDApp_NetworkDiscoveryReq

        RSEG BANK_RELAYS:CODE:REORDER:NOROOT(0)
??ZDApp_JoinReq?relay:
        LCALL   ?BDISPATCH
        DATA
        DC24    ZDApp_JoinReq

        RSEG BANK_RELAYS:CODE:REORDER:NOROOT(0)
??ZDApp_SendEventMsg?relay:
        LCALL   ?BDISPATCH
        DATA
        DC24    ZDApp_SendEventMsg

        RSEG BANK_RELAYS:CODE:REORDER:NOROOT(0)
??ZDApp_SendMsg?relay:
        LCALL   ?BDISPATCH
        DATA
        DC24    ZDApp_SendMsg

        RSEG BANK_RELAYS:CODE:REORDER:NOROOT(0)
??ZDO_NetworkDiscoveryConfirmCB?relay:
        LCALL   ?BDISPATCH
        DATA
        DC24    ZDO_NetworkDiscoveryConfirmCB

        RSEG BANK_RELAYS:CODE:REORDER:NOROOT(0)
??ZDApp_NwkDescListProcessing?relay:
        LCALL   ?BDISPATCH
        DATA
        DC24    ZDApp_NwkDescListProcessing

        RSEG BANK_RELAYS:CODE:REORDER:NOROOT(0)
??ZDO_NetworkFormationConfirmCB?relay:
        LCALL   ?BDISPATCH
        DATA
        DC24    ZDO_NetworkFormationConfirmCB

        RSEG BANK_RELAYS:CODE:REORDER:NOROOT(0)
??ZDO_beaconNotifyIndCB?relay:
        LCALL   ?BDISPATCH
        DATA
        DC24    ZDO_beaconNotifyIndCB

        RSEG BANK_RELAYS:CODE:REORDER:NOROOT(0)
??ZDO_StartRouterConfirmCB?relay:
        LCALL   ?BDISPATCH
        DATA
        DC24    ZDO_StartRouterConfirmCB

        RSEG BANK_RELAYS:CODE:REORDER:NOROOT(0)
??ZDO_JoinConfirmCB?relay:
        LCALL   ?BDISPATCH
        DATA
        DC24    ZDO_JoinConfirmCB

        RSEG BANK_RELAYS:CODE:REORDER:NOROOT(0)
??ZDO_AddrChangeIndicationCB?relay:
        LCALL   ?BDISPATCH
        DATA
        DC24    ZDO_AddrChangeIndicationCB

        RSEG BANK_RELAYS:CODE:REORDER:NOROOT(0)
??ZDO_JoinIndicationCB?relay:
        LCALL   ?BDISPATCH
        DATA
        DC24    ZDO_JoinIndicationCB

        RSEG BANK_RELAYS:CODE:REORDER:NOROOT(0)
??ZDO_ConcentratorIndicationCB?relay:
        LCALL   ?BDISPATCH
        DATA
        DC24    ZDO_ConcentratorIndicationCB

        RSEG BANK_RELAYS:CODE:REORDER:NOROOT(0)
??ZDO_LeaveCnf?relay:
        LCALL   ?BDISPATCH
        DATA
        DC24    ZDO_LeaveCnf

        RSEG BANK_RELAYS:CODE:REORDER:NOROOT(0)
??ZDO_LeaveInd?relay:
        LCALL   ?BDISPATCH
        DATA
        DC24    ZDO_LeaveInd

        RSEG BANK_RELAYS:CODE:REORDER:NOROOT(0)
??ZDO_SyncIndicationCB?relay:
        LCALL   ?BDISPATCH
        DATA
        DC24    ZDO_SyncIndicationCB

        RSEG BANK_RELAYS:CODE:REORDER:NOROOT(0)
??ZDO_ManytoOneFailureIndicationCB?relay:
        LCALL   ?BDISPATCH
        DATA
        DC24    ZDO_ManytoOneFailureIndicationCB

        RSEG BANK_RELAYS:CODE:REORDER:NOROOT(0)
??ZDO_PollConfirmCB?relay:
        LCALL   ?BDISPATCH
        DATA
        DC24    ZDO_PollConfirmCB

        RSEG BANK_RELAYS:CODE:REORDER:NOROOT(0)
??AddrMgrWriteNVRequest?relay:
        LCALL   ?BDISPATCH
        DATA
        DC24    AddrMgrWriteNVRequest

        RSEG BANK_RELAYS:CODE:REORDER:NOROOT(0)
??ZDO_UpdateDeviceIndication?relay:
        LCALL   ?BDISPATCH
        DATA
        DC24    ZDO_UpdateDeviceIndication

        RSEG BANK_RELAYS:CODE:REORDER:NOROOT(0)
??ZDApp_InMsgCB?relay:
        LCALL   ?BDISPATCH
        DATA
        DC24    ZDApp_InMsgCB

        RSEG BANK_RELAYS:CODE:REORDER:NOROOT(0)
??ZDApp_ChangeMatchDescRespPermission?relay:
        LCALL   ?BDISPATCH
        DATA
        DC24    ZDApp_ChangeMatchDescRespPermission

        RSEG BANK_RELAYS:CODE:REORDER:NOROOT(0)
??ZDApp_NetworkInit?relay:
        LCALL   ?BDISPATCH
        DATA
        DC24    ZDApp_NetworkInit

        RSEG BANK_RELAYS:CODE:REORDER:NOROOT(0)
??ZDApp_NwkStateUpdateCB?relay:
        LCALL   ?BDISPATCH
        DATA
        DC24    ZDApp_NwkStateUpdateCB

        RSEG BANK_RELAYS:CODE:REORDER:NOROOT(0)
??ZDApp_NodeProfileSync?relay:
        LCALL   ?BDISPATCH
        DATA
        DC24    ZDApp_NodeProfileSync

        RSEG BANK_RELAYS:CODE:REORDER:NOROOT(0)
??ZDApp_StartJoiningCycle?relay:
        LCALL   ?BDISPATCH
        DATA
        DC24    ZDApp_StartJoiningCycle

        RSEG BANK_RELAYS:CODE:REORDER:NOROOT(0)
??ZDApp_StopJoiningCycle?relay:
        LCALL   ?BDISPATCH
        DATA
        DC24    ZDApp_StopJoiningCycle

        RSEG BANK_RELAYS:CODE:REORDER:NOROOT(0)
??ZDApp_AnnounceNewAddress?relay:
        LCALL   ?BDISPATCH
        DATA
        DC24    ZDApp_AnnounceNewAddress

        RSEG BANK_RELAYS:CODE:REORDER:NOROOT(0)
??ZDApp_NVUpdate?relay:
        LCALL   ?BDISPATCH
        DATA
        DC24    ZDApp_NVUpdate

        RSEG BANK_RELAYS:CODE:REORDER:NOROOT(0)
??ZDApp_CoordStartPANIDConflictCB?relay:
        LCALL   ?BDISPATCH
        DATA
        DC24    ZDApp_CoordStartPANIDConflictCB

        RSEG BANK_RELAYS:CODE:REORDER:NOROOT(0)
??ZDO_SrcRtgIndCB?relay:
        LCALL   ?BDISPATCH
        DATA
        DC24    ZDO_SrcRtgIndCB

        RSEG BANK_RELAYS:CODE:REORDER:NOROOT(0)
??ZDApp_InitZdoCBFunc?relay:
        LCALL   ?BDISPATCH
        DATA
        DC24    ZDApp_InitZdoCBFunc

        RSEG BANK_RELAYS:CODE:REORDER:NOROOT(0)
??ZDO_RegisterForZdoCB?relay:
        LCALL   ?BDISPATCH
        DATA
        DC24    ZDO_RegisterForZdoCB

        RSEG BANK_RELAYS:CODE:REORDER:NOROOT(0)
??ZDO_DeregisterForZdoCB?relay:
        LCALL   ?BDISPATCH
        DATA
        DC24    ZDO_DeregisterForZdoCB

        END
// 2972 
// 2973 /*********************************************************************
// 2974 *********************************************************************/
// 
// 4 973 bytes in segment BANKED_CODE
//   378 bytes in segment BANK_RELAYS
//    11 bytes in segment XDATA_I
//    11 bytes in segment XDATA_ID
//    12 bytes in segment XDATA_ROM_C
//    51 bytes in segment XDATA_Z
// 
// 5 362 bytes of CODE  memory
//     0 bytes of CONST memory (+ 12 bytes shared)
//    62 bytes of XDATA memory
//
//Errors: none
//Warnings: none
