///////////////////////////////////////////////////////////////////////////////
//                                                                            /
// IAR C/C++ Compiler V7.60.1.40026 for 8051            29/Apr/2014  20:25:36 /
// Copyright (C) 2004-2010 IAR Systems AB.                                    /
//                                                                            /
//    Core               =  plain                                             /
//    Code model         =  banked                                            /
//    Data model         =  large                                             /
//    Calling convention =  xdata reentrant                                   /
//    Constant location  =  data_rom                                          /
//    Dptr setup         =  1,16                                              /
//    Source file        =  D:\zigbee\projects\zstack-cc2530-coordinator\Proj /
//                          ects\zstack\Samples\GenericApp\Source\GenericApp. /
//                          c                                                 /
//    Command line       =  -f D:\zigbee\projects\zstack-cc2530-coordinator\P /
//                          rojects\zstack\Samples\GenericApp\CC2530DB\..\..\ /
//                          ..\Tools\CC2530DB\f8wCoord.cfg (-DCPU32MHZ        /
//                          -DROOT=__near_func -DMAC_CFG_APP_PENDING_QUEUE=TR /
//                          UE -DMAC_CFG_TX_DATA_MAX=5 -DMAC_CFG_TX_MAX=8     /
//                          -DMAC_CFG_RX_MAX=5 -DZDO_COORDINATOR -DRTR_NWK)   /
//                          -f D:\zigbee\projects\zstack-cc2530-coordinator\P /
//                          rojects\zstack\Samples\GenericApp\CC2530DB\..\..\ /
//                          ..\Tools\CC2530DB\f8wConfig.cfg (-DZIGBEEPRO      /
//                          -DSECURE=0 -DZG_SECURE_DYNAMIC=0 -DREFLECTOR      /
//                          -DDEFAULT_CHANLIST=0x00000800                     /
//                          -DZDAPP_CONFIG_PAN_ID=0x1111                      /
//                          -DNWK_START_DELAY=100 -DEXTENDED_JOINING_RANDOM_M /
//                          ASK=0x007F -DBEACON_REQUEST_DELAY=100             /
//                          -DBEACON_REQ_DELAY_MASK=0x00FF                    /
//                          -DLINK_STATUS_JITTER_MASK=0x007F                  /
//                          -DROUTE_EXPIRY_TIME=30 -DAPSC_ACK_WAIT_DURATION_P /
//                          OLLED=3000 -DNWK_INDIRECT_MSG_TIMEOUT=7           /
//                          -DMAX_RREQ_ENTRIES=8 -DAPSC_MAX_FRAME_RETRIES=3   /
//                          -DNWK_MAX_DATA_RETRIES=2                          /
//                          -DMAX_POLL_FAILURE_RETRIES=2 -DMAX_BCAST=9        /
//                          -DAPS_MAX_GROUPS=16 -DMAX_RTG_ENTRIES=40          /
//                          -DNWK_MAX_BINDING_ENTRIES=4                       /
//                          -DMAX_BINDING_CLUSTER_IDS=4                       /
//                          "-DDEFAULT_KEY={0x01, 0x03, 0x05, 0x07, 0x09,     /
//                          0x0B, 0x0D, 0x0F, 0x00, 0x02, 0x04, 0x06, 0x08,   /
//                          0x0A, 0x0C, 0x0D}" -DMAC_MAX_FRAME_SIZE=116       /
//                          -DZDNWKMGR_MIN_TRANSMISSIONS=20 "-DCONST=const    /
//                          __code" -DGENERIC=__generic                       /
//                          -DRFD_RCVC_ALWAYS_ON=FALSE -DPOLL_RATE=1000       /
//                          -DQUEUED_POLL_RATE=100 -DRESPONSE_POLL_RATE=100)  /
//                          -DREJOIN_POLL_RATE=440 D:\zigbee\projects\zstack- /
//                          cc2530-coordinator\Projects\zstack\Samples\Generi /
//                          cApp\Source\GenericApp.c -D ZAPP_P1 -D MT_TASK    /
//                          -D MT_SYS_FUNC -D MT_ZDO_FUNC -D HAL_UART -D      /
//                          HAL_UART=TRUE -D HAL_DMA=TRUE -D HAL_LCD=FALSE    /
//                          -D HAL_KEY=FALSE -lC D:\zigbee\projects\zstack-cc /
//                          2530-coordinator\Projects\zstack\Samples\GenericA /
//                          pp\CC2530DB\CoordinatorEB\List\ -lA               /
//                          D:\zigbee\projects\zstack-cc2530-coordinator\Proj /
//                          ects\zstack\Samples\GenericApp\CC2530DB\Coordinat /
//                          orEB\List\ --diag_suppress Pe001,Pa010 -o         /
//                          D:\zigbee\projects\zstack-cc2530-coordinator\Proj /
//                          ects\zstack\Samples\GenericApp\CC2530DB\Coordinat /
//                          orEB\Obj\ -e --require_prototypes                 /
//                          --no_code_motion --debug --core=plain             /
//                          --dptr=16,1 --data_model=large                    /
//                          --code_model=banked --calling_convention=xdata_re /
//                          entrant --place_constants=data_rom                /
//                          --nr_virtual_regs 16 -I                           /
//                          D:\zigbee\projects\zstack-cc2530-coordinator\Proj /
//                          ects\zstack\Samples\GenericApp\CC2530DB\ -I       /
//                          D:\zigbee\projects\zstack-cc2530-coordinator\Proj /
//                          ects\zstack\Samples\GenericApp\CC2530DB\..\Source /
//                          \ -I D:\zigbee\projects\zstack-cc2530-coordinator /
//                          \Projects\zstack\Samples\GenericApp\CC2530DB\..\. /
//                          .\..\ZMain\TI2530DB\ -I                           /
//                          D:\zigbee\projects\zstack-cc2530-coordinator\Proj /
//                          ects\zstack\Samples\GenericApp\CC2530DB\..\..\..\ /
//                          ..\..\Components\hal\include\ -I                  /
//                          D:\zigbee\projects\zstack-cc2530-coordinator\Proj /
//                          ects\zstack\Samples\GenericApp\CC2530DB\..\..\..\ /
//                          ..\..\Components\hal\target\CC2530EB\ -I          /
//                          D:\zigbee\projects\zstack-cc2530-coordinator\Proj /
//                          ects\zstack\Samples\GenericApp\CC2530DB\..\..\..\ /
//                          ..\..\Components\mac\include\ -I                  /
//                          D:\zigbee\projects\zstack-cc2530-coordinator\Proj /
//                          ects\zstack\Samples\GenericApp\CC2530DB\..\..\..\ /
//                          ..\..\Components\mac\high_level\ -I               /
//                          D:\zigbee\projects\zstack-cc2530-coordinator\Proj /
//                          ects\zstack\Samples\GenericApp\CC2530DB\..\..\..\ /
//                          ..\..\Components\mac\low_level\srf04\ -I          /
//                          D:\zigbee\projects\zstack-cc2530-coordinator\Proj /
//                          ects\zstack\Samples\GenericApp\CC2530DB\..\..\..\ /
//                          ..\..\Components\mac\low_level\srf04\single_chip\ /
//                           -I D:\zigbee\projects\zstack-cc2530-coordinator\ /
//                          Projects\zstack\Samples\GenericApp\CC2530DB\..\.. /
//                          \..\..\..\Components\mt\ -I                       /
//                          D:\zigbee\projects\zstack-cc2530-coordinator\Proj /
//                          ects\zstack\Samples\GenericApp\CC2530DB\..\..\..\ /
//                          ..\..\Components\osal\include\ -I                 /
//                          D:\zigbee\projects\zstack-cc2530-coordinator\Proj /
//                          ects\zstack\Samples\GenericApp\CC2530DB\..\..\..\ /
//                          ..\..\Components\osal\mcu\ccsoc\ -I               /
//                          D:\zigbee\projects\zstack-cc2530-coordinator\Proj /
//                          ects\zstack\Samples\GenericApp\CC2530DB\..\..\..\ /
//                          ..\..\Components\services\saddr\ -I               /
//                          D:\zigbee\projects\zstack-cc2530-coordinator\Proj /
//                          ects\zstack\Samples\GenericApp\CC2530DB\..\..\..\ /
//                          ..\..\Components\services\sdata\ -I               /
//                          D:\zigbee\projects\zstack-cc2530-coordinator\Proj /
//                          ects\zstack\Samples\GenericApp\CC2530DB\..\..\..\ /
//                          ..\..\Components\stack\af\ -I                     /
//                          D:\zigbee\projects\zstack-cc2530-coordinator\Proj /
//                          ects\zstack\Samples\GenericApp\CC2530DB\..\..\..\ /
//                          ..\..\Components\stack\nwk\ -I                    /
//                          D:\zigbee\projects\zstack-cc2530-coordinator\Proj /
//                          ects\zstack\Samples\GenericApp\CC2530DB\..\..\..\ /
//                          ..\..\Components\stack\sapi\ -I                   /
//                          D:\zigbee\projects\zstack-cc2530-coordinator\Proj /
//                          ects\zstack\Samples\GenericApp\CC2530DB\..\..\..\ /
//                          ..\..\Components\stack\sec\ -I                    /
//                          D:\zigbee\projects\zstack-cc2530-coordinator\Proj /
//                          ects\zstack\Samples\GenericApp\CC2530DB\..\..\..\ /
//                          ..\..\Components\stack\sys\ -I                    /
//                          D:\zigbee\projects\zstack-cc2530-coordinator\Proj /
//                          ects\zstack\Samples\GenericApp\CC2530DB\..\..\..\ /
//                          ..\..\Components\stack\zdo\ -I                    /
//                          D:\zigbee\projects\zstack-cc2530-coordinator\Proj /
//                          ects\zstack\Samples\GenericApp\CC2530DB\..\..\..\ /
//                          ..\..\Components\zmac\ -I                         /
//                          D:\zigbee\projects\zstack-cc2530-coordinator\Proj /
//                          ects\zstack\Samples\GenericApp\CC2530DB\..\..\..\ /
//                          ..\..\Components\zmac\f8w\ -I "C:\Program Files   /
//                          (x86)\IAR Systems\Embedded Workbench              /
//                          5.4\8051\INC\" -I "C:\Program Files (x86)\IAR     /
//                          Systems\Embedded Workbench 5.4\8051\INC\CLIB\"    /
//                          -Ohz                                              /
//    List file          =  D:\zigbee\projects\zstack-cc2530-coordinator\Proj /
//                          ects\zstack\Samples\GenericApp\CC2530DB\Coordinat /
//                          orEB\List\GenericApp.s51                          /
//                                                                            /
//                                                                            /
///////////////////////////////////////////////////////////////////////////////

        NAME GenericApp

        RTMODEL "__calling_convention", "xdata_reentrant"
        RTMODEL "__code_model", "banked"
        RTMODEL "__core", "plain"
        RTMODEL "__data_model", "large"
        RTMODEL "__dptr_size", "16"
        RTMODEL "__extended_stack", "disabled"
        RTMODEL "__location_for_constants", "data"
        RTMODEL "__number_of_dptrs", "1"
        RTMODEL "__rt_version", "1"

        RSEG DOVERLAY:DATA:NOROOT(0)
        RSEG IOVERLAY:IDATA:NOROOT(0)
        RSEG ISTACK:IDATA:NOROOT(0)
        RSEG PSTACK:XDATA:NOROOT(0)
        RSEG XSTACK:XDATA:NOROOT(0)

        EXTERN ?ALLOC_XSTACK8
        EXTERN ?BANKED_ENTER_XDATA
        EXTERN ?BANKED_LEAVE_XDATA
        EXTERN ?BDISPATCH
        EXTERN ?BRET
        EXTERN ?DEALLOC_XSTACK8
        EXTERN ?MOVE_LONG8_XDATA_XDATA
        EXTERN ?PUSH_XSTACK_I_ONE
        EXTERN ?PUSH_XSTACK_I_THREE
        EXTERN ?PUSH_XSTACK_I_TWO
        EXTERN ?UC_SWITCH_SPARSE
        EXTERN ?V0
        EXTERN ?XSP
        EXTERN ?XSTACK_DISP0_8
        EXTERN __INIT_XDATA_Z

        PUBLIC ??GenericApp_Init?relay
        FUNCTION ??GenericApp_Init?relay,0203H
        PUBLIC ??GenericApp_MessageMSGCB?relay
        FUNCTION ??GenericApp_MessageMSGCB?relay,0203H
        PUBLIC ??GenericApp_ProcessEvent?relay
        FUNCTION ??GenericApp_ProcessEvent?relay,0203H
        PUBLIC ??GenericApp_ProcessZDOMsgs?relay
        FUNCTION ??GenericApp_ProcessZDOMsgs?relay,0203H
        PUBLIC ??GenericApp_SendTheMessage?relay
        FUNCTION ??GenericApp_SendTheMessage?relay,0203H
        PUBLIC ??GenericApp_SerialMSGCB?relay
        FUNCTION ??GenericApp_SerialMSGCB?relay,0203H
        PUBLIC ??str_reverse?relay
        FUNCTION ??str_reverse?relay,0203H
        PUBLIC EndDeviceInfos
        PUBLIC GenericApp_ClusterList
        PUBLIC GenericApp_DstAddr
        PUBLIC GenericApp_Init
        FUNCTION GenericApp_Init,021203H
        ARGFRAME XSTACK, 0, STACK
        LOCFRAME ISTACK, 1, STACK
        LOCFRAME XSTACK, 38, STACK
        PUBLIC GenericApp_MessageMSGCB
        FUNCTION GenericApp_MessageMSGCB,021203H
        ARGFRAME XSTACK, 12, STACK
        ARGFRAME IOVERLAY, 0, STATIC
        ARGFRAME DOVERLAY, 0, STATIC
        LOCFRAME ISTACK, 2, STACK
        LOCFRAME XSTACK, 32, STACK
        PUBLIC GenericApp_NwkState
        PUBLIC GenericApp_ProcessEvent
        FUNCTION GenericApp_ProcessEvent,0a1203H
        ARGFRAME XSTACK, 0, STACK
        LOCFRAME XSTACK, 12, STACK
        PUBLIC GenericApp_ProcessZDOMsgs
        FUNCTION GenericApp_ProcessZDOMsgs,021203H
        ARGFRAME XSTACK, 12, STACK
        ARGFRAME IOVERLAY, 0, STATIC
        ARGFRAME DOVERLAY, 0, STATIC
        LOCFRAME XSTACK, 10, STACK
        PUBLIC GenericApp_SendTheMessage
        FUNCTION GenericApp_SendTheMessage,021203H
        ARGFRAME XSTACK, 17, STACK
        ARGFRAME IOVERLAY, 0, STATIC
        ARGFRAME DOVERLAY, 0, STATIC
        LOCFRAME ISTACK, 2, STACK
        LOCFRAME XSTACK, 26, STACK
        PUBLIC GenericApp_SerialMSGCB
        FUNCTION GenericApp_SerialMSGCB,021203H
        ARGFRAME XSTACK, 12, STACK
        ARGFRAME IOVERLAY, 0, STATIC
        ARGFRAME DOVERLAY, 0, STATIC
        LOCFRAME ISTACK, 2, STACK
        LOCFRAME XSTACK, 17, STACK
        PUBLIC GenericApp_SimpleDesc
        PUBLIC GenericApp_TaskID
        PUBLIC GenericApp_TransID
        PUBLIC GenericApp_epDesc
        PUBLIC device_count
        PUBLIC str_reverse
        FUNCTION str_reverse,0203H
        ARGFRAME XSTACK, 29, STACK
        ARGFRAME IOVERLAY, 0, STATIC
        ARGFRAME DOVERLAY, 0, STATIC
        LOCFRAME ISTACK, 3, STACK
        
        CFI Names cfiNames0
        CFI StackFrame CFA_SP SP IDATA
        CFI StackFrame CFA_PSP16 PSP16 XDATA
        CFI StackFrame CFA_XSP16 XSP16 XDATA
        CFI StaticOverlayFrame CFA_IOVERLAY IOVERLAY
        CFI StaticOverlayFrame CFA_DOVERLAY DOVERLAY
        CFI Resource `PSW.CY`:1, `B.BR0`:1, `B.BR1`:1, `B.BR2`:1, `B.BR3`:1
        CFI Resource `B.BR4`:1, `B.BR5`:1, `B.BR6`:1, `B.BR7`:1, `VB.BR8`:1
        CFI Resource `VB.BR9`:1, `VB.BR10`:1, `VB.BR11`:1, `VB.BR12`:1
        CFI Resource `VB.BR13`:1, `VB.BR14`:1, `VB.BR15`:1, VB:8, B:8, A:8
        CFI Resource PSW:8, DPL0:8, DPH0:8, R0:8, R1:8, R2:8, R3:8, R4:8, R5:8
        CFI Resource R6:8, R7:8, V0:8, V1:8, V2:8, V3:8, V4:8, V5:8, V6:8, V7:8
        CFI Resource V8:8, V9:8, V10:8, V11:8, V12:8, V13:8, V14:8, V15:8, SP:8
        CFI Resource PSPH:8, PSPL:8, PSP16:16, XSPH:8, XSPL:8, XSP16:16
        CFI VirtualResource ?RET:24
        CFI Resource ?BRET_EXT:8
        CFI VirtualResource ?RET_HIGH:8, ?RET_LOW:8
        CFI ResourceParts PSP16 PSPH, PSPL
        CFI ResourceParts XSP16 XSPH, XSPL
        CFI ResourceParts ?RET ?BRET_EXT, ?RET_HIGH, ?RET_LOW
        CFI EndNames cfiNames0
        
        CFI Common cfiCommon0 Using cfiNames0
        CFI CodeAlign 1
        CFI DataAlign -1
        CFI ReturnAddress ?RET CODE
        CFI CFA_DOVERLAY Used
        CFI CFA_IOVERLAY Used
        CFI CFA_SP SP+-3
        CFI CFA_PSP16 PSP16+0
        CFI CFA_XSP16 XSP16+0
        CFI `PSW.CY` SameValue
        CFI `B.BR0` SameValue
        CFI `B.BR1` SameValue
        CFI `B.BR2` SameValue
        CFI `B.BR3` SameValue
        CFI `B.BR4` SameValue
        CFI `B.BR5` SameValue
        CFI `B.BR6` SameValue
        CFI `B.BR7` SameValue
        CFI `VB.BR8` SameValue
        CFI `VB.BR9` SameValue
        CFI `VB.BR10` SameValue
        CFI `VB.BR11` SameValue
        CFI `VB.BR12` SameValue
        CFI `VB.BR13` SameValue
        CFI `VB.BR14` SameValue
        CFI `VB.BR15` SameValue
        CFI VB SameValue
        CFI B Undefined
        CFI A Undefined
        CFI PSW SameValue
        CFI DPL0 SameValue
        CFI DPH0 SameValue
        CFI R0 Undefined
        CFI R1 Undefined
        CFI R2 Undefined
        CFI R3 Undefined
        CFI R4 Undefined
        CFI R5 Undefined
        CFI R6 SameValue
        CFI R7 SameValue
        CFI V0 SameValue
        CFI V1 SameValue
        CFI V2 SameValue
        CFI V3 SameValue
        CFI V4 SameValue
        CFI V5 SameValue
        CFI V6 SameValue
        CFI V7 SameValue
        CFI V8 SameValue
        CFI V9 SameValue
        CFI V10 SameValue
        CFI V11 SameValue
        CFI V12 SameValue
        CFI V13 SameValue
        CFI V14 SameValue
        CFI V15 SameValue
        CFI PSPH Undefined
        CFI PSPL Undefined
        CFI XSPH Undefined
        CFI XSPL Undefined
        CFI ?RET Concat
        CFI ?BRET_EXT Frame(CFA_SP, 3)
        CFI ?RET_HIGH Frame(CFA_SP, 2)
        CFI ?RET_LOW Frame(CFA_SP, 1)
        CFI EndCommon cfiCommon0
        
HalUARTOpen         SYMBOL "HalUARTOpen"
afRegister          SYMBOL "afRegister"
RegisterForKeys     SYMBOL "RegisterForKeys"
HalUARTWrite        SYMBOL "HalUARTWrite"
osal_msg_receive    SYMBOL "osal_msg_receive"
osal_msg_deallocate SYMBOL "osal_msg_deallocate"
ZDO_ParseEPListRsp  SYMBOL "ZDO_ParseEPListRsp"
HalLedSet           SYMBOL "HalLedSet"
osal_mem_free       SYMBOL "osal_mem_free"
APSME_LookupExtAddr SYMBOL "APSME_LookupExtAddr"
osal_memcmp         SYMBOL "osal_memcmp"
osal_memcpy         SYMBOL "osal_memcpy"
osal_buffer_uint16  SYMBOL "osal_buffer_uint16"
AF_DataRequest      SYMBOL "AF_DataRequest"
HalUARTRead         SYMBOL "HalUARTRead"
osal_build_uint16   SYMBOL "osal_build_uint16"
??AF_DataRequest?relay SYMBOL "?relay", AF_DataRequest
??APSME_LookupExtAddr?relay SYMBOL "?relay", APSME_LookupExtAddr
??HalLedSet?relay   SYMBOL "?relay", HalLedSet
??HalUARTOpen?relay SYMBOL "?relay", HalUARTOpen
??HalUARTRead?relay SYMBOL "?relay", HalUARTRead
??HalUARTWrite?relay SYMBOL "?relay", HalUARTWrite
`?<Name MT_UartProcessZAppDa 22>` SYMBOL "MT_UartProcessZAppData"
??MT_UartProcessZAppData?relay SYMBOL "?relay", `?<Name MT_UartProcessZAppDa 22>`
??RegisterForKeys?relay SYMBOL "?relay", RegisterForKeys
??ZDO_ParseEPListRsp?relay SYMBOL "?relay", ZDO_ParseEPListRsp
??afRegister?relay  SYMBOL "?relay", afRegister
??osal_buffer_uint16?relay SYMBOL "?relay", osal_buffer_uint16
??osal_build_uint16?relay SYMBOL "?relay", osal_build_uint16
??osal_mem_free?relay SYMBOL "?relay", osal_mem_free
??osal_memcmp?relay SYMBOL "?relay", osal_memcmp
??osal_memcpy?relay SYMBOL "?relay", osal_memcpy
??osal_msg_deallocate?relay SYMBOL "?relay", osal_msg_deallocate
??osal_msg_receive?relay SYMBOL "?relay", osal_msg_receive
GenericApp_Init     SYMBOL "GenericApp_Init"
??GenericApp_Init?relay SYMBOL "?relay", GenericApp_Init
GenericApp_MessageMSGCB SYMBOL "GenericApp_MessageMSGCB"
??GenericApp_MessageMSGCB?relay SYMBOL "?relay", GenericApp_MessageMSGCB
GenericApp_ProcessEvent SYMBOL "GenericApp_ProcessEvent"
??GenericApp_ProcessEvent?relay SYMBOL "?relay", GenericApp_ProcessEvent
GenericApp_ProcessZDOMsgs SYMBOL "GenericApp_ProcessZDOMsgs"
??GenericApp_ProcessZDOMsgs?relay SYMBOL "?relay", GenericApp_ProcessZDOMsgs
GenericApp_SendTheMessage SYMBOL "GenericApp_SendTheMessage"
??GenericApp_SendTheMessage?relay SYMBOL "?relay", GenericApp_SendTheMessage
GenericApp_SerialMSGCB SYMBOL "GenericApp_SerialMSGCB"
??GenericApp_SerialMSGCB?relay SYMBOL "?relay", GenericApp_SerialMSGCB
str_reverse         SYMBOL "str_reverse"
??str_reverse?relay SYMBOL "?relay", str_reverse

        EXTERN HalUARTOpen
        FUNCTION HalUARTOpen,0202H
        ARGFRAME ISTACK, 0, STACK
        ARGFRAME PSTACK, 0, STACK
        ARGFRAME XSTACK, 38, STACK
        ARGFRAME IOVERLAY, 0, STATIC
        ARGFRAME DOVERLAY, 0, STATIC
        EXTERN afRegister
        FUNCTION afRegister,0202H
        ARGFRAME ISTACK, 0, STACK
        ARGFRAME PSTACK, 0, STACK
        ARGFRAME XSTACK, 38, STACK
        ARGFRAME IOVERLAY, 0, STATIC
        ARGFRAME DOVERLAY, 0, STATIC
        EXTERN RegisterForKeys
        FUNCTION RegisterForKeys,0202H
        ARGFRAME ISTACK, 0, STACK
        ARGFRAME PSTACK, 0, STACK
        ARGFRAME XSTACK, 38, STACK
        ARGFRAME IOVERLAY, 0, STATIC
        ARGFRAME DOVERLAY, 0, STATIC
        EXTERN HalUARTWrite
        FUNCTION HalUARTWrite,0202H
        ARGFRAME ISTACK, 0, STACK
        ARGFRAME PSTACK, 0, STACK
        ARGFRAME XSTACK, 38, STACK
        ARGFRAME IOVERLAY, 0, STATIC
        ARGFRAME DOVERLAY, 0, STATIC
        EXTERN osal_msg_receive
        FUNCTION osal_msg_receive,0202H
        ARGFRAME ISTACK, 0, STACK
        ARGFRAME PSTACK, 0, STACK
        ARGFRAME XSTACK, 12, STACK
        ARGFRAME IOVERLAY, 0, STATIC
        ARGFRAME DOVERLAY, 0, STATIC
        EXTERN osal_msg_deallocate
        FUNCTION osal_msg_deallocate,0202H
        ARGFRAME ISTACK, 0, STACK
        ARGFRAME PSTACK, 0, STACK
        ARGFRAME XSTACK, 12, STACK
        ARGFRAME IOVERLAY, 0, STATIC
        ARGFRAME DOVERLAY, 0, STATIC
        EXTERN ZDO_ParseEPListRsp
        FUNCTION ZDO_ParseEPListRsp,0202H
        ARGFRAME ISTACK, 0, STACK
        ARGFRAME PSTACK, 0, STACK
        ARGFRAME XSTACK, 10, STACK
        ARGFRAME IOVERLAY, 0, STATIC
        ARGFRAME DOVERLAY, 0, STATIC
        EXTERN HalLedSet
        FUNCTION HalLedSet,0202H
        ARGFRAME ISTACK, 0, STACK
        ARGFRAME PSTACK, 0, STACK
        ARGFRAME XSTACK, 10, STACK
        ARGFRAME IOVERLAY, 0, STATIC
        ARGFRAME DOVERLAY, 0, STATIC
        EXTERN osal_mem_free
        FUNCTION osal_mem_free,0202H
        ARGFRAME ISTACK, 0, STACK
        ARGFRAME PSTACK, 0, STACK
        ARGFRAME XSTACK, 10, STACK
        ARGFRAME IOVERLAY, 0, STATIC
        ARGFRAME DOVERLAY, 0, STATIC
        EXTERN APSME_LookupExtAddr
        FUNCTION APSME_LookupExtAddr,0202H
        ARGFRAME ISTACK, 0, STACK
        ARGFRAME PSTACK, 0, STACK
        ARGFRAME XSTACK, 29, STACK
        ARGFRAME IOVERLAY, 0, STATIC
        ARGFRAME DOVERLAY, 0, STATIC
        EXTERN osal_memcmp
        FUNCTION osal_memcmp,0202H
        ARGFRAME ISTACK, 0, STACK
        ARGFRAME PSTACK, 0, STACK
        ARGFRAME XSTACK, 32, STACK
        ARGFRAME IOVERLAY, 0, STATIC
        ARGFRAME DOVERLAY, 0, STATIC
        EXTERN osal_memcpy
        FUNCTION osal_memcpy,0202H
        ARGFRAME ISTACK, 0, STACK
        ARGFRAME PSTACK, 0, STACK
        ARGFRAME XSTACK, 32, STACK
        ARGFRAME IOVERLAY, 0, STATIC
        ARGFRAME DOVERLAY, 0, STATIC
        EXTERN osal_buffer_uint16
        FUNCTION osal_buffer_uint16,0202H
        ARGFRAME ISTACK, 0, STACK
        ARGFRAME PSTACK, 0, STACK
        ARGFRAME XSTACK, 17, STACK
        ARGFRAME IOVERLAY, 0, STATIC
        ARGFRAME DOVERLAY, 0, STATIC
        EXTERN AF_DataRequest
        FUNCTION AF_DataRequest,0202H
        ARGFRAME ISTACK, 0, STACK
        ARGFRAME PSTACK, 0, STACK
        ARGFRAME XSTACK, 26, STACK
        ARGFRAME IOVERLAY, 0, STATIC
        ARGFRAME DOVERLAY, 0, STATIC
        EXTERN HalUARTRead
        FUNCTION HalUARTRead,0202H
        ARGFRAME ISTACK, 0, STACK
        ARGFRAME PSTACK, 0, STACK
        ARGFRAME XSTACK, 17, STACK
        ARGFRAME IOVERLAY, 0, STATIC
        ARGFRAME DOVERLAY, 0, STATIC
        EXTERN osal_build_uint16
        FUNCTION osal_build_uint16,0202H
        ARGFRAME ISTACK, 0, STACK
        ARGFRAME PSTACK, 0, STACK
        ARGFRAME XSTACK, 17, STACK
        ARGFRAME IOVERLAY, 0, STATIC
        ARGFRAME DOVERLAY, 0, STATIC
        EXTERN ??AF_DataRequest?relay
        FUNCTION ??AF_DataRequest?relay,00H
        EXTERN ??APSME_LookupExtAddr?relay
        FUNCTION ??APSME_LookupExtAddr?relay,00H
        EXTERN ??HalLedSet?relay
        FUNCTION ??HalLedSet?relay,00H
        EXTERN ??HalUARTOpen?relay
        FUNCTION ??HalUARTOpen?relay,00H
        EXTERN ??HalUARTRead?relay
        FUNCTION ??HalUARTRead?relay,00H
        EXTERN ??HalUARTWrite?relay
        FUNCTION ??HalUARTWrite?relay,00H
        EXTERN ??MT_UartProcessZAppData?relay
        FUNCTION ??MT_UartProcessZAppData?relay,00H
        EXTERN ??RegisterForKeys?relay
        FUNCTION ??RegisterForKeys?relay,00H
        EXTERN ??ZDO_ParseEPListRsp?relay
        FUNCTION ??ZDO_ParseEPListRsp?relay,00H
        EXTERN ??afRegister?relay
        FUNCTION ??afRegister?relay,00H
        EXTERN ??osal_buffer_uint16?relay
        FUNCTION ??osal_buffer_uint16?relay,00H
        EXTERN ??osal_build_uint16?relay
        FUNCTION ??osal_build_uint16?relay,00H
        EXTERN ??osal_mem_free?relay
        FUNCTION ??osal_mem_free?relay,00H
        EXTERN ??osal_memcmp?relay
        FUNCTION ??osal_memcmp?relay,00H
        EXTERN ??osal_memcpy?relay
        FUNCTION ??osal_memcpy?relay,00H
        EXTERN ??osal_msg_deallocate?relay
        FUNCTION ??osal_msg_deallocate?relay,00H
        EXTERN ??osal_msg_receive?relay
        FUNCTION ??osal_msg_receive?relay,00H

// D:\zigbee\projects\zstack-cc2530-coordinator\Projects\zstack\Samples\GenericApp\Source\GenericApp.c
//    1 /**************************************************************************************************
//    2   Filename:       GenericApp.c
//    3   Revised:        $Date: 2009-03-18 15:56:27 -0700 (Wed, 18 Mar 2009) $
//    4   Revision:       $Revision: 19453 $
//    5 
//    6   Description:    Generic Application (no Profile).
//    7 
//    8 
//    9   Copyright 2004-2009 Texas Instruments Incorporated. All rights reserved.
//   10 
//   11   IMPORTANT: Your use of this Software is limited to those specific rights
//   12   granted under the terms of a software license agreement between the user
//   13   who downloaded the software, his/her employer (which must be your employer)
//   14   and Texas Instruments Incorporated (the "License").  You may not use this
//   15   Software unless you agree to abide by the terms of the License. The License
//   16   limits your use, and you acknowledge, that the Software may not be modified,
//   17   copied or distributed unless embedded on a Texas Instruments microcontroller
//   18   or used solely and exclusively in conjunction with a Texas Instruments radio
//   19   frequency transceiver, which is integrated into your product.  Other than for
//   20   the foregoing purpose, you may not use, reproduce, copy, prepare derivative
//   21   works of, modify, distribute, perform, display or sell this Software and/or
//   22   its documentation for any purpose.
//   23 
//   24   YOU FURTHER ACKNOWLEDGE AND AGREE THAT THE SOFTWARE AND DOCUMENTATION ARE
//   25   PROVIDED “AS IS?WITHOUT WARRANTY OF ANY KIND, EITHER EXPRESS OR IMPLIED, 
//   26   INCLUDING WITHOUT LIMITATION, ANY WARRANTY OF MERCHANTABILITY, TITLE, 
//   27   NON-INFRINGEMENT AND FITNESS FOR A PARTICULAR PURPOSE. IN NO EVENT SHALL
//   28   TEXAS INSTRUMENTS OR ITS LICENSORS BE LIABLE OR OBLIGATED UNDER CONTRACT,
//   29   NEGLIGENCE, STRICT LIABILITY, CONTRIBUTION, BREACH OF WARRANTY, OR OTHER
//   30   LEGAL EQUITABLE THEORY ANY DIRECT OR INDIRECT DAMAGES OR EXPENSES
//   31   INCLUDING BUT NOT LIMITED TO ANY INCIDENTAL, SPECIAL, INDIRECT, PUNITIVE
//   32   OR CONSEQUENTIAL DAMAGES, LOST PROFITS OR LOST DATA, COST OF PROCUREMENT
//   33   OF SUBSTITUTE GOODS, TECHNOLOGY, SERVICES, OR ANY CLAIMS BY THIRD PARTIES
//   34   (INCLUDING BUT NOT LIMITED TO ANY DEFENSE THEREOF), OR OTHER SIMILAR COSTS.
//   35 
//   36   Should you have any questions regarding your right to use this Software,
//   37   contact Texas Instruments Incorporated at www.TI.com. 
//   38 **************************************************************************************************/
//   39 
//   40 
//   41 
//   42 /*********************************************************************
//   43  * INCLUDES
//   44  */
//   45 #include "OSAL.h"
//   46 #include "AF.h"
//   47 #include "ZDApp.h"
//   48 #include "ZDObject.h"
//   49 #include "ZDProfile.h"
//   50 
//   51 #include "GenericApp.h"
//   52 #include "DebugTrace.h"
//   53 #include "mt_uart.h"
//   54 
//   55 #if !defined( WIN32 )
//   56   #include "OnBoard.h"
//   57 #endif
//   58 
//   59 /* HAL */
//   60 #include "hal_lcd.h"
//   61 #include "hal_led.h"
//   62 #include "hal_key.h"
//   63 #include "hal_uart.h"
//   64 
//   65 /*********************************************************************
//   66  * MACROS
//   67  */
//   68 /*********************************************************************
//   69  * CONSTANTS
//   70  */
//   71  
//   72 /*********************************************************************
//   73  * TYPEDEFS
//   74  */
//   75  typedef struct
//   76  {
//   77    unsigned char endPoint;
//   78    unsigned char extAddr[8];
//   79    unsigned char compressed_addr;
//   80  } EndDeviceInfo_t; //saved the end device information
//   81 
//   82 /*********************************************************************
//   83  * GLOBAL VARIABLES
//   84  */

        RSEG XDATA_Z:XDATA:NOROOT(0)
//   85 unsigned char device_count = 0;
device_count:
        DS 1
        REQUIRE __INIT_XDATA_Z
//   86  
//   87  
//   88 // This list should be filled with Application specific Cluster IDs.

        RSEG XDATA_ROM_C:CONST:REORDER:NOROOT(0)
        DATA
//   89 const cId_t GenericApp_ClusterList[GENERICAPP_MAX_CLUSTERS] =
GenericApp_ClusterList:
        DW 1
//   90 {
//   91   GENERICAPP_CLUSTERID
//   92 };
//   93 

        RSEG XDATA_ROM_C:CONST:REORDER:NOROOT(0)
        DATA
//   94 const SimpleDescriptionFormat_t GenericApp_SimpleDesc =
GenericApp_SimpleDesc:
        DB 32
        DW 3844, 1
        DB 0, 1
        DW GenericApp_ClusterList
        DB 1
        DW GenericApp_ClusterList
//   95 {
//   96   GENERICAPP_ENDPOINT,              //  int Endpoint;
//   97   GENERICAPP_PROFID,                //  uint16 AppProfId[2];
//   98   GENERICAPP_DEVICEID,              //  uint16 AppDeviceId[2];
//   99   GENERICAPP_DEVICE_VERSION,        //  int   AppDevVer:4;
//  100   GENERICAPP_FLAGS,                 //  int   AppFlags:4;
//  101   GENERICAPP_MAX_CLUSTERS,          //  byte  AppNumInClusters;
//  102   (cId_t *)GenericApp_ClusterList,  //  byte *pAppInClusterList;
//  103   GENERICAPP_MAX_CLUSTERS,          //  byte  AppNumInClusters;
//  104   (cId_t *)GenericApp_ClusterList   //  byte *pAppInClusterList;
//  105 };
//  106 
//  107 // This is the Endpoint/Interface description.  It is defined here, but
//  108 // filled-in in GenericApp_Init().  Another way to go would be to fill
//  109 // in the structure here and make it a "const" (in code space).  The
//  110 // way it's defined in this sample app it is define in RAM.

        RSEG XDATA_Z:XDATA:NOROOT(0)
//  111 endPointDesc_t GenericApp_epDesc;
GenericApp_epDesc:
        DS 6
        REQUIRE __INIT_XDATA_Z
//  112 

        RSEG XDATA_Z:XDATA:NOROOT(0)
//  113 EndDeviceInfo_t EndDeviceInfos[16]; //init space for 16 devices
EndDeviceInfos:
        DS 160
        REQUIRE __INIT_XDATA_Z
//  114 
//  115 /*********************************************************************
//  116  * EXTERNAL VARIABLES
//  117  */
//  118 
//  119 /*********************************************************************
//  120  * EXTERNAL FUNCTIONS
//  121  */
//  122 
//  123 /*********************************************************************
//  124  * LOCAL VARIABLES
//  125  */

        RSEG XDATA_Z:XDATA:NOROOT(0)
//  126 byte GenericApp_TaskID;   // Task ID for internal task/event processing
GenericApp_TaskID:
        DS 1
        REQUIRE __INIT_XDATA_Z
//  127                           // This variable will be received when
//  128                           // GenericApp_Init() is called.

        RSEG XDATA_Z:XDATA:NOROOT(0)
//  129 devStates_t GenericApp_NwkState;
GenericApp_NwkState:
        DS 1
        REQUIRE __INIT_XDATA_Z
//  130 

        RSEG XDATA_Z:XDATA:NOROOT(0)
//  131 byte GenericApp_TransID;  // This is the unique message ID (counter)
GenericApp_TransID:
        DS 1
        REQUIRE __INIT_XDATA_Z
//  132 

        RSEG XDATA_Z:XDATA:NOROOT(0)
//  133 afAddrType_t GenericApp_DstAddr;
GenericApp_DstAddr:
        DS 12
        REQUIRE __INIT_XDATA_Z
//  134 
//  135 /*********************************************************************
//  136  * LOCAL FUNCTIONS
//  137  */
//  138 void GenericApp_ProcessZDOMsgs( zdoIncomingMsg_t *inMsg );
//  139 void GenericApp_MessageMSGCB( afIncomingMSGPacket_t *pckt );
//  140 void GenericApp_SendTheMessage( unsigned char dest_endID, unsigned char cmd, unsigned int temp_set);
//  141 void GenericApp_SerialMSGCB(void);
//  142 void str_reverse(char *str, int length);
//  143 
//  144 /*********************************************************************
//  145  * NETWORK LAYER CALLBACKS
//  146  */
//  147 
//  148 /*********************************************************************
//  149  * PUBLIC FUNCTIONS
//  150  */
//  151 
//  152 /*********************************************************************
//  153  * @fn      GenericApp_Init
//  154  *
//  155  * @brief   Initialization function for the Generic App Task.
//  156  *          This is called during initialization and should contain
//  157  *          any application specific initialization (ie. hardware
//  158  *          initialization/setup, table initialization, power up
//  159  *          notificaiton ... ).
//  160  *
//  161  * @param   task_id - the ID assigned by OSAL.  This ID should be
//  162  *                    used to send messages and set timers.
//  163  *
//  164  * @return  none
//  165  */

        RSEG BANKED_CODE:CODE:NOROOT(0)
//  166 void GenericApp_Init( byte task_id )
GenericApp_Init:
        CFI Block cfiBlock0 Using cfiCommon0
        CFI Function GenericApp_Init
//  167 {
        FUNCALL GenericApp_Init, HalUARTOpen
        LOCFRAME ISTACK, 0, STACK
        LOCFRAME PSTACK, 0, STACK
        LOCFRAME XSTACK, 38, STACK
        LOCFRAME IOVERLAY, 0, STATIC
        LOCFRAME DOVERLAY, 0, STATIC
        ARGFRAME ISTACK, 0, STACK
        ARGFRAME PSTACK, 0, STACK
        ARGFRAME XSTACK, 38, STACK
        ARGFRAME IOVERLAY, 0, STATIC
        ARGFRAME DOVERLAY, 0, STATIC
        FUNCALL GenericApp_Init, afRegister
        LOCFRAME ISTACK, 0, STACK
        LOCFRAME PSTACK, 0, STACK
        LOCFRAME XSTACK, 38, STACK
        LOCFRAME IOVERLAY, 0, STATIC
        LOCFRAME DOVERLAY, 0, STATIC
        ARGFRAME ISTACK, 0, STACK
        ARGFRAME PSTACK, 0, STACK
        ARGFRAME XSTACK, 38, STACK
        ARGFRAME IOVERLAY, 0, STATIC
        ARGFRAME DOVERLAY, 0, STATIC
        FUNCALL GenericApp_Init, RegisterForKeys
        LOCFRAME ISTACK, 0, STACK
        LOCFRAME PSTACK, 0, STACK
        LOCFRAME XSTACK, 38, STACK
        LOCFRAME IOVERLAY, 0, STATIC
        LOCFRAME DOVERLAY, 0, STATIC
        ARGFRAME ISTACK, 0, STACK
        ARGFRAME PSTACK, 0, STACK
        ARGFRAME XSTACK, 38, STACK
        ARGFRAME IOVERLAY, 0, STATIC
        ARGFRAME DOVERLAY, 0, STATIC
        FUNCALL GenericApp_Init, HalUARTWrite
        LOCFRAME ISTACK, 0, STACK
        LOCFRAME PSTACK, 0, STACK
        LOCFRAME XSTACK, 38, STACK
        LOCFRAME IOVERLAY, 0, STATIC
        LOCFRAME DOVERLAY, 0, STATIC
        ARGFRAME ISTACK, 0, STACK
        ARGFRAME PSTACK, 0, STACK
        ARGFRAME XSTACK, 38, STACK
        ARGFRAME IOVERLAY, 0, STATIC
        ARGFRAME DOVERLAY, 0, STATIC
        MOV     A,#-0x9
        LCALL   ?BANKED_ENTER_XDATA
        CFI DPH0 load(1, XDATA, add(CFA_XSP16, literal(-1)))
        CFI DPL0 load(1, XDATA, add(CFA_XSP16, literal(-2)))
        CFI ?BRET_EXT load(1, XDATA, add(CFA_XSP16, literal(-3)))
        CFI ?RET_HIGH load(1, XDATA, add(CFA_XSP16, literal(-4)))
        CFI ?RET_LOW load(1, XDATA, add(CFA_XSP16, literal(-5)))
        CFI R7 load(1, XDATA, add(CFA_XSP16, literal(-6)))
        CFI V0 load(1, XDATA, add(CFA_XSP16, literal(-7)))
        CFI VB load(1, XDATA, add(CFA_XSP16, literal(-8)))
        CFI R6 load(1, XDATA, add(CFA_XSP16, literal(-9)))
        CFI CFA_SP SP+0
        CFI CFA_XSP16 add(XSP16, 9)
        ; Saved register size: 9
        ; Auto size: 29
        MOV     A,#-0x1d
        LCALL   ?ALLOC_XSTACK8
        CFI CFA_XSP16 add(XSP16, 38)
        MOV     A,R1
//  168   halUARTCfg_t uartConfig;
//  169   GenericApp_TaskID = task_id;
        MOV     DPTR,#GenericApp_TaskID
        MOVX    @DPTR,A
//  170   GenericApp_NwkState = DEV_INIT;
        MOV     A,#0x1
        MOV     DPTR,#GenericApp_NwkState
        MOVX    @DPTR,A
//  171   GenericApp_TransID = 0;
        CLR     A
        MOV     DPTR,#GenericApp_TransID
        MOVX    @DPTR,A
//  172   
//  173   // Device hardware initialization can be added here or in main() (Zmain.c).
//  174   uartConfig.configured           = TRUE;              // 2x30 don't care - see uart driver.
        MOV     A,#0x1
        MOV     DPL,?XSP + 0
        MOV     DPH,?XSP + 1
        MOVX    @DPTR,A
//  175   uartConfig.baudRate             = HAL_UART_BR_115200;
        LCALL   ?XSTACK_DISP0_8
        MOV     A,#0x4
        MOVX    @DPTR,A
//  176   uartConfig.flowControl          = FALSE;
        MOV     A,#0x2
        LCALL   ?XSTACK_DISP0_8
        CLR     A
        MOVX    @DPTR,A
//  177   uartConfig.intEnable            = TRUE;              // 2x30 don't care - see uart driver.
        MOV     A,#0x16
        LCALL   ?XSTACK_DISP0_8
        MOV     A,#0x1
        MOVX    @DPTR,A
//  178   uartConfig.callBackFunc         = MT_UartProcessZAppData;
        MOV     A,#0x1b
        LCALL   ?XSTACK_DISP0_8
        MOV     A,#(??MT_UartProcessZAppData?relay & 0xff)
        MOVX    @DPTR,A
        INC     DPTR
        MOV     A,#((??MT_UartProcessZAppData?relay >> 8) & 0xff)
        MOVX    @DPTR,A
//  179   HalUARTOpen (0, &uartConfig);
        ; Setup parameters for call to function HalUARTOpen
        MOV     DPL,?XSP + 0
        MOV     DPH,?XSP + 1
        MOV     R2,DPL
        MOV     R3,DPH
        MOV     R1,#0x0
        LCALL   ??HalUARTOpen?relay
//  180 
//  181   // If the hardware is application specific - add it here.
//  182   // If the hardware is other parts of the device add it in main().
//  183   
//  184 
//  185   // Fill out the endpoint description.
//  186   GenericApp_epDesc.endPoint = GENERICAPP_ENDPOINT;
        MOV     A,#0x20
        MOV     DPTR,#GenericApp_epDesc
        MOVX    @DPTR,A
//  187   GenericApp_epDesc.task_id = &GenericApp_TaskID;
        MOV     DPTR,#(GenericApp_epDesc + 1)
        MOV     A,#(GenericApp_TaskID & 0xff)
        MOVX    @DPTR,A
        INC     DPTR
        MOV     A,#((GenericApp_TaskID >> 8) & 0xff)
        MOVX    @DPTR,A
//  188   GenericApp_epDesc.simpleDesc
//  189             = (SimpleDescriptionFormat_t *)&GenericApp_SimpleDesc;
        MOV     DPTR,#(GenericApp_epDesc + 3)
        MOV     A,#(GenericApp_SimpleDesc & 0xff)
        MOVX    @DPTR,A
        INC     DPTR
        MOV     A,#((GenericApp_SimpleDesc >> 8) & 0xff)
        MOVX    @DPTR,A
//  190   GenericApp_epDesc.latencyReq = noLatencyReqs;
        CLR     A
        MOV     DPTR,#(GenericApp_epDesc + 5)
        MOVX    @DPTR,A
//  191 
//  192   // Register the endpoint description with the AF
//  193   afRegister( &GenericApp_epDesc );
        ; Setup parameters for call to function afRegister
        MOV     R2,#(GenericApp_epDesc & 0xff)
        MOV     R3,#((GenericApp_epDesc >> 8) & 0xff)
        LCALL   ??afRegister?relay
//  194 
//  195   // Register for all key events - This app will handle all key events
//  196   RegisterForKeys( GenericApp_TaskID );
        ; Setup parameters for call to function RegisterForKeys
        MOV     DPTR,#GenericApp_TaskID
        MOVX    A,@DPTR
        MOV     R1,A
        LCALL   ??RegisterForKeys?relay
//  197   
//  198   HalUARTWrite(0,"Init!\r\n",10);
        ; Setup parameters for call to function HalUARTWrite
        MOV     R4,#0xa
        MOV     R5,#0x0
        MOV     R2,#(`?<Constant "Init!\\r\\n">` & 0xff)
        MOV     R3,#((`?<Constant "Init!\\r\\n">` >> 8) & 0xff)
        MOV     R1,#0x0
        LCALL   ??HalUARTWrite?relay
//  199 }
        MOV     A,#0x1d
        LCALL   ?DEALLOC_XSTACK8
        CFI CFA_XSP16 add(XSP16, 9)
        MOV     R7,#0x1
        LJMP    ?BANKED_LEAVE_XDATA
        CFI EndBlock cfiBlock0
//  200 
//  201 /*********************************************************************
//  202  * @fn      GenericApp_ProcessEvent
//  203  *
//  204  * @brief   Generic Application Task event processor.  This function
//  205  *          is called to process all events for the task.  Events
//  206  *          include timers, messages and any other user defined events.
//  207  *
//  208  * @param   task_id  - The OSAL assigned task ID.
//  209  * @param   events - events to process.  This is a bit map and can
//  210  *                   contain more than one event.
//  211  *
//  212  * @return  none
//  213  */

        RSEG BANKED_CODE:CODE:NOROOT(0)
//  214 UINT16 GenericApp_ProcessEvent( byte task_id, UINT16 events )
GenericApp_ProcessEvent:
        CFI Block cfiBlock1 Using cfiCommon0
        CFI Function GenericApp_ProcessEvent
//  215 {
        FUNCALL GenericApp_ProcessEvent, osal_msg_receive
        LOCFRAME ISTACK, 0, STACK
        LOCFRAME PSTACK, 0, STACK
        LOCFRAME XSTACK, 12, STACK
        LOCFRAME IOVERLAY, 0, STATIC
        LOCFRAME DOVERLAY, 0, STATIC
        ARGFRAME ISTACK, 0, STACK
        ARGFRAME PSTACK, 0, STACK
        ARGFRAME XSTACK, 12, STACK
        ARGFRAME IOVERLAY, 0, STATIC
        ARGFRAME DOVERLAY, 0, STATIC
        FUNCALL GenericApp_ProcessEvent, GenericApp_ProcessZDOMsgs
        LOCFRAME ISTACK, 0, STACK
        LOCFRAME PSTACK, 0, STACK
        LOCFRAME XSTACK, 12, STACK
        LOCFRAME IOVERLAY, 0, STATIC
        LOCFRAME DOVERLAY, 0, STATIC
        ARGFRAME ISTACK, 0, STACK
        ARGFRAME PSTACK, 0, STACK
        ARGFRAME XSTACK, 12, STACK
        ARGFRAME IOVERLAY, 0, STATIC
        ARGFRAME DOVERLAY, 0, STATIC
        FUNCALL GenericApp_ProcessEvent, osal_msg_deallocate
        LOCFRAME ISTACK, 0, STACK
        LOCFRAME PSTACK, 0, STACK
        LOCFRAME XSTACK, 12, STACK
        LOCFRAME IOVERLAY, 0, STATIC
        LOCFRAME DOVERLAY, 0, STATIC
        ARGFRAME ISTACK, 0, STACK
        ARGFRAME PSTACK, 0, STACK
        ARGFRAME XSTACK, 12, STACK
        ARGFRAME IOVERLAY, 0, STATIC
        ARGFRAME DOVERLAY, 0, STATIC
        FUNCALL GenericApp_ProcessEvent, osal_msg_receive
        LOCFRAME ISTACK, 0, STACK
        LOCFRAME PSTACK, 0, STACK
        LOCFRAME XSTACK, 12, STACK
        LOCFRAME IOVERLAY, 0, STATIC
        LOCFRAME DOVERLAY, 0, STATIC
        ARGFRAME ISTACK, 0, STACK
        ARGFRAME PSTACK, 0, STACK
        ARGFRAME XSTACK, 12, STACK
        ARGFRAME IOVERLAY, 0, STATIC
        ARGFRAME DOVERLAY, 0, STATIC
        FUNCALL GenericApp_ProcessEvent, HalUARTWrite
        LOCFRAME ISTACK, 0, STACK
        LOCFRAME PSTACK, 0, STACK
        LOCFRAME XSTACK, 12, STACK
        LOCFRAME IOVERLAY, 0, STATIC
        LOCFRAME DOVERLAY, 0, STATIC
        ARGFRAME ISTACK, 0, STACK
        ARGFRAME PSTACK, 0, STACK
        ARGFRAME XSTACK, 12, STACK
        ARGFRAME IOVERLAY, 0, STATIC
        ARGFRAME DOVERLAY, 0, STATIC
        FUNCALL GenericApp_ProcessEvent, HalUARTWrite
        LOCFRAME ISTACK, 0, STACK
        LOCFRAME PSTACK, 0, STACK
        LOCFRAME XSTACK, 12, STACK
        LOCFRAME IOVERLAY, 0, STATIC
        LOCFRAME DOVERLAY, 0, STATIC
        ARGFRAME ISTACK, 0, STACK
        ARGFRAME PSTACK, 0, STACK
        ARGFRAME XSTACK, 12, STACK
        ARGFRAME IOVERLAY, 0, STATIC
        ARGFRAME DOVERLAY, 0, STATIC
        FUNCALL GenericApp_ProcessEvent, GenericApp_MessageMSGCB
        LOCFRAME ISTACK, 0, STACK
        LOCFRAME PSTACK, 0, STACK
        LOCFRAME XSTACK, 12, STACK
        LOCFRAME IOVERLAY, 0, STATIC
        LOCFRAME DOVERLAY, 0, STATIC
        ARGFRAME ISTACK, 0, STACK
        ARGFRAME PSTACK, 0, STACK
        ARGFRAME XSTACK, 12, STACK
        ARGFRAME IOVERLAY, 0, STATIC
        ARGFRAME DOVERLAY, 0, STATIC
        FUNCALL GenericApp_ProcessEvent, GenericApp_SerialMSGCB
        LOCFRAME ISTACK, 0, STACK
        LOCFRAME PSTACK, 0, STACK
        LOCFRAME XSTACK, 12, STACK
        LOCFRAME IOVERLAY, 0, STATIC
        LOCFRAME DOVERLAY, 0, STATIC
        ARGFRAME ISTACK, 0, STACK
        ARGFRAME PSTACK, 0, STACK
        ARGFRAME XSTACK, 12, STACK
        ARGFRAME IOVERLAY, 0, STATIC
        ARGFRAME DOVERLAY, 0, STATIC
        MOV     A,#-0xc
        LCALL   ?BANKED_ENTER_XDATA
        CFI DPH0 load(1, XDATA, add(CFA_XSP16, literal(-1)))
        CFI DPL0 load(1, XDATA, add(CFA_XSP16, literal(-2)))
        CFI ?BRET_EXT load(1, XDATA, add(CFA_XSP16, literal(-3)))
        CFI ?RET_HIGH load(1, XDATA, add(CFA_XSP16, literal(-4)))
        CFI ?RET_LOW load(1, XDATA, add(CFA_XSP16, literal(-5)))
        CFI R7 load(1, XDATA, add(CFA_XSP16, literal(-6)))
        CFI V3 load(1, XDATA, add(CFA_XSP16, literal(-7)))
        CFI V2 load(1, XDATA, add(CFA_XSP16, literal(-8)))
        CFI V1 load(1, XDATA, add(CFA_XSP16, literal(-9)))
        CFI V0 load(1, XDATA, add(CFA_XSP16, literal(-10)))
        CFI VB load(1, XDATA, add(CFA_XSP16, literal(-11)))
        CFI R6 load(1, XDATA, add(CFA_XSP16, literal(-12)))
        CFI CFA_SP SP+0
        CFI CFA_XSP16 add(XSP16, 12)
        ; Saved register size: 12
        ; Auto size: 0
        MOV     A,R2
        MOV     R6,A
        MOV     A,R3
        MOV     R7,A
//  216   afIncomingMSGPacket_t *MSGpkt;
//  217   afDataConfirm_t *afDataConfirm;
//  218 
//  219   // Data Confirmation message fields
//  220   byte sentEP;
//  221   ZStatus_t sentStatus;
//  222   byte sentTransID;       // This should match the value sent
//  223   (void)task_id;  // Intentionally unreferenced parameter
//  224   //printf("\r\nEvent Processing!\r\n");
//  225   if ( events & SYS_EVENT_MSG )
        MOV     A,#-0x80
        ANL     A,R7
        MOV     R1,A
        CLR     A
        JNZ     ??GenericApp_ProcessEvent_0
        MOV     A,R1
??GenericApp_ProcessEvent_0:
        JZ      ??GenericApp_ProcessEvent_1
//  226   {
//  227     MSGpkt = (afIncomingMSGPacket_t *)osal_msg_receive( GenericApp_TaskID );
        ; Setup parameters for call to function osal_msg_receive
        SJMP    ??GenericApp_ProcessEvent_2
//  228     while ( MSGpkt )
//  229     {
//  230       switch ( MSGpkt->hdr.event )
//  231       {
//  232         case ZDO_CB_MSG:
//  233           GenericApp_ProcessZDOMsgs( (zdoIncomingMsg_t *)MSGpkt );
??GenericApp_ProcessEvent_3:
        ; Setup parameters for call to function GenericApp_ProcessZDOMsgs
        MOV     R2,?V0 + 0
        MOV     R3,?V0 + 1
        LCALL   ??GenericApp_ProcessZDOMsgs?relay
//  234           break;
//  235 
//  236         case AF_DATA_CONFIRM_CMD:
//  237           // This message is received as a confirmation of a data packet sent.
//  238           // The status is of ZStatus_t type [defined in ZComDef.h]
//  239           // The message fields are defined in AF.h
//  240           afDataConfirm = (afDataConfirm_t *)MSGpkt;
//  241           sentEP = afDataConfirm->endpoint;
//  242           sentStatus = afDataConfirm->hdr.status;
//  243           sentTransID = afDataConfirm->transID;
//  244           (void)sentEP;
//  245           (void)sentTransID;
//  246 
//  247           // Action taken when confirmation is received.
//  248           if ( sentStatus != ZSuccess )
//  249           {
//  250             // The data wasn't delivered -- Do something
//  251             HalUARTWrite(0, "Lost\r\n", 8);
//  252           }
//  253           else {
//  254             HalUARTWrite(0, "sent\r\n", 8);
//  255           }
//  256           break;
//  257 
//  258         case AF_INCOMING_MSG_CMD:
//  259           GenericApp_MessageMSGCB( MSGpkt );
//  260           break;
//  261 
//  262         case ZDO_STATE_CHANGE:
//  263           GenericApp_NwkState = (devStates_t)(MSGpkt->hdr.status);
//  264           if ( (GenericApp_NwkState == DEV_ZB_COORD)
//  265               || (GenericApp_NwkState == DEV_ROUTER)
//  266               || (GenericApp_NwkState == DEV_END_DEVICE) )
//  267           {
//  268             // The coordinator won't send message automatically
//  269             /*osal_start_timerEx( GenericApp_TaskID,
//  270                                 GENERICAPP_SEND_MSG_EVT,
//  271                               GENERICAPP_SEND_MSG_TIMEOUT );*/
//  272           }
//  273           break;
//  274         default:
//  275           break;
//  276       }
//  277 
//  278       // Release the memory
//  279       osal_msg_deallocate( (uint8 *)MSGpkt );
??GenericApp_ProcessEvent_4:
        ; Setup parameters for call to function osal_msg_deallocate
        MOV     R2,?V0 + 0
        MOV     R3,?V0 + 1
        LCALL   ??osal_msg_deallocate?relay
//  280 
//  281       // Next
//  282       MSGpkt = (afIncomingMSGPacket_t *)osal_msg_receive( GenericApp_TaskID );
        ; Setup parameters for call to function osal_msg_receive
??GenericApp_ProcessEvent_2:
        MOV     DPTR,#GenericApp_TaskID
        MOVX    A,@DPTR
        MOV     R1,A
        LCALL   ??osal_msg_receive?relay
        MOV     ?V0 + 0,R2
        MOV     ?V0 + 1,R3
        MOV     A,?V0 + 0
        JNZ     ??GenericApp_ProcessEvent_5
        MOV     A,?V0 + 1
??GenericApp_ProcessEvent_5:
        JZ      ??GenericApp_ProcessEvent_6
        MOV     DPL,?V0 + 0
        MOV     DPH,?V0 + 1
        MOVX    A,@DPTR
        LCALL   ?UC_SWITCH_SPARSE
`?<Jumptable for GenericApp_ProcessEvent>_0`:
        DATA
        DB        0
        DB        4
        DB        26
        DW        ??GenericApp_ProcessEvent_7
        DB        209
        DW        ??GenericApp_ProcessEvent_8
        DB        211
        DW        ??GenericApp_ProcessEvent_3
        DB        253
        DW        ??GenericApp_ProcessEvent_9
        DW        ??GenericApp_ProcessEvent_4
        CODE
??GenericApp_ProcessEvent_9:
        MOV     DPL,?V0 + 0
        MOV     DPH,?V0 + 1
        INC     DPTR
        MOVX    A,@DPTR
        MOV     R4,#0x8
        MOV     R5,#0x0
        JZ      ??GenericApp_ProcessEvent_10
        ; Setup parameters for call to function HalUARTWrite
        MOV     R2,#(`?<Constant "Lost\\r\\n">` & 0xff)
        MOV     R3,#((`?<Constant "Lost\\r\\n">` >> 8) & 0xff)
??GenericApp_ProcessEvent_11:
        MOV     R1,#0x0
        LCALL   ??HalUARTWrite?relay
        SJMP    ??GenericApp_ProcessEvent_4
??GenericApp_ProcessEvent_10:
        ; Setup parameters for call to function HalUARTWrite
        MOV     R2,#(`?<Constant "sent\\r\\n">` & 0xff)
        MOV     R3,#((`?<Constant "sent\\r\\n">` >> 8) & 0xff)
        SJMP    ??GenericApp_ProcessEvent_11
??GenericApp_ProcessEvent_7:
        ; Setup parameters for call to function GenericApp_MessageMSGCB
        MOV     R2,?V0 + 0
        MOV     R3,?V0 + 1
        LCALL   ??GenericApp_MessageMSGCB?relay
        SJMP    ??GenericApp_ProcessEvent_4
??GenericApp_ProcessEvent_8:
        MOV     DPL,?V0 + 0
        MOV     DPH,?V0 + 1
        INC     DPTR
        MOVX    A,@DPTR
        MOV     DPTR,#GenericApp_NwkState
        MOVX    @DPTR,A
        SJMP    ??GenericApp_ProcessEvent_4
//  283     }
//  284 
//  285     // return unprocessed events
//  286     return (events ^ SYS_EVENT_MSG);
??GenericApp_ProcessEvent_6:
        MOV     A,R6
        MOV     R2,A
        MOV     A,#-0x80
        XRL     A,R7
        MOV     R3,A
        SJMP    ??GenericApp_ProcessEvent_12
//  287   }
//  288 
//  289   // Send a message out - This event is generated by a timer
//  290   //  (setup in GenericApp_Init()).
//  291   if ( events & GENERICAPP_SEND_MSG_EVT )
??GenericApp_ProcessEvent_1:
        MOV     A,R6
        MOV     C,0xE0 /* A   */.0
        JNC     ??GenericApp_ProcessEvent_13
//  292   {
//  293     // Send "the" message
//  294     //GenericApp_SendTheMessage();
//  295     // return unprocessed events
//  296     return (events ^ GENERICAPP_SEND_MSG_EVT);
        MOV     A,#0x1
        XRL     A,R6
        MOV     R2,A
        SJMP    ??GenericApp_ProcessEvent_12
//  297   }
//  298   
//  299   if (events & GENERICAPP_UART_RX_EVT) {
??GenericApp_ProcessEvent_13:
        ANL     A,#0x2
        JZ      ??GenericApp_ProcessEvent_14
//  300     //HalUARTWrite(0, "RX_EVT", 7);
//  301     GenericApp_SerialMSGCB();
        ; Setup parameters for call to function GenericApp_SerialMSGCB
        LCALL   ??GenericApp_SerialMSGCB?relay
//  302   }
//  303 
//  304   // Discard unknown events
//  305   return 0;
??GenericApp_ProcessEvent_14:
        MOV     R2,#0x0
        MOV     R3,#0x0
??GenericApp_ProcessEvent_12:
        MOV     R7,#0x4
        LJMP    ?BANKED_LEAVE_XDATA
        CFI EndBlock cfiBlock1
//  306 }
//  307 
//  308 /*********************************************************************
//  309  * Event Generation Functions
//  310  */
//  311  
//  312 /*********************************************************************
//  313  * @fn      GenericApp_ProcessZDOMsgs()
//  314  * @brief   Process response messages
//  315  * @param   none
//  316  * @return  none
//  317  */

        RSEG BANKED_CODE:CODE:NOROOT(0)
//  318 void GenericApp_ProcessZDOMsgs( zdoIncomingMsg_t *inMsg )
GenericApp_ProcessZDOMsgs:
        CFI Block cfiBlock2 Using cfiCommon0
        CFI Function GenericApp_ProcessZDOMsgs
//  319 {
        FUNCALL GenericApp_ProcessZDOMsgs, ZDO_ParseEPListRsp
        LOCFRAME ISTACK, 0, STACK
        LOCFRAME PSTACK, 0, STACK
        LOCFRAME XSTACK, 10, STACK
        LOCFRAME IOVERLAY, 0, STATIC
        LOCFRAME DOVERLAY, 0, STATIC
        ARGFRAME ISTACK, 0, STACK
        ARGFRAME PSTACK, 0, STACK
        ARGFRAME XSTACK, 10, STACK
        ARGFRAME IOVERLAY, 0, STATIC
        ARGFRAME DOVERLAY, 0, STATIC
        FUNCALL GenericApp_ProcessZDOMsgs, HalLedSet
        LOCFRAME ISTACK, 0, STACK
        LOCFRAME PSTACK, 0, STACK
        LOCFRAME XSTACK, 10, STACK
        LOCFRAME IOVERLAY, 0, STATIC
        LOCFRAME DOVERLAY, 0, STATIC
        ARGFRAME ISTACK, 0, STACK
        ARGFRAME PSTACK, 0, STACK
        ARGFRAME XSTACK, 10, STACK
        ARGFRAME IOVERLAY, 0, STATIC
        ARGFRAME DOVERLAY, 0, STATIC
        FUNCALL GenericApp_ProcessZDOMsgs, osal_mem_free
        LOCFRAME ISTACK, 0, STACK
        LOCFRAME PSTACK, 0, STACK
        LOCFRAME XSTACK, 10, STACK
        LOCFRAME IOVERLAY, 0, STATIC
        LOCFRAME DOVERLAY, 0, STATIC
        ARGFRAME ISTACK, 0, STACK
        ARGFRAME PSTACK, 0, STACK
        ARGFRAME XSTACK, 10, STACK
        ARGFRAME IOVERLAY, 0, STATIC
        ARGFRAME DOVERLAY, 0, STATIC
        MOV     A,#-0xa
        LCALL   ?BANKED_ENTER_XDATA
        CFI DPH0 load(1, XDATA, add(CFA_XSP16, literal(-1)))
        CFI DPL0 load(1, XDATA, add(CFA_XSP16, literal(-2)))
        CFI ?BRET_EXT load(1, XDATA, add(CFA_XSP16, literal(-3)))
        CFI ?RET_HIGH load(1, XDATA, add(CFA_XSP16, literal(-4)))
        CFI ?RET_LOW load(1, XDATA, add(CFA_XSP16, literal(-5)))
        CFI R7 load(1, XDATA, add(CFA_XSP16, literal(-6)))
        CFI V1 load(1, XDATA, add(CFA_XSP16, literal(-7)))
        CFI V0 load(1, XDATA, add(CFA_XSP16, literal(-8)))
        CFI VB load(1, XDATA, add(CFA_XSP16, literal(-9)))
        CFI R6 load(1, XDATA, add(CFA_XSP16, literal(-10)))
        CFI CFA_SP SP+0
        CFI CFA_XSP16 add(XSP16, 10)
        ; Saved register size: 10
        ; Auto size: 0
//  320   switch ( inMsg->clusterID )
        MOV     A,R2
        ADD     A,#0xc
        MOV     DPL,A
        MOV     A,R3
        ADDC    A,#0x0
        MOV     DPH,A
        MOVX    A,@DPTR
        XRL     A,#0x6
        JNZ     ??GenericApp_ProcessZDOMsgs_0
        INC     DPTR
        MOVX    A,@DPTR
        XRL     A,#0x80
??GenericApp_ProcessZDOMsgs_0:
        JNZ     ??GenericApp_ProcessZDOMsgs_1
//  321   {
//  322     case Match_Desc_rsp:
//  323       {
//  324         ZDO_ActiveEndpointRsp_t *pRsp = ZDO_ParseEPListRsp( inMsg );
        ; Setup parameters for call to function ZDO_ParseEPListRsp
        LCALL   ??ZDO_ParseEPListRsp?relay
        MOV     ?V0 + 0,R2
        MOV     ?V0 + 1,R3
        MOV     R6,?V0 + 0
        MOV     R7,?V0 + 1
//  325         if ( pRsp )
        MOV     A,R6
        JNZ     ??GenericApp_ProcessZDOMsgs_2
        MOV     A,R7
??GenericApp_ProcessZDOMsgs_2:
        JZ      ??GenericApp_ProcessZDOMsgs_1
//  326         {
//  327           if ( pRsp->status == ZSuccess && pRsp->cnt )
        MOV     DPL,R6
        MOV     DPH,R7
        MOVX    A,@DPTR
        JNZ     ??GenericApp_ProcessZDOMsgs_3
        INC     DPTR
        INC     DPTR
        INC     DPTR
        MOVX    A,@DPTR
        JZ      ??GenericApp_ProcessZDOMsgs_3
//  328           {
//  329             GenericApp_DstAddr.addrMode = (afAddrMode_t)Addr16Bit;
        MOV     A,#0x2
        MOV     DPTR,#(GenericApp_DstAddr + 8)
        MOVX    @DPTR,A
//  330             GenericApp_DstAddr.addr.shortAddr = pRsp->nwkAddr;
        MOV     DPL,R6
        MOV     DPH,R7
        INC     DPTR
        MOVX    A,@DPTR
        MOV     R0,A
        INC     DPTR
        MOVX    A,@DPTR
        MOV     R1,A
        MOV     DPTR,#GenericApp_DstAddr
        MOV     A,R0
        MOVX    @DPTR,A
        INC     DPTR
        MOV     A,R1
        MOVX    @DPTR,A
//  331             // Take the first endpoint, Can be changed to search through endpoints
//  332             GenericApp_DstAddr.endPoint = pRsp->epList[0];
        MOV     DPL,R6
        MOV     DPH,R7
        INC     DPTR
        INC     DPTR
        INC     DPTR
        INC     DPTR
        MOVX    A,@DPTR
        MOV     DPTR,#(GenericApp_DstAddr + 9)
        MOVX    @DPTR,A
//  333             // Light LED
//  334             HalLedSet( HAL_LED_4, HAL_LED_MODE_ON );
        ; Setup parameters for call to function HalLedSet
        MOV     R2,#0x1
        MOV     R1,#0x8
        LCALL   ??HalLedSet?relay
//  335           }
//  336           osal_mem_free( pRsp );
??GenericApp_ProcessZDOMsgs_3:
        ; Setup parameters for call to function osal_mem_free
        MOV     A,R6
        MOV     R2,A
        MOV     A,R7
        MOV     R3,A
        LCALL   ??osal_mem_free?relay
        CFI EndBlock cfiBlock2
//  337         }
//  338       }
//  339       break;
//  340   }
//  341 }
??GenericApp_ProcessZDOMsgs_1:
        REQUIRE ?Subroutine0
        ; // Fall through to label ?Subroutine0

        RSEG BANKED_CODE:CODE:NOROOT(0)
?Subroutine0:
        CFI Block cfiBlock3 Using cfiCommon0
        CFI NoFunction
        CFI CFA_SP SP+0
        CFI CFA_XSP16 add(XSP16, 10)
        CFI VB load(1, XDATA, add(CFA_XSP16, literal(-9)))
        CFI DPL0 load(1, XDATA, add(CFA_XSP16, literal(-2)))
        CFI DPH0 load(1, XDATA, add(CFA_XSP16, literal(-1)))
        CFI R6 load(1, XDATA, add(CFA_XSP16, literal(-10)))
        CFI R7 load(1, XDATA, add(CFA_XSP16, literal(-6)))
        CFI V0 load(1, XDATA, add(CFA_XSP16, literal(-8)))
        CFI V1 load(1, XDATA, add(CFA_XSP16, literal(-7)))
        CFI ?BRET_EXT load(1, XDATA, add(CFA_XSP16, literal(-3)))
        CFI ?RET_HIGH load(1, XDATA, add(CFA_XSP16, literal(-4)))
        CFI ?RET_LOW load(1, XDATA, add(CFA_XSP16, literal(-5)))
        MOV     R7,#0x2
        LJMP    ?BANKED_LEAVE_XDATA
        CFI EndBlock cfiBlock3
//  342 
//  343 
//  344 /*********************************************************************
//  345  * LOCAL FUNCTIONS
//  346  */
//  347 
//  348 /*********************************************************************
//  349  * @fn      GenericApp_MessageMSGCB
//  350  * @brief   Data message processor callback.  This function processes
//  351  *          any incoming data - probably from other devices.  So, based
//  352  *          on cluster ID, perform the intended action.
//  353  * @param   none
//  354  * @return  none
//  355  */

        RSEG BANKED_CODE:CODE:NOROOT(0)
//  356 void GenericApp_MessageMSGCB( afIncomingMSGPacket_t *pkt )
GenericApp_MessageMSGCB:
        CFI Block cfiBlock4 Using cfiCommon0
        CFI Function GenericApp_MessageMSGCB
//  357 {
        FUNCALL GenericApp_MessageMSGCB, APSME_LookupExtAddr
        LOCFRAME ISTACK, 0, STACK
        LOCFRAME PSTACK, 0, STACK
        LOCFRAME XSTACK, 29, STACK
        LOCFRAME IOVERLAY, 0, STATIC
        LOCFRAME DOVERLAY, 0, STATIC
        ARGFRAME ISTACK, 0, STACK
        ARGFRAME PSTACK, 0, STACK
        ARGFRAME XSTACK, 29, STACK
        ARGFRAME IOVERLAY, 0, STATIC
        ARGFRAME DOVERLAY, 0, STATIC
        FUNCALL GenericApp_MessageMSGCB, osal_memcmp
        LOCFRAME ISTACK, 0, STACK
        LOCFRAME PSTACK, 0, STACK
        LOCFRAME XSTACK, 32, STACK
        LOCFRAME IOVERLAY, 0, STATIC
        LOCFRAME DOVERLAY, 0, STATIC
        ARGFRAME ISTACK, 0, STACK
        ARGFRAME PSTACK, 0, STACK
        ARGFRAME XSTACK, 32, STACK
        ARGFRAME IOVERLAY, 0, STATIC
        ARGFRAME DOVERLAY, 0, STATIC
        FUNCALL GenericApp_MessageMSGCB, osal_memcpy
        LOCFRAME ISTACK, 0, STACK
        LOCFRAME PSTACK, 0, STACK
        LOCFRAME XSTACK, 32, STACK
        LOCFRAME IOVERLAY, 0, STATIC
        LOCFRAME DOVERLAY, 0, STATIC
        ARGFRAME ISTACK, 0, STACK
        ARGFRAME PSTACK, 0, STACK
        ARGFRAME XSTACK, 32, STACK
        ARGFRAME IOVERLAY, 0, STATIC
        ARGFRAME DOVERLAY, 0, STATIC
        FUNCALL GenericApp_MessageMSGCB, osal_memcpy
        LOCFRAME ISTACK, 0, STACK
        LOCFRAME PSTACK, 0, STACK
        LOCFRAME XSTACK, 32, STACK
        LOCFRAME IOVERLAY, 0, STATIC
        LOCFRAME DOVERLAY, 0, STATIC
        ARGFRAME ISTACK, 0, STACK
        ARGFRAME PSTACK, 0, STACK
        ARGFRAME XSTACK, 32, STACK
        ARGFRAME IOVERLAY, 0, STATIC
        ARGFRAME DOVERLAY, 0, STATIC
        FUNCALL GenericApp_MessageMSGCB, str_reverse
        LOCFRAME ISTACK, 0, STACK
        LOCFRAME PSTACK, 0, STACK
        LOCFRAME XSTACK, 29, STACK
        LOCFRAME IOVERLAY, 0, STATIC
        LOCFRAME DOVERLAY, 0, STATIC
        ARGFRAME ISTACK, 0, STACK
        ARGFRAME PSTACK, 0, STACK
        ARGFRAME XSTACK, 29, STACK
        ARGFRAME IOVERLAY, 0, STATIC
        ARGFRAME DOVERLAY, 0, STATIC
        FUNCALL GenericApp_MessageMSGCB, HalUARTWrite
        LOCFRAME ISTACK, 0, STACK
        LOCFRAME PSTACK, 0, STACK
        LOCFRAME XSTACK, 29, STACK
        LOCFRAME IOVERLAY, 0, STATIC
        LOCFRAME DOVERLAY, 0, STATIC
        ARGFRAME ISTACK, 0, STACK
        ARGFRAME PSTACK, 0, STACK
        ARGFRAME XSTACK, 29, STACK
        ARGFRAME IOVERLAY, 0, STATIC
        ARGFRAME DOVERLAY, 0, STATIC
        MOV     A,#-0xf
        LCALL   ?BANKED_ENTER_XDATA
        CFI DPH0 load(1, XDATA, add(CFA_XSP16, literal(-1)))
        CFI DPL0 load(1, XDATA, add(CFA_XSP16, literal(-2)))
        CFI ?BRET_EXT load(1, XDATA, add(CFA_XSP16, literal(-3)))
        CFI ?RET_HIGH load(1, XDATA, add(CFA_XSP16, literal(-4)))
        CFI ?RET_LOW load(1, XDATA, add(CFA_XSP16, literal(-5)))
        CFI R7 load(1, XDATA, add(CFA_XSP16, literal(-6)))
        CFI V6 load(1, XDATA, add(CFA_XSP16, literal(-7)))
        CFI V5 load(1, XDATA, add(CFA_XSP16, literal(-8)))
        CFI V4 load(1, XDATA, add(CFA_XSP16, literal(-9)))
        CFI V3 load(1, XDATA, add(CFA_XSP16, literal(-10)))
        CFI V2 load(1, XDATA, add(CFA_XSP16, literal(-11)))
        CFI V1 load(1, XDATA, add(CFA_XSP16, literal(-12)))
        CFI V0 load(1, XDATA, add(CFA_XSP16, literal(-13)))
        CFI VB load(1, XDATA, add(CFA_XSP16, literal(-14)))
        CFI R6 load(1, XDATA, add(CFA_XSP16, literal(-15)))
        CFI CFA_SP SP+0
        CFI CFA_XSP16 add(XSP16, 15)
        ; Saved register size: 15
        ; Auto size: 14
        MOV     A,#-0xe
        LCALL   ?ALLOC_XSTACK8
        CFI CFA_XSP16 add(XSP16, 29)
        MOV     A,R2
        MOV     R6,A
        MOV     A,R3
        MOV     R7,A
//  358   unsigned char temp_extAddr[8];
//  359   unsigned char i = 0;
//  360   unsigned char existed = 0;
//  361   unsigned char buffer[6] = "";
        MOV     DPL,?XSP + 0
        MOV     DPH,?XSP + 1
        MOV     R4,DPL
        MOV     R5,DPH
        MOV     DPH,#((`?<Constant "">` >> 8) & 0xff)
        MOV     DPL,#(`?<Constant "">` & 0xff)
        MOV     A,#0x6
        LCALL   ?MOVE_LONG8_XDATA_XDATA
//  362   switch ( pkt->clusterId )
        MOV     DPL,R6
        MOV     DPH,R7
        INC     DPTR
        INC     DPTR
        INC     DPTR
        INC     DPTR
        MOVX    A,@DPTR
        XRL     A,#0x1
        JNZ     ??GenericApp_MessageMSGCB_0
        INC     DPTR
        MOVX    A,@DPTR
??GenericApp_MessageMSGCB_0:
        JZ      $+5
        LJMP    ??GenericApp_MessageMSGCB_1 & 0xFFFF
//  363   {
//  364     case GENERICAPP_CLUSTERID:
//  365       {// "the" message
//  366         (void)APSME_LookupExtAddr(pkt->srcAddr.addr.shortAddr, temp_extAddr);
        ; Setup parameters for call to function APSME_LookupExtAddr
        MOV     A,#0x6
        LCALL   ?XSTACK_DISP0_8
        MOV     R4,DPL
        MOV     R5,DPH
        MOV     DPL,R6
        MOV     DPH,R7
        INC     DPTR
        INC     DPTR
        INC     DPTR
        INC     DPTR
        INC     DPTR
        INC     DPTR
        MOVX    A,@DPTR
        MOV     R2,A
        INC     DPTR
        MOVX    A,@DPTR
        MOV     R3,A
        LCALL   ??APSME_LookupExtAddr?relay
//  367         for (i = 0; i < device_count+1; i++) {  // to see whether the device ever connected
        MOV     ?V0 + 0,#0x0
        SJMP    ??GenericApp_MessageMSGCB_2
//  368           if (osal_memcmp(EndDeviceInfos[i].extAddr, temp_extAddr, 8)) { //if existed, break;
??GenericApp_MessageMSGCB_3:
        ; Setup parameters for call to function osal_memcmp
        LCALL   ?XSTACK_DISP0_8
        MOV     R1,DPL
        MOV     R2,DPH
        MOV     ?V0 + 4,R1
        MOV     ?V0 + 5,R2
        MOV     ?V0 + 6,#0x0
        MOV     R0,#?V0 + 4
        LCALL   ?PUSH_XSTACK_I_THREE
        CFI CFA_XSP16 add(XSP16, 32)
        MOV     R4,#0x8
        MOV     R5,#0x0
        MOV     A,?V0 + 0
        MOV     B,#0xa
        MUL     AB
        ADD     A,#((EndDeviceInfos + 1) & 0xff)
        MOV     ?V0 + 2,A
        MOV     A,B
        ADDC    A,#(((EndDeviceInfos + 1) >> 8) & 0xff)
        MOV     R1,?V0 + 2
        MOV     R2,A
        MOV     R3,#0x0
        LCALL   ??osal_memcmp?relay
        MOV     A,#0x3
        LCALL   ?DEALLOC_XSTACK8
        CFI CFA_XSP16 add(XSP16, 29)
        MOV     A,R1
        JZ      $+5
        LJMP    ??GenericApp_MessageMSGCB_4 & 0xFFFF
//  369             existed = 1;
//  370             //HalUARTWrite(0, "Existed!\r\n",12);
//  371             break;
//  372           }
//  373         }
        INC     ?V0 + 0
??GenericApp_MessageMSGCB_2:
        MOV     ?V0 + 2,?V0 + 0
        MOV     DPTR,#device_count
        MOVX    A,@DPTR
        MOV     R0,A
        MOV     A,#0x1
        ADD     A,R0
        INC     R0
        CLR     A
        ADDC    A,#0x0
        MOV     R1,A
        MOV     A,?V0 + 2
        SUBB    A,R0
        CLR     A
        SUBB    A,R1
        CLR     C
        XRL     A,PSW
        RLC     A
        MOV     A,#0x6
        JC      ??GenericApp_MessageMSGCB_3
//  374         if (!existed) {  //not connected before, register
//  375           //HalUARTWrite(0, "New Device!\r\n",15);
//  376           osal_memcpy(EndDeviceInfos[device_count].extAddr, temp_extAddr, 8);
        ; Setup parameters for call to function osal_memcpy
        LCALL   ?XSTACK_DISP0_8
        MOV     R1,DPL
        MOV     R2,DPH
        MOV     ?V0 + 0,R1
        MOV     ?V0 + 1,R2
        MOV     ?V0 + 2,#0x0
        MOV     R0,#?V0 + 0
        LCALL   ?PUSH_XSTACK_I_THREE
        CFI CFA_XSP16 add(XSP16, 32)
        MOV     R4,#0x8
        MOV     R5,#0x0
        MOV     DPTR,#device_count
        MOVX    A,@DPTR
        MOV     B,#0xa
        MUL     AB
        ADD     A,#((EndDeviceInfos + 1) & 0xff)
        MOV     R2,A
        MOV     A,B
        ADDC    A,#(((EndDeviceInfos + 1) >> 8) & 0xff)
        MOV     R3,A
        LCALL   ??osal_memcpy?relay
        MOV     A,#0x3
        LCALL   ?DEALLOC_XSTACK8
        CFI CFA_XSP16 add(XSP16, 29)
//  377           EndDeviceInfos[device_count].endPoint = pkt->srcAddr.endPoint;
        MOV     A,R6
        ADD     A,#0xf
        MOV     DPL,A
        MOV     A,R7
        ADDC    A,#0x0
        MOV     DPH,A
        MOVX    A,@DPTR
        MOV     R3,A
        MOV     DPTR,#device_count
        MOVX    A,@DPTR
        MOV     B,#0xa
        MUL     AB
        ADD     A,#(EndDeviceInfos & 0xff)
        MOV     DPL,A
        MOV     A,B
        ADDC    A,#((EndDeviceInfos >> 8) & 0xff)
        MOV     DPH,A
        MOV     A,R3
        MOVX    @DPTR,A
//  378           EndDeviceInfos[device_count].compressed_addr = GENERICAPP_ENDPOINT | EndDeviceInfos[device_count].endPoint;
        MOV     A,#0x20
        ORL     A,R3
        INC     DPTR
        INC     DPTR
        INC     DPTR
        INC     DPTR
        INC     DPTR
        INC     DPTR
        INC     DPTR
        INC     DPTR
        INC     DPTR
        MOVX    @DPTR,A
//  379           device_count++;
        MOV     DPTR,#device_count
        MOVX    A,@DPTR
        INC     A
        MOVX    @DPTR,A
//  380         }
//  381         if (device_count == 16) { device_count = 0;}  //in case to overflow
??GenericApp_MessageMSGCB_4:
        MOV     DPTR,#device_count
        MOVX    A,@DPTR
        XRL     A,#0x10
        JNZ     ??GenericApp_MessageMSGCB_5
        CLR     A
        MOVX    @DPTR,A
//  382         //TO DO: process data received, send it to slave machine
//  383         osal_memcpy(&buffer[0], pkt->cmd.Data, 6);
??GenericApp_MessageMSGCB_5:
        ; Setup parameters for call to function osal_memcpy
        MOV     A,R6
        ADD     A,#0x21
        MOV     DPL,A
        MOV     A,R7
        ADDC    A,#0x0
        MOV     DPH,A
        MOVX    A,@DPTR
        MOV     ?V0 + 0,A
        INC     DPTR
        MOVX    A,@DPTR
        MOV     ?V0 + 1,A
        MOV     ?V0 + 2,#0x0
        MOV     R0,#?V0 + 0
        LCALL   ?PUSH_XSTACK_I_THREE
        CFI CFA_XSP16 add(XSP16, 32)
        MOV     R4,#0x6
        MOV     R5,#0x0
        MOV     A,#0x3
        LCALL   ?XSTACK_DISP0_8
        MOV     R2,DPL
        MOV     R3,DPH
        LCALL   ??osal_memcpy?relay
        MOV     A,#0x3
        LCALL   ?DEALLOC_XSTACK8
        CFI CFA_XSP16 add(XSP16, 29)
//  384         str_reverse((char*)&buffer[3], 1);
        ; Setup parameters for call to function str_reverse
        MOV     R4,#0x1
        MOV     R5,#0x0
        MOV     A,#0x3
        LCALL   ?XSTACK_DISP0_8
        MOV     R2,DPL
        MOV     R3,DPH
        LCALL   ??str_reverse?relay
//  385         //HalUARTWrite(0, pkt->cmd.Data, 5);//osal_strlen(pkt->cmd.Data)
//  386         HalUARTWrite(0, &buffer[0], 6);
        ; Setup parameters for call to function HalUARTWrite
        MOV     R4,#0x6
        MOV     R5,#0x0
        MOV     DPL,?XSP + 0
        MOV     DPH,?XSP + 1
        MOV     R2,DPL
        MOV     R3,DPH
        MOV     R1,#0x0
        LCALL   ??HalUARTWrite?relay
//  387         break;
//  388       }
//  389   }
//  390 }
??GenericApp_MessageMSGCB_1:
        MOV     A,#0xe
        LCALL   ?DEALLOC_XSTACK8
        CFI CFA_XSP16 add(XSP16, 15)
        MOV     R7,#0x7
        LJMP    ?BANKED_LEAVE_XDATA
        CFI EndBlock cfiBlock4
//  391 
//  392 /*********************************************************************
//  393  * @fn      GenericApp_SendTheMessage
//  394  * @brief   Send "the" message.
//  395  * @param   none
//  396  * @return  none
//  397  */

        RSEG BANKED_CODE:CODE:NOROOT(0)
//  398 void GenericApp_SendTheMessage( unsigned char dest_endID, unsigned char cmd, unsigned int data)
GenericApp_SendTheMessage:
        CFI Block cfiBlock5 Using cfiCommon0
        CFI Function GenericApp_SendTheMessage
//  399 {
        FUNCALL GenericApp_SendTheMessage, osal_buffer_uint16
        LOCFRAME ISTACK, 0, STACK
        LOCFRAME PSTACK, 0, STACK
        LOCFRAME XSTACK, 17, STACK
        LOCFRAME IOVERLAY, 0, STATIC
        LOCFRAME DOVERLAY, 0, STATIC
        ARGFRAME ISTACK, 0, STACK
        ARGFRAME PSTACK, 0, STACK
        ARGFRAME XSTACK, 17, STACK
        ARGFRAME IOVERLAY, 0, STATIC
        ARGFRAME DOVERLAY, 0, STATIC
        FUNCALL GenericApp_SendTheMessage, osal_memcpy
        LOCFRAME ISTACK, 0, STACK
        LOCFRAME PSTACK, 0, STACK
        LOCFRAME XSTACK, 20, STACK
        LOCFRAME IOVERLAY, 0, STATIC
        LOCFRAME DOVERLAY, 0, STATIC
        ARGFRAME ISTACK, 0, STACK
        ARGFRAME PSTACK, 0, STACK
        ARGFRAME XSTACK, 20, STACK
        ARGFRAME IOVERLAY, 0, STATIC
        ARGFRAME DOVERLAY, 0, STATIC
        FUNCALL GenericApp_SendTheMessage, AF_DataRequest
        LOCFRAME ISTACK, 0, STACK
        LOCFRAME PSTACK, 0, STACK
        LOCFRAME XSTACK, 26, STACK
        LOCFRAME IOVERLAY, 0, STATIC
        LOCFRAME DOVERLAY, 0, STATIC
        ARGFRAME ISTACK, 0, STACK
        ARGFRAME PSTACK, 0, STACK
        ARGFRAME XSTACK, 26, STACK
        ARGFRAME IOVERLAY, 0, STATIC
        ARGFRAME DOVERLAY, 0, STATIC
        MOV     A,#-0xb
        LCALL   ?BANKED_ENTER_XDATA
        CFI DPH0 load(1, XDATA, add(CFA_XSP16, literal(-1)))
        CFI DPL0 load(1, XDATA, add(CFA_XSP16, literal(-2)))
        CFI ?BRET_EXT load(1, XDATA, add(CFA_XSP16, literal(-3)))
        CFI ?RET_HIGH load(1, XDATA, add(CFA_XSP16, literal(-4)))
        CFI ?RET_LOW load(1, XDATA, add(CFA_XSP16, literal(-5)))
        CFI R7 load(1, XDATA, add(CFA_XSP16, literal(-6)))
        CFI V2 load(1, XDATA, add(CFA_XSP16, literal(-7)))
        CFI V1 load(1, XDATA, add(CFA_XSP16, literal(-8)))
        CFI V0 load(1, XDATA, add(CFA_XSP16, literal(-9)))
        CFI VB load(1, XDATA, add(CFA_XSP16, literal(-10)))
        CFI R6 load(1, XDATA, add(CFA_XSP16, literal(-11)))
        CFI CFA_SP SP+0
        CFI CFA_XSP16 add(XSP16, 11)
        ; Saved register size: 11
        ; Auto size: 6
        MOV     A,#-0x6
        LCALL   ?ALLOC_XSTACK8
        CFI CFA_XSP16 add(XSP16, 17)
        MOV     A,R1
        MOV     R6,A
        MOV     A,R2
        MOV     R7,A
        MOV     A,R4
        MOV     R0,A
        MOV     A,R5
        MOV     R1,A
//  400   unsigned char theMessageData[6] = "";
        MOV     DPL,?XSP + 0
        MOV     DPH,?XSP + 1
        MOV     R4,DPL
        MOV     R5,DPH
        MOV     DPH,#((`?<Constant "">_1` >> 8) & 0xff)
        MOV     DPL,#(`?<Constant "">_1` & 0xff)
        MOV     A,#0x6
        LCALL   ?MOVE_LONG8_XDATA_XDATA
//  401   theMessageData[0] = 0xCC;  //beginning check byte
        MOV     A,#-0x34
        MOV     DPL,?XSP + 0
        MOV     DPH,?XSP + 1
        MOVX    @DPTR,A
//  402   theMessageData[1] = EndDeviceInfos[dest_endID].compressed_addr;
        MOV     A,R6
        MOV     B,#0xa
        MUL     AB
        ADD     A,#(EndDeviceInfos & 0xff)
        MOV     ?V0 + 0,A
        MOV     A,B
        ADDC    A,#((EndDeviceInfos >> 8) & 0xff)
        MOV     ?V0 + 1,A
        MOV     DPL,?V0 + 0
        MOV     DPH,A
        INC     DPTR
        INC     DPTR
        INC     DPTR
        INC     DPTR
        INC     DPTR
        INC     DPTR
        INC     DPTR
        INC     DPTR
        INC     DPTR
        MOVX    A,@DPTR
        PUSH    A
        CFI CFA_SP SP+-1
        MOV     A,#0x1
        LCALL   ?XSTACK_DISP0_8
        POP     A
        CFI CFA_SP SP+0
        MOVX    @DPTR,A
//  403   theMessageData[2] = cmd;
        MOV     A,#0x2
        LCALL   ?XSTACK_DISP0_8
        MOV     A,R7
        MOVX    @DPTR,A
//  404   osal_buffer_uint16(&theMessageData[3], data);
        ; Setup parameters for call to function osal_buffer_uint16
        MOV     A,R0
        MOV     R4,A
        MOV     A,R1
        MOV     R5,A
        MOV     A,#0x3
        LCALL   ?XSTACK_DISP0_8
        MOV     R2,DPL
        MOV     R3,DPH
        LCALL   ??osal_buffer_uint16?relay
//  405   theMessageData[5] = 0x33;  //end check byte
        MOV     A,#0x5
        LCALL   ?XSTACK_DISP0_8
        MOV     A,#0x33
        MOVX    @DPTR,A
//  406   //set the destination below
//  407   GenericApp_DstAddr.addrMode = (afAddrMode_t)Addr64Bit;
        MOV     A,#0x3
        MOV     DPTR,#(GenericApp_DstAddr + 8)
        MOVX    @DPTR,A
//  408   GenericApp_DstAddr.endPoint = EndDeviceInfos[dest_endID].endPoint;
        MOV     DPL,?V0 + 0
        MOV     DPH,?V0 + 1
        MOVX    A,@DPTR
        MOV     DPTR,#(GenericApp_DstAddr + 9)
        MOVX    @DPTR,A
//  409   osal_memcpy(GenericApp_DstAddr.addr.extAddr, EndDeviceInfos[dest_endID].extAddr, 8);
        ; Setup parameters for call to function osal_memcpy
        MOV     DPL,?V0 + 0
        MOV     DPH,?V0 + 1
        INC     DPTR
        MOV     R1,DPL
        MOV     R2,DPH
        MOV     ?V0 + 0,R1
        MOV     ?V0 + 1,R2
        MOV     ?V0 + 2,#0x0
        MOV     R0,#?V0 + 0
        LCALL   ?PUSH_XSTACK_I_THREE
        CFI CFA_XSP16 add(XSP16, 20)
        MOV     R4,#0x8
        MOV     R5,#0x0
        MOV     R2,#(GenericApp_DstAddr & 0xff)
        MOV     R3,#((GenericApp_DstAddr >> 8) & 0xff)
        LCALL   ??osal_memcpy?relay
        MOV     A,#0x3
        LCALL   ?DEALLOC_XSTACK8
        CFI CFA_XSP16 add(XSP16, 17)
//  410   
//  411   if ( AF_DataRequest( &GenericApp_DstAddr, &GenericApp_epDesc,
//  412                        GENERICAPP_CLUSTERID,
//  413                        7,//send one more char or the last char might be missing
//  414                        theMessageData,
//  415                        &GenericApp_TransID,
//  416                        AF_DISCV_ROUTE, AF_DEFAULT_RADIUS ) == afStatus_SUCCESS )                     
        ; Setup parameters for call to function AF_DataRequest
        MOV     ?V0 + 0,#0x1e
        MOV     R0,#?V0 + 0
        LCALL   ?PUSH_XSTACK_I_ONE
        CFI CFA_XSP16 add(XSP16, 18)
        MOV     ?V0 + 0,#(GenericApp_TransID & 0xff)
        MOV     ?V0 + 1,#((GenericApp_TransID >> 8) & 0xff)
        MOV     R0,#?V0 + 0
        LCALL   ?PUSH_XSTACK_I_TWO
        CFI CFA_XSP16 add(XSP16, 20)
        MOV     A,#0x3
        LCALL   ?XSTACK_DISP0_8
        MOV     ?V0 + 0,DPL
        MOV     ?V0 + 1,DPH
        MOV     R0,#?V0 + 0
        LCALL   ?PUSH_XSTACK_I_TWO
        CFI CFA_XSP16 add(XSP16, 22)
        MOV     ?V0 + 0,#0x7
        MOV     ?V0 + 1,#0x0
        MOV     R0,#?V0 + 0
        LCALL   ?PUSH_XSTACK_I_TWO
        CFI CFA_XSP16 add(XSP16, 24)
        MOV     ?V0 + 0,#0x1
        MOV     R0,#?V0 + 0
        LCALL   ?PUSH_XSTACK_I_TWO
        CFI CFA_XSP16 add(XSP16, 26)
        MOV     R1,#0x20
        MOV     R4,#(GenericApp_epDesc & 0xff)
        MOV     R5,#((GenericApp_epDesc >> 8) & 0xff)
        MOV     R2,#(GenericApp_DstAddr & 0xff)
        MOV     R3,#((GenericApp_DstAddr >> 8) & 0xff)
        LCALL   ??AF_DataRequest?relay
        MOV     A,#0x9
        LCALL   ?DEALLOC_XSTACK8
        CFI CFA_XSP16 add(XSP16, 17)
//  417   {
//  418     // Successfully requested to be sent.
//  419     //HalUARTWrite(0, "Sent\r\n", 8);
//  420   }
//  421   else
//  422   {
//  423     // Error occurred in request to send.
//  424   }
//  425 }
        MOV     A,#0x6
        LCALL   ?DEALLOC_XSTACK8
        CFI CFA_XSP16 add(XSP16, 11)
        MOV     R7,#0x3
        LJMP    ?BANKED_LEAVE_XDATA
        CFI EndBlock cfiBlock5
//  426 
//  427 
//  428 //@fn: GenericApp_SerialMSGCB
//  429 //@breif: process data received by UART, used to execute cmds from slave machine
//  430 //@param: none
//  431 //@return: none

        RSEG BANKED_CODE:CODE:NOROOT(0)
//  432 void GenericApp_SerialMSGCB(void)
GenericApp_SerialMSGCB:
        CFI Block cfiBlock6 Using cfiCommon0
        CFI Function GenericApp_SerialMSGCB
//  433 {
        FUNCALL GenericApp_SerialMSGCB, HalUARTRead
        LOCFRAME ISTACK, 0, STACK
        LOCFRAME PSTACK, 0, STACK
        LOCFRAME XSTACK, 17, STACK
        LOCFRAME IOVERLAY, 0, STATIC
        LOCFRAME DOVERLAY, 0, STATIC
        ARGFRAME ISTACK, 0, STACK
        ARGFRAME PSTACK, 0, STACK
        ARGFRAME XSTACK, 17, STACK
        ARGFRAME IOVERLAY, 0, STATIC
        ARGFRAME DOVERLAY, 0, STATIC
        FUNCALL GenericApp_SerialMSGCB, osal_build_uint16
        LOCFRAME ISTACK, 0, STACK
        LOCFRAME PSTACK, 0, STACK
        LOCFRAME XSTACK, 17, STACK
        LOCFRAME IOVERLAY, 0, STATIC
        LOCFRAME DOVERLAY, 0, STATIC
        ARGFRAME ISTACK, 0, STACK
        ARGFRAME PSTACK, 0, STACK
        ARGFRAME XSTACK, 17, STACK
        ARGFRAME IOVERLAY, 0, STATIC
        ARGFRAME DOVERLAY, 0, STATIC
        FUNCALL GenericApp_SerialMSGCB, HalUARTWrite
        LOCFRAME ISTACK, 0, STACK
        LOCFRAME PSTACK, 0, STACK
        LOCFRAME XSTACK, 17, STACK
        LOCFRAME IOVERLAY, 0, STATIC
        LOCFRAME DOVERLAY, 0, STATIC
        ARGFRAME ISTACK, 0, STACK
        ARGFRAME PSTACK, 0, STACK
        ARGFRAME XSTACK, 17, STACK
        ARGFRAME IOVERLAY, 0, STATIC
        ARGFRAME DOVERLAY, 0, STATIC
        FUNCALL GenericApp_SerialMSGCB, GenericApp_SendTheMessage
        LOCFRAME ISTACK, 0, STACK
        LOCFRAME PSTACK, 0, STACK
        LOCFRAME XSTACK, 17, STACK
        LOCFRAME IOVERLAY, 0, STATIC
        LOCFRAME DOVERLAY, 0, STATIC
        ARGFRAME ISTACK, 0, STACK
        ARGFRAME PSTACK, 0, STACK
        ARGFRAME XSTACK, 17, STACK
        ARGFRAME IOVERLAY, 0, STATIC
        ARGFRAME DOVERLAY, 0, STATIC
        MOV     A,#-0xa
        LCALL   ?BANKED_ENTER_XDATA
        CFI DPH0 load(1, XDATA, add(CFA_XSP16, literal(-1)))
        CFI DPL0 load(1, XDATA, add(CFA_XSP16, literal(-2)))
        CFI ?BRET_EXT load(1, XDATA, add(CFA_XSP16, literal(-3)))
        CFI ?RET_HIGH load(1, XDATA, add(CFA_XSP16, literal(-4)))
        CFI ?RET_LOW load(1, XDATA, add(CFA_XSP16, literal(-5)))
        CFI R7 load(1, XDATA, add(CFA_XSP16, literal(-6)))
        CFI V1 load(1, XDATA, add(CFA_XSP16, literal(-7)))
        CFI V0 load(1, XDATA, add(CFA_XSP16, literal(-8)))
        CFI VB load(1, XDATA, add(CFA_XSP16, literal(-9)))
        CFI R6 load(1, XDATA, add(CFA_XSP16, literal(-10)))
        CFI CFA_SP SP+0
        CFI CFA_XSP16 add(XSP16, 10)
        ; Saved register size: 10
        ; Auto size: 7
        MOV     A,#-0x7
        LCALL   ?ALLOC_XSTACK8
        CFI CFA_XSP16 add(XSP16, 17)
//  434   unsigned char dest_endID = 0; //this number is the index of EndDeviceInfos
//  435   unsigned int data = 0;
//  436   unsigned char buf [7] = "";
        MOV     DPL,?XSP + 0
        MOV     DPH,?XSP + 1
        MOV     R4,DPL
        MOV     R5,DPH
        MOV     DPH,#((`?<Constant "">_2` >> 8) & 0xff)
        MOV     DPL,#(`?<Constant "">_2` & 0xff)
        MOV     A,#0x7
        LCALL   ?MOVE_LONG8_XDATA_XDATA
//  437  // printf("UART received!");
//  438   HalUARTRead(0, buf, 6);
        ; Setup parameters for call to function HalUARTRead
        MOV     R4,#0x6
        MOV     R5,A
        MOV     DPL,?XSP + 0
        MOV     DPH,?XSP + 1
        MOV     R2,DPL
        MOV     R3,DPH
        MOV     R1,A
        LCALL   ??HalUARTRead?relay
//  439   if ( (buf[1] & GENERICAPP_ENDPOINT) && (buf[0] == 0xCC) && (buf[5] == 0x33)) {  //make sure cmd send to this device
        MOV     A,#0x1
        LCALL   ?XSTACK_DISP0_8
        MOVX    A,@DPTR
        MOV     C,0xE0 /* A   */.5
        JNC     ??GenericApp_SerialMSGCB_0
        MOV     DPL,?XSP + 0
        MOV     DPH,?XSP + 1
        MOVX    A,@DPTR
        XRL     A,#0xcc
        JNZ     ??GenericApp_SerialMSGCB_0
        MOV     A,#0x5
        LCALL   ?XSTACK_DISP0_8
        MOVX    A,@DPTR
        XRL     A,#0x33
        JNZ     ??GenericApp_SerialMSGCB_0
//  440     dest_endID = buf[0] & 0x1F; //get destnation endPoint from uart message
//  441     data = osal_build_uint16(&buf[3]);
        ; Setup parameters for call to function osal_build_uint16
        MOV     A,#0x3
        LCALL   ?XSTACK_DISP0_8
        MOV     R2,DPL
        MOV     R3,DPH
        LCALL   ??osal_build_uint16?relay
        MOV     ?V0 + 0,R2
        MOV     ?V0 + 1,R3
//  442     HalUARTWrite(0, buf, 6);
        ; Setup parameters for call to function HalUARTWrite
        MOV     R4,#0x6
        MOV     R5,#0x0
        MOV     DPL,?XSP + 0
        MOV     DPH,?XSP + 1
        MOV     R2,DPL
        MOV     R3,DPH
        MOV     R1,#0x0
        LCALL   ??HalUARTWrite?relay
//  443     if (buf[2]&0x80) {  //cmd for coordinator
        MOV     A,#0x2
        LCALL   ?XSTACK_DISP0_8
        MOVX    A,@DPTR
        MOV     C,0xE0 /* A   */.7
        JC      ??GenericApp_SerialMSGCB_0
//  444       switch (buf[2]) {
//  445         //add cmds here, e.g. case: 0x81...
//  446         default:
//  447         break;
//  448       }
//  449     } else { //cmd for end device, send it
//  450       GenericApp_SendTheMessage(dest_endID, buf[2], data);
        ; Setup parameters for call to function GenericApp_SendTheMessage
        MOV     R4,?V0 + 0
        MOV     R5,?V0 + 1
        MOV     R2,A
        MOV     R1,#0xc
        LCALL   ??GenericApp_SendTheMessage?relay
//  451     }
//  452   }
//  453 }
??GenericApp_SerialMSGCB_0:
        MOV     A,#0x7
        LCALL   ?DEALLOC_XSTACK8
        CFI CFA_XSP16 add(XSP16, 10)
        LJMP    ?Subroutine0 & 0xFFFF
        CFI EndBlock cfiBlock6
//  454 
//  455 //@fn rt_str_reverse
//  456 //@brief message received is reversed, so we need to reverse again using this function
//  457 //@para *str the first byte in a string that needs reversed
//  458 //@para length the total length that needs to be reversed, 0 included
//  459 //e.g a[] = {1,2,3,4}, then rt_str_reverse(&a[0], 3) result in {4, 3, 2, 1}

        RSEG BANKED_CODE:CODE:NOROOT(0)
//  460 void str_reverse(char *str, int length) {
str_reverse:
        CFI Block cfiBlock7 Using cfiCommon0
        CFI Function str_reverse
        PUSH    DPL
        CFI DPL0 Frame(CFA_SP, 4)
        CFI CFA_SP SP+-4
        PUSH    DPH
        CFI DPH0 Frame(CFA_SP, 5)
        CFI CFA_SP SP+-5
        ; Saved register size: 2
        ; Auto size: 0
//  461   char temp, *end_ptr;
//  462   end_ptr = str + length;
        MOV     A,R2
        ADD     A,R4
        MOV     R0,A
        MOV     A,R3
        ADDC    A,R5
        SJMP    ??str_reverse_0
//  463   while(end_ptr>str) {
//  464     temp = *str;
??str_reverse_1:
        MOV     DPL,R2
        MOV     DPH,R3
        MOVX    A,@DPTR
        MOV     R4,A
//  465     *str = *end_ptr;
        MOV     DPL,R0
        MOV     DPH,R1
        MOVX    A,@DPTR
        MOV     DPL,R2
        MOV     DPH,R3
        MOVX    @DPTR,A
//  466     *end_ptr = temp;
        MOV     A,R4
        MOV     DPL,R0
        MOV     DPH,R1
        MOVX    @DPTR,A
//  467     str++;
        MOV     DPL,R2
        MOV     DPH,R3
        INC     DPTR
        MOV     R2,DPL
        MOV     R3,DPH
//  468     end_ptr--;
        MOV     A,R0
        ADD     A,#-0x1
        DEC     R0
        MOV     A,R1
        ADDC    A,#-0x1
??str_reverse_0:
        MOV     R1,A
//  469   }
        CLR     C
        MOV     A,R2
        SUBB    A,R0
        MOV     A,R3
        SUBB    A,R1
        JC      ??str_reverse_1
//  470 }
        POP     DPH
        CFI DPH0 SameValue
        CFI CFA_SP SP+-4
        POP     DPL
        CFI DPL0 SameValue
        CFI CFA_SP SP+-3
        LJMP    ?BRET
        CFI EndBlock cfiBlock7

        RSEG BANK_RELAYS:CODE:REORDER:NOROOT(0)
??GenericApp_Init?relay:
        LCALL   ?BDISPATCH
        DATA
        DC24    GenericApp_Init

        RSEG BANK_RELAYS:CODE:REORDER:NOROOT(0)
??GenericApp_ProcessEvent?relay:
        LCALL   ?BDISPATCH
        DATA
        DC24    GenericApp_ProcessEvent

        RSEG BANK_RELAYS:CODE:REORDER:NOROOT(0)
??GenericApp_ProcessZDOMsgs?relay:
        LCALL   ?BDISPATCH
        DATA
        DC24    GenericApp_ProcessZDOMsgs

        RSEG BANK_RELAYS:CODE:REORDER:NOROOT(0)
??GenericApp_MessageMSGCB?relay:
        LCALL   ?BDISPATCH
        DATA
        DC24    GenericApp_MessageMSGCB

        RSEG BANK_RELAYS:CODE:REORDER:NOROOT(0)
??GenericApp_SendTheMessage?relay:
        LCALL   ?BDISPATCH
        DATA
        DC24    GenericApp_SendTheMessage

        RSEG BANK_RELAYS:CODE:REORDER:NOROOT(0)
??GenericApp_SerialMSGCB?relay:
        LCALL   ?BDISPATCH
        DATA
        DC24    GenericApp_SerialMSGCB

        RSEG BANK_RELAYS:CODE:REORDER:NOROOT(0)
??str_reverse?relay:
        LCALL   ?BDISPATCH
        DATA
        DC24    str_reverse

        RSEG XDATA_ROM_C:CONST:REORDER:NOROOT(0)
        DATA
`?<Constant "Init!\\r\\n">`:
        DB "Init!\015\012"

        RSEG XDATA_ROM_C:CONST:REORDER:NOROOT(0)
        DATA
`?<Constant "Lost\\r\\n">`:
        DB "Lost\015\012"

        RSEG XDATA_ROM_C:CONST:REORDER:NOROOT(0)
        DATA
`?<Constant "sent\\r\\n">`:
        DB "sent\015\012"

        RSEG XDATA_ROM_C:CONST:REORDER:NOROOT(0)
        DATA
`?<Constant "">`:
        DB ""
        DB 0, 0, 0, 0, 0

        RSEG XDATA_ROM_C:CONST:REORDER:NOROOT(0)
        DATA
`?<Constant "">_1`:
        DB ""
        DB 0, 0, 0, 0, 0

        RSEG XDATA_ROM_C:CONST:REORDER:NOROOT(0)
        DATA
`?<Constant "">_2`:
        DB ""
        DB 0, 0, 0, 0, 0, 0

        END
//  471 
//  472 /*********************************************************************
//  473 *********************************************************************/
// 
// 1 270 bytes in segment BANKED_CODE
//    42 bytes in segment BANK_RELAYS
//    55 bytes in segment XDATA_ROM_C
//   182 bytes in segment XDATA_Z
// 
// 1 312 bytes of CODE  memory
//    55 bytes of CONST memory
//   182 bytes of XDATA memory
//
//Errors: none
//Warnings: none
