###############################################################################
#                                                                             #
# IAR C/C++ Compiler V7.60.1.40026 for 8051             08/Apr/2014  21:42:52 #
# Copyright (C) 2004-2010 IAR Systems AB.                                     #
#                                                                             #
#    Core               =  plain                                              #
#    Code model         =  banked                                             #
#    Data model         =  large                                              #
#    Calling convention =  xdata reentrant                                    #
#    Constant location  =  data_rom                                           #
#    Dptr setup         =  1,16                                               #
#    Source file        =  D:\zigbee\projects\zstack-cc2530-coordinator\Compo #
#                          nents\hal\target\CC2530EB\hal_led.c                #
#    Command line       =  -f D:\zigbee\projects\zstack-cc2530-coordinator\Pr #
#                          ojects\zstack\Samples\GenericApp\CC2530DB\..\..\.. #
#                          \Tools\CC2530DB\f8wCoord.cfg (-DCPU32MHZ           #
#                          -DROOT=__near_func -DMAC_CFG_APP_PENDING_QUEUE=TRU #
#                          E -DMAC_CFG_TX_DATA_MAX=5 -DMAC_CFG_TX_MAX=8       #
#                          -DMAC_CFG_RX_MAX=5 -DZDO_COORDINATOR -DRTR_NWK)    #
#                          -f D:\zigbee\projects\zstack-cc2530-coordinator\Pr #
#                          ojects\zstack\Samples\GenericApp\CC2530DB\..\..\.. #
#                          \Tools\CC2530DB\f8wConfig.cfg (-DZIGBEEPRO         #
#                          -DSECURE=0 -DZG_SECURE_DYNAMIC=0 -DREFLECTOR       #
#                          -DDEFAULT_CHANLIST=0x00000800                      #
#                          -DZDAPP_CONFIG_PAN_ID=0x1111                       #
#                          -DNWK_START_DELAY=100 -DEXTENDED_JOINING_RANDOM_MA #
#                          SK=0x007F -DBEACON_REQUEST_DELAY=100               #
#                          -DBEACON_REQ_DELAY_MASK=0x00FF                     #
#                          -DLINK_STATUS_JITTER_MASK=0x007F                   #
#                          -DROUTE_EXPIRY_TIME=30 -DAPSC_ACK_WAIT_DURATION_PO #
#                          LLED=3000 -DNWK_INDIRECT_MSG_TIMEOUT=7             #
#                          -DMAX_RREQ_ENTRIES=8 -DAPSC_MAX_FRAME_RETRIES=3    #
#                          -DNWK_MAX_DATA_RETRIES=2                           #
#                          -DMAX_POLL_FAILURE_RETRIES=2 -DMAX_BCAST=9         #
#                          -DAPS_MAX_GROUPS=16 -DMAX_RTG_ENTRIES=40           #
#                          -DNWK_MAX_BINDING_ENTRIES=4                        #
#                          -DMAX_BINDING_CLUSTER_IDS=4 "-DDEFAULT_KEY={0x01,  #
#                          0x03, 0x05, 0x07, 0x09, 0x0B, 0x0D, 0x0F, 0x00,    #
#                          0x02, 0x04, 0x06, 0x08, 0x0A, 0x0C, 0x0D}"         #
#                          -DMAC_MAX_FRAME_SIZE=116                           #
#                          -DZDNWKMGR_MIN_TRANSMISSIONS=20 "-DCONST=const     #
#                          __code" -DGENERIC=__generic                        #
#                          -DRFD_RCVC_ALWAYS_ON=FALSE -DPOLL_RATE=1000        #
#                          -DQUEUED_POLL_RATE=100 -DRESPONSE_POLL_RATE=100)   #
#                          -DREJOIN_POLL_RATE=440 D:\zigbee\projects\zstack-c #
#                          c2530-coordinator\Components\hal\target\CC2530EB\h #
#                          al_led.c -D ZAPP_P1 -D MT_TASK -D MT_SYS_FUNC -D   #
#                          MT_ZDO_FUNC -D LCD_SUPPORTED=DEBUG -lC             #
#                          D:\zigbee\projects\zstack-cc2530-coordinator\Proje #
#                          cts\zstack\Samples\GenericApp\CC2530DB\Coordinator #
#                          EB\List\ -lA D:\zigbee\projects\zstack-cc2530-coor #
#                          dinator\Projects\zstack\Samples\GenericApp\CC2530D #
#                          B\CoordinatorEB\List\ --diag_suppress Pe001,Pa010  #
#                          -o D:\zigbee\projects\zstack-cc2530-coordinator\Pr #
#                          ojects\zstack\Samples\GenericApp\CC2530DB\Coordina #
#                          torEB\Obj\ -e --require_prototypes                 #
#                          --no_code_motion --debug --core=plain --dptr=16,1  #
#                          --data_model=large --code_model=banked             #
#                          --calling_convention=xdata_reentrant               #
#                          --place_constants=data_rom --nr_virtual_regs 16    #
#                          -I D:\zigbee\projects\zstack-cc2530-coordinator\Pr #
#                          ojects\zstack\Samples\GenericApp\CC2530DB\ -I      #
#                          D:\zigbee\projects\zstack-cc2530-coordinator\Proje #
#                          cts\zstack\Samples\GenericApp\CC2530DB\..\Source\  #
#                          -I D:\zigbee\projects\zstack-cc2530-coordinator\Pr #
#                          ojects\zstack\Samples\GenericApp\CC2530DB\..\..\.. #
#                          \ZMain\TI2530DB\ -I D:\zigbee\projects\zstack-cc25 #
#                          30-coordinator\Projects\zstack\Samples\GenericApp\ #
#                          CC2530DB\..\..\..\..\..\Components\hal\include\    #
#                          -I D:\zigbee\projects\zstack-cc2530-coordinator\Pr #
#                          ojects\zstack\Samples\GenericApp\CC2530DB\..\..\.. #
#                          \..\..\Components\hal\target\CC2530EB\ -I          #
#                          D:\zigbee\projects\zstack-cc2530-coordinator\Proje #
#                          cts\zstack\Samples\GenericApp\CC2530DB\..\..\..\.. #
#                          \..\Components\mac\include\ -I                     #
#                          D:\zigbee\projects\zstack-cc2530-coordinator\Proje #
#                          cts\zstack\Samples\GenericApp\CC2530DB\..\..\..\.. #
#                          \..\Components\mac\high_level\ -I                  #
#                          D:\zigbee\projects\zstack-cc2530-coordinator\Proje #
#                          cts\zstack\Samples\GenericApp\CC2530DB\..\..\..\.. #
#                          \..\Components\mac\low_level\srf04\ -I             #
#                          D:\zigbee\projects\zstack-cc2530-coordinator\Proje #
#                          cts\zstack\Samples\GenericApp\CC2530DB\..\..\..\.. #
#                          \..\Components\mac\low_level\srf04\single_chip\    #
#                          -I D:\zigbee\projects\zstack-cc2530-coordinator\Pr #
#                          ojects\zstack\Samples\GenericApp\CC2530DB\..\..\.. #
#                          \..\..\Components\mt\ -I                           #
#                          D:\zigbee\projects\zstack-cc2530-coordinator\Proje #
#                          cts\zstack\Samples\GenericApp\CC2530DB\..\..\..\.. #
#                          \..\Components\osal\include\ -I                    #
#                          D:\zigbee\projects\zstack-cc2530-coordinator\Proje #
#                          cts\zstack\Samples\GenericApp\CC2530DB\..\..\..\.. #
#                          \..\Components\osal\mcu\ccsoc\ -I                  #
#                          D:\zigbee\projects\zstack-cc2530-coordinator\Proje #
#                          cts\zstack\Samples\GenericApp\CC2530DB\..\..\..\.. #
#                          \..\Components\services\saddr\ -I                  #
#                          D:\zigbee\projects\zstack-cc2530-coordinator\Proje #
#                          cts\zstack\Samples\GenericApp\CC2530DB\..\..\..\.. #
#                          \..\Components\services\sdata\ -I                  #
#                          D:\zigbee\projects\zstack-cc2530-coordinator\Proje #
#                          cts\zstack\Samples\GenericApp\CC2530DB\..\..\..\.. #
#                          \..\Components\stack\af\ -I                        #
#                          D:\zigbee\projects\zstack-cc2530-coordinator\Proje #
#                          cts\zstack\Samples\GenericApp\CC2530DB\..\..\..\.. #
#                          \..\Components\stack\nwk\ -I                       #
#                          D:\zigbee\projects\zstack-cc2530-coordinator\Proje #
#                          cts\zstack\Samples\GenericApp\CC2530DB\..\..\..\.. #
#                          \..\Components\stack\sapi\ -I                      #
#                          D:\zigbee\projects\zstack-cc2530-coordinator\Proje #
#                          cts\zstack\Samples\GenericApp\CC2530DB\..\..\..\.. #
#                          \..\Components\stack\sec\ -I                       #
#                          D:\zigbee\projects\zstack-cc2530-coordinator\Proje #
#                          cts\zstack\Samples\GenericApp\CC2530DB\..\..\..\.. #
#                          \..\Components\stack\sys\ -I                       #
#                          D:\zigbee\projects\zstack-cc2530-coordinator\Proje #
#                          cts\zstack\Samples\GenericApp\CC2530DB\..\..\..\.. #
#                          \..\Components\stack\zdo\ -I                       #
#                          D:\zigbee\projects\zstack-cc2530-coordinator\Proje #
#                          cts\zstack\Samples\GenericApp\CC2530DB\..\..\..\.. #
#                          \..\Components\zmac\ -I D:\zigbee\projects\zstack- #
#                          cc2530-coordinator\Projects\zstack\Samples\Generic #
#                          App\CC2530DB\..\..\..\..\..\Components\zmac\f8w\   #
#                          -I "C:\Program Files (x86)\IAR Systems\Embedded    #
#                          Workbench 5.4\8051\INC\" -I "C:\Program Files      #
#                          (x86)\IAR Systems\Embedded Workbench               #
#                          5.4\8051\INC\CLIB\" -Ohz                           #
#    List file          =  D:\zigbee\projects\zstack-cc2530-coordinator\Proje #
#                          cts\zstack\Samples\GenericApp\CC2530DB\Coordinator #
#                          EB\List\hal_led.lst                                #
#    Object file        =  D:\zigbee\projects\zstack-cc2530-coordinator\Proje #
#                          cts\zstack\Samples\GenericApp\CC2530DB\Coordinator #
#                          EB\Obj\hal_led.r51                                 #
#                                                                             #
#                                                                             #
###############################################################################

D:\zigbee\projects\zstack-cc2530-coordinator\Components\hal\target\CC2530EB\hal_led.c
      1          /**************************************************************************************************
      2            Filename:       hal_led.c
      3            Revised:        $Date: 2009-03-13 05:45:44 -0700 (Fri, 13 Mar 2009) $
      4            Revision:       $Revision: 19408 $
      5          
      6            Description:    This file contains the interface to the HAL LED Service.
      7          
      8          
      9            Copyright 2006-2007 Texas Instruments Incorporated. All rights reserved.
     10          
     11            IMPORTANT: Your use of this Software is limited to those specific rights
     12            granted under the terms of a software license agreement between the user
     13            who downloaded the software, his/her employer (which must be your employer)
     14            and Texas Instruments Incorporated (the "License").  You may not use this
     15            Software unless you agree to abide by the terms of the License. The License
     16            limits your use, and you acknowledge, that the Software may not be modified,
     17            copied or distributed unless embedded on a Texas Instruments microcontroller
     18            or used solely and exclusively in conjunction with a Texas Instruments radio
     19            frequency transceiver, which is integrated into your product.  Other than for
     20            the foregoing purpose, you may not use, reproduce, copy, prepare derivative
     21            works of, modify, distribute, perform, display or sell this Software and/or
     22            its documentation for any purpose.
     23          
     24            YOU FURTHER ACKNOWLEDGE AND AGREE THAT THE SOFTWARE AND DOCUMENTATION ARE
     25            PROVIDED “AS IS” WITHOUT WARRANTY OF ANY KIND, EITHER EXPRESS OR IMPLIED,
     26            INCLUDING WITHOUT LIMITATION, ANY WARRANTY OF MERCHANTABILITY, TITLE,
     27            NON-INFRINGEMENT AND FITNESS FOR A PARTICULAR PURPOSE. IN NO EVENT SHALL
     28            TEXAS INSTRUMENTS OR ITS LICENSORS BE LIABLE OR OBLIGATED UNDER CONTRACT,
     29            NEGLIGENCE, STRICT LIABILITY, CONTRIBUTION, BREACH OF WARRANTY, OR OTHER
     30            LEGAL EQUITABLE THEORY ANY DIRECT OR INDIRECT DAMAGES OR EXPENSES
     31            INCLUDING BUT NOT LIMITED TO ANY INCIDENTAL, SPECIAL, INDIRECT, PUNITIVE
     32            OR CONSEQUENTIAL DAMAGES, LOST PROFITS OR LOST DATA, COST OF PROCUREMENT
     33            OF SUBSTITUTE GOODS, TECHNOLOGY, SERVICES, OR ANY CLAIMS BY THIRD PARTIES
     34            (INCLUDING BUT NOT LIMITED TO ANY DEFENSE THEREOF), OR OTHER SIMILAR COSTS.
     35          
     36            Should you have any questions regarding your right to use this Software,
     37            contact Texas Instruments Incorporated at www.TI.com.
     38          **************************************************************************************************/
     39          
     40          /***************************************************************************************************
     41           *                                             INCLUDES
     42           ***************************************************************************************************/
     43          #include "hal_mcu.h"

   \                                 In  segment SFR_AN, at 0x80
   \   union <unnamed> volatile __sfr _A_P0
   \                     _A_P0:
   \   000000                DS 1

   \                                 In  segment SFR_AN, at 0x90
   \   union <unnamed> volatile __sfr _A_P1
   \                     _A_P1:
   \   000000                DS 1
     44          #include "hal_defs.h"
     45          #include "hal_types.h"
     46          #include "hal_drivers.h"
     47          #include "hal_led.h"
     48          #include "osal.h"
     49          #include "hal_board.h"
     50          
     51          /***************************************************************************************************
     52           *                                             CONSTANTS
     53           ***************************************************************************************************/
     54          
     55          /***************************************************************************************************
     56           *                                              MACROS
     57           ***************************************************************************************************/
     58          
     59          /***************************************************************************************************
     60           *                                              TYPEDEFS
     61           ***************************************************************************************************/
     62          /* LED control structure */
     63          typedef struct {
     64            uint8 mode;       /* Operation mode */
     65            uint8 todo;       /* Blink cycles left */
     66            uint8 onPct;      /* On cycle percentage */
     67            uint16 time;      /* On/off cycle time (msec) */
     68            uint32 next;      /* Time for next change */
     69          } HalLedControl_t;
     70          
     71          typedef struct
     72          {
     73            HalLedControl_t HalLedControlTable[HAL_LED_DEFAULT_MAX_LEDS];
     74            uint8           sleepActive;
     75          } HalLedStatus_t;
     76          
     77          
     78          /***************************************************************************************************
     79           *                                           GLOBAL VARIABLES
     80           ***************************************************************************************************/
     81          
     82          

   \                                 In  segment XDATA_Z, align 1, keep-with-next
     83          static uint8 HalLedState;              // LED state at last set/clr/blink update
   \                     HalLedState:
   \   000000                DS 1
   \   000001                REQUIRE __INIT_XDATA_Z
     84          
     85          #if HAL_LED == TRUE

   \                                 In  segment XDATA_Z, align 1, keep-with-next
     86          static uint8 HalSleepLedState;         // LED state at last set/clr/blink update
   \                     HalSleepLedState:
   \   000000                DS 1
   \   000001                REQUIRE __INIT_XDATA_Z

   \                                 In  segment XDATA_Z, align 1, keep-with-next
     87          static uint8 preBlinkState;            // Original State before going to blink mode
   \                     preBlinkState:
   \   000000                DS 1
   \   000001                REQUIRE __INIT_XDATA_Z
     88                                                 // bit 0, 1, 2, 3 represent led 0, 1, 2, 3
     89          #endif
     90          
     91          #ifdef BLINK_LEDS

   \                                 In  segment XDATA_Z, align 1, keep-with-next
     92            static HalLedStatus_t HalLedStatusControl;
   \                     HalLedStatusControl:
   \   000000                DS 37
   \   000025                REQUIRE __INIT_XDATA_Z
     93          #endif
     94          
     95          /***************************************************************************************************
     96           *                                            LOCAL FUNCTION
     97           ***************************************************************************************************/
     98          #if (HAL_LED == TRUE)
     99          void HalLedUpdate (void);
    100          void HalLedOnOff (uint8 leds, uint8 mode);
    101          #endif /* HAL_LED */
    102          
    103          /***************************************************************************************************
    104           *                                            FUNCTIONS - API
    105           ***************************************************************************************************/
    106          
    107          /***************************************************************************************************
    108           * @fn      HalLedInit
    109           *
    110           * @brief   Initialize LED Service
    111           *
    112           * @param   init - pointer to void that contains the initialized value
    113           *
    114           * @return  None
    115           ***************************************************************************************************/

   \                                 In  segment BANKED_CODE, align 1, keep-with-next
    116          void HalLedInit (void)
   \                     HalLedInit:
    117          {
   \   000000   C082         PUSH    DPL
   \   000002   C083         PUSH    DPH
   \   000004                ; Saved register size: 2
   \   000004                ; Auto size: 0
    118          #if (HAL_LED == TRUE)
    119            /* Initialize all LEDs to OFF */
    120            HalLedSet (HAL_LED_ALL, HAL_LED_MODE_OFF);
   \   000004                ; Setup parameters for call to function HalLedSet
   \   000004   7A00         MOV     R2,#0x0
   \   000006   790F         MOV     R1,#0xf
   \   000008   12....       LCALL   ??HalLedSet?relay
    121          #endif /* HAL_LED */
    122          #ifdef BLINK_LEDS
    123            /* Initialize sleepActive to FALSE */
    124            HalLedStatusControl.sleepActive = FALSE;
   \   00000B   02....       LJMP    ?Subroutine0 & 0xFFFF
    125          #endif
    126          }

   \                                 In  segment BANKED_CODE, align 1, keep-with-next
   \                     ?Subroutine0:
   \   000000   E4           CLR     A
   \   000001   90....       MOV     DPTR,#(HalLedStatusControl + 36)
   \   000004                REQUIRE ??Subroutine3_0
   \   000004                ; // Fall through to label ??Subroutine3_0

   \                                 In  segment BANKED_CODE, align 1, keep-with-next
   \                     ??Subroutine3_0:
   \   000000   F0           MOVX    @DPTR,A
   \   000001                REQUIRE ??Subroutine4_0
   \   000001                ; // Fall through to label ??Subroutine4_0

   \                                 In  segment BANKED_CODE, align 1, keep-with-next
   \                     ??Subroutine4_0:
   \   000000   D083         POP     DPH
   \   000002   D082         POP     DPL
   \   000004   02....       LJMP    ?BRET
    127          
    128          /***************************************************************************************************
    129           * @fn      HalLedSet
    130           *
    131           * @brief   Tun ON/OFF/TOGGLE given LEDs
    132           *
    133           * @param   led - bit mask value of leds to be turned ON/OFF/TOGGLE
    134           *          mode - BLINK, FLASH, TOGGLE, ON, OFF
    135           * @return  None
    136           ***************************************************************************************************/

   \                                 In  segment BANKED_CODE, align 1, keep-with-next
    137          uint8 HalLedSet (uint8 leds, uint8 mode)
   \                     HalLedSet:
    138          {
   \   000000   74F5         MOV     A,#-0xb
   \   000002   12....       LCALL   ?BANKED_ENTER_XDATA
   \   000005                ; Saved register size: 11
   \   000005                ; Auto size: 0
   \   000005   89..         MOV     ?V0 + 0,R1
   \   000007   8A..         MOV     ?V0 + 2,R2
    139          
    140          #if (defined (BLINK_LEDS)) && (HAL_LED == TRUE)
    141            uint8 led;
    142            HalLedControl_t *sts;
    143          
    144            switch (mode)
   \   000009   EA           MOV     A,R2
   \   00000A   12....       LCALL   ?UC_SWITCH_SPARSE
   \                     `?<Jumptable for HalLedSet>_0`:
   \   00000D   01           DB        1
   \   00000E   00           DB        0
   \   00000F   01           DB        1
   \   000010   ....         DW        ??HalLedSet_0
   \   000012   03           DB        3
   \   000013   02           DB        2
   \   000014   ....         DW        ??HalLedSet_1
   \   000016   04           DB        4
   \   000017   ....         DW        ??HalLedSet_2
   \   000019   08           DB        8
   \   00001A   ....         DW        ??HalLedSet_0
   \   00001C   ....         DW        ??HalLedSet_3
    145            {
    146              case HAL_LED_MODE_BLINK:
    147                /* Default blink, 1 time, D% duty cycle */
    148                HalLedBlink (leds, 1, HAL_LED_DEFAULT_DUTY_CYCLE, HAL_LED_DEFAULT_FLASH_TIME);
   \                     ??HalLedSet_1:
   \   00001E                ; Setup parameters for call to function HalLedBlink
   \   00001E   7CE8         MOV     R4,#-0x18
   \   000020   7D03         MOV     R5,#0x3
   \   000022   7B05         MOV     R3,#0x5
   \   000024   7A01         MOV     R2,#0x1
   \                     ??HalLedSet_4:
   \   000026   12....       LCALL   ??HalLedBlink?relay
   \   000029   8040         SJMP    ??HalLedSet_3
    149                break;
    150          
    151              case HAL_LED_MODE_FLASH:
    152                /* Default flash, N times, D% duty cycle */
    153                HalLedBlink (leds, HAL_LED_DEFAULT_FLASH_COUNT, HAL_LED_DEFAULT_DUTY_CYCLE, HAL_LED_DEFAULT_FLASH_TIME);
   \                     ??HalLedSet_2:
   \   00002B                ; Setup parameters for call to function HalLedBlink
   \   00002B   7CE8         MOV     R4,#-0x18
   \   00002D   7D03         MOV     R5,#0x3
   \   00002F   7B05         MOV     R3,#0x5
   \   000031   7A32         MOV     R2,#0x32
   \   000033   80F1         SJMP    ??HalLedSet_4
    154                break;
    155          
    156              case HAL_LED_MODE_ON:
    157              case HAL_LED_MODE_OFF:
    158              case HAL_LED_MODE_TOGGLE:
    159          
    160                led = HAL_LED_1;
   \                     ??HalLedSet_0:
   \   000035   75..01       MOV     ?V0 + 1,#0x1
    161                leds &= HAL_LED_ALL;
   \   000038   53..0F       ANL     ?V0 + 0,#0xf
    162                sts = HalLedStatusControl.HalLedControlTable;
   \   00003B   7E..         MOV     R6,#(HalLedStatusControl & 0xff)
   \   00003D   7F..         MOV     R7,#((HalLedStatusControl >> 8) & 0xff)
   \   00003F   8012         SJMP    ??CrossCallReturnLabel_0
    163          
    164                while (leds)
    165                {
    166                  if (leds & led)
    167                  {
    168                    if (mode != HAL_LED_MODE_TOGGLE)
    169                    {
    170                      sts->mode = mode;  /* ON or OFF */
    171                    }
    172                    else
    173                    {
    174                      sts->mode ^= HAL_LED_MODE_ON;  /* Toggle */
   \                     ??HalLedSet_5:
   \   000041   E0           MOVX    A,@DPTR
   \   000042   6401         XRL     A,#0x1
   \                     ??HalLedSet_6:
   \   000044   F0           MOVX    @DPTR,A
    175                    }
    176                    HalLedOnOff (led, sts->mode);
   \   000045                ; Setup parameters for call to function HalLedOnOff
   \   000045   E0           MOVX    A,@DPTR
   \   000046   FA           MOV     R2,A
   \   000047   A9..         MOV     R1,?V0 + 1
   \   000049   12....       LCALL   ??HalLedOnOff?relay
    177                    leds ^= led;
   \   00004C   E5..         MOV     A,?V0 + 1
   \   00004E   62..         XRL     ?V0 + 0,A
    178                  }
    179                  led <<= 1;
   \                     ??HalLedSet_7:
   \   000050   12....       LCALL   ?Subroutine1 & 0xFFFF
    180                  sts++;
   \                     ??CrossCallReturnLabel_0:
   \   000053   E5..         MOV     A,?V0 + 0
   \   000055   6014         JZ      ??HalLedSet_3
   \   000057   E5..         MOV     A,?V0 + 1
   \   000059   55..         ANL     A,?V0 + 0
   \   00005B   60F3         JZ      ??HalLedSet_7
   \   00005D   7408         MOV     A,#0x8
   \   00005F   65..         XRL     A,?V0 + 2
   \   000061   8E82         MOV     DPL,R6
   \   000063   8F83         MOV     DPH,R7
   \   000065   60DA         JZ      ??HalLedSet_5
   \   000067   E5..         MOV     A,?V0 + 2
   \   000069   80D9         SJMP    ??HalLedSet_6
    181                }
    182                break;
    183          
    184              default:
    185                break;
    186            }
    187          
    188          #elif (HAL_LED == TRUE)
    189            LedOnOff(leds, mode);
    190          #else
    191            // HAL LED is disabled, suppress unused argument warnings
    192            (void) leds;
    193            (void) mode;
    194          #endif /* BLINK_LEDS && HAL_LED   */
    195          
    196            return ( HalLedState );
   \                     ??HalLedSet_3:
   \   00006B   90....       MOV     DPTR,#HalLedState
   \   00006E   E0           MOVX    A,@DPTR
   \   00006F   F9           MOV     R1,A
   \   000070   7F03         MOV     R7,#0x3
   \   000072   02....       LJMP    ?BANKED_LEAVE_XDATA
    197          
    198          }

   \                                 In  segment BANKED_CODE, align 1, keep-with-next
   \                     ?Subroutine1:
   \   000000   E5..         MOV     A,?V0 + 1
   \   000002   C3           CLR     C
   \   000003   33           RLC     A
   \   000004   F5..         MOV     ?V0 + 1,A
   \   000006                REQUIRE ??Subroutine2_0
   \   000006                ; // Fall through to label ??Subroutine2_0

   \                                 In  segment BANKED_CODE, align 1, keep-with-next
   \                     ??Subroutine2_0:
   \   000000   EE           MOV     A,R6
   \   000001   2409         ADD     A,#0x9
   \   000003   FE           MOV     R6,A
   \   000004   EF           MOV     A,R7
   \   000005   3400         ADDC    A,#0x0
   \   000007   FF           MOV     R7,A
   \   000008   22           RET
    199          
    200          /***************************************************************************************************
    201           * @fn      HalLedBlink
    202           *
    203           * @brief   Blink the leds
    204           *
    205           * @param   leds       - bit mask value of leds to be blinked
    206           *          numBlinks  - number of blinks
    207           *          percent    - the percentage in each period where the led
    208           *                       will be on
    209           *          period     - length of each cycle in milliseconds
    210           *
    211           * @return  None
    212           ***************************************************************************************************/

   \                                 In  segment BANKED_CODE, align 1, keep-with-next
    213          void HalLedBlink (uint8 leds, uint8 numBlinks, uint8 percent, uint16 period)
   \                     HalLedBlink:
    214          {
   \   000000   74EE         MOV     A,#-0x12
   \   000002   12....       LCALL   ?BANKED_ENTER_XDATA
   \   000005                ; Saved register size: 18
   \   000005                ; Auto size: 0
   \   000005   89..         MOV     ?V0 + 0,R1
   \   000007   8A..         MOV     ?V0 + 3,R2
   \   000009   8B..         MOV     ?V0 + 2,R3
   \   00000B   8C..         MOV     ?V0 + 8,R4
   \   00000D   8D..         MOV     ?V0 + 9,R5
    215          #if (defined (BLINK_LEDS)) && (HAL_LED == TRUE)
    216            uint8 led;
    217            HalLedControl_t *sts;
    218          
    219            if (leds && percent && period)
   \   00000F   E9           MOV     A,R1
   \   000010   7003         JNZ     $+5
   \   000012   02....       LJMP    ??HalLedBlink_0 & 0xFFFF
   \   000015   EB           MOV     A,R3
   \   000016   7003         JNZ     $+5
   \   000018   02....       LJMP    ??HalLedBlink_0 & 0xFFFF
   \   00001B   EC           MOV     A,R4
   \   00001C   7001         JNZ     ??HalLedBlink_1
   \   00001E   ED           MOV     A,R5
   \                     ??HalLedBlink_1:
   \   00001F   7003         JNZ     $+5
   \   000021   02....       LJMP    ??HalLedBlink_0 & 0xFFFF
    220            {
    221              if (percent < 100)
   \   000024   EB           MOV     A,R3
   \   000025   C3           CLR     C
   \   000026   9464         SUBB    A,#0x64
   \   000028   4003         JC      $+5
   \   00002A   02....       LJMP    ??HalLedBlink_2 & 0xFFFF
    222              {
    223                led = HAL_LED_1;
   \   00002D   75..01       MOV     ?V0 + 1,#0x1
    224                leds &= HAL_LED_ALL;
   \   000030   53..0F       ANL     ?V0 + 0,#0xf
    225                sts = HalLedStatusControl.HalLedControlTable;
   \   000033   7E..         MOV     R6,#(HalLedStatusControl & 0xff)
   \   000035   7F..         MOV     R7,#((HalLedStatusControl >> 8) & 0xff)
   \   000037   8063         SJMP    ??CrossCallReturnLabel_1
    226          
    227                while (leds)
    228                {
    229                  if (leds & led)
   \                     ??HalLedBlink_3:
   \   000039   E5..         MOV     A,?V0 + 1
   \   00003B   55..         ANL     A,?V0 + 0
   \   00003D   605A         JZ      ??HalLedBlink_4
    230                  {
    231                    /* Store the current state of the led before going to blinking */
    232                    preBlinkState |= (led & HalLedState);
   \   00003F   90....       MOV     DPTR,#HalLedState
   \   000042   E0           MOVX    A,@DPTR
   \   000043   55..         ANL     A,?V0 + 1
   \   000045   FA           MOV     R2,A
   \   000046   90....       MOV     DPTR,#preBlinkState
   \   000049   E0           MOVX    A,@DPTR
   \   00004A   4A           ORL     A,R2
   \   00004B   F0           MOVX    @DPTR,A
    233          
    234                    sts->mode  = HAL_LED_MODE_OFF;                    /* Stop previous blink */
   \   00004C   E4           CLR     A
   \   00004D   8E82         MOV     DPL,R6
   \   00004F   8F83         MOV     DPH,R7
   \   000051   F0           MOVX    @DPTR,A
    235                    sts->time  = period;                              /* Time for one on/off cycle */
   \   000052   A3           INC     DPTR
   \   000053   A3           INC     DPTR
   \   000054   A3           INC     DPTR
   \   000055   E5..         MOV     A,?V0 + 8
   \   000057   F0           MOVX    @DPTR,A
   \   000058   A3           INC     DPTR
   \   000059   E5..         MOV     A,?V0 + 9
   \   00005B   F0           MOVX    @DPTR,A
    236                    sts->onPct = percent;                             /* % of cycle LED is on */
   \   00005C   8E82         MOV     DPL,R6
   \   00005E   8F83         MOV     DPH,R7
   \   000060   A3           INC     DPTR
   \   000061   A3           INC     DPTR
   \   000062   E5..         MOV     A,?V0 + 2
   \   000064   F0           MOVX    @DPTR,A
    237                    sts->todo  = numBlinks;                           /* Number of blink cycles */
   \   000065   8E82         MOV     DPL,R6
   \   000067   8F83         MOV     DPH,R7
   \   000069   A3           INC     DPTR
   \   00006A   E5..         MOV     A,?V0 + 3
   \   00006C   F0           MOVX    @DPTR,A
    238                    if (!numBlinks) sts->mode |= HAL_LED_MODE_FLASH;  /* Continuous */
   \   00006D   7007         JNZ     ??HalLedBlink_5
   \   00006F   7404         MOV     A,#0x4
   \   000071   8E82         MOV     DPL,R6
   \   000073   8F83         MOV     DPH,R7
   \   000075   F0           MOVX    @DPTR,A
    239                    sts->next = osal_GetSystemClock();                /* Start now */
   \                     ??HalLedBlink_5:
   \   000076                ; Setup parameters for call to function osal_GetSystemClock
   \   000076   12....       LCALL   ??osal_GetSystemClock?relay
   \   000079   8E82         MOV     DPL,R6
   \   00007B   8F83         MOV     DPH,R7
   \   00007D   A3           INC     DPTR
   \   00007E   A3           INC     DPTR
   \   00007F   A3           INC     DPTR
   \   000080   A3           INC     DPTR
   \   000081   A3           INC     DPTR
   \   000082   EA           MOV     A,R2
   \   000083   F0           MOVX    @DPTR,A
   \   000084   A3           INC     DPTR
   \   000085   EB           MOV     A,R3
   \   000086   F0           MOVX    @DPTR,A
   \   000087   A3           INC     DPTR
   \   000088   EC           MOV     A,R4
   \   000089   F0           MOVX    @DPTR,A
   \   00008A   A3           INC     DPTR
   \   00008B   ED           MOV     A,R5
   \   00008C   F0           MOVX    @DPTR,A
    240                    sts->mode |= HAL_LED_MODE_BLINK;                  /* Enable blinking */
   \   00008D   8E82         MOV     DPL,R6
   \   00008F   8F83         MOV     DPH,R7
   \   000091   E0           MOVX    A,@DPTR
   \   000092   D2E1         SETB    0xE0 /* A   */.1
   \   000094   F0           MOVX    @DPTR,A
    241                    leds ^= led;
   \   000095   E5..         MOV     A,?V0 + 1
   \   000097   62..         XRL     ?V0 + 0,A
    242                  }
    243                  led <<= 1;
   \                     ??HalLedBlink_4:
   \   000099   12....       LCALL   ?Subroutine1 & 0xFFFF
    244                  sts++;
    245                }
   \                     ??CrossCallReturnLabel_1:
   \   00009C   E5..         MOV     A,?V0 + 0
   \   00009E   7099         JNZ     ??HalLedBlink_3
    246                osal_set_event (Hal_TaskID, HAL_LED_BLINK_EVENT);
   \   0000A0                ; Setup parameters for call to function osal_set_event
   \   0000A0   7A02         MOV     R2,#0x2
   \   0000A2   7B00         MOV     R3,#0x0
   \   0000A4   90....       MOV     DPTR,#Hal_TaskID
   \   0000A7   E0           MOVX    A,@DPTR
   \   0000A8   F9           MOV     R1,A
   \   0000A9   12....       LCALL   ??osal_set_event?relay
   \   0000AC   8009         SJMP    ??HalLedBlink_6
    247              }
    248              else
    249              {
    250                HalLedSet (leds, HAL_LED_MODE_ON);                    /* >= 100%, turn on */
   \                     ??HalLedBlink_2:
   \   0000AE                ; Setup parameters for call to function HalLedSet
   \   0000AE   7A01         MOV     R2,#0x1
   \   0000B0   8002         SJMP    ??HalLedBlink_7
    251              }
    252            }
    253            else
    254            {
    255              HalLedSet (leds, HAL_LED_MODE_OFF);                     /* No on time, turn off */
   \                     ??HalLedBlink_0:
   \   0000B2                ; Setup parameters for call to function HalLedSet
   \   0000B2   7A00         MOV     R2,#0x0
   \                     ??HalLedBlink_7:
   \   0000B4   12....       LCALL   ??HalLedSet?relay
    256            }
    257          #elif (HAL_LED == TRUE)
    258            percent = (leds & HalLedState) ? HAL_LED_MODE_OFF : HAL_LED_MODE_ON;
    259            HalLedOnOff (leds, percent);                              /* Toggle */
    260          #else
    261            // HAL LED is disabled, suppress unused argument warnings
    262            (void) leds;
    263            (void) numBlinks;
    264            (void) percent;
    265            (void) period;
    266          #endif /* BLINK_LEDS && HAL_LED */
    267          }
   \                     ??HalLedBlink_6:
   \   0000B7   7F0A         MOV     R7,#0xa
   \   0000B9   02....       LJMP    ?BANKED_LEAVE_XDATA
    268          
    269          #if (HAL_LED == TRUE)
    270          /***************************************************************************************************
    271           * @fn      HalLedUpdate
    272           *
    273           * @brief   Update leds to work with blink
    274           *
    275           * @param   none
    276           *
    277           * @return  none
    278           ***************************************************************************************************/

   \                                 In  segment BANKED_CODE, align 1, keep-with-next
    279          void HalLedUpdate (void)
   \                     HalLedUpdate:
    280          {
   \   000000   74E8         MOV     A,#-0x18
   \   000002   12....       LCALL   ?BANKED_ENTER_XDATA
   \   000005                ; Saved register size: 24
   \   000005                ; Auto size: 0
    281            uint8 led;
    282            uint8 pct;
    283            uint8 leds;
    284            HalLedControl_t *sts;
    285            uint32 time;
    286            uint16 next;
    287            uint16 wait;
    288          
    289            next = 0;
   \   000005   75..00       MOV     ?V0 + 12,#0x0
   \   000008   75..00       MOV     ?V0 + 13,#0x0
    290            led  = HAL_LED_1;
   \   00000B   75..01       MOV     ?V0 + 14,#0x1
    291            leds = HAL_LED_ALL;
   \   00000E   75..0F       MOV     ?V0 + 15,#0xf
    292            sts = HalLedStatusControl.HalLedControlTable;
   \   000011   7E..         MOV     R6,#(HalLedStatusControl & 0xff)
   \   000013   7F..         MOV     R7,#((HalLedStatusControl >> 8) & 0xff)
    293          
    294            /* Check if sleep is active or not */
    295            if (!HalLedStatusControl.sleepActive)
   \   000015   90....       MOV     DPTR,#(HalLedStatusControl + 36)
   \   000018   E0           MOVX    A,@DPTR
   \   000019   6003         JZ      $+5
   \   00001B   02....       LJMP    ??HalLedUpdate_0 & 0xFFFF
    296            {
    297              while (leds)
    298              {
    299                if (leds & led)
   \                     ??HalLedUpdate_1:
   \   00001E   E5..         MOV     A,?V0 + 14
   \   000020   55..         ANL     A,?V0 + 15
   \   000022   7003         JNZ     $+5
   \   000024   02....       LJMP    ??HalLedUpdate_2 & 0xFFFF
    300                {
    301                  if (sts->mode & HAL_LED_MODE_BLINK)
   \   000027   8E82         MOV     DPL,R6
   \   000029   8F83         MOV     DPH,R7
   \   00002B   E0           MOVX    A,@DPTR
   \   00002C   A2E1         MOV     C,0xE0 /* A   */.1
   \   00002E   4003         JC      $+5
   \   000030   02....       LJMP    ??HalLedUpdate_3 & 0xFFFF
    302                  {
    303                    time = osal_GetSystemClock();
   \   000033                ; Setup parameters for call to function osal_GetSystemClock
   \   000033   12....       LCALL   ??osal_GetSystemClock?relay
   \   000036   8A..         MOV     ?V0 + 4,R2
   \   000038   8B..         MOV     ?V0 + 5,R3
   \   00003A   8C..         MOV     ?V0 + 6,R4
   \   00003C   8D..         MOV     ?V0 + 7,R5
    304                    if (time >= sts->next)
   \   00003E   8E82         MOV     DPL,R6
   \   000040   8F83         MOV     DPH,R7
   \   000042   A3           INC     DPTR
   \   000043   A3           INC     DPTR
   \   000044   A3           INC     DPTR
   \   000045   A3           INC     DPTR
   \   000046   A3           INC     DPTR
   \   000047   78..         MOV     R0,#?V0 + 0
   \   000049   12....       LCALL   ?L_MOV_X
   \   00004C   78..         MOV     R0,#?V0 + 0
   \   00004E   79..         MOV     R1,#?V0 + 4
   \   000050   12....       LCALL   ?UL_GT
   \   000053   8E82         MOV     DPL,R6
   \   000055   8F83         MOV     DPH,R7
   \   000057   5003         JNC     $+5
   \   000059   02....       LJMP    ??HalLedUpdate_4 & 0xFFFF
    305                    {
    306                      if (sts->mode & HAL_LED_MODE_ON)
   \   00005C   E0           MOVX    A,@DPTR
   \   00005D   A2E0         MOV     C,0xE0 /* A   */.0
   \   00005F   A3           INC     DPTR
   \   000060   A3           INC     DPTR
   \   000061   E0           MOVX    A,@DPTR
   \   000062   502F         JNC     ??HalLedUpdate_5
    307                      {
    308                        pct = 100 - sts->onPct;               /* Percentage of cycle for off */
   \   000064   FA           MOV     R2,A
   \   000065   7464         MOV     A,#0x64
   \   000067   C3           CLR     C
   \   000068   9A           SUBB    A,R2
   \   000069   F5..         MOV     ?V0 + 0,A
    309                        sts->mode &= ~HAL_LED_MODE_ON;        /* Say it's not on */
   \   00006B   8E82         MOV     DPL,R6
   \   00006D   8F83         MOV     DPH,R7
   \   00006F   E0           MOVX    A,@DPTR
   \   000070   C2E0         CLR     0xE0 /* A   */.0
   \   000072   F0           MOVX    @DPTR,A
    310                        HalLedOnOff (led, HAL_LED_MODE_OFF);  /* Turn it off */
   \   000073                ; Setup parameters for call to function HalLedOnOff
   \   000073   7A00         MOV     R2,#0x0
   \   000075   A9..         MOV     R1,?V0 + 14
   \   000077   12....       LCALL   ??HalLedOnOff?relay
    311          
    312                        if (!(sts->mode & HAL_LED_MODE_FLASH))
   \   00007A   8E82         MOV     DPL,R6
   \   00007C   8F83         MOV     DPH,R7
   \   00007E   E0           MOVX    A,@DPTR
   \   00007F   A2E2         MOV     C,0xE0 /* A   */.2
   \   000081   4021         JC      ??HalLedUpdate_6
    313                        {
    314                          sts->todo--;                        /* Not continuous, reduce count */
   \   000083   A3           INC     DPTR
   \   000084   E0           MOVX    A,@DPTR
   \   000085   14           DEC     A
   \   000086   F0           MOVX    @DPTR,A
    315                          if (!sts->todo)
   \   000087   701B         JNZ     ??HalLedUpdate_6
    316                          {
    317                            sts->mode ^= HAL_LED_MODE_BLINK;  /* No more blinks */
   \   000089   8E82         MOV     DPL,R6
   \   00008B   8F83         MOV     DPH,R7
   \   00008D   E0           MOVX    A,@DPTR
   \   00008E   6402         XRL     A,#0x2
   \   000090   F0           MOVX    @DPTR,A
   \   000091   8011         SJMP    ??HalLedUpdate_6
    318                          }
    319                        }
    320                      }
    321                      else
    322                      {
    323                        pct = sts->onPct;                     /* Percentage of cycle for on */
   \                     ??HalLedUpdate_5:
   \   000093   F5..         MOV     ?V0 + 0,A
    324                        sts->mode |= HAL_LED_MODE_ON;         /* Say it's on */
   \   000095   8E82         MOV     DPL,R6
   \   000097   8F83         MOV     DPH,R7
   \   000099   E0           MOVX    A,@DPTR
   \   00009A   D2E0         SETB    0xE0 /* A   */.0
   \   00009C   F0           MOVX    @DPTR,A
    325                        HalLedOnOff (led, HAL_LED_MODE_ON);   /* Turn it on */
   \   00009D                ; Setup parameters for call to function HalLedOnOff
   \   00009D   7A01         MOV     R2,#0x1
   \   00009F   A9..         MOV     R1,?V0 + 14
   \   0000A1   12....       LCALL   ??HalLedOnOff?relay
    326                      }
    327          
    328                      if (sts->mode & HAL_LED_MODE_BLINK)
   \                     ??HalLedUpdate_6:
   \   0000A4   8E82         MOV     DPL,R6
   \   0000A6   8F83         MOV     DPH,R7
   \   0000A8   E0           MOVX    A,@DPTR
   \   0000A9   A2E1         MOV     C,0xE0 /* A   */.1
   \   0000AB   505C         JNC     ??HalLedUpdate_7
    329                      {
    330                        wait = (((uint32)pct * (uint32)sts->time) / 100);
   \   0000AD   75..00       MOV     ?V0 + 1,#0x0
   \   0000B0   75..00       MOV     ?V0 + 2,#0x0
   \   0000B3   75..00       MOV     ?V0 + 3,#0x0
   \   0000B6   A3           INC     DPTR
   \   0000B7   A3           INC     DPTR
   \   0000B8   A3           INC     DPTR
   \   0000B9   E0           MOVX    A,@DPTR
   \   0000BA   F5..         MOV     ?V0 + 8,A
   \   0000BC   A3           INC     DPTR
   \   0000BD   E0           MOVX    A,@DPTR
   \   0000BE   F5..         MOV     ?V0 + 9,A
   \   0000C0   75..00       MOV     ?V0 + 10,#0x0
   \   0000C3   75..00       MOV     ?V0 + 11,#0x0
   \   0000C6   78..         MOV     R0,#?V0 + 0
   \   0000C8   79..         MOV     R1,#?V0 + 8
   \   0000CA   12....       LCALL   ?L_MUL
   \   0000CD   90....       MOV     DPTR,#__Constant_64
   \   0000D0   78..         MOV     R0,#?V0 + 8
   \   0000D2   12....       LCALL   ?L_MOV_X
   \   0000D5   78..         MOV     R0,#?V0 + 0
   \   0000D7   79..         MOV     R1,#?V0 + 8
   \   0000D9   12....       LCALL   ?UL_DIV_MOD
    331                        sts->next = time + wait;
   \   0000DC   85....       MOV     ?V0 + 8,?V0 + 0
   \   0000DF   85....       MOV     ?V0 + 9,?V0 + 1
   \   0000E2   75..00       MOV     ?V0 + 10,#0x0
   \   0000E5   75..00       MOV     ?V0 + 11,#0x0
   \   0000E8   78..         MOV     R0,#?V0 + 4
   \   0000EA   79..         MOV     R1,#?V0 + 8
   \   0000EC   12....       LCALL   ?L_ADD
   \   0000EF   8E82         MOV     DPL,R6
   \   0000F1   8F83         MOV     DPH,R7
   \   0000F3   A3           INC     DPTR
   \   0000F4   A3           INC     DPTR
   \   0000F5   A3           INC     DPTR
   \   0000F6   A3           INC     DPTR
   \   0000F7   A3           INC     DPTR
   \   0000F8   E5..         MOV     A,?V0 + 4
   \   0000FA   F0           MOVX    @DPTR,A
   \   0000FB   A3           INC     DPTR
   \   0000FC   E5..         MOV     A,?V0 + 5
   \   0000FE   F0           MOVX    @DPTR,A
   \   0000FF   A3           INC     DPTR
   \   000100   E5..         MOV     A,?V0 + 6
   \   000102   F0           MOVX    @DPTR,A
   \   000103   A3           INC     DPTR
   \   000104   E5..         MOV     A,?V0 + 7
   \                     ??HalLedUpdate_8:
   \   000106   F0           MOVX    @DPTR,A
   \   000107   803C         SJMP    ??HalLedUpdate_9
    332                      }
    333                      else
    334                      {
    335                        /* no more blink, no more wait */
    336                        wait = 0;
   \                     ??HalLedUpdate_7:
   \   000109   75..00       MOV     ?V0 + 0,#0x0
   \   00010C   75..00       MOV     ?V0 + 1,#0x0
    337                        /* After blinking, set the LED back to the state before it blinks */
    338                        HalLedSet (led, ((preBlinkState & led)!=0)?HAL_LED_MODE_ON:HAL_LED_MODE_OFF);
   \   00010F   90....       MOV     DPTR,#preBlinkState
   \   000112   E0           MOVX    A,@DPTR
   \   000113   55..         ANL     A,?V0 + 14
   \   000115   6004         JZ      ??HalLedUpdate_10
   \   000117   7A01         MOV     R2,#0x1
   \   000119   8002         SJMP    ??HalLedUpdate_11
   \                     ??HalLedUpdate_10:
   \   00011B   7A00         MOV     R2,#0x0
   \                     ??HalLedUpdate_11:
   \   00011D                ; Setup parameters for call to function HalLedSet
   \   00011D   A9..         MOV     R1,?V0 + 14
   \   00011F   12....       LCALL   ??HalLedSet?relay
    339                        /* Clear the saved bit */
    340                        preBlinkState &= (led ^ 0xFF);
   \   000122   74FF         MOV     A,#-0x1
   \   000124   65..         XRL     A,?V0 + 14
   \   000126   FA           MOV     R2,A
   \   000127   90....       MOV     DPTR,#preBlinkState
   \   00012A   E0           MOVX    A,@DPTR
   \   00012B   5A           ANL     A,R2
   \   00012C   80D8         SJMP    ??HalLedUpdate_8
    341                      }
    342                    }
    343                    else
    344                    {
    345                      wait = sts->next - time;  /* Time left */
   \                     ??HalLedUpdate_4:
   \   00012E   A3           INC     DPTR
   \   00012F   A3           INC     DPTR
   \   000130   A3           INC     DPTR
   \   000131   A3           INC     DPTR
   \   000132   A3           INC     DPTR
   \   000133   78..         MOV     R0,#?V0 + 0
   \   000135   12....       LCALL   ?L_MOV_X
   \   000138   E5..         MOV     A,?V0 + 0
   \   00013A   C3           CLR     C
   \   00013B   95..         SUBB    A,?V0 + 4
   \   00013D   F5..         MOV     ?V0 + 0,A
   \   00013F   E5..         MOV     A,?V0 + 1
   \   000141   95..         SUBB    A,?V0 + 5
   \   000143   F5..         MOV     ?V0 + 1,A
    346                    }
    347          
    348                    if (!next || ( wait && (wait < next) ))
   \                     ??HalLedUpdate_9:
   \   000145   E5..         MOV     A,?V0 + 12
   \   000147   7002         JNZ     ??HalLedUpdate_12
   \   000149   E5..         MOV     A,?V0 + 13
   \                     ??HalLedUpdate_12:
   \   00014B   6013         JZ      ??HalLedUpdate_13
   \   00014D   E5..         MOV     A,?V0 + 0
   \   00014F   7002         JNZ     ??HalLedUpdate_14
   \   000151   E5..         MOV     A,?V0 + 1
   \                     ??HalLedUpdate_14:
   \   000153   6011         JZ      ??HalLedUpdate_3
   \   000155   C3           CLR     C
   \   000156   E5..         MOV     A,?V0 + 0
   \   000158   95..         SUBB    A,?V0 + 12
   \   00015A   E5..         MOV     A,?V0 + 1
   \   00015C   95..         SUBB    A,?V0 + 13
   \   00015E   5006         JNC     ??HalLedUpdate_3
    349                    {
    350                      next = wait;
   \                     ??HalLedUpdate_13:
   \   000160   85....       MOV     ?V0 + 12,?V0 + 0
   \   000163   85....       MOV     ?V0 + 13,?V0 + 1
    351                    }
    352                  }
    353                  leds ^= led;
   \                     ??HalLedUpdate_3:
   \   000166   E5..         MOV     A,?V0 + 14
   \   000168   62..         XRL     ?V0 + 15,A
    354                }
    355                led <<= 1;
   \                     ??HalLedUpdate_2:
   \   00016A   E5..         MOV     A,?V0 + 14
   \   00016C   C3           CLR     C
   \   00016D   33           RLC     A
   \   00016E   F5..         MOV     ?V0 + 14,A
    356                sts++;
   \   000170   12....       LCALL   ??Subroutine2_0 & 0xFFFF
    357              }
   \                     ??CrossCallReturnLabel_2:
   \   000173   E5..         MOV     A,?V0 + 15
   \   000175   6003         JZ      $+5
   \   000177   02....       LJMP    ??HalLedUpdate_1 & 0xFFFF
    358          
    359              if (next)
   \   00017A   E5..         MOV     A,?V0 + 12
   \   00017C   7002         JNZ     ??HalLedUpdate_15
   \   00017E   E5..         MOV     A,?V0 + 13
   \                     ??HalLedUpdate_15:
   \   000180   6010         JZ      ??HalLedUpdate_0
    360              {
    361                osal_start_timerEx(Hal_TaskID, HAL_LED_BLINK_EVENT, next);   /* Schedule event */
   \   000182                ; Setup parameters for call to function osal_start_timerEx
   \   000182   AC..         MOV     R4,?V0 + 12
   \   000184   AD..         MOV     R5,?V0 + 13
   \   000186   7A02         MOV     R2,#0x2
   \   000188   7B00         MOV     R3,#0x0
   \   00018A   90....       MOV     DPTR,#Hal_TaskID
   \   00018D   E0           MOVX    A,@DPTR
   \   00018E   F9           MOV     R1,A
   \   00018F   12....       LCALL   ??osal_start_timerEx?relay
    362              }
    363            }
    364          }
   \                     ??HalLedUpdate_0:
   \   000192   7F10         MOV     R7,#0x10
   \   000194   02....       LJMP    ?BANKED_LEAVE_XDATA
    365          
    366          /***************************************************************************************************
    367           * @fn      HalLedOnOff
    368           *
    369           * @brief   Turns specified LED ON or OFF
    370           *
    371           * @param   leds - LED bit mask
    372           *          mode - LED_ON,LED_OFF,
    373           *
    374           * @return  none
    375           ***************************************************************************************************/

   \                                 In  segment BANKED_CODE, align 1, keep-with-next
    376          void HalLedOnOff (uint8 leds, uint8 mode)
   \                     HalLedOnOff:
    377          {
   \   000000   C082         PUSH    DPL
   \   000002   C083         PUSH    DPH
   \   000004                ; Saved register size: 2
   \   000004                ; Auto size: 0
    378            if (leds & HAL_LED_1)
   \   000004   E9           MOV     A,R1
   \   000005   A2E0         MOV     C,0xE0 /* A   */.0
   \   000007   500B         JNC     ??HalLedOnOff_0
    379            {
    380              if (mode == HAL_LED_MODE_ON)
   \   000009   7401         MOV     A,#0x1
   \   00000B   6A           XRL     A,R2
   \   00000C   7004         JNZ     ??HalLedOnOff_1
    381              {
    382                HAL_TURN_ON_LED1();
   \   00000E   D281         SETB    0x80.1
   \   000010   8002         SJMP    ??HalLedOnOff_0
    383              }
    384              else
    385              {
    386                HAL_TURN_OFF_LED1();
   \                     ??HalLedOnOff_1:
   \   000012   C281         CLR     0x80.1
    387              }
    388            }
    389          
    390            if (leds & HAL_LED_2)
   \                     ??HalLedOnOff_0:
   \   000014   E9           MOV     A,R1
   \   000015   A2E1         MOV     C,0xE0 /* A   */.1
   \   000017   500B         JNC     ??HalLedOnOff_2
    391            {
    392              if (mode == HAL_LED_MODE_ON)
   \   000019   7401         MOV     A,#0x1
   \   00001B   6A           XRL     A,R2
   \   00001C   7004         JNZ     ??HalLedOnOff_3
    393              {
    394                HAL_TURN_ON_LED2();
   \   00001E   D280         SETB    0x80.0
   \   000020   8002         SJMP    ??HalLedOnOff_2
    395              }
    396              else
    397              {
    398                HAL_TURN_OFF_LED2();
   \                     ??HalLedOnOff_3:
   \   000022   C280         CLR     0x80.0
    399              }
    400            }
    401          
    402            if (leds & HAL_LED_3)
   \                     ??HalLedOnOff_2:
   \   000024   E9           MOV     A,R1
   \   000025   A2E2         MOV     C,0xE0 /* A   */.2
   \   000027   500B         JNC     ??HalLedOnOff_4
    403            {
    404              if (mode == HAL_LED_MODE_ON)
   \   000029   7401         MOV     A,#0x1
   \   00002B   6A           XRL     A,R2
   \   00002C   7004         JNZ     ??HalLedOnOff_5
    405              {
    406                HAL_TURN_ON_LED3();
   \   00002E   D294         SETB    0x90.4
   \   000030   8002         SJMP    ??HalLedOnOff_4
    407              }
    408              else
    409              {
    410                HAL_TURN_OFF_LED3();
   \                     ??HalLedOnOff_5:
   \   000032   C294         CLR     0x90.4
    411              }
    412            }
    413          
    414            if (leds & HAL_LED_4)
   \                     ??HalLedOnOff_4:
   \   000034   E9           MOV     A,R1
   \   000035   A2E3         MOV     C,0xE0 /* A   */.3
   \   000037   500B         JNC     ??HalLedOnOff_6
    415            {
    416              if (mode == HAL_LED_MODE_ON)
   \   000039   7401         MOV     A,#0x1
   \   00003B   6A           XRL     A,R2
   \   00003C   7004         JNZ     ??HalLedOnOff_7
    417              {
    418                HAL_TURN_ON_LED4();
   \   00003E   D281         SETB    0x80.1
   \   000040   8005         SJMP    ??HalLedOnOff_8
    419              }
    420              else
    421              {
    422                HAL_TURN_OFF_LED4();
   \                     ??HalLedOnOff_7:
   \   000042   C281         CLR     0x80.1
    423              }
    424            }
    425          
    426            /* Remember current state */
    427            if (mode)
   \                     ??HalLedOnOff_6:
   \   000044   EA           MOV     A,R2
   \   000045   6007         JZ      ??HalLedOnOff_9
    428            {
    429              HalLedState |= leds;
   \                     ??HalLedOnOff_8:
   \   000047   90....       MOV     DPTR,#HalLedState
   \   00004A   E0           MOVX    A,@DPTR
   \   00004B   49           ORL     A,R1
   \   00004C   8009         SJMP    ??HalLedOnOff_10
    430            }
    431            else
    432            {
    433              HalLedState &= (leds ^ 0xFF);
   \                     ??HalLedOnOff_9:
   \   00004E   74FF         MOV     A,#-0x1
   \   000050   69           XRL     A,R1
   \   000051   FB           MOV     R3,A
   \   000052   90....       MOV     DPTR,#HalLedState
   \   000055   E0           MOVX    A,@DPTR
   \   000056   5B           ANL     A,R3
    434            }
   \                     ??HalLedOnOff_10:
   \   000057   80..         SJMP    ??Subroutine3_0
   \   000059                REQUIRE _A_P0
   \   000059                REQUIRE _A_P1
    435          }
    436          #endif /* HAL_LED */
    437          
    438          /***************************************************************************************************
    439           * @fn      HalGetLedState
    440           *
    441           * @brief   Dim LED2 - Dim (set level) of LED2
    442           *
    443           * @param   none
    444           *
    445           * @return  led state
    446           ***************************************************************************************************/

   \                                 In  segment BANKED_CODE, align 1, keep-with-next
    447          uint8 HalLedGetState ()
   \                     HalLedGetState:
    448          {
   \   000000   C082         PUSH    DPL
   \   000002   C083         PUSH    DPH
   \   000004                ; Saved register size: 2
   \   000004                ; Auto size: 0
    449          #if (HAL_LED == TRUE)
    450            return HalLedState;
   \   000004   90....       MOV     DPTR,#HalLedState
   \   000007   E0           MOVX    A,@DPTR
   \   000008   F9           MOV     R1,A
   \   000009   80..         SJMP    ??Subroutine4_0
    451          #else
    452            return 0;
    453          #endif
    454          }
    455          
    456          /***************************************************************************************************
    457           * @fn      HalLedEnterSleep
    458           *
    459           * @brief   Store current LEDs state before sleep
    460           *
    461           * @param   none
    462           *
    463           * @return  none
    464           ***************************************************************************************************/

   \                                 In  segment BANKED_CODE, align 1, keep-with-next
    465          void HalLedEnterSleep( void )
   \                     HalLedEnterSleep:
    466          {
   \   000000   C082         PUSH    DPL
   \   000002   C083         PUSH    DPH
   \   000004                ; Saved register size: 2
   \   000004                ; Auto size: 0
    467          #ifdef BLINK_LEDS
    468            /* Sleep ON */
    469            HalLedStatusControl.sleepActive = TRUE;
   \   000004   7401         MOV     A,#0x1
   \   000006   90....       MOV     DPTR,#(HalLedStatusControl + 36)
   \   000009   F0           MOVX    @DPTR,A
    470          #endif /* BLINK_LEDS */
    471          
    472          #if (HAL_LED == TRUE)
    473            /* Save the state of each led */
    474            HalSleepLedState = 0;
    475            HalSleepLedState |= HAL_STATE_LED1();
   \   00000A   E580         MOV     A,0x80
   \   00000C   FA           MOV     R2,A
    476            HalSleepLedState |= HAL_STATE_LED2() << 1;
   \   00000D   E580         MOV     A,0x80
   \   00000F   FB           MOV     R3,A
    477            HalSleepLedState |= HAL_STATE_LED3() << 2;
   \   000010   E590         MOV     A,0x90
   \   000012   FC           MOV     R4,A
    478            HalSleepLedState |= HAL_STATE_LED4() << 3;
   \   000013   E580         MOV     A,0x80
   \   000015   FD           MOV     R5,A
   \   000016   EA           MOV     A,R2
   \   000017   A2E1         MOV     C,0xE0 /* A   */.1
   \   000019   5004         JNC     ??HalLedEnterSleep_0
   \   00001B   D2F0         SETB    B.0
   \   00001D   8002         SJMP    ??HalLedEnterSleep_1
   \                     ??HalLedEnterSleep_0:
   \   00001F   C2F0         CLR     B.0
   \                     ??HalLedEnterSleep_1:
   \   000021   EC           MOV     A,R4
   \   000022   A2E4         MOV     C,0xE0 /* A   */.4
   \   000024   5004         JNC     ??HalLedEnterSleep_2
   \   000026   D2F1         SETB    B.1
   \   000028   8002         SJMP    ??HalLedEnterSleep_3
   \                     ??HalLedEnterSleep_2:
   \   00002A   C2F1         CLR     B.1
   \                     ??HalLedEnterSleep_3:
   \   00002C   ED           MOV     A,R5
   \   00002D   A2E1         MOV     C,0xE0 /* A   */.1
   \   00002F   5004         JNC     ??HalLedEnterSleep_4
   \   000031   D2F2         SETB    B.2
   \   000033   8002         SJMP    ??HalLedEnterSleep_5
   \                     ??HalLedEnterSleep_4:
   \   000035   C2F2         CLR     B.2
   \                     ??HalLedEnterSleep_5:
   \   000037   A2F2         MOV     C,B.2
   \   000039   E4           CLR     A
   \   00003A   92E0         MOV     0xE0 /* A   */.0,C
   \   00003C   33           RLC     A
   \   00003D   33           RLC     A
   \   00003E   33           RLC     A
   \   00003F   54F8         ANL     A,#0xf8
   \   000041   C0E0         PUSH    A
   \   000043   A2F1         MOV     C,B.1
   \   000045   E4           CLR     A
   \   000046   92E0         MOV     0xE0 /* A   */.0,C
   \   000048   33           RLC     A
   \   000049   33           RLC     A
   \   00004A   54FC         ANL     A,#0xfc
   \   00004C   C0E0         PUSH    A
   \   00004E   EB           MOV     A,R3
   \   00004F   A2E0         MOV     C,0xE0 /* A   */.0
   \   000051   E4           CLR     A
   \   000052   92E0         MOV     0xE0 /* A   */.0,C
   \   000054   C3           CLR     C
   \   000055   33           RLC     A
   \   000056   C0E0         PUSH    A
   \   000058   A2F0         MOV     C,B.0
   \   00005A   E4           CLR     A
   \   00005B   92E0         MOV     0xE0 /* A   */.0,C
   \   00005D   FA           MOV     R2,A
   \   00005E   D0E0         POP     A
   \   000060   4A           ORL     A,R2
   \   000061   FA           MOV     R2,A
   \   000062   D0E0         POP     A
   \   000064   4A           ORL     A,R2
   \   000065   FA           MOV     R2,A
   \   000066   D0E0         POP     A
   \   000068   4A           ORL     A,R2
   \   000069   90....       MOV     DPTR,#HalSleepLedState
   \   00006C   F0           MOVX    @DPTR,A
    479          
    480            /* TURN OFF all LEDs to save power */
    481            HalLedOnOff (HAL_LED_ALL, HAL_LED_MODE_OFF);
   \   00006D                ; Setup parameters for call to function HalLedOnOff
   \   00006D   7A00         MOV     R2,#0x0
   \   00006F   790F         MOV     R1,#0xf
   \   000071   12....       LCALL   ??HalLedOnOff?relay
    482          #endif /* HAL_LED */
    483          
    484          }
   \   000074   02....       LJMP    ??Subroutine4_0 & 0xFFFF
   \   000077                REQUIRE _A_P0
   \   000077                REQUIRE _A_P1
    485          
    486          /***************************************************************************************************
    487           * @fn      HalLedExitSleep
    488           *
    489           * @brief   Restore current LEDs state after sleep
    490           *
    491           * @param   none
    492           *
    493           * @return  none
    494           ***************************************************************************************************/

   \                                 In  segment BANKED_CODE, align 1, keep-with-next
    495          void HalLedExitSleep( void )
   \                     HalLedExitSleep:
    496          {
   \   000000   C082         PUSH    DPL
   \   000002   C083         PUSH    DPH
   \   000004                ; Saved register size: 2
   \   000004                ; Auto size: 0
    497          #if (HAL_LED == TRUE)
    498            /* Load back the saved state */
    499            HalLedOnOff(HalSleepLedState, HAL_LED_MODE_ON);
   \   000004                ; Setup parameters for call to function HalLedOnOff
   \   000004   7A01         MOV     R2,#0x1
   \   000006   90....       MOV     DPTR,#HalSleepLedState
   \   000009   E0           MOVX    A,@DPTR
   \   00000A   F9           MOV     R1,A
   \   00000B   12....       LCALL   ??HalLedOnOff?relay
    500          
    501            /* Restart - This takes care BLINKING LEDS */
    502            HalLedUpdate();
   \   00000E                ; Setup parameters for call to function HalLedUpdate
   \   00000E   12....       LCALL   ??HalLedUpdate?relay
    503          #endif /* HAL_LED */
    504          
    505          #ifdef BLINK_LEDS
    506            /* Sleep OFF */
    507            HalLedStatusControl.sleepActive = FALSE;
   \   000011   02....       LJMP    ?Subroutine0 & 0xFFFF
    508          #endif /* BLINK_LEDS */
    509          }

   \                                 In  segment XDATA_ROM_C, align 1
   \                     __Constant_64:
   \   000000   64000000     DD 100

   \                                 In  segment BANK_RELAYS, align 1
   \                     ??HalLedInit?relay:
   \   000000   12....       LCALL   ?BDISPATCH
   \   000003   ......       DC24    HalLedInit

   \                                 In  segment BANK_RELAYS, align 1
   \                     ??HalLedSet?relay:
   \   000000   12....       LCALL   ?BDISPATCH
   \   000003   ......       DC24    HalLedSet

   \                                 In  segment BANK_RELAYS, align 1
   \                     ??HalLedBlink?relay:
   \   000000   12....       LCALL   ?BDISPATCH
   \   000003   ......       DC24    HalLedBlink

   \                                 In  segment BANK_RELAYS, align 1
   \                     ??HalLedUpdate?relay:
   \   000000   12....       LCALL   ?BDISPATCH
   \   000003   ......       DC24    HalLedUpdate

   \                                 In  segment BANK_RELAYS, align 1
   \                     ??HalLedOnOff?relay:
   \   000000   12....       LCALL   ?BDISPATCH
   \   000003   ......       DC24    HalLedOnOff

   \                                 In  segment BANK_RELAYS, align 1
   \                     ??HalLedGetState?relay:
   \   000000   12....       LCALL   ?BDISPATCH
   \   000003   ......       DC24    HalLedGetState

   \                                 In  segment BANK_RELAYS, align 1
   \                     ??HalLedEnterSleep?relay:
   \   000000   12....       LCALL   ?BDISPATCH
   \   000003   ......       DC24    HalLedEnterSleep

   \                                 In  segment BANK_RELAYS, align 1
   \                     ??HalLedExitSleep?relay:
   \   000000   12....       LCALL   ?BDISPATCH
   \   000003   ......       DC24    HalLedExitSleep
    510          
    511          /***************************************************************************************************
    512          ***************************************************************************************************/
    513          
    514          
    515          
    516          

   Maximum stack usage in bytes:

     Function                 ISTACK PSTACK XSTACK
     --------                 ------ ------ ------
     HalLedBlink                  1      0     29
       -> osal_GetSystemClock     0      0     36
       -> osal_set_event          0      0     36
       -> HalLedSet               0      0     36
       -> HalLedSet               0      0     36
     HalLedEnterSleep             5      0      0
       -> HalLedOnOff             4      0      0
     HalLedExitSleep              2      0      0
       -> HalLedOnOff             4      0      0
       -> HalLedUpdate            4      0      0
     HalLedGetState               2      0      0
     HalLedInit                   2      0      0
       -> HalLedSet               4      0      0
     HalLedOnOff                  2      0     24
     HalLedSet                    1      0     35
       -> HalLedBlink             0      0     22
       -> HalLedBlink             0      0     22
       -> HalLedOnOff             0      0     22
     HalLedUpdate                 0      0     24
       -> osal_GetSystemClock     0      0     48
       -> HalLedOnOff             0      0     48
       -> HalLedOnOff             0      0     48
       -> HalLedSet               0      0     48
       -> osal_start_timerEx      0      0     48


   Segment part sizes:

     Function/Label           Bytes
     --------------           -----
     _A_P0                       1
     _A_P1                       1
     HalLedState                 1
     HalSleepLedState            1
     preBlinkState               1
     HalLedStatusControl        37
     HalLedInit                 14
     ?Subroutine0                4
     ??Subroutine3_0             1
     ??Subroutine4_0             7
     HalLedSet                 117
     ?Subroutine1                6
     ??Subroutine2_0             9
     HalLedBlink               188
     HalLedUpdate              407
     HalLedOnOff                89
     HalLedGetState             11
     HalLedEnterSleep          119
     HalLedExitSleep            20
     __Constant_64               4
     ??HalLedInit?relay          6
     ??HalLedSet?relay           6
     ??HalLedBlink?relay         6
     ??HalLedUpdate?relay        6
     ??HalLedOnOff?relay         6
     ??HalLedGetState?relay      6
     ??HalLedEnterSleep?relay    6
     ??HalLedExitSleep?relay     6

 
 992 bytes in segment BANKED_CODE
  48 bytes in segment BANK_RELAYS
   2 bytes in segment SFR_AN
   4 bytes in segment XDATA_ROM_C
  40 bytes in segment XDATA_Z
 
 1 040 bytes of CODE  memory
     0 bytes of CONST memory (+ 4 bytes shared)
     0 bytes of DATA  memory (+ 2 bytes shared)
    40 bytes of XDATA memory

Errors: none
Warnings: none
