///////////////////////////////////////////////////////////////////////////////
//                                                                            /
// IAR C/C++ Compiler V7.60.1.40026 for 8051            08/Apr/2014  22:18:29 /
// Copyright (C) 2004-2010 IAR Systems AB.                                    /
//                                                                            /
//    Core               =  plain                                             /
//    Code model         =  banked                                            /
//    Data model         =  large                                             /
//    Calling convention =  xdata reentrant                                   /
//    Constant location  =  data_rom                                          /
//    Dptr setup         =  1,16                                              /
//    Source file        =  D:\zigbee\projects\zstack-cc2530-coordinator\Comp /
//                          onents\mt\MT_AF.c                                 /
//    Command line       =  -f D:\zigbee\projects\zstack-cc2530-coordinator\P /
//                          rojects\zstack\Samples\GenericApp\CC2530DB\..\..\ /
//                          ..\Tools\CC2530DB\f8wCoord.cfg (-DCPU32MHZ        /
//                          -DROOT=__near_func -DMAC_CFG_APP_PENDING_QUEUE=TR /
//                          UE -DMAC_CFG_TX_DATA_MAX=5 -DMAC_CFG_TX_MAX=8     /
//                          -DMAC_CFG_RX_MAX=5 -DZDO_COORDINATOR -DRTR_NWK)   /
//                          -f D:\zigbee\projects\zstack-cc2530-coordinator\P /
//                          rojects\zstack\Samples\GenericApp\CC2530DB\..\..\ /
//                          ..\Tools\CC2530DB\f8wConfig.cfg (-DZIGBEEPRO      /
//                          -DSECURE=0 -DZG_SECURE_DYNAMIC=0 -DREFLECTOR      /
//                          -DDEFAULT_CHANLIST=0x00000800                     /
//                          -DZDAPP_CONFIG_PAN_ID=0x1111                      /
//                          -DNWK_START_DELAY=100 -DEXTENDED_JOINING_RANDOM_M /
//                          ASK=0x007F -DBEACON_REQUEST_DELAY=100             /
//                          -DBEACON_REQ_DELAY_MASK=0x00FF                    /
//                          -DLINK_STATUS_JITTER_MASK=0x007F                  /
//                          -DROUTE_EXPIRY_TIME=30 -DAPSC_ACK_WAIT_DURATION_P /
//                          OLLED=3000 -DNWK_INDIRECT_MSG_TIMEOUT=7           /
//                          -DMAX_RREQ_ENTRIES=8 -DAPSC_MAX_FRAME_RETRIES=3   /
//                          -DNWK_MAX_DATA_RETRIES=2                          /
//                          -DMAX_POLL_FAILURE_RETRIES=2 -DMAX_BCAST=9        /
//                          -DAPS_MAX_GROUPS=16 -DMAX_RTG_ENTRIES=40          /
//                          -DNWK_MAX_BINDING_ENTRIES=4                       /
//                          -DMAX_BINDING_CLUSTER_IDS=4                       /
//                          "-DDEFAULT_KEY={0x01, 0x03, 0x05, 0x07, 0x09,     /
//                          0x0B, 0x0D, 0x0F, 0x00, 0x02, 0x04, 0x06, 0x08,   /
//                          0x0A, 0x0C, 0x0D}" -DMAC_MAX_FRAME_SIZE=116       /
//                          -DZDNWKMGR_MIN_TRANSMISSIONS=20 "-DCONST=const    /
//                          __code" -DGENERIC=__generic                       /
//                          -DRFD_RCVC_ALWAYS_ON=FALSE -DPOLL_RATE=1000       /
//                          -DQUEUED_POLL_RATE=100 -DRESPONSE_POLL_RATE=100)  /
//                          -DREJOIN_POLL_RATE=440 D:\zigbee\projects\zstack- /
//                          cc2530-coordinator\Components\mt\MT_AF.c -D       /
//                          ZAPP_P1 -D MT_TASK -D MT_SYS_FUNC -D MT_ZDO_FUNC  /
//                          -D LCD_SUPPORTED=DEBUG -lC                        /
//                          D:\zigbee\projects\zstack-cc2530-coordinator\Proj /
//                          ects\zstack\Samples\GenericApp\CC2530DB\Coordinat /
//                          orEB\List\ -lA D:\zigbee\projects\zstack-cc2530-c /
//                          oordinator\Projects\zstack\Samples\GenericApp\CC2 /
//                          530DB\CoordinatorEB\List\ --diag_suppress         /
//                          Pe001,Pa010 -o D:\zigbee\projects\zstack-cc2530-c /
//                          oordinator\Projects\zstack\Samples\GenericApp\CC2 /
//                          530DB\CoordinatorEB\Obj\ -e --require_prototypes  /
//                          --no_code_motion --debug --core=plain             /
//                          --dptr=16,1 --data_model=large                    /
//                          --code_model=banked --calling_convention=xdata_re /
//                          entrant --place_constants=data_rom                /
//                          --nr_virtual_regs 16 -I                           /
//                          D:\zigbee\projects\zstack-cc2530-coordinator\Proj /
//                          ects\zstack\Samples\GenericApp\CC2530DB\ -I       /
//                          D:\zigbee\projects\zstack-cc2530-coordinator\Proj /
//                          ects\zstack\Samples\GenericApp\CC2530DB\..\Source /
//                          \ -I D:\zigbee\projects\zstack-cc2530-coordinator /
//                          \Projects\zstack\Samples\GenericApp\CC2530DB\..\. /
//                          .\..\ZMain\TI2530DB\ -I                           /
//                          D:\zigbee\projects\zstack-cc2530-coordinator\Proj /
//                          ects\zstack\Samples\GenericApp\CC2530DB\..\..\..\ /
//                          ..\..\Components\hal\include\ -I                  /
//                          D:\zigbee\projects\zstack-cc2530-coordinator\Proj /
//                          ects\zstack\Samples\GenericApp\CC2530DB\..\..\..\ /
//                          ..\..\Components\hal\target\CC2530EB\ -I          /
//                          D:\zigbee\projects\zstack-cc2530-coordinator\Proj /
//                          ects\zstack\Samples\GenericApp\CC2530DB\..\..\..\ /
//                          ..\..\Components\mac\include\ -I                  /
//                          D:\zigbee\projects\zstack-cc2530-coordinator\Proj /
//                          ects\zstack\Samples\GenericApp\CC2530DB\..\..\..\ /
//                          ..\..\Components\mac\high_level\ -I               /
//                          D:\zigbee\projects\zstack-cc2530-coordinator\Proj /
//                          ects\zstack\Samples\GenericApp\CC2530DB\..\..\..\ /
//                          ..\..\Components\mac\low_level\srf04\ -I          /
//                          D:\zigbee\projects\zstack-cc2530-coordinator\Proj /
//                          ects\zstack\Samples\GenericApp\CC2530DB\..\..\..\ /
//                          ..\..\Components\mac\low_level\srf04\single_chip\ /
//                           -I D:\zigbee\projects\zstack-cc2530-coordinator\ /
//                          Projects\zstack\Samples\GenericApp\CC2530DB\..\.. /
//                          \..\..\..\Components\mt\ -I                       /
//                          D:\zigbee\projects\zstack-cc2530-coordinator\Proj /
//                          ects\zstack\Samples\GenericApp\CC2530DB\..\..\..\ /
//                          ..\..\Components\osal\include\ -I                 /
//                          D:\zigbee\projects\zstack-cc2530-coordinator\Proj /
//                          ects\zstack\Samples\GenericApp\CC2530DB\..\..\..\ /
//                          ..\..\Components\osal\mcu\ccsoc\ -I               /
//                          D:\zigbee\projects\zstack-cc2530-coordinator\Proj /
//                          ects\zstack\Samples\GenericApp\CC2530DB\..\..\..\ /
//                          ..\..\Components\services\saddr\ -I               /
//                          D:\zigbee\projects\zstack-cc2530-coordinator\Proj /
//                          ects\zstack\Samples\GenericApp\CC2530DB\..\..\..\ /
//                          ..\..\Components\services\sdata\ -I               /
//                          D:\zigbee\projects\zstack-cc2530-coordinator\Proj /
//                          ects\zstack\Samples\GenericApp\CC2530DB\..\..\..\ /
//                          ..\..\Components\stack\af\ -I                     /
//                          D:\zigbee\projects\zstack-cc2530-coordinator\Proj /
//                          ects\zstack\Samples\GenericApp\CC2530DB\..\..\..\ /
//                          ..\..\Components\stack\nwk\ -I                    /
//                          D:\zigbee\projects\zstack-cc2530-coordinator\Proj /
//                          ects\zstack\Samples\GenericApp\CC2530DB\..\..\..\ /
//                          ..\..\Components\stack\sapi\ -I                   /
//                          D:\zigbee\projects\zstack-cc2530-coordinator\Proj /
//                          ects\zstack\Samples\GenericApp\CC2530DB\..\..\..\ /
//                          ..\..\Components\stack\sec\ -I                    /
//                          D:\zigbee\projects\zstack-cc2530-coordinator\Proj /
//                          ects\zstack\Samples\GenericApp\CC2530DB\..\..\..\ /
//                          ..\..\Components\stack\sys\ -I                    /
//                          D:\zigbee\projects\zstack-cc2530-coordinator\Proj /
//                          ects\zstack\Samples\GenericApp\CC2530DB\..\..\..\ /
//                          ..\..\Components\stack\zdo\ -I                    /
//                          D:\zigbee\projects\zstack-cc2530-coordinator\Proj /
//                          ects\zstack\Samples\GenericApp\CC2530DB\..\..\..\ /
//                          ..\..\Components\zmac\ -I                         /
//                          D:\zigbee\projects\zstack-cc2530-coordinator\Proj /
//                          ects\zstack\Samples\GenericApp\CC2530DB\..\..\..\ /
//                          ..\..\Components\zmac\f8w\ -I "C:\Program Files   /
//                          (x86)\IAR Systems\Embedded Workbench              /
//                          5.4\8051\INC\" -I "C:\Program Files (x86)\IAR     /
//                          Systems\Embedded Workbench 5.4\8051\INC\CLIB\"    /
//                          -Ohz                                              /
//    List file          =  D:\zigbee\projects\zstack-cc2530-coordinator\Proj /
//                          ects\zstack\Samples\GenericApp\CC2530DB\Coordinat /
//                          orEB\List\MT_AF.s51                               /
//                                                                            /
//                                                                            /
///////////////////////////////////////////////////////////////////////////////

        NAME MT_AF

        RTMODEL "__calling_convention", "xdata_reentrant"
        RTMODEL "__code_model", "banked"
        RTMODEL "__core", "plain"
        RTMODEL "__data_model", "large"
        RTMODEL "__dptr_size", "16"
        RTMODEL "__extended_stack", "disabled"
        RTMODEL "__location_for_constants", "data"
        RTMODEL "__number_of_dptrs", "1"
        RTMODEL "__rt_version", "1"

        RSEG DOVERLAY:DATA:NOROOT(0)
        RSEG IOVERLAY:IDATA:NOROOT(0)
        RSEG ISTACK:IDATA:NOROOT(0)
        RSEG PSTACK:XDATA:NOROOT(0)
        RSEG XSTACK:XDATA:NOROOT(0)

        EXTERN ?ALLOC_XSTACK8
        EXTERN ?BANKED_ENTER_XDATA
        EXTERN ?BANKED_LEAVE_XDATA
        EXTERN ?BDISPATCH
        EXTERN ?BRET
        EXTERN ?DEALLOC_XSTACK8
        EXTERN ?L_ADD
        EXTERN ?L_EQ_X
        EXTERN ?L_MOV_X
        EXTERN ?L_SHL
        EXTERN ?PUSH_XSTACK8_X_TWO
        EXTERN ?PUSH_XSTACK_I_ONE
        EXTERN ?PUSH_XSTACK_I_THREE
        EXTERN ?PUSH_XSTACK_I_TWO
        EXTERN ?UC_SWITCH_SPARSE
        EXTERN ?UL_SHR
        EXTERN ?V0
        EXTERN ?XSP
        EXTERN ?XSTACK_DISP0_8
        EXTERN __INIT_XDATA_Z

        PUBLIC ??MT_AfCommandProcessing?relay
        FUNCTION ??MT_AfCommandProcessing?relay,0203H
        PUBLIC ??MT_AfDataConfirm?relay
        FUNCTION ??MT_AfDataConfirm?relay,0203H
        PUBLIC ??MT_AfDataRequest?relay
        FUNCTION ??MT_AfDataRequest?relay,0203H
        PUBLIC ??MT_AfDataRequestSrcRtg?relay
        FUNCTION ??MT_AfDataRequestSrcRtg?relay,0203H
        FUNCTION ??MT_AfDataRetrieve?relay,0203H
        FUNCTION ??MT_AfDataStore?relay,0203H
        PUBLIC ??MT_AfExec?relay
        FUNCTION ??MT_AfExec?relay,0203H
        PUBLIC ??MT_AfIncomingMsg?relay
        FUNCTION ??MT_AfIncomingMsg?relay,0203H
        PUBLIC ??MT_AfRegister?relay
        FUNCTION ??MT_AfRegister?relay,0203H
        PUBLIC MT_AfCommandProcessing
        FUNCTION MT_AfCommandProcessing,0a1203H
        ARGFRAME XSTACK, 0, STACK
        LOCFRAME XSTACK, 9, STACK
        PUBLIC MT_AfDataConfirm
        FUNCTION MT_AfDataConfirm,021203H
        ARGFRAME XSTACK, 0, STACK
        LOCFRAME ISTACK, 3, STACK
        LOCFRAME XSTACK, 3, STACK
        PUBLIC MT_AfDataRequest
        FUNCTION MT_AfDataRequest,021203H
        ARGFRAME XSTACK, 9, STACK
        ARGFRAME IOVERLAY, 0, STATIC
        ARGFRAME DOVERLAY, 0, STATIC
        LOCFRAME ISTACK, 1, STACK
        LOCFRAME XSTACK, 45, STACK
        PUBLIC MT_AfDataRequestSrcRtg
        FUNCTION MT_AfDataRequestSrcRtg,021203H
        ARGFRAME XSTACK, 9, STACK
        ARGFRAME IOVERLAY, 0, STATIC
        ARGFRAME DOVERLAY, 0, STATIC
        LOCFRAME ISTACK, 1, STACK
        LOCFRAME XSTACK, 46, STACK
        FUNCTION MT_AfDataRetrieve,021203H
        ARGFRAME XSTACK, 9, STACK
        ARGFRAME IOVERLAY, 0, STATIC
        ARGFRAME DOVERLAY, 0, STATIC
        LOCFRAME ISTACK, 1, STACK
        LOCFRAME XSTACK, 24, STACK
        FUNCTION MT_AfDataStore,021203H
        ARGFRAME XSTACK, 9, STACK
        ARGFRAME IOVERLAY, 0, STATIC
        ARGFRAME DOVERLAY, 0, STATIC
        LOCFRAME ISTACK, 1, STACK
        LOCFRAME XSTACK, 21, STACK
        PUBLIC MT_AfExec
        FUNCTION MT_AfExec,021203H
        ARGFRAME XSTACK, 0, STACK
        LOCFRAME XSTACK, 9, STACK
        PUBLIC MT_AfIncomingMsg
        FUNCTION MT_AfIncomingMsg,021203H
        ARGFRAME XSTACK, 0, STACK
        LOCFRAME ISTACK, 1, STACK
        LOCFRAME XSTACK, 26, STACK
        PUBLIC MT_AfRegister
        FUNCTION MT_AfRegister,021203H
        ARGFRAME XSTACK, 9, STACK
        ARGFRAME IOVERLAY, 0, STATIC
        ARGFRAME DOVERLAY, 0, STATIC
        LOCFRAME ISTACK, 1, STACK
        LOCFRAME XSTACK, 15, STACK
        PUBLIC pMtAfDataReq
        PUBLIC pMtAfInMsgList
        
        CFI Names cfiNames0
        CFI StackFrame CFA_SP SP IDATA
        CFI StackFrame CFA_PSP16 PSP16 XDATA
        CFI StackFrame CFA_XSP16 XSP16 XDATA
        CFI StaticOverlayFrame CFA_IOVERLAY IOVERLAY
        CFI StaticOverlayFrame CFA_DOVERLAY DOVERLAY
        CFI Resource `PSW.CY`:1, `B.BR0`:1, `B.BR1`:1, `B.BR2`:1, `B.BR3`:1
        CFI Resource `B.BR4`:1, `B.BR5`:1, `B.BR6`:1, `B.BR7`:1, `VB.BR8`:1
        CFI Resource `VB.BR9`:1, `VB.BR10`:1, `VB.BR11`:1, `VB.BR12`:1
        CFI Resource `VB.BR13`:1, `VB.BR14`:1, `VB.BR15`:1, VB:8, B:8, A:8
        CFI Resource PSW:8, DPL0:8, DPH0:8, R0:8, R1:8, R2:8, R3:8, R4:8, R5:8
        CFI Resource R6:8, R7:8, V0:8, V1:8, V2:8, V3:8, V4:8, V5:8, V6:8, V7:8
        CFI Resource V8:8, V9:8, V10:8, V11:8, V12:8, V13:8, V14:8, V15:8, SP:8
        CFI Resource PSPH:8, PSPL:8, PSP16:16, XSPH:8, XSPL:8, XSP16:16
        CFI VirtualResource ?RET:24
        CFI Resource ?BRET_EXT:8
        CFI VirtualResource ?RET_HIGH:8, ?RET_LOW:8
        CFI ResourceParts PSP16 PSPH, PSPL
        CFI ResourceParts XSP16 XSPH, XSPL
        CFI ResourceParts ?RET ?BRET_EXT, ?RET_HIGH, ?RET_LOW
        CFI EndNames cfiNames0
        
        CFI Common cfiCommon0 Using cfiNames0
        CFI CodeAlign 1
        CFI DataAlign -1
        CFI ReturnAddress ?RET CODE
        CFI CFA_DOVERLAY Used
        CFI CFA_IOVERLAY Used
        CFI CFA_SP SP+-3
        CFI CFA_PSP16 PSP16+0
        CFI CFA_XSP16 XSP16+0
        CFI `PSW.CY` SameValue
        CFI `B.BR0` SameValue
        CFI `B.BR1` SameValue
        CFI `B.BR2` SameValue
        CFI `B.BR3` SameValue
        CFI `B.BR4` SameValue
        CFI `B.BR5` SameValue
        CFI `B.BR6` SameValue
        CFI `B.BR7` SameValue
        CFI `VB.BR8` SameValue
        CFI `VB.BR9` SameValue
        CFI `VB.BR10` SameValue
        CFI `VB.BR11` SameValue
        CFI `VB.BR12` SameValue
        CFI `VB.BR13` SameValue
        CFI `VB.BR14` SameValue
        CFI `VB.BR15` SameValue
        CFI VB SameValue
        CFI B Undefined
        CFI A Undefined
        CFI PSW SameValue
        CFI DPL0 SameValue
        CFI DPH0 SameValue
        CFI R0 Undefined
        CFI R1 Undefined
        CFI R2 Undefined
        CFI R3 Undefined
        CFI R4 Undefined
        CFI R5 Undefined
        CFI R6 SameValue
        CFI R7 SameValue
        CFI V0 SameValue
        CFI V1 SameValue
        CFI V2 SameValue
        CFI V3 SameValue
        CFI V4 SameValue
        CFI V5 SameValue
        CFI V6 SameValue
        CFI V7 SameValue
        CFI V8 SameValue
        CFI V9 SameValue
        CFI V10 SameValue
        CFI V11 SameValue
        CFI V12 SameValue
        CFI V13 SameValue
        CFI V14 SameValue
        CFI V15 SameValue
        CFI PSPH Undefined
        CFI PSPL Undefined
        CFI XSPH Undefined
        CFI XSPL Undefined
        CFI ?RET Concat
        CFI ?BRET_EXT Frame(CFA_SP, 3)
        CFI ?RET_HIGH Frame(CFA_SP, 2)
        CFI ?RET_LOW Frame(CFA_SP, 1)
        CFI EndCommon cfiCommon0
        
        
        CFI Common cfiCommon1 Using cfiNames0
        CFI CodeAlign 1
        CFI DataAlign -1
        CFI ReturnAddress ?RET CODE
        CFI CFA_DOVERLAY Used
        CFI CFA_IOVERLAY Used
        CFI CFA_SP SP+-2
        CFI CFA_PSP16 PSP16+0
        CFI CFA_XSP16 XSP16+0
        CFI `PSW.CY` SameValue
        CFI `B.BR0` SameValue
        CFI `B.BR1` SameValue
        CFI `B.BR2` SameValue
        CFI `B.BR3` SameValue
        CFI `B.BR4` SameValue
        CFI `B.BR5` SameValue
        CFI `B.BR6` SameValue
        CFI `B.BR7` SameValue
        CFI `VB.BR8` SameValue
        CFI `VB.BR9` SameValue
        CFI `VB.BR10` SameValue
        CFI `VB.BR11` SameValue
        CFI `VB.BR12` SameValue
        CFI `VB.BR13` SameValue
        CFI `VB.BR14` SameValue
        CFI `VB.BR15` SameValue
        CFI VB SameValue
        CFI B SameValue
        CFI A SameValue
        CFI PSW SameValue
        CFI DPL0 SameValue
        CFI DPH0 SameValue
        CFI R0 SameValue
        CFI R1 SameValue
        CFI R2 SameValue
        CFI R3 SameValue
        CFI R4 SameValue
        CFI R5 SameValue
        CFI R6 SameValue
        CFI R7 SameValue
        CFI V0 SameValue
        CFI V1 SameValue
        CFI V2 SameValue
        CFI V3 SameValue
        CFI V4 SameValue
        CFI V5 SameValue
        CFI V6 SameValue
        CFI V7 SameValue
        CFI V8 SameValue
        CFI V9 SameValue
        CFI V10 SameValue
        CFI V11 SameValue
        CFI V12 SameValue
        CFI V13 SameValue
        CFI V14 SameValue
        CFI V15 SameValue
        CFI PSPH Undefined
        CFI PSPL Undefined
        CFI XSPH Undefined
        CFI XSPL Undefined
        CFI ?RET Concat
        CFI ?BRET_EXT SameValue
        CFI ?RET_HIGH Frame(CFA_SP, 2)
        CFI ?RET_LOW Frame(CFA_SP, 1)
        CFI EndCommon cfiCommon1
        
osal_mem_free       SYMBOL "osal_mem_free"
osal_start_timerEx  SYMBOL "osal_start_timerEx"
osal_set_event      SYMBOL "osal_set_event"
osal_mem_alloc      SYMBOL "osal_mem_alloc"
MT_BuildEndpointDesc SYMBOL "MT_BuildEndpointDesc"
afRegister          SYMBOL "afRegister"
MT_BuildAndSendZToolResponse SYMBOL "MT_BuildAndSendZToolResponse"
osal_memcpy         SYMBOL "osal_memcpy"
afFindEndPointDesc  SYMBOL "afFindEndPointDesc"
AF_DataRequest      SYMBOL "AF_DataRequest"
osal_memset         SYMBOL "osal_memset"
AF_DataRequestSrcRtg SYMBOL "AF_DataRequestSrcRtg"
??AF_DataRequest?relay SYMBOL "?relay", AF_DataRequest
??AF_DataRequestSrcRtg?relay SYMBOL "?relay", AF_DataRequestSrcRtg
??MT_BuildAndSendZToolResponse?relay SYMBOL "?relay", MT_BuildAndSendZToolResponse
??MT_BuildEndpointDesc?relay SYMBOL "?relay", MT_BuildEndpointDesc
??afFindEndPointDesc?relay SYMBOL "?relay", afFindEndPointDesc
??afRegister?relay  SYMBOL "?relay", afRegister
??osal_mem_alloc?relay SYMBOL "?relay", osal_mem_alloc
??osal_mem_free?relay SYMBOL "?relay", osal_mem_free
??osal_memcpy?relay SYMBOL "?relay", osal_memcpy
??osal_memset?relay SYMBOL "?relay", osal_memset
??osal_set_event?relay SYMBOL "?relay", osal_set_event
??osal_start_timerEx?relay SYMBOL "?relay", osal_start_timerEx
MT_AfCommandProcessing SYMBOL "MT_AfCommandProcessing"
??MT_AfCommandProcessing?relay SYMBOL "?relay", MT_AfCommandProcessing
MT_AfDataConfirm    SYMBOL "MT_AfDataConfirm"
??MT_AfDataConfirm?relay SYMBOL "?relay", MT_AfDataConfirm
MT_AfDataRequest    SYMBOL "MT_AfDataRequest"
??MT_AfDataRequest?relay SYMBOL "?relay", MT_AfDataRequest
MT_AfDataRequestSrcRtg SYMBOL "MT_AfDataRequestSrcRtg"
??MT_AfDataRequestSrcRtg?relay SYMBOL "?relay", MT_AfDataRequestSrcRtg
MT_AfExec           SYMBOL "MT_AfExec"
??MT_AfExec?relay   SYMBOL "?relay", MT_AfExec
MT_AfIncomingMsg    SYMBOL "MT_AfIncomingMsg"
??MT_AfIncomingMsg?relay SYMBOL "?relay", MT_AfIncomingMsg
MT_AfRegister       SYMBOL "MT_AfRegister"
??MT_AfRegister?relay SYMBOL "?relay", MT_AfRegister

        EXTERN osal_mem_free
        FUNCTION osal_mem_free,0202H
        ARGFRAME ISTACK, 0, STACK
        ARGFRAME PSTACK, 0, STACK
        ARGFRAME XSTACK, 34, STACK
        ARGFRAME IOVERLAY, 0, STATIC
        ARGFRAME DOVERLAY, 0, STATIC
        EXTERN osal_start_timerEx
        FUNCTION osal_start_timerEx,0202H
        ARGFRAME ISTACK, 0, STACK
        ARGFRAME PSTACK, 0, STACK
        ARGFRAME XSTACK, 36, STACK
        ARGFRAME IOVERLAY, 0, STATIC
        ARGFRAME DOVERLAY, 0, STATIC
        EXTERN osal_set_event
        FUNCTION osal_set_event,0202H
        ARGFRAME ISTACK, 0, STACK
        ARGFRAME PSTACK, 0, STACK
        ARGFRAME XSTACK, 36, STACK
        ARGFRAME IOVERLAY, 0, STATIC
        ARGFRAME DOVERLAY, 0, STATIC
        EXTERN osal_mem_alloc
        FUNCTION osal_mem_alloc,0202H
        ARGFRAME ISTACK, 0, STACK
        ARGFRAME PSTACK, 0, STACK
        ARGFRAME XSTACK, 36, STACK
        ARGFRAME IOVERLAY, 0, STATIC
        ARGFRAME DOVERLAY, 0, STATIC
        EXTERN MT_BuildEndpointDesc
        FUNCTION MT_BuildEndpointDesc,0202H
        ARGFRAME ISTACK, 0, STACK
        ARGFRAME PSTACK, 0, STACK
        ARGFRAME XSTACK, 15, STACK
        ARGFRAME IOVERLAY, 0, STATIC
        ARGFRAME DOVERLAY, 0, STATIC
        EXTERN afRegister
        FUNCTION afRegister,0202H
        ARGFRAME ISTACK, 0, STACK
        ARGFRAME PSTACK, 0, STACK
        ARGFRAME XSTACK, 15, STACK
        ARGFRAME IOVERLAY, 0, STATIC
        ARGFRAME DOVERLAY, 0, STATIC
        EXTERN MT_BuildAndSendZToolResponse
        FUNCTION MT_BuildAndSendZToolResponse,0202H
        ARGFRAME ISTACK, 2, STACK
        ARGFRAME PSTACK, 0, STACK
        ARGFRAME XSTACK, 36, STACK
        ARGFRAME IOVERLAY, 0, STATIC
        ARGFRAME DOVERLAY, 0, STATIC
        EXTERN osal_memcpy
        FUNCTION osal_memcpy,0202H
        ARGFRAME ISTACK, 0, STACK
        ARGFRAME PSTACK, 0, STACK
        ARGFRAME XSTACK, 39, STACK
        ARGFRAME IOVERLAY, 0, STATIC
        ARGFRAME DOVERLAY, 0, STATIC
        EXTERN afFindEndPointDesc
        FUNCTION afFindEndPointDesc,0202H
        ARGFRAME ISTACK, 0, STACK
        ARGFRAME PSTACK, 0, STACK
        ARGFRAME XSTACK, 36, STACK
        ARGFRAME IOVERLAY, 0, STATIC
        ARGFRAME DOVERLAY, 0, STATIC
        EXTERN AF_DataRequest
        FUNCTION AF_DataRequest,0202H
        ARGFRAME ISTACK, 0, STACK
        ARGFRAME PSTACK, 0, STACK
        ARGFRAME XSTACK, 45, STACK
        ARGFRAME IOVERLAY, 0, STATIC
        ARGFRAME DOVERLAY, 0, STATIC
        EXTERN osal_memset
        FUNCTION osal_memset,0202H
        ARGFRAME ISTACK, 0, STACK
        ARGFRAME PSTACK, 0, STACK
        ARGFRAME XSTACK, 34, STACK
        ARGFRAME IOVERLAY, 0, STATIC
        ARGFRAME DOVERLAY, 0, STATIC
        EXTERN AF_DataRequestSrcRtg
        FUNCTION AF_DataRequestSrcRtg,0202H
        ARGFRAME ISTACK, 0, STACK
        ARGFRAME PSTACK, 0, STACK
        ARGFRAME XSTACK, 46, STACK
        ARGFRAME IOVERLAY, 0, STATIC
        ARGFRAME DOVERLAY, 0, STATIC
        EXTERN ??AF_DataRequest?relay
        FUNCTION ??AF_DataRequest?relay,00H
        EXTERN ??AF_DataRequestSrcRtg?relay
        FUNCTION ??AF_DataRequestSrcRtg?relay,00H
        EXTERN ??MT_BuildAndSendZToolResponse?relay
        FUNCTION ??MT_BuildAndSendZToolResponse?relay,00H
        EXTERN ??MT_BuildEndpointDesc?relay
        FUNCTION ??MT_BuildEndpointDesc?relay,00H
        EXTERN ??afFindEndPointDesc?relay
        FUNCTION ??afFindEndPointDesc?relay,00H
        EXTERN ??afRegister?relay
        FUNCTION ??afRegister?relay,00H
        EXTERN ??osal_mem_alloc?relay
        FUNCTION ??osal_mem_alloc?relay,00H
        EXTERN ??osal_mem_free?relay
        FUNCTION ??osal_mem_free?relay,00H
        EXTERN ??osal_memcpy?relay
        FUNCTION ??osal_memcpy?relay,00H
        EXTERN ??osal_memset?relay
        FUNCTION ??osal_memset?relay,00H
        EXTERN ??osal_set_event?relay
        FUNCTION ??osal_set_event?relay,00H
        EXTERN ??osal_start_timerEx?relay
        FUNCTION ??osal_start_timerEx?relay,00H
        EXTERN MT_TaskID

// D:\zigbee\projects\zstack-cc2530-coordinator\Components\mt\MT_AF.c
//    1 /**************************************************************************************************
//    2   Filename:       MT_AF.c
//    3   Revised:        $Date: 2010-08-13 18:15:16 -0700 (Fri, 13 Aug 2010) $
//    4   Revision:       $Revision: 23412 $
//    5 
//    6 
//    7   Description:    MonitorTest functions for the AF layer.
//    8 
//    9 
//   10   Copyright 2007-2010 Texas Instruments Incorporated. All rights reserved.
//   11 
//   12   IMPORTANT: Your use of this Software is limited to those specific rights
//   13   granted under the terms of a software license agreement between the user
//   14   who downloaded the software, his/her employer (which must be your employer)
//   15   and Texas Instruments Incorporated (the "License").  You may not use this
//   16   Software unless you agree to abide by the terms of the License. The License
//   17   limits your use, and you acknowledge, that the Software may not be modified,
//   18   copied or distributed unless embedded on a Texas Instruments microcontroller
//   19   or used solely and exclusively in conjunction with a Texas Instruments radio
//   20   frequency transceiver, which is integrated into your product.  Other than for
//   21   the foregoing purpose, you may not use, reproduce, copy, prepare derivative
//   22   works of, modify, distribute, perform, display or sell this Software and/or
//   23   its documentation for any purpose.
//   24 
//   25   YOU FURTHER ACKNOWLEDGE AND AGREE THAT THE SOFTWARE AND DOCUMENTATION ARE
//   26   PROVIDED “AS IS” WITHOUT WARRANTY OF ANY KIND, EITHER EXPRESS OR IMPLIED,
//   27   INCLUDING WITHOUT LIMITATION, ANY WARRANTY OF MERCHANTABILITY, TITLE,
//   28   NON-INFRINGEMENT AND FITNESS FOR A PARTICULAR PURPOSE. IN NO EVENT SHALL
//   29   TEXAS INSTRUMENTS OR ITS LICENSORS BE LIABLE OR OBLIGATED UNDER CONTRACT,
//   30   NEGLIGENCE, STRICT LIABILITY, CONTRIBUTION, BREACH OF WARRANTY, OR OTHER
//   31   LEGAL EQUITABLE THEORY ANY DIRECT OR INDIRECT DAMAGES OR EXPENSES
//   32   INCLUDING BUT NOT LIMITED TO ANY INCIDENTAL, SPECIAL, INDIRECT, PUNITIVE
//   33   OR CONSEQUENTIAL DAMAGES, LOST PROFITS OR LOST DATA, COST OF PROCUREMENT
//   34   OF SUBSTITUTE GOODS, TECHNOLOGY, SERVICES, OR ANY CLAIMS BY THIRD PARTIES
//   35   (INCLUDING BUT NOT LIMITED TO ANY DEFENSE THEREOF), OR OTHER SIMILAR COSTS.
//   36 
//   37   Should you have any questions regarding your right to use this Software,
//   38   contact Texas Instruments Incorporated at www.TI.com.
//   39 
//   40 **************************************************************************************************/
//   41 
//   42 /***************************************************************************************************
//   43  * INCLUDES
//   44  ***************************************************************************************************/
//   45 #include "ZComDef.h"
//   46 #include "OSAL.h"
//   47 #include "MT.h"
//   48 #include "MT_AF.h"
//   49 #include "MT_ZDO.h"
//   50 #include "nwk.h"
//   51 #include "OnBoard.h"
//   52 #include "MT_UART.h"
//   53 
//   54 #if defined INTER_PAN
//   55 #include "stub_aps.h"
//   56 #endif
//   57 
//   58 /* ------------------------------------------------------------------------------------------------
//   59  *                                          Constants
//   60  * ------------------------------------------------------------------------------------------------
//   61  */
//   62 
//   63 #if !defined MT_AF_EXEC_CNT
//   64 #define MT_AF_EXEC_CNT  15
//   65 #endif
//   66 
//   67 #if !defined MT_AF_EXEC_DLY
//   68 #define MT_AF_EXEC_DLY  1000
//   69 #endif
//   70 
//   71 /* ------------------------------------------------------------------------------------------------
//   72  *                                           Typedefs
//   73  * ------------------------------------------------------------------------------------------------
//   74  */
//   75 
//   76 /*
//   77 typedef struct
//   78 {
//   79   union
//   80   {
//   81     uint16      shortAddr;
//   82     ZLongAddr_t extAddr;
//   83   } addr;
//   84   afAddrMode_t addrMode;
//   85   byte endPoint;
//   86   uint16 panId;  // used for the INTER_PAN feature
//   87 } afAddrType_t;
//   88 
//   89 typedef struct
//   90 {
//   91   byte   TransSeqNumber;
//   92   uint16 DataLength;               // Number of bytes in TransData
//   93   byte  *Data;
//   94 } afMSGCommandFormat_t;
//   95  */
//   96 
//   97 typedef struct
//   98 {
//   99   uint8 *data;
//  100   afAddrType_t dstAddr;
//  101   endPointDesc_t *epDesc;
//  102   uint16 cId;
//  103   uint16 dataLen;
//  104   uint8 transId;
//  105   uint8 txOpts;
//  106   uint8 radius;
//  107   uint8 tick;
//  108 } mtAfDataReq_t;
//  109 
//  110 struct _mtAfInMsgList_t
//  111 {
//  112   struct _mtAfInMsgList_t *next;
//  113   uint8 *data;
//  114   uint32 timestamp;         // Receipt timestamp from MAC.
//  115   uint8 tick;
//  116 };
//  117 typedef struct _mtAfInMsgList_t mtAfInMsgList_t;
//  118 
//  119 /* ------------------------------------------------------------------------------------------------
//  120  *                                        Local Variables
//  121  * ------------------------------------------------------------------------------------------------
//  122  */
//  123 

        RSEG XDATA_Z:XDATA:NOROOT(0)
//  124 mtAfInMsgList_t *pMtAfInMsgList = NULL;
pMtAfInMsgList:
        DS 2
        REQUIRE __INIT_XDATA_Z

        RSEG XDATA_Z:XDATA:NOROOT(0)
//  125 mtAfDataReq_t *pMtAfDataReq = NULL;
pMtAfDataReq:
        DS 2
        REQUIRE __INIT_XDATA_Z
//  126 
//  127 /* ------------------------------------------------------------------------------------------------
//  128  *                                        Global Variables
//  129  * ------------------------------------------------------------------------------------------------
//  130  */
//  131 
//  132 #if defined ( MT_AF_CB_FUNC )
//  133 uint16 _afCallbackSub;
//  134 #endif
//  135 
//  136 /* ------------------------------------------------------------------------------------------------
//  137  *                                        Local Functions
//  138  * ------------------------------------------------------------------------------------------------
//  139  */
//  140 
//  141 void MT_AfRegister(uint8 *pBuf);
//  142 void MT_AfDataRequest(uint8 *pBuf);
//  143 
//  144 #if defined ( ZIGBEE_SOURCE_ROUTING )
//  145 void MT_AfDataRequestSrcRtg(uint8 *pBuf);
//  146 #endif
//  147 
//  148 #if defined INTER_PAN
//  149 static void MT_AfInterPanCtl(uint8 *pBuf);
//  150 #endif
//  151 
//  152 static void MT_AfDataRetrieve(uint8 *pBuf);
//  153 static void MT_AfDataStore(uint8 *pBuf);
//  154 
//  155 /**************************************************************************************************
//  156  * @fn          MT_AfExec
//  157  *
//  158  * @brief       This function is invoked by an MT timer event.
//  159  *
//  160  * input parameters
//  161  *
//  162  * None.
//  163  *
//  164  * output parameters
//  165  *
//  166  * None.
//  167  *
//  168  * @return      None.
//  169  **************************************************************************************************
//  170  */

        RSEG BANKED_CODE:CODE:NOROOT(0)
//  171 void MT_AfExec(void)
MT_AfExec:
        CFI Block cfiBlock0 Using cfiCommon0
        CFI Function MT_AfExec
//  172 {
        FUNCALL MT_AfExec, osal_mem_free
        LOCFRAME ISTACK, 0, STACK
        LOCFRAME PSTACK, 0, STACK
        LOCFRAME XSTACK, 9, STACK
        LOCFRAME IOVERLAY, 0, STATIC
        LOCFRAME DOVERLAY, 0, STATIC
        ARGFRAME ISTACK, 0, STACK
        ARGFRAME PSTACK, 0, STACK
        ARGFRAME XSTACK, 9, STACK
        ARGFRAME IOVERLAY, 0, STATIC
        ARGFRAME DOVERLAY, 0, STATIC
        FUNCALL MT_AfExec, osal_mem_free
        LOCFRAME ISTACK, 0, STACK
        LOCFRAME PSTACK, 0, STACK
        LOCFRAME XSTACK, 9, STACK
        LOCFRAME IOVERLAY, 0, STATIC
        LOCFRAME DOVERLAY, 0, STATIC
        ARGFRAME ISTACK, 0, STACK
        ARGFRAME PSTACK, 0, STACK
        ARGFRAME XSTACK, 9, STACK
        ARGFRAME IOVERLAY, 0, STATIC
        ARGFRAME DOVERLAY, 0, STATIC
        FUNCALL MT_AfExec, osal_mem_free
        LOCFRAME ISTACK, 0, STACK
        LOCFRAME PSTACK, 0, STACK
        LOCFRAME XSTACK, 9, STACK
        LOCFRAME IOVERLAY, 0, STATIC
        LOCFRAME DOVERLAY, 0, STATIC
        ARGFRAME ISTACK, 0, STACK
        ARGFRAME PSTACK, 0, STACK
        ARGFRAME XSTACK, 9, STACK
        ARGFRAME IOVERLAY, 0, STATIC
        ARGFRAME DOVERLAY, 0, STATIC
        FUNCALL MT_AfExec, osal_start_timerEx
        LOCFRAME ISTACK, 0, STACK
        LOCFRAME PSTACK, 0, STACK
        LOCFRAME XSTACK, 9, STACK
        LOCFRAME IOVERLAY, 0, STATIC
        LOCFRAME DOVERLAY, 0, STATIC
        ARGFRAME ISTACK, 0, STACK
        ARGFRAME PSTACK, 0, STACK
        ARGFRAME XSTACK, 9, STACK
        ARGFRAME IOVERLAY, 0, STATIC
        ARGFRAME DOVERLAY, 0, STATIC
        FUNCALL MT_AfExec, osal_set_event
        LOCFRAME ISTACK, 0, STACK
        LOCFRAME PSTACK, 0, STACK
        LOCFRAME XSTACK, 9, STACK
        LOCFRAME IOVERLAY, 0, STATIC
        LOCFRAME DOVERLAY, 0, STATIC
        ARGFRAME ISTACK, 0, STACK
        ARGFRAME PSTACK, 0, STACK
        ARGFRAME XSTACK, 9, STACK
        ARGFRAME IOVERLAY, 0, STATIC
        ARGFRAME DOVERLAY, 0, STATIC
        MOV     A,#-0x9
        LCALL   ?BANKED_ENTER_XDATA
        CFI R6 load(1, XDATA, add(CFA_XSP16, literal(-9)))
        CFI VB load(1, XDATA, add(CFA_XSP16, literal(-8)))
        CFI V0 load(1, XDATA, add(CFA_XSP16, literal(-7)))
        CFI R7 load(1, XDATA, add(CFA_XSP16, literal(-6)))
        CFI ?RET_LOW load(1, XDATA, add(CFA_XSP16, literal(-5)))
        CFI ?RET_HIGH load(1, XDATA, add(CFA_XSP16, literal(-4)))
        CFI ?BRET_EXT load(1, XDATA, add(CFA_XSP16, literal(-3)))
        CFI DPL0 load(1, XDATA, add(CFA_XSP16, literal(-2)))
        CFI DPH0 load(1, XDATA, add(CFA_XSP16, literal(-1)))
        CFI CFA_SP SP+0
        CFI CFA_XSP16 add(XSP16, 9)
        ; Saved register size: 9
        ; Auto size: 0
//  173   mtAfInMsgList_t *pPrev, *pItem = pMtAfInMsgList;
??MT_AfExec_0:
        MOV     DPTR,#pMtAfInMsgList
        SJMP    ??MT_AfExec_1
//  174 
//  175   while (pItem != NULL)
//  176   {
//  177     if (--(pItem->tick) == 0)
//  178     {
//  179       if (pMtAfInMsgList == pItem)
//  180       {
//  181         pMtAfInMsgList = pItem->next;
//  182         (void)osal_mem_free(pItem);
//  183         pItem = pMtAfInMsgList;
//  184       }
//  185       else
//  186       {
//  187         pPrev->next = pItem->next;
//  188         (void)osal_mem_free(pItem);
//  189         pItem = pPrev->next;
//  190       }
//  191     }
//  192     else
//  193     {
//  194       pPrev = pItem;
??MT_AfExec_2:
        MOV     A,R2
        MOV     R6,A
        MOV     A,R3
        MOV     R7,A
//  195       pItem = pItem->next;
        MOV     DPL,R2
        MOV     DPH,R3
??MT_AfExec_1:
        MOVX    A,@DPTR
        MOV     R2,A
        INC     DPTR
        MOVX    A,@DPTR
        MOV     R3,A
//  196     }
        MOV     A,R2
        JNZ     ??MT_AfExec_3
        MOV     A,R3
??MT_AfExec_3:
        JZ      ??MT_AfExec_4
        MOV     A,R2
        ADD     A,#0x8
        LCALL   ?Subroutine38 & 0xFFFF
??CrossCallReturnLabel_76:
        DEC     A
        MOVX    @DPTR,A
        JNZ     ??MT_AfExec_2
        LCALL   ?Subroutine16 & 0xFFFF
??CrossCallReturnLabel_121:
        MOV     A,R2
        XRL     A,R0
        JNZ     ??MT_AfExec_5
        MOV     A,R3
        XRL     A,R1
??MT_AfExec_5:
        MOV     DPL,R2
        MOV     DPH,R3
        JNZ     ??MT_AfExec_6
        LCALL   ?Subroutine15 & 0xFFFF
??CrossCallReturnLabel_22:
        LCALL   ?Subroutine30 & 0xFFFF
??CrossCallReturnLabel_55:
        SJMP    ??MT_AfExec_0
??MT_AfExec_6:
        LCALL   ??Subroutine55_0 & 0xFFFF
??CrossCallReturnLabel_119:
        MOV     DPL,R6
        MOV     DPH,R7
        LCALL   ?Subroutine30 & 0xFFFF
??CrossCallReturnLabel_56:
        MOV     DPL,R6
        MOV     DPH,R7
        SJMP    ??MT_AfExec_1
//  197   }
//  198 
//  199   if (pMtAfDataReq != NULL)
??MT_AfExec_4:
        MOV     DPTR,#pMtAfDataReq
        MOVX    A,@DPTR
        JNZ     ??MT_AfExec_7
        INC     DPTR
        MOVX    A,@DPTR
??MT_AfExec_7:
        JZ      ??MT_AfExec_8
//  200   {
//  201     if (--(pMtAfDataReq->tick) == 0)
        LCALL   ?Subroutine2 & 0xFFFF
??CrossCallReturnLabel_81:
        DEC     A
        MOVX    @DPTR,A
        LCALL   ?Subroutine2 & 0xFFFF
??CrossCallReturnLabel_82:
        JNZ     ??MT_AfExec_8
//  202     {
//  203       (void)osal_mem_free(pMtAfDataReq);
        ; Setup parameters for call to function osal_mem_free
        LCALL   ?Subroutine8 & 0xFFFF
//  204       pMtAfDataReq = NULL;
//  205     }
//  206   }
??CrossCallReturnLabel_7:
        MOVX    @DPTR,A
//  207 
//  208   if ((pMtAfInMsgList != NULL) || (pMtAfDataReq != NULL))
??MT_AfExec_8:
        MOV     DPTR,#pMtAfInMsgList
        MOVX    A,@DPTR
        JNZ     ??MT_AfExec_9
        INC     DPTR
        MOVX    A,@DPTR
??MT_AfExec_9:
        JNZ     ??MT_AfExec_10
        MOV     DPTR,#pMtAfDataReq
        MOVX    A,@DPTR
        JNZ     ??MT_AfExec_11
        INC     DPTR
        MOVX    A,@DPTR
??MT_AfExec_11:
        JZ      ??CrossCallReturnLabel_24
//  209   {
//  210     if (ZSuccess != osal_start_timerEx(MT_TaskID, MT_AF_EXEC_EVT, MT_AF_EXEC_DLY))
??MT_AfExec_10:
        ; Setup parameters for call to function osal_start_timerEx
        LCALL   ??Subroutine49_0 & 0xFFFF
??CrossCallReturnLabel_91:
        JZ      ??CrossCallReturnLabel_24
//  211     {
//  212       osal_set_event(MT_TaskID, MT_AF_EXEC_EVT);
        ; Setup parameters for call to function osal_set_event
        LCALL   ?Subroutine17 & 0xFFFF
        CFI EndBlock cfiBlock0
//  213     }
//  214   }
//  215 }
??CrossCallReturnLabel_24:
        REQUIRE ?Subroutine0
        ; // Fall through to label ?Subroutine0

        RSEG BANKED_CODE:CODE:NOROOT(0)
?Subroutine0:
        CFI Block cfiBlock1 Using cfiCommon0
        CFI NoFunction
        CFI CFA_SP SP+0
        CFI CFA_XSP16 add(XSP16, 9)
        CFI VB load(1, XDATA, add(CFA_XSP16, literal(-8)))
        CFI DPL0 load(1, XDATA, add(CFA_XSP16, literal(-2)))
        CFI DPH0 load(1, XDATA, add(CFA_XSP16, literal(-1)))
        CFI R6 load(1, XDATA, add(CFA_XSP16, literal(-9)))
        CFI R7 load(1, XDATA, add(CFA_XSP16, literal(-6)))
        CFI V0 load(1, XDATA, add(CFA_XSP16, literal(-7)))
        CFI ?BRET_EXT load(1, XDATA, add(CFA_XSP16, literal(-3)))
        CFI ?RET_HIGH load(1, XDATA, add(CFA_XSP16, literal(-4)))
        CFI ?RET_LOW load(1, XDATA, add(CFA_XSP16, literal(-5)))
        MOV     R7,#0x1
        LJMP    ?BANKED_LEAVE_XDATA
        CFI EndBlock cfiBlock1

        RSEG BANKED_CODE:CODE:NOROOT(0)
?Subroutine38:
        CFI Block cfiCond2 Using cfiCommon0
        CFI NoFunction
        CFI Conditional ??CrossCallReturnLabel_76
        CFI R6 load(1, XDATA, add(CFA_XSP16, literal(-9)))
        CFI VB load(1, XDATA, add(CFA_XSP16, literal(-8)))
        CFI V0 load(1, XDATA, add(CFA_XSP16, literal(-7)))
        CFI R7 load(1, XDATA, add(CFA_XSP16, literal(-6)))
        CFI ?RET_LOW load(1, XDATA, add(CFA_XSP16, literal(-5)))
        CFI ?RET_HIGH load(1, XDATA, add(CFA_XSP16, literal(-4)))
        CFI ?BRET_EXT load(1, XDATA, add(CFA_XSP16, literal(-3)))
        CFI DPL0 load(1, XDATA, add(CFA_XSP16, literal(-2)))
        CFI DPH0 load(1, XDATA, add(CFA_XSP16, literal(-1)))
        CFI CFA_SP SP+0
        CFI CFA_XSP16 add(XSP16, 9)
        CFI Block cfiCond3 Using cfiCommon0
        CFI (cfiCond3) NoFunction
        CFI (cfiCond3) Conditional ??CrossCallReturnLabel_77
        CFI (cfiCond3) R6 load(1, XDATA, add(CFA_XSP16, literal(-23)))
        CFI (cfiCond3) VB load(1, XDATA, add(CFA_XSP16, literal(-22)))
        CFI (cfiCond3) V0 load(1, XDATA, add(CFA_XSP16, literal(-21)))
        CFI (cfiCond3) V1 load(1, XDATA, add(CFA_XSP16, literal(-20)))
        CFI (cfiCond3) V2 load(1, XDATA, add(CFA_XSP16, literal(-19)))
        CFI (cfiCond3) V3 load(1, XDATA, add(CFA_XSP16, literal(-18)))
        CFI (cfiCond3) V4 load(1, XDATA, add(CFA_XSP16, literal(-17)))
        CFI (cfiCond3) V5 load(1, XDATA, add(CFA_XSP16, literal(-16)))
        CFI (cfiCond3) V6 load(1, XDATA, add(CFA_XSP16, literal(-15)))
        CFI (cfiCond3) V7 load(1, XDATA, add(CFA_XSP16, literal(-14)))
        CFI (cfiCond3) V8 load(1, XDATA, add(CFA_XSP16, literal(-13)))
        CFI (cfiCond3) V9 load(1, XDATA, add(CFA_XSP16, literal(-12)))
        CFI (cfiCond3) V10 load(1, XDATA, add(CFA_XSP16, literal(-11)))
        CFI (cfiCond3) V11 load(1, XDATA, add(CFA_XSP16, literal(-10)))
        CFI (cfiCond3) V12 load(1, XDATA, add(CFA_XSP16, literal(-9)))
        CFI (cfiCond3) V13 load(1, XDATA, add(CFA_XSP16, literal(-8)))
        CFI (cfiCond3) V14 load(1, XDATA, add(CFA_XSP16, literal(-7)))
        CFI (cfiCond3) R7 load(1, XDATA, add(CFA_XSP16, literal(-6)))
        CFI (cfiCond3) ?RET_LOW load(1, XDATA, add(CFA_XSP16, literal(-5)))
        CFI (cfiCond3) ?RET_HIGH load(1, XDATA, add(CFA_XSP16, literal(-4)))
        CFI (cfiCond3) ?BRET_EXT load(1, XDATA, add(CFA_XSP16, literal(-3)))
        CFI (cfiCond3) DPL0 load(1, XDATA, add(CFA_XSP16, literal(-2)))
        CFI (cfiCond3) DPH0 load(1, XDATA, add(CFA_XSP16, literal(-1)))
        CFI (cfiCond3) CFA_SP SP+0
        CFI (cfiCond3) CFA_XSP16 add(XSP16, 23)
        CFI Block cfiCond4 Using cfiCommon0
        CFI (cfiCond4) NoFunction
        CFI (cfiCond4) Conditional ??CrossCallReturnLabel_78
        CFI (cfiCond4) R6 load(1, XDATA, add(CFA_XSP16, literal(-23)))
        CFI (cfiCond4) VB load(1, XDATA, add(CFA_XSP16, literal(-22)))
        CFI (cfiCond4) V0 load(1, XDATA, add(CFA_XSP16, literal(-21)))
        CFI (cfiCond4) V1 load(1, XDATA, add(CFA_XSP16, literal(-20)))
        CFI (cfiCond4) V2 load(1, XDATA, add(CFA_XSP16, literal(-19)))
        CFI (cfiCond4) V3 load(1, XDATA, add(CFA_XSP16, literal(-18)))
        CFI (cfiCond4) V4 load(1, XDATA, add(CFA_XSP16, literal(-17)))
        CFI (cfiCond4) V5 load(1, XDATA, add(CFA_XSP16, literal(-16)))
        CFI (cfiCond4) V6 load(1, XDATA, add(CFA_XSP16, literal(-15)))
        CFI (cfiCond4) V7 load(1, XDATA, add(CFA_XSP16, literal(-14)))
        CFI (cfiCond4) V8 load(1, XDATA, add(CFA_XSP16, literal(-13)))
        CFI (cfiCond4) V9 load(1, XDATA, add(CFA_XSP16, literal(-12)))
        CFI (cfiCond4) V10 load(1, XDATA, add(CFA_XSP16, literal(-11)))
        CFI (cfiCond4) V11 load(1, XDATA, add(CFA_XSP16, literal(-10)))
        CFI (cfiCond4) V12 load(1, XDATA, add(CFA_XSP16, literal(-9)))
        CFI (cfiCond4) V13 load(1, XDATA, add(CFA_XSP16, literal(-8)))
        CFI (cfiCond4) V14 load(1, XDATA, add(CFA_XSP16, literal(-7)))
        CFI (cfiCond4) R7 load(1, XDATA, add(CFA_XSP16, literal(-6)))
        CFI (cfiCond4) ?RET_LOW load(1, XDATA, add(CFA_XSP16, literal(-5)))
        CFI (cfiCond4) ?RET_HIGH load(1, XDATA, add(CFA_XSP16, literal(-4)))
        CFI (cfiCond4) ?BRET_EXT load(1, XDATA, add(CFA_XSP16, literal(-3)))
        CFI (cfiCond4) DPL0 load(1, XDATA, add(CFA_XSP16, literal(-2)))
        CFI (cfiCond4) DPH0 load(1, XDATA, add(CFA_XSP16, literal(-1)))
        CFI (cfiCond4) CFA_SP SP+0
        CFI (cfiCond4) CFA_XSP16 add(XSP16, 23)
        CFI Block cfiPicker5 Using cfiCommon1
        CFI (cfiPicker5) NoFunction
        CFI (cfiPicker5) Picker
        MOV     DPL,A
        MOV     A,R3
        CFI EndBlock cfiCond2
        CFI EndBlock cfiCond3
        CFI EndBlock cfiCond4
        CFI EndBlock cfiPicker5
        REQUIRE ??Subroutine45_0
        ; // Fall through to label ??Subroutine45_0

        RSEG BANKED_CODE:CODE:NOROOT(0)
??Subroutine45_0:
        CFI Block cfiCond6 Using cfiCommon0
        CFI NoFunction
        CFI Conditional ??CrossCallReturnLabel_75, ??CrossCallReturnLabel_27
        CFI R6 load(1, XDATA, add(CFA_XSP16, literal(-23)))
        CFI VB load(1, XDATA, add(CFA_XSP16, literal(-22)))
        CFI V0 load(1, XDATA, add(CFA_XSP16, literal(-21)))
        CFI V1 load(1, XDATA, add(CFA_XSP16, literal(-20)))
        CFI V2 load(1, XDATA, add(CFA_XSP16, literal(-19)))
        CFI V3 load(1, XDATA, add(CFA_XSP16, literal(-18)))
        CFI V4 load(1, XDATA, add(CFA_XSP16, literal(-17)))
        CFI V5 load(1, XDATA, add(CFA_XSP16, literal(-16)))
        CFI V6 load(1, XDATA, add(CFA_XSP16, literal(-15)))
        CFI V7 load(1, XDATA, add(CFA_XSP16, literal(-14)))
        CFI V8 load(1, XDATA, add(CFA_XSP16, literal(-13)))
        CFI V9 load(1, XDATA, add(CFA_XSP16, literal(-12)))
        CFI V10 load(1, XDATA, add(CFA_XSP16, literal(-11)))
        CFI V11 load(1, XDATA, add(CFA_XSP16, literal(-10)))
        CFI V12 load(1, XDATA, add(CFA_XSP16, literal(-9)))
        CFI V13 load(1, XDATA, add(CFA_XSP16, literal(-8)))
        CFI V14 load(1, XDATA, add(CFA_XSP16, literal(-7)))
        CFI R7 load(1, XDATA, add(CFA_XSP16, literal(-6)))
        CFI ?RET_LOW load(1, XDATA, add(CFA_XSP16, literal(-5)))
        CFI ?RET_HIGH load(1, XDATA, add(CFA_XSP16, literal(-4)))
        CFI ?BRET_EXT load(1, XDATA, add(CFA_XSP16, literal(-3)))
        CFI DPL0 load(1, XDATA, add(CFA_XSP16, literal(-2)))
        CFI DPH0 load(1, XDATA, add(CFA_XSP16, literal(-1)))
        CFI CFA_SP SP+0
        CFI CFA_XSP16 add(XSP16, 23)
        CFI Block cfiCond7 Using cfiCommon0
        CFI (cfiCond7) NoFunction
        CFI (cfiCond7) Conditional ??CrossCallReturnLabel_75, ??CrossCallReturnLabel_28
        CFI (cfiCond7) R6 load(1, XDATA, add(CFA_XSP16, literal(-23)))
        CFI (cfiCond7) VB load(1, XDATA, add(CFA_XSP16, literal(-22)))
        CFI (cfiCond7) V0 load(1, XDATA, add(CFA_XSP16, literal(-21)))
        CFI (cfiCond7) V1 load(1, XDATA, add(CFA_XSP16, literal(-20)))
        CFI (cfiCond7) V2 load(1, XDATA, add(CFA_XSP16, literal(-19)))
        CFI (cfiCond7) V3 load(1, XDATA, add(CFA_XSP16, literal(-18)))
        CFI (cfiCond7) V4 load(1, XDATA, add(CFA_XSP16, literal(-17)))
        CFI (cfiCond7) V5 load(1, XDATA, add(CFA_XSP16, literal(-16)))
        CFI (cfiCond7) V6 load(1, XDATA, add(CFA_XSP16, literal(-15)))
        CFI (cfiCond7) V7 load(1, XDATA, add(CFA_XSP16, literal(-14)))
        CFI (cfiCond7) V8 load(1, XDATA, add(CFA_XSP16, literal(-13)))
        CFI (cfiCond7) V9 load(1, XDATA, add(CFA_XSP16, literal(-12)))
        CFI (cfiCond7) V10 load(1, XDATA, add(CFA_XSP16, literal(-11)))
        CFI (cfiCond7) V11 load(1, XDATA, add(CFA_XSP16, literal(-10)))
        CFI (cfiCond7) V12 load(1, XDATA, add(CFA_XSP16, literal(-9)))
        CFI (cfiCond7) V13 load(1, XDATA, add(CFA_XSP16, literal(-8)))
        CFI (cfiCond7) V14 load(1, XDATA, add(CFA_XSP16, literal(-7)))
        CFI (cfiCond7) R7 load(1, XDATA, add(CFA_XSP16, literal(-6)))
        CFI (cfiCond7) ?RET_LOW load(1, XDATA, add(CFA_XSP16, literal(-5)))
        CFI (cfiCond7) ?RET_HIGH load(1, XDATA, add(CFA_XSP16, literal(-4)))
        CFI (cfiCond7) ?BRET_EXT load(1, XDATA, add(CFA_XSP16, literal(-3)))
        CFI (cfiCond7) DPL0 load(1, XDATA, add(CFA_XSP16, literal(-2)))
        CFI (cfiCond7) DPH0 load(1, XDATA, add(CFA_XSP16, literal(-1)))
        CFI (cfiCond7) CFA_SP SP+0
        CFI (cfiCond7) CFA_XSP16 add(XSP16, 23)
        CFI Block cfiCond8 Using cfiCommon0
        CFI (cfiCond8) NoFunction
        CFI (cfiCond8) Conditional ??CrossCallReturnLabel_74, ??CrossCallReturnLabel_17
        CFI (cfiCond8) R6 load(1, XDATA, add(CFA_XSP16, literal(-23)))
        CFI (cfiCond8) VB load(1, XDATA, add(CFA_XSP16, literal(-22)))
        CFI (cfiCond8) V0 load(1, XDATA, add(CFA_XSP16, literal(-21)))
        CFI (cfiCond8) V1 load(1, XDATA, add(CFA_XSP16, literal(-20)))
        CFI (cfiCond8) V2 load(1, XDATA, add(CFA_XSP16, literal(-19)))
        CFI (cfiCond8) V3 load(1, XDATA, add(CFA_XSP16, literal(-18)))
        CFI (cfiCond8) V4 load(1, XDATA, add(CFA_XSP16, literal(-17)))
        CFI (cfiCond8) V5 load(1, XDATA, add(CFA_XSP16, literal(-16)))
        CFI (cfiCond8) V6 load(1, XDATA, add(CFA_XSP16, literal(-15)))
        CFI (cfiCond8) V7 load(1, XDATA, add(CFA_XSP16, literal(-14)))
        CFI (cfiCond8) V8 load(1, XDATA, add(CFA_XSP16, literal(-13)))
        CFI (cfiCond8) V9 load(1, XDATA, add(CFA_XSP16, literal(-12)))
        CFI (cfiCond8) V10 load(1, XDATA, add(CFA_XSP16, literal(-11)))
        CFI (cfiCond8) V11 load(1, XDATA, add(CFA_XSP16, literal(-10)))
        CFI (cfiCond8) V12 load(1, XDATA, add(CFA_XSP16, literal(-9)))
        CFI (cfiCond8) V13 load(1, XDATA, add(CFA_XSP16, literal(-8)))
        CFI (cfiCond8) V14 load(1, XDATA, add(CFA_XSP16, literal(-7)))
        CFI (cfiCond8) R7 load(1, XDATA, add(CFA_XSP16, literal(-6)))
        CFI (cfiCond8) ?RET_LOW load(1, XDATA, add(CFA_XSP16, literal(-5)))
        CFI (cfiCond8) ?RET_HIGH load(1, XDATA, add(CFA_XSP16, literal(-4)))
        CFI (cfiCond8) ?BRET_EXT load(1, XDATA, add(CFA_XSP16, literal(-3)))
        CFI (cfiCond8) DPL0 load(1, XDATA, add(CFA_XSP16, literal(-2)))
        CFI (cfiCond8) DPH0 load(1, XDATA, add(CFA_XSP16, literal(-1)))
        CFI (cfiCond8) CFA_SP SP+0
        CFI (cfiCond8) CFA_XSP16 add(XSP16, 23)
        CFI Block cfiCond9 Using cfiCommon0
        CFI (cfiCond9) NoFunction
        CFI (cfiCond9) Conditional ??CrossCallReturnLabel_74, ??CrossCallReturnLabel_18
        CFI (cfiCond9) R6 load(1, XDATA, add(CFA_XSP16, literal(-23)))
        CFI (cfiCond9) VB load(1, XDATA, add(CFA_XSP16, literal(-22)))
        CFI (cfiCond9) V0 load(1, XDATA, add(CFA_XSP16, literal(-21)))
        CFI (cfiCond9) V1 load(1, XDATA, add(CFA_XSP16, literal(-20)))
        CFI (cfiCond9) V2 load(1, XDATA, add(CFA_XSP16, literal(-19)))
        CFI (cfiCond9) V3 load(1, XDATA, add(CFA_XSP16, literal(-18)))
        CFI (cfiCond9) V4 load(1, XDATA, add(CFA_XSP16, literal(-17)))
        CFI (cfiCond9) V5 load(1, XDATA, add(CFA_XSP16, literal(-16)))
        CFI (cfiCond9) V6 load(1, XDATA, add(CFA_XSP16, literal(-15)))
        CFI (cfiCond9) V7 load(1, XDATA, add(CFA_XSP16, literal(-14)))
        CFI (cfiCond9) V8 load(1, XDATA, add(CFA_XSP16, literal(-13)))
        CFI (cfiCond9) V9 load(1, XDATA, add(CFA_XSP16, literal(-12)))
        CFI (cfiCond9) V10 load(1, XDATA, add(CFA_XSP16, literal(-11)))
        CFI (cfiCond9) V11 load(1, XDATA, add(CFA_XSP16, literal(-10)))
        CFI (cfiCond9) V12 load(1, XDATA, add(CFA_XSP16, literal(-9)))
        CFI (cfiCond9) V13 load(1, XDATA, add(CFA_XSP16, literal(-8)))
        CFI (cfiCond9) V14 load(1, XDATA, add(CFA_XSP16, literal(-7)))
        CFI (cfiCond9) R7 load(1, XDATA, add(CFA_XSP16, literal(-6)))
        CFI (cfiCond9) ?RET_LOW load(1, XDATA, add(CFA_XSP16, literal(-5)))
        CFI (cfiCond9) ?RET_HIGH load(1, XDATA, add(CFA_XSP16, literal(-4)))
        CFI (cfiCond9) ?BRET_EXT load(1, XDATA, add(CFA_XSP16, literal(-3)))
        CFI (cfiCond9) DPL0 load(1, XDATA, add(CFA_XSP16, literal(-2)))
        CFI (cfiCond9) DPH0 load(1, XDATA, add(CFA_XSP16, literal(-1)))
        CFI (cfiCond9) CFA_SP SP+0
        CFI (cfiCond9) CFA_XSP16 add(XSP16, 23)
        CFI Block cfiCond10 Using cfiCommon0
        CFI (cfiCond10) NoFunction
        CFI (cfiCond10) Conditional ??CrossCallReturnLabel_76
        CFI (cfiCond10) R6 load(1, XDATA, add(CFA_XSP16, literal(-9)))
        CFI (cfiCond10) VB load(1, XDATA, add(CFA_XSP16, literal(-8)))
        CFI (cfiCond10) V0 load(1, XDATA, add(CFA_XSP16, literal(-7)))
        CFI (cfiCond10) R7 load(1, XDATA, add(CFA_XSP16, literal(-6)))
        CFI (cfiCond10) ?RET_LOW load(1, XDATA, add(CFA_XSP16, literal(-5)))
        CFI (cfiCond10) ?RET_HIGH load(1, XDATA, add(CFA_XSP16, literal(-4)))
        CFI (cfiCond10) ?BRET_EXT load(1, XDATA, add(CFA_XSP16, literal(-3)))
        CFI (cfiCond10) DPL0 load(1, XDATA, add(CFA_XSP16, literal(-2)))
        CFI (cfiCond10) DPH0 load(1, XDATA, add(CFA_XSP16, literal(-1)))
        CFI (cfiCond10) CFA_SP SP+0
        CFI (cfiCond10) CFA_XSP16 add(XSP16, 9)
        CFI Block cfiCond11 Using cfiCommon0
        CFI (cfiCond11) NoFunction
        CFI (cfiCond11) Conditional ??CrossCallReturnLabel_77
        CFI (cfiCond11) R6 load(1, XDATA, add(CFA_XSP16, literal(-23)))
        CFI (cfiCond11) VB load(1, XDATA, add(CFA_XSP16, literal(-22)))
        CFI (cfiCond11) V0 load(1, XDATA, add(CFA_XSP16, literal(-21)))
        CFI (cfiCond11) V1 load(1, XDATA, add(CFA_XSP16, literal(-20)))
        CFI (cfiCond11) V2 load(1, XDATA, add(CFA_XSP16, literal(-19)))
        CFI (cfiCond11) V3 load(1, XDATA, add(CFA_XSP16, literal(-18)))
        CFI (cfiCond11) V4 load(1, XDATA, add(CFA_XSP16, literal(-17)))
        CFI (cfiCond11) V5 load(1, XDATA, add(CFA_XSP16, literal(-16)))
        CFI (cfiCond11) V6 load(1, XDATA, add(CFA_XSP16, literal(-15)))
        CFI (cfiCond11) V7 load(1, XDATA, add(CFA_XSP16, literal(-14)))
        CFI (cfiCond11) V8 load(1, XDATA, add(CFA_XSP16, literal(-13)))
        CFI (cfiCond11) V9 load(1, XDATA, add(CFA_XSP16, literal(-12)))
        CFI (cfiCond11) V10 load(1, XDATA, add(CFA_XSP16, literal(-11)))
        CFI (cfiCond11) V11 load(1, XDATA, add(CFA_XSP16, literal(-10)))
        CFI (cfiCond11) V12 load(1, XDATA, add(CFA_XSP16, literal(-9)))
        CFI (cfiCond11) V13 load(1, XDATA, add(CFA_XSP16, literal(-8)))
        CFI (cfiCond11) V14 load(1, XDATA, add(CFA_XSP16, literal(-7)))
        CFI (cfiCond11) R7 load(1, XDATA, add(CFA_XSP16, literal(-6)))
        CFI (cfiCond11) ?RET_LOW load(1, XDATA, add(CFA_XSP16, literal(-5)))
        CFI (cfiCond11) ?RET_HIGH load(1, XDATA, add(CFA_XSP16, literal(-4)))
        CFI (cfiCond11) ?BRET_EXT load(1, XDATA, add(CFA_XSP16, literal(-3)))
        CFI (cfiCond11) DPL0 load(1, XDATA, add(CFA_XSP16, literal(-2)))
        CFI (cfiCond11) DPH0 load(1, XDATA, add(CFA_XSP16, literal(-1)))
        CFI (cfiCond11) CFA_SP SP+0
        CFI (cfiCond11) CFA_XSP16 add(XSP16, 23)
        CFI Block cfiCond12 Using cfiCommon0
        CFI (cfiCond12) NoFunction
        CFI (cfiCond12) Conditional ??CrossCallReturnLabel_78
        CFI (cfiCond12) R6 load(1, XDATA, add(CFA_XSP16, literal(-23)))
        CFI (cfiCond12) VB load(1, XDATA, add(CFA_XSP16, literal(-22)))
        CFI (cfiCond12) V0 load(1, XDATA, add(CFA_XSP16, literal(-21)))
        CFI (cfiCond12) V1 load(1, XDATA, add(CFA_XSP16, literal(-20)))
        CFI (cfiCond12) V2 load(1, XDATA, add(CFA_XSP16, literal(-19)))
        CFI (cfiCond12) V3 load(1, XDATA, add(CFA_XSP16, literal(-18)))
        CFI (cfiCond12) V4 load(1, XDATA, add(CFA_XSP16, literal(-17)))
        CFI (cfiCond12) V5 load(1, XDATA, add(CFA_XSP16, literal(-16)))
        CFI (cfiCond12) V6 load(1, XDATA, add(CFA_XSP16, literal(-15)))
        CFI (cfiCond12) V7 load(1, XDATA, add(CFA_XSP16, literal(-14)))
        CFI (cfiCond12) V8 load(1, XDATA, add(CFA_XSP16, literal(-13)))
        CFI (cfiCond12) V9 load(1, XDATA, add(CFA_XSP16, literal(-12)))
        CFI (cfiCond12) V10 load(1, XDATA, add(CFA_XSP16, literal(-11)))
        CFI (cfiCond12) V11 load(1, XDATA, add(CFA_XSP16, literal(-10)))
        CFI (cfiCond12) V12 load(1, XDATA, add(CFA_XSP16, literal(-9)))
        CFI (cfiCond12) V13 load(1, XDATA, add(CFA_XSP16, literal(-8)))
        CFI (cfiCond12) V14 load(1, XDATA, add(CFA_XSP16, literal(-7)))
        CFI (cfiCond12) R7 load(1, XDATA, add(CFA_XSP16, literal(-6)))
        CFI (cfiCond12) ?RET_LOW load(1, XDATA, add(CFA_XSP16, literal(-5)))
        CFI (cfiCond12) ?RET_HIGH load(1, XDATA, add(CFA_XSP16, literal(-4)))
        CFI (cfiCond12) ?BRET_EXT load(1, XDATA, add(CFA_XSP16, literal(-3)))
        CFI (cfiCond12) DPL0 load(1, XDATA, add(CFA_XSP16, literal(-2)))
        CFI (cfiCond12) DPH0 load(1, XDATA, add(CFA_XSP16, literal(-1)))
        CFI (cfiCond12) CFA_SP SP+0
        CFI (cfiCond12) CFA_XSP16 add(XSP16, 23)
        CFI Block cfiPicker13 Using cfiCommon1
        CFI (cfiPicker13) NoFunction
        CFI (cfiPicker13) Picker
        ADDC    A,#0x0
        MOV     DPH,A
        MOVX    A,@DPTR
        RET
        CFI EndBlock cfiCond6
        CFI EndBlock cfiCond7
        CFI EndBlock cfiCond8
        CFI EndBlock cfiCond9
        CFI EndBlock cfiCond10
        CFI EndBlock cfiCond11
        CFI EndBlock cfiCond12
        CFI EndBlock cfiPicker13

        RSEG BANKED_CODE:CODE:NOROOT(0)
?Subroutine30:
        CFI Block cfiCond14 Using cfiCommon0
        CFI NoFunction
        CFI Conditional ??CrossCallReturnLabel_55
        CFI R6 load(1, XDATA, add(CFA_XSP16, literal(-9)))
        CFI VB load(1, XDATA, add(CFA_XSP16, literal(-8)))
        CFI V0 load(1, XDATA, add(CFA_XSP16, literal(-7)))
        CFI R7 load(1, XDATA, add(CFA_XSP16, literal(-6)))
        CFI ?RET_LOW load(1, XDATA, add(CFA_XSP16, literal(-5)))
        CFI ?RET_HIGH load(1, XDATA, add(CFA_XSP16, literal(-4)))
        CFI ?BRET_EXT load(1, XDATA, add(CFA_XSP16, literal(-3)))
        CFI DPL0 load(1, XDATA, add(CFA_XSP16, literal(-2)))
        CFI DPH0 load(1, XDATA, add(CFA_XSP16, literal(-1)))
        CFI CFA_SP SP+0
        CFI CFA_XSP16 add(XSP16, 9)
        CFI Block cfiCond15 Using cfiCommon0
        CFI (cfiCond15) NoFunction
        CFI (cfiCond15) Conditional ??CrossCallReturnLabel_56
        CFI (cfiCond15) R6 load(1, XDATA, add(CFA_XSP16, literal(-9)))
        CFI (cfiCond15) VB load(1, XDATA, add(CFA_XSP16, literal(-8)))
        CFI (cfiCond15) V0 load(1, XDATA, add(CFA_XSP16, literal(-7)))
        CFI (cfiCond15) R7 load(1, XDATA, add(CFA_XSP16, literal(-6)))
        CFI (cfiCond15) ?RET_LOW load(1, XDATA, add(CFA_XSP16, literal(-5)))
        CFI (cfiCond15) ?RET_HIGH load(1, XDATA, add(CFA_XSP16, literal(-4)))
        CFI (cfiCond15) ?BRET_EXT load(1, XDATA, add(CFA_XSP16, literal(-3)))
        CFI (cfiCond15) DPL0 load(1, XDATA, add(CFA_XSP16, literal(-2)))
        CFI (cfiCond15) DPH0 load(1, XDATA, add(CFA_XSP16, literal(-1)))
        CFI (cfiCond15) CFA_SP SP+0
        CFI (cfiCond15) CFA_XSP16 add(XSP16, 9)
        CFI Block cfiPicker16 Using cfiCommon1
        CFI (cfiPicker16) NoFunction
        CFI (cfiPicker16) Picker
        MOV     A,R0
        MOVX    @DPTR,A
        INC     DPTR
        MOV     A,R1
        MOVX    @DPTR,A
        ; Setup parameters for call to function osal_mem_free
        ; Setup parameters for call to function osal_mem_free
        LCALL   ??osal_mem_free?relay
        RET
        CFI EndBlock cfiCond14
        CFI EndBlock cfiCond15
        CFI EndBlock cfiPicker16

        RSEG BANKED_CODE:CODE:NOROOT(0)
?Subroutine2:
        CFI Block cfiCond17 Using cfiCommon0
        CFI NoFunction
        CFI Conditional ??CrossCallReturnLabel_81
        CFI R6 load(1, XDATA, add(CFA_XSP16, literal(-9)))
        CFI VB load(1, XDATA, add(CFA_XSP16, literal(-8)))
        CFI V0 load(1, XDATA, add(CFA_XSP16, literal(-7)))
        CFI R7 load(1, XDATA, add(CFA_XSP16, literal(-6)))
        CFI ?RET_LOW load(1, XDATA, add(CFA_XSP16, literal(-5)))
        CFI ?RET_HIGH load(1, XDATA, add(CFA_XSP16, literal(-4)))
        CFI ?BRET_EXT load(1, XDATA, add(CFA_XSP16, literal(-3)))
        CFI DPL0 load(1, XDATA, add(CFA_XSP16, literal(-2)))
        CFI DPH0 load(1, XDATA, add(CFA_XSP16, literal(-1)))
        CFI CFA_SP SP+0
        CFI CFA_XSP16 add(XSP16, 9)
        CFI Block cfiCond18 Using cfiCommon0
        CFI (cfiCond18) NoFunction
        CFI (cfiCond18) Conditional ??CrossCallReturnLabel_82
        CFI (cfiCond18) R6 load(1, XDATA, add(CFA_XSP16, literal(-9)))
        CFI (cfiCond18) VB load(1, XDATA, add(CFA_XSP16, literal(-8)))
        CFI (cfiCond18) V0 load(1, XDATA, add(CFA_XSP16, literal(-7)))
        CFI (cfiCond18) R7 load(1, XDATA, add(CFA_XSP16, literal(-6)))
        CFI (cfiCond18) ?RET_LOW load(1, XDATA, add(CFA_XSP16, literal(-5)))
        CFI (cfiCond18) ?RET_HIGH load(1, XDATA, add(CFA_XSP16, literal(-4)))
        CFI (cfiCond18) ?BRET_EXT load(1, XDATA, add(CFA_XSP16, literal(-3)))
        CFI (cfiCond18) DPL0 load(1, XDATA, add(CFA_XSP16, literal(-2)))
        CFI (cfiCond18) DPH0 load(1, XDATA, add(CFA_XSP16, literal(-1)))
        CFI (cfiCond18) CFA_SP SP+0
        CFI (cfiCond18) CFA_XSP16 add(XSP16, 9)
        CFI Block cfiPicker19 Using cfiCommon1
        CFI (cfiPicker19) NoFunction
        CFI (cfiPicker19) Picker
        MOV     DPTR,#pMtAfDataReq
        MOVX    A,@DPTR
        ADD     A,#0x17
        CFI EndBlock cfiCond17
        CFI EndBlock cfiCond18
        CFI EndBlock cfiPicker19
        REQUIRE ??Subroutine46_0
        ; // Fall through to label ??Subroutine46_0

        RSEG BANKED_CODE:CODE:NOROOT(0)
??Subroutine46_0:
        CFI Block cfiCond20 Using cfiCommon0
        CFI NoFunction
        CFI Conditional ??CrossCallReturnLabel_79
        CFI R6 load(1, XDATA, add(CFA_XSP16, literal(-11)))
        CFI VB load(1, XDATA, add(CFA_XSP16, literal(-10)))
        CFI V0 load(1, XDATA, add(CFA_XSP16, literal(-9)))
        CFI V1 load(1, XDATA, add(CFA_XSP16, literal(-8)))
        CFI V2 load(1, XDATA, add(CFA_XSP16, literal(-7)))
        CFI R7 load(1, XDATA, add(CFA_XSP16, literal(-6)))
        CFI ?RET_LOW load(1, XDATA, add(CFA_XSP16, literal(-5)))
        CFI ?RET_HIGH load(1, XDATA, add(CFA_XSP16, literal(-4)))
        CFI ?BRET_EXT load(1, XDATA, add(CFA_XSP16, literal(-3)))
        CFI DPL0 load(1, XDATA, add(CFA_XSP16, literal(-2)))
        CFI DPH0 load(1, XDATA, add(CFA_XSP16, literal(-1)))
        CFI CFA_SP SP+0
        CFI CFA_XSP16 add(XSP16, 12)
        CFI Block cfiCond21 Using cfiCommon0
        CFI (cfiCond21) NoFunction
        CFI (cfiCond21) Conditional ??CrossCallReturnLabel_80
        CFI (cfiCond21) R6 load(1, XDATA, add(CFA_XSP16, literal(-11)))
        CFI (cfiCond21) VB load(1, XDATA, add(CFA_XSP16, literal(-10)))
        CFI (cfiCond21) V0 load(1, XDATA, add(CFA_XSP16, literal(-9)))
        CFI (cfiCond21) V1 load(1, XDATA, add(CFA_XSP16, literal(-8)))
        CFI (cfiCond21) V2 load(1, XDATA, add(CFA_XSP16, literal(-7)))
        CFI (cfiCond21) R7 load(1, XDATA, add(CFA_XSP16, literal(-6)))
        CFI (cfiCond21) ?RET_LOW load(1, XDATA, add(CFA_XSP16, literal(-5)))
        CFI (cfiCond21) ?RET_HIGH load(1, XDATA, add(CFA_XSP16, literal(-4)))
        CFI (cfiCond21) ?BRET_EXT load(1, XDATA, add(CFA_XSP16, literal(-3)))
        CFI (cfiCond21) DPL0 load(1, XDATA, add(CFA_XSP16, literal(-2)))
        CFI (cfiCond21) DPH0 load(1, XDATA, add(CFA_XSP16, literal(-1)))
        CFI (cfiCond21) CFA_SP SP+0
        CFI (cfiCond21) CFA_XSP16 add(XSP16, 21)
        CFI Block cfiCond22 Using cfiCommon0
        CFI (cfiCond22) NoFunction
        CFI (cfiCond22) Conditional ??CrossCallReturnLabel_81
        CFI (cfiCond22) R6 load(1, XDATA, add(CFA_XSP16, literal(-9)))
        CFI (cfiCond22) VB load(1, XDATA, add(CFA_XSP16, literal(-8)))
        CFI (cfiCond22) V0 load(1, XDATA, add(CFA_XSP16, literal(-7)))
        CFI (cfiCond22) R7 load(1, XDATA, add(CFA_XSP16, literal(-6)))
        CFI (cfiCond22) ?RET_LOW load(1, XDATA, add(CFA_XSP16, literal(-5)))
        CFI (cfiCond22) ?RET_HIGH load(1, XDATA, add(CFA_XSP16, literal(-4)))
        CFI (cfiCond22) ?BRET_EXT load(1, XDATA, add(CFA_XSP16, literal(-3)))
        CFI (cfiCond22) DPL0 load(1, XDATA, add(CFA_XSP16, literal(-2)))
        CFI (cfiCond22) DPH0 load(1, XDATA, add(CFA_XSP16, literal(-1)))
        CFI (cfiCond22) CFA_SP SP+0
        CFI (cfiCond22) CFA_XSP16 add(XSP16, 9)
        CFI Block cfiCond23 Using cfiCommon0
        CFI (cfiCond23) NoFunction
        CFI (cfiCond23) Conditional ??CrossCallReturnLabel_82
        CFI (cfiCond23) R6 load(1, XDATA, add(CFA_XSP16, literal(-9)))
        CFI (cfiCond23) VB load(1, XDATA, add(CFA_XSP16, literal(-8)))
        CFI (cfiCond23) V0 load(1, XDATA, add(CFA_XSP16, literal(-7)))
        CFI (cfiCond23) R7 load(1, XDATA, add(CFA_XSP16, literal(-6)))
        CFI (cfiCond23) ?RET_LOW load(1, XDATA, add(CFA_XSP16, literal(-5)))
        CFI (cfiCond23) ?RET_HIGH load(1, XDATA, add(CFA_XSP16, literal(-4)))
        CFI (cfiCond23) ?BRET_EXT load(1, XDATA, add(CFA_XSP16, literal(-3)))
        CFI (cfiCond23) DPL0 load(1, XDATA, add(CFA_XSP16, literal(-2)))
        CFI (cfiCond23) DPH0 load(1, XDATA, add(CFA_XSP16, literal(-1)))
        CFI (cfiCond23) CFA_SP SP+0
        CFI (cfiCond23) CFA_XSP16 add(XSP16, 9)
        CFI Block cfiPicker24 Using cfiCommon1
        CFI (cfiPicker24) NoFunction
        CFI (cfiPicker24) Picker
        LCALL   ?Subroutine37 & 0xFFFF
??CrossCallReturnLabel_133:
        MOVX    A,@DPTR
        RET
        CFI EndBlock cfiCond20
        CFI EndBlock cfiCond21
        CFI EndBlock cfiCond22
        CFI EndBlock cfiCond23
        CFI EndBlock cfiPicker24
//  216 
//  217 /***************************************************************************************************
//  218  * @fn      MT_AfCommandProcessing
//  219  *
//  220  * @brief   Process all the AF commands that are issued by test tool
//  221  *
//  222  * @param   pBuf - pointer to the received buffer
//  223  *
//  224  * @return  status
//  225  ***************************************************************************************************/

        RSEG BANKED_CODE:CODE:NOROOT(0)
//  226 uint8 MT_AfCommandProcessing(uint8 *pBuf)
MT_AfCommandProcessing:
        CFI Block cfiBlock25 Using cfiCommon0
        CFI Function MT_AfCommandProcessing
//  227 {
        FUNCALL MT_AfCommandProcessing, MT_AfRegister
        LOCFRAME ISTACK, 0, STACK
        LOCFRAME PSTACK, 0, STACK
        LOCFRAME XSTACK, 9, STACK
        LOCFRAME IOVERLAY, 0, STATIC
        LOCFRAME DOVERLAY, 0, STATIC
        ARGFRAME ISTACK, 0, STACK
        ARGFRAME PSTACK, 0, STACK
        ARGFRAME XSTACK, 9, STACK
        ARGFRAME IOVERLAY, 0, STATIC
        ARGFRAME DOVERLAY, 0, STATIC
        FUNCALL MT_AfCommandProcessing, MT_AfDataRequest
        LOCFRAME ISTACK, 0, STACK
        LOCFRAME PSTACK, 0, STACK
        LOCFRAME XSTACK, 9, STACK
        LOCFRAME IOVERLAY, 0, STATIC
        LOCFRAME DOVERLAY, 0, STATIC
        ARGFRAME ISTACK, 0, STACK
        ARGFRAME PSTACK, 0, STACK
        ARGFRAME XSTACK, 9, STACK
        ARGFRAME IOVERLAY, 0, STATIC
        ARGFRAME DOVERLAY, 0, STATIC
        FUNCALL MT_AfCommandProcessing, MT_AfDataRetrieve
        LOCFRAME ISTACK, 0, STACK
        LOCFRAME PSTACK, 0, STACK
        LOCFRAME XSTACK, 9, STACK
        LOCFRAME IOVERLAY, 0, STATIC
        LOCFRAME DOVERLAY, 0, STATIC
        ARGFRAME ISTACK, 0, STACK
        ARGFRAME PSTACK, 0, STACK
        ARGFRAME XSTACK, 9, STACK
        ARGFRAME IOVERLAY, 0, STATIC
        ARGFRAME DOVERLAY, 0, STATIC
        FUNCALL MT_AfCommandProcessing, MT_AfDataStore
        LOCFRAME ISTACK, 0, STACK
        LOCFRAME PSTACK, 0, STACK
        LOCFRAME XSTACK, 9, STACK
        LOCFRAME IOVERLAY, 0, STATIC
        LOCFRAME DOVERLAY, 0, STATIC
        ARGFRAME ISTACK, 0, STACK
        ARGFRAME PSTACK, 0, STACK
        ARGFRAME XSTACK, 9, STACK
        ARGFRAME IOVERLAY, 0, STATIC
        ARGFRAME DOVERLAY, 0, STATIC
        FUNCALL MT_AfCommandProcessing, MT_AfDataRequestSrcRtg
        LOCFRAME ISTACK, 0, STACK
        LOCFRAME PSTACK, 0, STACK
        LOCFRAME XSTACK, 9, STACK
        LOCFRAME IOVERLAY, 0, STATIC
        LOCFRAME DOVERLAY, 0, STATIC
        ARGFRAME ISTACK, 0, STACK
        ARGFRAME PSTACK, 0, STACK
        ARGFRAME XSTACK, 9, STACK
        ARGFRAME IOVERLAY, 0, STATIC
        ARGFRAME DOVERLAY, 0, STATIC
        MOV     A,#-0x9
        LCALL   ?BANKED_ENTER_XDATA
        CFI DPH0 load(1, XDATA, add(CFA_XSP16, literal(-1)))
        CFI DPL0 load(1, XDATA, add(CFA_XSP16, literal(-2)))
        CFI ?BRET_EXT load(1, XDATA, add(CFA_XSP16, literal(-3)))
        CFI ?RET_HIGH load(1, XDATA, add(CFA_XSP16, literal(-4)))
        CFI ?RET_LOW load(1, XDATA, add(CFA_XSP16, literal(-5)))
        CFI R7 load(1, XDATA, add(CFA_XSP16, literal(-6)))
        CFI V0 load(1, XDATA, add(CFA_XSP16, literal(-7)))
        CFI VB load(1, XDATA, add(CFA_XSP16, literal(-8)))
        CFI R6 load(1, XDATA, add(CFA_XSP16, literal(-9)))
        CFI CFA_SP SP+0
        CFI CFA_XSP16 add(XSP16, 9)
        ; Saved register size: 9
        ; Auto size: 0
//  228   uint8 status = MT_RPC_SUCCESS;
        MOV     R6,#0x0
//  229 
//  230   switch (pBuf[MT_RPC_POS_CMD1])
        MOV     DPL,R2
        MOV     DPH,R3
        INC     DPTR
        INC     DPTR
        MOVX    A,@DPTR
        LCALL   ?UC_SWITCH_SPARSE
`?<Jumptable for MT_AfCommandProcessing>_0`:
        DATA
        DB        1
        DB        1
        DB        2
        DW        ??MT_AfCommandProcessing_0
        DB        4
        DB        0
        DW        ??MT_AfCommandProcessing_1
        DB        3
        DW        ??MT_AfCommandProcessing_2
        DB        17
        DW        ??MT_AfCommandProcessing_3
        DB        18
        DW        ??MT_AfCommandProcessing_4
        DW        ??MT_AfCommandProcessing_5
        CODE
//  231   {
//  232     case MT_AF_REGISTER:
//  233       MT_AfRegister(pBuf);
??MT_AfCommandProcessing_1:
        ; Setup parameters for call to function MT_AfRegister
        LCALL   ??MT_AfRegister?relay
        SJMP    ??MT_AfCommandProcessing_6
//  234       break;
//  235 
//  236     case MT_AF_DATA_REQUEST:
//  237     case MT_AF_DATA_REQUEST_EXT:
//  238       MT_AfDataRequest(pBuf);
??MT_AfCommandProcessing_0:
        ; Setup parameters for call to function MT_AfDataRequest
        LCALL   ??MT_AfDataRequest?relay
        SJMP    ??MT_AfCommandProcessing_6
//  239       break;
//  240 
//  241     case MT_AF_DATA_RETRIEVE:
//  242       MT_AfDataRetrieve(pBuf);
??MT_AfCommandProcessing_4:
        ; Setup parameters for call to function MT_AfDataRetrieve
        LCALL   ??MT_AfDataRetrieve?relay
        SJMP    ??MT_AfCommandProcessing_6
//  243       break;
//  244       
//  245     case MT_AF_DATA_STORE:
//  246       MT_AfDataStore(pBuf);
??MT_AfCommandProcessing_3:
        ; Setup parameters for call to function MT_AfDataStore
        LCALL   ??MT_AfDataStore?relay
        SJMP    ??MT_AfCommandProcessing_6
//  247       break;
//  248       
//  249 #if defined ( ZIGBEE_SOURCE_ROUTING )
//  250     case MT_AF_DATA_REQUEST_SRCRTG:
//  251       MT_AfDataRequestSrcRtg(pBuf);
??MT_AfCommandProcessing_2:
        ; Setup parameters for call to function MT_AfDataRequestSrcRtg
        LCALL   ??MT_AfDataRequestSrcRtg?relay
        SJMP    ??MT_AfCommandProcessing_6
//  252       break;
//  253 #endif
//  254       
//  255 #if defined INTER_PAN
//  256     case MT_AF_INTER_PAN_CTL:
//  257       MT_AfInterPanCtl(pBuf);
//  258       break; 
//  259 #endif
//  260       
//  261     default:
//  262       status = MT_RPC_ERR_COMMAND_ID;
??MT_AfCommandProcessing_5:
        INC     R6
        INC     R6
//  263       break;
//  264   }
//  265 
//  266   return status;
??MT_AfCommandProcessing_6:
        MOV     A,R6
        MOV     R1,A
        SJMP    ?Subroutine0
        CFI EndBlock cfiBlock25
//  267 }
//  268 
//  269 /***************************************************************************************************
//  270  * @fn      MT_AfRegister
//  271  *
//  272  * @brief   Process AF Register command
//  273  *
//  274  * @param   pBuf - pointer to the received buffer
//  275  *
//  276  * @return  none
//  277  ***************************************************************************************************/

        RSEG BANKED_CODE:CODE:NOROOT(0)
//  278 void MT_AfRegister(uint8 *pBuf)
MT_AfRegister:
        CFI Block cfiBlock26 Using cfiCommon0
        CFI Function MT_AfRegister
//  279 {
        FUNCALL MT_AfRegister, osal_mem_alloc
        LOCFRAME ISTACK, 0, STACK
        LOCFRAME PSTACK, 0, STACK
        LOCFRAME XSTACK, 15, STACK
        LOCFRAME IOVERLAY, 0, STATIC
        LOCFRAME DOVERLAY, 0, STATIC
        ARGFRAME ISTACK, 0, STACK
        ARGFRAME PSTACK, 0, STACK
        ARGFRAME XSTACK, 15, STACK
        ARGFRAME IOVERLAY, 0, STATIC
        ARGFRAME DOVERLAY, 0, STATIC
        FUNCALL MT_AfRegister, MT_BuildEndpointDesc
        LOCFRAME ISTACK, 0, STACK
        LOCFRAME PSTACK, 0, STACK
        LOCFRAME XSTACK, 15, STACK
        LOCFRAME IOVERLAY, 0, STATIC
        LOCFRAME DOVERLAY, 0, STATIC
        ARGFRAME ISTACK, 0, STACK
        ARGFRAME PSTACK, 0, STACK
        ARGFRAME XSTACK, 15, STACK
        ARGFRAME IOVERLAY, 0, STATIC
        ARGFRAME DOVERLAY, 0, STATIC
        FUNCALL MT_AfRegister, afRegister
        LOCFRAME ISTACK, 0, STACK
        LOCFRAME PSTACK, 0, STACK
        LOCFRAME XSTACK, 15, STACK
        LOCFRAME IOVERLAY, 0, STATIC
        LOCFRAME DOVERLAY, 0, STATIC
        ARGFRAME ISTACK, 0, STACK
        ARGFRAME PSTACK, 0, STACK
        ARGFRAME XSTACK, 15, STACK
        ARGFRAME IOVERLAY, 0, STATIC
        ARGFRAME DOVERLAY, 0, STATIC
        FUNCALL MT_AfRegister, osal_mem_free
        LOCFRAME ISTACK, 0, STACK
        LOCFRAME PSTACK, 0, STACK
        LOCFRAME XSTACK, 15, STACK
        LOCFRAME IOVERLAY, 0, STATIC
        LOCFRAME DOVERLAY, 0, STATIC
        ARGFRAME ISTACK, 0, STACK
        ARGFRAME PSTACK, 0, STACK
        ARGFRAME XSTACK, 15, STACK
        ARGFRAME IOVERLAY, 0, STATIC
        ARGFRAME DOVERLAY, 0, STATIC
        FUNCALL MT_AfRegister, MT_BuildAndSendZToolResponse
        LOCFRAME ISTACK, 0, STACK
        LOCFRAME PSTACK, 0, STACK
        LOCFRAME XSTACK, 15, STACK
        LOCFRAME IOVERLAY, 0, STATIC
        LOCFRAME DOVERLAY, 0, STATIC
        ARGFRAME ISTACK, 0, STACK
        ARGFRAME PSTACK, 0, STACK
        ARGFRAME XSTACK, 15, STACK
        ARGFRAME IOVERLAY, 0, STATIC
        ARGFRAME DOVERLAY, 0, STATIC
        MOV     A,#-0xe
        LCALL   ?BANKED_ENTER_XDATA
        CFI DPH0 load(1, XDATA, add(CFA_XSP16, literal(-1)))
        CFI DPL0 load(1, XDATA, add(CFA_XSP16, literal(-2)))
        CFI ?BRET_EXT load(1, XDATA, add(CFA_XSP16, literal(-3)))
        CFI ?RET_HIGH load(1, XDATA, add(CFA_XSP16, literal(-4)))
        CFI ?RET_LOW load(1, XDATA, add(CFA_XSP16, literal(-5)))
        CFI R7 load(1, XDATA, add(CFA_XSP16, literal(-6)))
        CFI V5 load(1, XDATA, add(CFA_XSP16, literal(-7)))
        CFI V4 load(1, XDATA, add(CFA_XSP16, literal(-8)))
        CFI V3 load(1, XDATA, add(CFA_XSP16, literal(-9)))
        CFI V2 load(1, XDATA, add(CFA_XSP16, literal(-10)))
        CFI V1 load(1, XDATA, add(CFA_XSP16, literal(-11)))
        CFI V0 load(1, XDATA, add(CFA_XSP16, literal(-12)))
        CFI VB load(1, XDATA, add(CFA_XSP16, literal(-13)))
        CFI R6 load(1, XDATA, add(CFA_XSP16, literal(-14)))
        CFI CFA_SP SP+0
        CFI CFA_XSP16 add(XSP16, 14)
        ; Saved register size: 14
        ; Auto size: 1
        MOV     A,#-0x1
        LCALL   ?ALLOC_XSTACK8
        CFI CFA_XSP16 add(XSP16, 15)
        MOV     ?V0 + 0,R2
        MOV     ?V0 + 1,R3
//  280   uint8 cmdId;
//  281   uint8 retValue = ZMemError;
        MOV     A,#0x10
        LCALL   ?Subroutine32 & 0xFFFF
//  282   endPointDesc_t *epDesc;
//  283 
//  284   /* parse header */
//  285   cmdId = pBuf[MT_RPC_POS_CMD1];
??CrossCallReturnLabel_64:
        MOV     ?V0 + 2,A
//  286   pBuf += MT_RPC_FRAME_HDR_SZ;
//  287 
//  288   epDesc = (endPointDesc_t *)osal_mem_alloc(sizeof(endPointDesc_t));
        ; Setup parameters for call to function osal_mem_alloc
        MOV     R2,#0x6
        MOV     R3,#0x0
        LCALL   ??osal_mem_alloc?relay
        MOV     ?V0 + 4,R2
        MOV     ?V0 + 5,R3
        MOV     R6,?V0 + 4
        MOV     R7,?V0 + 5
//  289   if ( epDesc )
        MOV     A,R6
        JNZ     ??MT_AfRegister_0
        MOV     A,R7
??MT_AfRegister_0:
        JZ      ??MT_AfRegister_1
//  290   {
//  291     epDesc->task_id = &MT_TaskID;
        MOV     DPL,R6
        MOV     DPH,R7
        INC     DPTR
        MOV     A,#(MT_TaskID & 0xff)
        MOVX    @DPTR,A
        INC     DPTR
        MOV     A,#((MT_TaskID >> 8) & 0xff)
        MOVX    @DPTR,A
//  292     retValue = MT_BuildEndpointDesc( pBuf, epDesc );
        ; Setup parameters for call to function MT_BuildEndpointDesc
        MOV     A,R6
        MOV     R4,A
        MOV     A,R7
        MOV     R5,A
        MOV     A,?V0 + 0
        ADD     A,#0x3
        MOV     R2,A
        MOV     A,?V0 + 1
        ADDC    A,#0x0
        MOV     R3,A
        LCALL   ??MT_BuildEndpointDesc?relay
        MOV     A,R1
        MOV     DPL,?XSP + 0
        MOV     DPH,?XSP + 1
        MOVX    @DPTR,A
//  293     if ( retValue == ZSuccess )
        JNZ     ??MT_AfRegister_2
//  294     {
//  295       retValue = afRegister( epDesc );
        ; Setup parameters for call to function afRegister
        MOV     A,R6
        MOV     R2,A
        MOV     A,R7
        MOV     R3,A
        LCALL   ??afRegister?relay
        MOV     A,R1
        MOV     DPL,?XSP + 0
        MOV     DPH,?XSP + 1
        MOVX    @DPTR,A
//  296     }
//  297 
//  298     if ( retValue != ZSuccess )
??MT_AfRegister_2:
        MOVX    A,@DPTR
        JZ      ??MT_AfRegister_1
//  299     {
//  300       osal_mem_free( epDesc );
        ; Setup parameters for call to function osal_mem_free
        MOV     A,R6
        MOV     R2,A
        MOV     A,R7
        MOV     R3,A
        LCALL   ??osal_mem_free?relay
//  301     }
//  302   }
//  303 
//  304   /* Build and send back the response */
//  305   MT_BuildAndSendZToolResponse(((uint8)MT_RPC_CMD_SRSP | (uint8)MT_RPC_SYS_AF), cmdId, 1, &retValue);
??MT_AfRegister_1:
        ; Setup parameters for call to function MT_BuildAndSendZToolResponse
        MOV     DPL,?XSP + 0
        MOV     DPH,?XSP + 1
        MOV     R4,DPL
        MOV     R5,DPH
        MOV     R3,#0x1
        MOV     R2,?V0 + 2
        MOV     R1,#0x64
        LCALL   ??MT_BuildAndSendZToolResponse?relay
//  306 }
        MOV     A,#0x1
        LCALL   ?DEALLOC_XSTACK8
        CFI CFA_XSP16 add(XSP16, 14)
        MOV     R7,#0x6
        LJMP    ?BANKED_LEAVE_XDATA
        CFI EndBlock cfiBlock26
//  307 
//  308 /***************************************************************************************************
//  309  * @fn      MT_AfDataRequest
//  310  *
//  311  * @brief   Process AF Register command
//  312  *
//  313  * @param   pBuf - pointer to the received buffer
//  314  *
//  315  * @return  none
//  316  ***************************************************************************************************/

        RSEG BANKED_CODE:CODE:NOROOT(0)
//  317 void MT_AfDataRequest(uint8 *pBuf)
MT_AfDataRequest:
        CFI Block cfiBlock27 Using cfiCommon0
        CFI Function MT_AfDataRequest
//  318 {
        FUNCALL MT_AfDataRequest, osal_memcpy
        LOCFRAME ISTACK, 0, STACK
        LOCFRAME PSTACK, 0, STACK
        LOCFRAME XSTACK, 39, STACK
        LOCFRAME IOVERLAY, 0, STATIC
        LOCFRAME DOVERLAY, 0, STATIC
        ARGFRAME ISTACK, 0, STACK
        ARGFRAME PSTACK, 0, STACK
        ARGFRAME XSTACK, 39, STACK
        ARGFRAME IOVERLAY, 0, STATIC
        ARGFRAME DOVERLAY, 0, STATIC
        FUNCALL MT_AfDataRequest, afFindEndPointDesc
        LOCFRAME ISTACK, 0, STACK
        LOCFRAME PSTACK, 0, STACK
        LOCFRAME XSTACK, 36, STACK
        LOCFRAME IOVERLAY, 0, STATIC
        LOCFRAME DOVERLAY, 0, STATIC
        ARGFRAME ISTACK, 0, STACK
        ARGFRAME PSTACK, 0, STACK
        ARGFRAME XSTACK, 36, STACK
        ARGFRAME IOVERLAY, 0, STATIC
        ARGFRAME DOVERLAY, 0, STATIC
        FUNCALL MT_AfDataRequest, osal_mem_alloc
        LOCFRAME ISTACK, 0, STACK
        LOCFRAME PSTACK, 0, STACK
        LOCFRAME XSTACK, 36, STACK
        LOCFRAME IOVERLAY, 0, STATIC
        LOCFRAME DOVERLAY, 0, STATIC
        ARGFRAME ISTACK, 0, STACK
        ARGFRAME PSTACK, 0, STACK
        ARGFRAME XSTACK, 36, STACK
        ARGFRAME IOVERLAY, 0, STATIC
        ARGFRAME DOVERLAY, 0, STATIC
        FUNCALL MT_AfDataRequest, osal_memcpy
        LOCFRAME ISTACK, 0, STACK
        LOCFRAME PSTACK, 0, STACK
        LOCFRAME XSTACK, 39, STACK
        LOCFRAME IOVERLAY, 0, STATIC
        LOCFRAME DOVERLAY, 0, STATIC
        ARGFRAME ISTACK, 0, STACK
        ARGFRAME PSTACK, 0, STACK
        ARGFRAME XSTACK, 39, STACK
        ARGFRAME IOVERLAY, 0, STATIC
        ARGFRAME DOVERLAY, 0, STATIC
        FUNCALL MT_AfDataRequest, osal_start_timerEx
        LOCFRAME ISTACK, 0, STACK
        LOCFRAME PSTACK, 0, STACK
        LOCFRAME XSTACK, 36, STACK
        LOCFRAME IOVERLAY, 0, STATIC
        LOCFRAME DOVERLAY, 0, STATIC
        ARGFRAME ISTACK, 0, STACK
        ARGFRAME PSTACK, 0, STACK
        ARGFRAME XSTACK, 36, STACK
        ARGFRAME IOVERLAY, 0, STATIC
        ARGFRAME DOVERLAY, 0, STATIC
        FUNCALL MT_AfDataRequest, osal_set_event
        LOCFRAME ISTACK, 0, STACK
        LOCFRAME PSTACK, 0, STACK
        LOCFRAME XSTACK, 36, STACK
        LOCFRAME IOVERLAY, 0, STATIC
        LOCFRAME DOVERLAY, 0, STATIC
        ARGFRAME ISTACK, 0, STACK
        ARGFRAME PSTACK, 0, STACK
        ARGFRAME XSTACK, 36, STACK
        ARGFRAME IOVERLAY, 0, STATIC
        ARGFRAME DOVERLAY, 0, STATIC
        FUNCALL MT_AfDataRequest, AF_DataRequest
        LOCFRAME ISTACK, 0, STACK
        LOCFRAME PSTACK, 0, STACK
        LOCFRAME XSTACK, 45, STACK
        LOCFRAME IOVERLAY, 0, STATIC
        LOCFRAME DOVERLAY, 0, STATIC
        ARGFRAME ISTACK, 0, STACK
        ARGFRAME PSTACK, 0, STACK
        ARGFRAME XSTACK, 45, STACK
        ARGFRAME IOVERLAY, 0, STATIC
        ARGFRAME DOVERLAY, 0, STATIC
        FUNCALL MT_AfDataRequest, MT_BuildAndSendZToolResponse
        LOCFRAME ISTACK, 0, STACK
        LOCFRAME PSTACK, 0, STACK
        LOCFRAME XSTACK, 36, STACK
        LOCFRAME IOVERLAY, 0, STATIC
        LOCFRAME DOVERLAY, 0, STATIC
        ARGFRAME ISTACK, 0, STACK
        ARGFRAME PSTACK, 0, STACK
        ARGFRAME XSTACK, 36, STACK
        ARGFRAME IOVERLAY, 0, STATIC
        ARGFRAME DOVERLAY, 0, STATIC
        MOV     A,#-0x16
        LCALL   ?BANKED_ENTER_XDATA
        CFI DPH0 load(1, XDATA, add(CFA_XSP16, literal(-1)))
        CFI DPL0 load(1, XDATA, add(CFA_XSP16, literal(-2)))
        CFI ?BRET_EXT load(1, XDATA, add(CFA_XSP16, literal(-3)))
        CFI ?RET_HIGH load(1, XDATA, add(CFA_XSP16, literal(-4)))
        CFI ?RET_LOW load(1, XDATA, add(CFA_XSP16, literal(-5)))
        CFI R7 load(1, XDATA, add(CFA_XSP16, literal(-6)))
        CFI V13 load(1, XDATA, add(CFA_XSP16, literal(-7)))
        CFI V12 load(1, XDATA, add(CFA_XSP16, literal(-8)))
        CFI V11 load(1, XDATA, add(CFA_XSP16, literal(-9)))
        CFI V10 load(1, XDATA, add(CFA_XSP16, literal(-10)))
        CFI V9 load(1, XDATA, add(CFA_XSP16, literal(-11)))
        CFI V8 load(1, XDATA, add(CFA_XSP16, literal(-12)))
        CFI V7 load(1, XDATA, add(CFA_XSP16, literal(-13)))
        CFI V6 load(1, XDATA, add(CFA_XSP16, literal(-14)))
        CFI V5 load(1, XDATA, add(CFA_XSP16, literal(-15)))
        CFI V4 load(1, XDATA, add(CFA_XSP16, literal(-16)))
        CFI V3 load(1, XDATA, add(CFA_XSP16, literal(-17)))
        CFI V2 load(1, XDATA, add(CFA_XSP16, literal(-18)))
        CFI V1 load(1, XDATA, add(CFA_XSP16, literal(-19)))
        CFI V0 load(1, XDATA, add(CFA_XSP16, literal(-20)))
        CFI VB load(1, XDATA, add(CFA_XSP16, literal(-21)))
        CFI R6 load(1, XDATA, add(CFA_XSP16, literal(-22)))
        CFI CFA_SP SP+0
        CFI CFA_XSP16 add(XSP16, 22)
        ; Saved register size: 22
        ; Auto size: 14
        MOV     A,#-0xe
        LCALL   ?ALLOC_XSTACK8
        CFI CFA_XSP16 add(XSP16, 36)
//  319   #define MT_AF_REQ_MSG_LEN  10
//  320   #define MT_AF_REQ_MSG_EXT  10
//  321 
//  322   endPointDesc_t *epDesc;
//  323   afAddrType_t dstAddr;
//  324   cId_t cId;
//  325   uint8 transId, txOpts, radius;
//  326   uint8 cmd0, cmd1;
//  327   uint8 retValue = ZFailure;
        MOV     A,#0x1
        LCALL   ?Subroutine39 & 0xFFFF
//  328   uint16 dataLen, tempLen;
//  329 
//  330   /* Parse header */
//  331   cmd0 = pBuf[MT_RPC_POS_CMD0];
??CrossCallReturnLabel_83:
        MOVX    A,@DPTR
        MOV     ?V0 + 10,A
//  332   cmd1 = pBuf[MT_RPC_POS_CMD1];
        MOV     DPL,R2
        MOV     DPH,R3
        INC     DPTR
        INC     DPTR
        MOVX    A,@DPTR
        MOV     ?V0 + 7,A
//  333   pBuf += MT_RPC_FRAME_HDR_SZ;
        MOV     A,R2
        ADD     A,#0x3
        MOV     ?V0 + 4,A
        MOV     A,R3
        ADDC    A,#0x0
        MOV     ?V0 + 5,A
//  334 
//  335   if (cmd1 == MT_AF_DATA_REQUEST_EXT)
        MOV     A,#0x2
        XRL     A,?V0 + 7
        JNZ     ??MT_AfDataRequest_0
//  336   {
//  337     dstAddr.addrMode = (afAddrMode_t)*pBuf++;
        MOV     DPL,?V0 + 4
        MOV     DPH,?V0 + 5
        MOVX    A,@DPTR
        MOV     R2,A
        MOV     A,#0xa
        LCALL   ?XSTACK_DISP0_8
        MOV     A,R2
        LCALL   ?Subroutine26 & 0xFFFF
//  338 
//  339     if (dstAddr.addrMode == afAddr64Bit)
??CrossCallReturnLabel_42:
        MOV     A,#0x3
        XRL     A,R2
        JNZ     ??MT_AfDataRequest_1
//  340     {
//  341       (void)osal_memcpy(dstAddr.addr.extAddr, pBuf, Z_EXTADDR_LEN);
        ; Setup parameters for call to function osal_memcpy
        MOV     ?V0 + 0,?V0 + 4
        MOV     ?V0 + 1,?V0 + 5
        MOV     ?V0 + 2,#0x0
        MOV     R0,#?V0 + 0
        LCALL   ?PUSH_XSTACK_I_THREE
        CFI CFA_XSP16 add(XSP16, 39)
        MOV     R4,#0x8
        MOV     R5,#0x0
        MOV     A,#0x5
        LCALL   ?XSTACK_DISP0_8
        MOV     R2,DPL
        MOV     R3,DPH
        LCALL   ??Subroutine54_0 & 0xFFFF
//  342     }
??CrossCallReturnLabel_115:
        LCALL   ?DEALLOC_XSTACK8
        CFI CFA_XSP16 add(XSP16, 36)
        SJMP    ??CrossCallReturnLabel_57
//  343     else
//  344     {
//  345       dstAddr.addr.shortAddr = BUILD_UINT16(pBuf[0], pBuf[1]);
??MT_AfDataRequest_1:
        LCALL   ?Subroutine5 & 0xFFFF
//  346     }
??CrossCallReturnLabel_2:
        LCALL   ?XSTACK_DISP0_8
        LCALL   ?Subroutine31 & 0xFFFF
//  347     pBuf += Z_EXTADDR_LEN;
??CrossCallReturnLabel_57:
        MOV     A,?V0 + 4
        ADD     A,#0x8
        LCALL   ??Subroutine48_0 & 0xFFFF
//  348 
//  349     dstAddr.endPoint = *pBuf++;
??CrossCallReturnLabel_88:
        PUSH    A
        CFI CFA_SP SP+-1
        MOV     A,#0xb
        LCALL   ?XSTACK_DISP0_8
        POP     A
        CFI CFA_SP SP+0
        MOVX    @DPTR,A
        LCALL   ?Subroutine6 & 0xFFFF
//  350     dstAddr.panId = BUILD_UINT16(pBuf[0], pBuf[1]);
??CrossCallReturnLabel_92:
        MOV     R0,A
        MOV     A,#0xc
        LCALL   ?XSTACK_DISP0_8
        LCALL   ?Subroutine31 & 0xFFFF
//  351     pBuf += 2;
??CrossCallReturnLabel_58:
        LCALL   ?Subroutine34 & 0xFFFF
//  352   }
??CrossCallReturnLabel_66:
        SJMP    ??MT_AfDataRequest_2
//  353   else
//  354   {
//  355     /* Destination address */
//  356     dstAddr.addrMode = afAddr16Bit;
??MT_AfDataRequest_0:
        MOV     A,#0xa
        LCALL   ?XSTACK_DISP0_8
        MOV     A,#0x2
        MOVX    @DPTR,A
//  357     dstAddr.addr.shortAddr = BUILD_UINT16(pBuf[0], pBuf[1]);
        MOV     DPL,?V0 + 4
        MOV     DPH,?V0 + 5
        LCALL   ?Subroutine5 & 0xFFFF
??CrossCallReturnLabel_3:
        LCALL   ?XSTACK_DISP0_8
        LCALL   ?Subroutine31 & 0xFFFF
//  358     pBuf += 2;
??CrossCallReturnLabel_59:
        LCALL   ?Subroutine18 & 0xFFFF
//  359 
//  360     /* Destination endpoint */
//  361     dstAddr.endPoint = *pBuf++;
??CrossCallReturnLabel_86:
        PUSH    A
        CFI CFA_SP SP+-1
        MOV     A,#0xb
        LCALL   ?XSTACK_DISP0_8
        POP     A
        CFI CFA_SP SP+0
        LCALL   ?Subroutine26 & 0xFFFF
//  362     dstAddr.panId = 0;
??CrossCallReturnLabel_43:
        MOV     A,#0xc
        LCALL   ?XSTACK_DISP0_8
        CLR     A
        MOVX    @DPTR,A
        INC     DPTR
        MOVX    @DPTR,A
//  363   }
//  364 
//  365   /* Source endpoint */
//  366   epDesc = afFindEndPointDesc(*pBuf++);
??MT_AfDataRequest_2:
        ; Setup parameters for call to function afFindEndPointDesc
        MOV     DPL,?V0 + 4
        MOV     DPH,?V0 + 5
        MOVX    A,@DPTR
        MOV     R1,A
        LCALL   ??afFindEndPointDesc?relay
        MOV     ?V0 + 8,R2
        MOV     ?V0 + 9,R3
        LCALL   ?Subroutine6 & 0xFFFF
//  367 
//  368   /* ClusterId */
//  369   cId = BUILD_UINT16(pBuf[0], pBuf[1]);
??CrossCallReturnLabel_93:
        MOV     ?V0 + 0,A
        MOV     A,R1
        MOV     ?V0 + 1,A
//  370   pBuf +=2;
        LCALL   ?Subroutine18 & 0xFFFF
//  371 
//  372   /* TransId */
//  373   transId = *pBuf++;
??CrossCallReturnLabel_87:
        PUSH    A
        CFI CFA_SP SP+-1
        MOV     A,#0x1
        LCALL   ?XSTACK_DISP0_8
        POP     A
        CFI CFA_SP SP+0
        LCALL   ?Subroutine41 & 0xFFFF
//  374 
//  375   /* TxOption */
//  376   txOpts = *pBuf++;
??CrossCallReturnLabel_70:
        LCALL   ?Subroutine10 & 0xFFFF
//  377 
//  378   /* Radius */
//  379   radius = *pBuf++;
??CrossCallReturnLabel_12:
        INC     DPTR
        MOV     ?V0 + 4,DPL
        MOV     ?V0 + 5,DPH
//  380 
//  381   /* Length */
//  382   if (cmd1 == MT_AF_DATA_REQUEST_EXT)
        MOV     A,#0x2
        XRL     A,?V0 + 7
        JNZ     ??MT_AfDataRequest_3
//  383   {
//  384     dataLen = BUILD_UINT16(pBuf[0], pBuf[1]);
        LCALL   ??Subroutine50_0 & 0xFFFF
??CrossCallReturnLabel_94:
        MOV     R6,A
        MOV     A,R1
        MOV     R7,A
//  385     tempLen = dataLen + MT_AF_REQ_MSG_LEN + MT_AF_REQ_MSG_EXT;
        MOV     A,#0x14
        ADD     A,R6
        MOV     R0,A
        CLR     A
        ADDC    A,R7
        MOV     R1,A
//  386     pBuf += 2;
        LCALL   ?Subroutine34 & 0xFFFF
//  387   }
??CrossCallReturnLabel_67:
        SJMP    ??MT_AfDataRequest_4
//  388   else
//  389   {
//  390     dataLen = *pBuf++;
??MT_AfDataRequest_3:
        MOVX    A,@DPTR
        MOV     R6,A
        MOV     R7,#0x0
        INC     DPTR
        MOV     ?V0 + 4,DPL
        MOV     ?V0 + 5,DPH
//  391     tempLen = dataLen + MT_AF_REQ_MSG_LEN;
        MOV     A,#0xa
        ADD     A,R6
        MOV     R0,A
        CLR     A
        ADDC    A,#0x0
        MOV     R1,A
//  392   }
//  393 
//  394   if ( epDesc == NULL )
??MT_AfDataRequest_4:
        MOV     A,?V0 + 8
        JNZ     ??MT_AfDataRequest_5
        MOV     A,R3
??MT_AfDataRequest_5:
        JNZ     ??MT_AfDataRequest_6
//  395   {
//  396     retValue = afStatus_INVALID_PARAMETER;
??MT_AfDataRequest_7:
        MOV     A,#0x2
        LJMP    ??MT_AfDataRequest_8 & 0xFFFF
//  397   }
//  398   else if (tempLen > (uint16)MT_RPC_DATA_MAX)
??MT_AfDataRequest_6:
        CLR     C
        MOV     A,R0
        SUBB    A,#-0x5
        MOV     A,R1
        SUBB    A,#0x0
        JNC     $+5
        LJMP    ??MT_AfDataRequest_9 & 0xFFFF
//  399   {
//  400     if (pMtAfDataReq != NULL)
        MOV     DPTR,#pMtAfDataReq
        MOVX    A,@DPTR
        JNZ     ??MT_AfDataRequest_10
        INC     DPTR
        MOVX    A,@DPTR
??MT_AfDataRequest_10:
        JNZ     ??MT_AfDataRequest_7
//  401     {
//  402       retValue = afStatus_INVALID_PARAMETER;
//  403     }
//  404     else if ((pMtAfDataReq = osal_mem_alloc(sizeof(mtAfDataReq_t) + dataLen)) == NULL)
        ; Setup parameters for call to function osal_mem_alloc
        MOV     A,#0x18
        LCALL   ?Subroutine35 & 0xFFFF
??CrossCallReturnLabel_68:
        MOV     DPTR,#pMtAfDataReq
        MOV     A,R2
        MOVX    @DPTR,A
        INC     DPTR
        MOV     A,R3
        LCALL   ?Subroutine27 & 0xFFFF
??CrossCallReturnLabel_49:
        JNZ     ??MT_AfDataRequest_11
        INC     DPTR
        MOVX    A,@DPTR
??MT_AfDataRequest_11:
        JNZ     ??MT_AfDataRequest_12
//  405     {
//  406       retValue = afStatus_MEM_FAIL;
        MOV     A,#0x10
        LJMP    ??MT_AfDataRequest_8 & 0xFFFF
//  407     }
//  408     else
//  409     {
//  410       retValue = afStatus_SUCCESS;
??MT_AfDataRequest_12:
        CLR     A
        MOV     DPL,?XSP + 0
        MOV     DPH,?XSP + 1
        LCALL   ?Subroutine27 & 0xFFFF
//  411 
//  412       pMtAfDataReq->data = (uint8 *)(pMtAfDataReq+1);
??CrossCallReturnLabel_44:
        ADD     A,#0x18
        MOV     R2,A
        INC     DPTR
        MOVX    A,@DPTR
        ADDC    A,#0x0
        MOV     R3,A
        LCALL   ?Subroutine9 & 0xFFFF
??CrossCallReturnLabel_9:
        MOV     A,R2
        MOVX    @DPTR,A
        INC     DPTR
        MOV     A,R3
        MOVX    @DPTR,A
//  413       (void)osal_memcpy(&(pMtAfDataReq->dstAddr), &dstAddr, sizeof(afAddrType_t));
        ; Setup parameters for call to function osal_memcpy
        MOV     A,#0x2
        LCALL   ?XSTACK_DISP0_8
        MOV     R1,DPL
        MOV     R2,DPH
        MOV     ?V0 + 4,R1
        MOV     ?V0 + 5,R2
        MOV     ?V0 + 6,#0x0
        MOV     R0,#?V0 + 4
        LCALL   ?PUSH_XSTACK_I_THREE
        CFI CFA_XSP16 add(XSP16, 39)
        MOV     R4,#0xc
        MOV     R5,#0x0
        LCALL   ?Subroutine12 & 0xFFFF
??CrossCallReturnLabel_15:
        LCALL   ??Subroutine54_0 & 0xFFFF
??CrossCallReturnLabel_116:
        LCALL   ?DEALLOC_XSTACK8
        CFI CFA_XSP16 add(XSP16, 36)
//  414       pMtAfDataReq->epDesc = epDesc;
        MOV     DPTR,#pMtAfDataReq
        MOVX    A,@DPTR
        ADD     A,#0xe
        LCALL   ??Subroutine56_0 & 0xFFFF
??CrossCallReturnLabel_124:
        MOV     A,?V0 + 8
        MOVX    @DPTR,A
        INC     DPTR
        MOV     A,?V0 + 9
        MOVX    @DPTR,A
//  415       pMtAfDataReq->cId = cId;
        LCALL   ?Subroutine3 & 0xFFFF
??CrossCallReturnLabel_131:
        MOV     A,?V0 + 0
        MOVX    @DPTR,A
        INC     DPTR
        MOV     A,?V0 + 1
        LCALL   ?Subroutine27 & 0xFFFF
//  416       pMtAfDataReq->dataLen = dataLen;
??CrossCallReturnLabel_45:
        ADD     A,#0x12
        LCALL   ??Subroutine56_0 & 0xFFFF
??CrossCallReturnLabel_125:
        MOV     A,R6
        MOVX    @DPTR,A
        INC     DPTR
        MOV     A,R7
        MOVX    @DPTR,A
//  417       pMtAfDataReq->transId = transId;
        MOV     A,#0x1
        LCALL   ?XSTACK_DISP0_8
        MOVX    A,@DPTR
        PUSH    A
        CFI CFA_SP SP+-1
        MOV     DPTR,#pMtAfDataReq
        MOVX    A,@DPTR
        ADD     A,#0x14
        LCALL   ??Subroutine56_0 & 0xFFFF
??CrossCallReturnLabel_126:
        POP     A
        CFI CFA_SP SP+0
        LCALL   ?Subroutine27 & 0xFFFF
//  418       pMtAfDataReq->txOpts = txOpts;
??CrossCallReturnLabel_46:
        ADD     A,#0x15
        LCALL   ??Subroutine56_0 & 0xFFFF
??CrossCallReturnLabel_127:
        MOV     A,?V0 + 2
        LCALL   ?Subroutine27 & 0xFFFF
//  419       pMtAfDataReq->radius = radius;
??CrossCallReturnLabel_47:
        ADD     A,#0x16
        LCALL   ??Subroutine56_0 & 0xFFFF
??CrossCallReturnLabel_128:
        MOV     A,?V0 + 3
        LCALL   ?Subroutine27 & 0xFFFF
//  420 
//  421       // Setup to time-out the huge outgoing item if host does not MT_AF_DATA_STORE it.
//  422       pMtAfDataReq->tick = MT_AF_EXEC_CNT;
??CrossCallReturnLabel_48:
        ADD     A,#0x17
        LCALL   ??Subroutine56_0 & 0xFFFF
??CrossCallReturnLabel_129:
        MOV     A,#0xf
        LCALL   ?Subroutine11 & 0xFFFF
//  423       if (ZSuccess != osal_start_timerEx(MT_TaskID, MT_AF_EXEC_EVT, MT_AF_EXEC_DLY))
??CrossCallReturnLabel_89:
        JZ      ??MT_AfDataRequest_13
//  424       {
//  425         (void)osal_set_event(MT_TaskID, MT_AF_EXEC_EVT);
        ; Setup parameters for call to function osal_set_event
        LCALL   ?Subroutine17 & 0xFFFF
//  426       }
//  427     }
//  428   }
??CrossCallReturnLabel_25:
        SJMP    ??MT_AfDataRequest_13
//  429   else
//  430   {
//  431     retValue = AF_DataRequest(&dstAddr, epDesc, cId, dataLen, pBuf, &transId, txOpts, radius);
??MT_AfDataRequest_9:
        ; Setup parameters for call to function AF_DataRequest
        MOV     R0,#?V0 + 3
        LCALL   ?PUSH_XSTACK_I_ONE
        CFI CFA_XSP16 add(XSP16, 37)
        MOV     A,#0x2
        LCALL   ?XSTACK_DISP0_8
        MOV     ?V0 + 12,DPL
        MOV     ?V0 + 13,DPH
        MOV     R0,#?V0 + 12
        LCALL   ?PUSH_XSTACK_I_TWO
        CFI CFA_XSP16 add(XSP16, 39)
        MOV     R0,#?V0 + 4
        LCALL   ?PUSH_XSTACK_I_TWO
        CFI CFA_XSP16 add(XSP16, 41)
        MOV     ?V0 + 4,R6
        MOV     ?V0 + 5,R7
        MOV     R0,#?V0 + 4
        LCALL   ?PUSH_XSTACK_I_TWO
        CFI CFA_XSP16 add(XSP16, 43)
        MOV     R0,#?V0 + 0
        LCALL   ?PUSH_XSTACK_I_TWO
        CFI CFA_XSP16 add(XSP16, 45)
        MOV     R1,?V0 + 2
        MOV     R4,?V0 + 8
        MOV     R5,?V0 + 9
        MOV     A,#0xb
        LCALL   ?XSTACK_DISP0_8
        MOV     R2,DPL
        MOV     R3,DPH
        LCALL   ??AF_DataRequest?relay
        MOV     A,#0x9
        LCALL   ?DEALLOC_XSTACK8
        CFI CFA_XSP16 add(XSP16, 36)
        MOV     A,R1
??MT_AfDataRequest_8:
        MOV     DPL,?XSP + 0
        MOV     DPH,?XSP + 1
        MOVX    @DPTR,A
//  432   }
//  433 
//  434   if (MT_RPC_CMD_SREQ == (cmd0 & MT_RPC_CMD_TYPE_MASK))
??MT_AfDataRequest_13:
        MOV     A,#-0x20
        ANL     A,?V0 + 10
        XRL     A,#0x20
        JNZ     ??MT_AfDataRequest_14
//  435   {
//  436     MT_BuildAndSendZToolResponse(((uint8)MT_RPC_CMD_SRSP|(uint8)MT_RPC_SYS_AF), cmd1, 1, &retValue);
        ; Setup parameters for call to function MT_BuildAndSendZToolResponse
        MOV     DPL,?XSP + 0
        MOV     DPH,?XSP + 1
        MOV     R4,DPL
        MOV     R5,DPH
        MOV     R3,#0x1
        MOV     R2,?V0 + 7
        MOV     R1,#0x64
        LCALL   ??MT_BuildAndSendZToolResponse?relay
//  437   }
//  438 }
??MT_AfDataRequest_14:
        MOV     A,#0xe
        LCALL   ?DEALLOC_XSTACK8
        CFI CFA_XSP16 add(XSP16, 22)
        MOV     R7,#0xe
        LJMP    ?BANKED_LEAVE_XDATA
        CFI EndBlock cfiBlock27

        RSEG BANKED_CODE:CODE:NOROOT(0)
?Subroutine39:
        CFI Block cfiCond28 Using cfiCommon0
        CFI NoFunction
        CFI Conditional ??CrossCallReturnLabel_83
        CFI R6 load(1, XDATA, add(CFA_XSP16, literal(-22)))
        CFI VB load(1, XDATA, add(CFA_XSP16, literal(-21)))
        CFI V0 load(1, XDATA, add(CFA_XSP16, literal(-20)))
        CFI V1 load(1, XDATA, add(CFA_XSP16, literal(-19)))
        CFI V2 load(1, XDATA, add(CFA_XSP16, literal(-18)))
        CFI V3 load(1, XDATA, add(CFA_XSP16, literal(-17)))
        CFI V4 load(1, XDATA, add(CFA_XSP16, literal(-16)))
        CFI V5 load(1, XDATA, add(CFA_XSP16, literal(-15)))
        CFI V6 load(1, XDATA, add(CFA_XSP16, literal(-14)))
        CFI V7 load(1, XDATA, add(CFA_XSP16, literal(-13)))
        CFI V8 load(1, XDATA, add(CFA_XSP16, literal(-12)))
        CFI V9 load(1, XDATA, add(CFA_XSP16, literal(-11)))
        CFI V10 load(1, XDATA, add(CFA_XSP16, literal(-10)))
        CFI V11 load(1, XDATA, add(CFA_XSP16, literal(-9)))
        CFI V12 load(1, XDATA, add(CFA_XSP16, literal(-8)))
        CFI V13 load(1, XDATA, add(CFA_XSP16, literal(-7)))
        CFI R7 load(1, XDATA, add(CFA_XSP16, literal(-6)))
        CFI ?RET_LOW load(1, XDATA, add(CFA_XSP16, literal(-5)))
        CFI ?RET_HIGH load(1, XDATA, add(CFA_XSP16, literal(-4)))
        CFI ?BRET_EXT load(1, XDATA, add(CFA_XSP16, literal(-3)))
        CFI DPL0 load(1, XDATA, add(CFA_XSP16, literal(-2)))
        CFI DPH0 load(1, XDATA, add(CFA_XSP16, literal(-1)))
        CFI CFA_SP SP+0
        CFI CFA_XSP16 add(XSP16, 36)
        CFI Block cfiCond29 Using cfiCommon0
        CFI (cfiCond29) NoFunction
        CFI (cfiCond29) Conditional ??CrossCallReturnLabel_84, ??CrossCallReturnLabel_64
        CFI (cfiCond29) R6 load(1, XDATA, add(CFA_XSP16, literal(-14)))
        CFI (cfiCond29) VB load(1, XDATA, add(CFA_XSP16, literal(-13)))
        CFI (cfiCond29) V0 load(1, XDATA, add(CFA_XSP16, literal(-12)))
        CFI (cfiCond29) V1 load(1, XDATA, add(CFA_XSP16, literal(-11)))
        CFI (cfiCond29) V2 load(1, XDATA, add(CFA_XSP16, literal(-10)))
        CFI (cfiCond29) V3 load(1, XDATA, add(CFA_XSP16, literal(-9)))
        CFI (cfiCond29) V4 load(1, XDATA, add(CFA_XSP16, literal(-8)))
        CFI (cfiCond29) V5 load(1, XDATA, add(CFA_XSP16, literal(-7)))
        CFI (cfiCond29) R7 load(1, XDATA, add(CFA_XSP16, literal(-6)))
        CFI (cfiCond29) ?RET_LOW load(1, XDATA, add(CFA_XSP16, literal(-5)))
        CFI (cfiCond29) ?RET_HIGH load(1, XDATA, add(CFA_XSP16, literal(-4)))
        CFI (cfiCond29) ?BRET_EXT load(1, XDATA, add(CFA_XSP16, literal(-3)))
        CFI (cfiCond29) DPL0 load(1, XDATA, add(CFA_XSP16, literal(-2)))
        CFI (cfiCond29) DPH0 load(1, XDATA, add(CFA_XSP16, literal(-1)))
        CFI (cfiCond29) CFA_SP SP+0
        CFI (cfiCond29) CFA_XSP16 add(XSP16, 15)
        CFI Block cfiCond30 Using cfiCommon0
        CFI (cfiCond30) NoFunction
        CFI (cfiCond30) Conditional ??CrossCallReturnLabel_84, ??CrossCallReturnLabel_65
        CFI (cfiCond30) DPL0 Frame(CFA_SP, 4)
        CFI (cfiCond30) DPH0 Frame(CFA_SP, 5)
        CFI (cfiCond30) CFA_SP SP+-5
        CFI (cfiCond30) CFA_XSP16 add(XSP16, 3)
        CFI Block cfiPicker31 Using cfiCommon1
        CFI (cfiPicker31) NoFunction
        CFI (cfiPicker31) Picker
        MOV     DPL,?XSP + 0
        MOV     DPH,?XSP + 1
        CFI EndBlock cfiCond28
        CFI EndBlock cfiCond29
        CFI EndBlock cfiCond30
        CFI EndBlock cfiPicker31
        REQUIRE ??Subroutine47_0
        ; // Fall through to label ??Subroutine47_0

        RSEG BANKED_CODE:CODE:NOROOT(0)
??Subroutine47_0:
        CFI Block cfiCond32 Using cfiCommon0
        CFI NoFunction
        CFI Conditional ??CrossCallReturnLabel_85
        CFI DPL0 Frame(CFA_SP, 4)
        CFI DPH0 Frame(CFA_SP, 5)
        CFI CFA_SP SP+-5
        CFI CFA_XSP16 add(XSP16, 3)
        CFI Block cfiCond33 Using cfiCommon0
        CFI (cfiCond33) NoFunction
        CFI (cfiCond33) Conditional ??CrossCallReturnLabel_83
        CFI (cfiCond33) R6 load(1, XDATA, add(CFA_XSP16, literal(-22)))
        CFI (cfiCond33) VB load(1, XDATA, add(CFA_XSP16, literal(-21)))
        CFI (cfiCond33) V0 load(1, XDATA, add(CFA_XSP16, literal(-20)))
        CFI (cfiCond33) V1 load(1, XDATA, add(CFA_XSP16, literal(-19)))
        CFI (cfiCond33) V2 load(1, XDATA, add(CFA_XSP16, literal(-18)))
        CFI (cfiCond33) V3 load(1, XDATA, add(CFA_XSP16, literal(-17)))
        CFI (cfiCond33) V4 load(1, XDATA, add(CFA_XSP16, literal(-16)))
        CFI (cfiCond33) V5 load(1, XDATA, add(CFA_XSP16, literal(-15)))
        CFI (cfiCond33) V6 load(1, XDATA, add(CFA_XSP16, literal(-14)))
        CFI (cfiCond33) V7 load(1, XDATA, add(CFA_XSP16, literal(-13)))
        CFI (cfiCond33) V8 load(1, XDATA, add(CFA_XSP16, literal(-12)))
        CFI (cfiCond33) V9 load(1, XDATA, add(CFA_XSP16, literal(-11)))
        CFI (cfiCond33) V10 load(1, XDATA, add(CFA_XSP16, literal(-10)))
        CFI (cfiCond33) V11 load(1, XDATA, add(CFA_XSP16, literal(-9)))
        CFI (cfiCond33) V12 load(1, XDATA, add(CFA_XSP16, literal(-8)))
        CFI (cfiCond33) V13 load(1, XDATA, add(CFA_XSP16, literal(-7)))
        CFI (cfiCond33) R7 load(1, XDATA, add(CFA_XSP16, literal(-6)))
        CFI (cfiCond33) ?RET_LOW load(1, XDATA, add(CFA_XSP16, literal(-5)))
        CFI (cfiCond33) ?RET_HIGH load(1, XDATA, add(CFA_XSP16, literal(-4)))
        CFI (cfiCond33) ?BRET_EXT load(1, XDATA, add(CFA_XSP16, literal(-3)))
        CFI (cfiCond33) DPL0 load(1, XDATA, add(CFA_XSP16, literal(-2)))
        CFI (cfiCond33) DPH0 load(1, XDATA, add(CFA_XSP16, literal(-1)))
        CFI (cfiCond33) CFA_SP SP+0
        CFI (cfiCond33) CFA_XSP16 add(XSP16, 36)
        CFI Block cfiCond34 Using cfiCommon0
        CFI (cfiCond34) NoFunction
        CFI (cfiCond34) Conditional ??CrossCallReturnLabel_84, ??CrossCallReturnLabel_64
        CFI (cfiCond34) R6 load(1, XDATA, add(CFA_XSP16, literal(-14)))
        CFI (cfiCond34) VB load(1, XDATA, add(CFA_XSP16, literal(-13)))
        CFI (cfiCond34) V0 load(1, XDATA, add(CFA_XSP16, literal(-12)))
        CFI (cfiCond34) V1 load(1, XDATA, add(CFA_XSP16, literal(-11)))
        CFI (cfiCond34) V2 load(1, XDATA, add(CFA_XSP16, literal(-10)))
        CFI (cfiCond34) V3 load(1, XDATA, add(CFA_XSP16, literal(-9)))
        CFI (cfiCond34) V4 load(1, XDATA, add(CFA_XSP16, literal(-8)))
        CFI (cfiCond34) V5 load(1, XDATA, add(CFA_XSP16, literal(-7)))
        CFI (cfiCond34) R7 load(1, XDATA, add(CFA_XSP16, literal(-6)))
        CFI (cfiCond34) ?RET_LOW load(1, XDATA, add(CFA_XSP16, literal(-5)))
        CFI (cfiCond34) ?RET_HIGH load(1, XDATA, add(CFA_XSP16, literal(-4)))
        CFI (cfiCond34) ?BRET_EXT load(1, XDATA, add(CFA_XSP16, literal(-3)))
        CFI (cfiCond34) DPL0 load(1, XDATA, add(CFA_XSP16, literal(-2)))
        CFI (cfiCond34) DPH0 load(1, XDATA, add(CFA_XSP16, literal(-1)))
        CFI (cfiCond34) CFA_SP SP+0
        CFI (cfiCond34) CFA_XSP16 add(XSP16, 15)
        CFI Block cfiCond35 Using cfiCommon0
        CFI (cfiCond35) NoFunction
        CFI (cfiCond35) Conditional ??CrossCallReturnLabel_84, ??CrossCallReturnLabel_65
        CFI (cfiCond35) DPL0 Frame(CFA_SP, 4)
        CFI (cfiCond35) DPH0 Frame(CFA_SP, 5)
        CFI (cfiCond35) CFA_SP SP+-5
        CFI (cfiCond35) CFA_XSP16 add(XSP16, 3)
        CFI Block cfiPicker36 Using cfiCommon1
        CFI (cfiPicker36) NoFunction
        CFI (cfiPicker36) Picker
        MOVX    @DPTR,A
        MOV     DPL,R2
        MOV     DPH,R3
        INC     DPTR
        RET
        CFI EndBlock cfiCond32
        CFI EndBlock cfiCond33
        CFI EndBlock cfiCond34
        CFI EndBlock cfiCond35
        CFI EndBlock cfiPicker36

        RSEG BANKED_CODE:CODE:NOROOT(0)
?Subroutine34:
        CFI Block cfiCond37 Using cfiCommon0
        CFI NoFunction
        CFI Conditional ??CrossCallReturnLabel_66
        CFI R6 load(1, XDATA, add(CFA_XSP16, literal(-22)))
        CFI VB load(1, XDATA, add(CFA_XSP16, literal(-21)))
        CFI V0 load(1, XDATA, add(CFA_XSP16, literal(-20)))
        CFI V1 load(1, XDATA, add(CFA_XSP16, literal(-19)))
        CFI V2 load(1, XDATA, add(CFA_XSP16, literal(-18)))
        CFI V3 load(1, XDATA, add(CFA_XSP16, literal(-17)))
        CFI V4 load(1, XDATA, add(CFA_XSP16, literal(-16)))
        CFI V5 load(1, XDATA, add(CFA_XSP16, literal(-15)))
        CFI V6 load(1, XDATA, add(CFA_XSP16, literal(-14)))
        CFI V7 load(1, XDATA, add(CFA_XSP16, literal(-13)))
        CFI V8 load(1, XDATA, add(CFA_XSP16, literal(-12)))
        CFI V9 load(1, XDATA, add(CFA_XSP16, literal(-11)))
        CFI V10 load(1, XDATA, add(CFA_XSP16, literal(-10)))
        CFI V11 load(1, XDATA, add(CFA_XSP16, literal(-9)))
        CFI V12 load(1, XDATA, add(CFA_XSP16, literal(-8)))
        CFI V13 load(1, XDATA, add(CFA_XSP16, literal(-7)))
        CFI R7 load(1, XDATA, add(CFA_XSP16, literal(-6)))
        CFI ?RET_LOW load(1, XDATA, add(CFA_XSP16, literal(-5)))
        CFI ?RET_HIGH load(1, XDATA, add(CFA_XSP16, literal(-4)))
        CFI ?BRET_EXT load(1, XDATA, add(CFA_XSP16, literal(-3)))
        CFI DPL0 load(1, XDATA, add(CFA_XSP16, literal(-2)))
        CFI DPH0 load(1, XDATA, add(CFA_XSP16, literal(-1)))
        CFI CFA_SP SP+0
        CFI CFA_XSP16 add(XSP16, 36)
        CFI Block cfiCond38 Using cfiCommon0
        CFI (cfiCond38) NoFunction
        CFI (cfiCond38) Conditional ??CrossCallReturnLabel_67
        CFI (cfiCond38) R6 load(1, XDATA, add(CFA_XSP16, literal(-22)))
        CFI (cfiCond38) VB load(1, XDATA, add(CFA_XSP16, literal(-21)))
        CFI (cfiCond38) V0 load(1, XDATA, add(CFA_XSP16, literal(-20)))
        CFI (cfiCond38) V1 load(1, XDATA, add(CFA_XSP16, literal(-19)))
        CFI (cfiCond38) V2 load(1, XDATA, add(CFA_XSP16, literal(-18)))
        CFI (cfiCond38) V3 load(1, XDATA, add(CFA_XSP16, literal(-17)))
        CFI (cfiCond38) V4 load(1, XDATA, add(CFA_XSP16, literal(-16)))
        CFI (cfiCond38) V5 load(1, XDATA, add(CFA_XSP16, literal(-15)))
        CFI (cfiCond38) V6 load(1, XDATA, add(CFA_XSP16, literal(-14)))
        CFI (cfiCond38) V7 load(1, XDATA, add(CFA_XSP16, literal(-13)))
        CFI (cfiCond38) V8 load(1, XDATA, add(CFA_XSP16, literal(-12)))
        CFI (cfiCond38) V9 load(1, XDATA, add(CFA_XSP16, literal(-11)))
        CFI (cfiCond38) V10 load(1, XDATA, add(CFA_XSP16, literal(-10)))
        CFI (cfiCond38) V11 load(1, XDATA, add(CFA_XSP16, literal(-9)))
        CFI (cfiCond38) V12 load(1, XDATA, add(CFA_XSP16, literal(-8)))
        CFI (cfiCond38) V13 load(1, XDATA, add(CFA_XSP16, literal(-7)))
        CFI (cfiCond38) R7 load(1, XDATA, add(CFA_XSP16, literal(-6)))
        CFI (cfiCond38) ?RET_LOW load(1, XDATA, add(CFA_XSP16, literal(-5)))
        CFI (cfiCond38) ?RET_HIGH load(1, XDATA, add(CFA_XSP16, literal(-4)))
        CFI (cfiCond38) ?BRET_EXT load(1, XDATA, add(CFA_XSP16, literal(-3)))
        CFI (cfiCond38) DPL0 load(1, XDATA, add(CFA_XSP16, literal(-2)))
        CFI (cfiCond38) DPH0 load(1, XDATA, add(CFA_XSP16, literal(-1)))
        CFI (cfiCond38) CFA_SP SP+0
        CFI (cfiCond38) CFA_XSP16 add(XSP16, 36)
        CFI Block cfiPicker39 Using cfiCommon1
        CFI (cfiPicker39) NoFunction
        CFI (cfiPicker39) Picker
        MOV     A,?V0 + 4
        ADD     A,#0x2
        MOV     ?V0 + 4,A
        MOV     A,?V0 + 5
        ADDC    A,#0x0
        MOV     ?V0 + 5,A
        RET
        CFI EndBlock cfiCond37
        CFI EndBlock cfiCond38
        CFI EndBlock cfiPicker39

        RSEG BANKED_CODE:CODE:NOROOT(0)
?Subroutine27:
        CFI Block cfiCond40 Using cfiCommon0
        CFI NoFunction
        CFI Conditional ??CrossCallReturnLabel_49
        CFI R6 load(1, XDATA, add(CFA_XSP16, literal(-22)))
        CFI VB load(1, XDATA, add(CFA_XSP16, literal(-21)))
        CFI V0 load(1, XDATA, add(CFA_XSP16, literal(-20)))
        CFI V1 load(1, XDATA, add(CFA_XSP16, literal(-19)))
        CFI V2 load(1, XDATA, add(CFA_XSP16, literal(-18)))
        CFI V3 load(1, XDATA, add(CFA_XSP16, literal(-17)))
        CFI V4 load(1, XDATA, add(CFA_XSP16, literal(-16)))
        CFI V5 load(1, XDATA, add(CFA_XSP16, literal(-15)))
        CFI V6 load(1, XDATA, add(CFA_XSP16, literal(-14)))
        CFI V7 load(1, XDATA, add(CFA_XSP16, literal(-13)))
        CFI V8 load(1, XDATA, add(CFA_XSP16, literal(-12)))
        CFI V9 load(1, XDATA, add(CFA_XSP16, literal(-11)))
        CFI V10 load(1, XDATA, add(CFA_XSP16, literal(-10)))
        CFI V11 load(1, XDATA, add(CFA_XSP16, literal(-9)))
        CFI V12 load(1, XDATA, add(CFA_XSP16, literal(-8)))
        CFI V13 load(1, XDATA, add(CFA_XSP16, literal(-7)))
        CFI R7 load(1, XDATA, add(CFA_XSP16, literal(-6)))
        CFI ?RET_LOW load(1, XDATA, add(CFA_XSP16, literal(-5)))
        CFI ?RET_HIGH load(1, XDATA, add(CFA_XSP16, literal(-4)))
        CFI ?BRET_EXT load(1, XDATA, add(CFA_XSP16, literal(-3)))
        CFI DPL0 load(1, XDATA, add(CFA_XSP16, literal(-2)))
        CFI DPH0 load(1, XDATA, add(CFA_XSP16, literal(-1)))
        CFI CFA_SP SP+0
        CFI CFA_XSP16 add(XSP16, 36)
        CFI Block cfiCond41 Using cfiCommon0
        CFI (cfiCond41) NoFunction
        CFI (cfiCond41) Conditional ??CrossCallReturnLabel_44
        CFI (cfiCond41) R6 load(1, XDATA, add(CFA_XSP16, literal(-22)))
        CFI (cfiCond41) VB load(1, XDATA, add(CFA_XSP16, literal(-21)))
        CFI (cfiCond41) V0 load(1, XDATA, add(CFA_XSP16, literal(-20)))
        CFI (cfiCond41) V1 load(1, XDATA, add(CFA_XSP16, literal(-19)))
        CFI (cfiCond41) V2 load(1, XDATA, add(CFA_XSP16, literal(-18)))
        CFI (cfiCond41) V3 load(1, XDATA, add(CFA_XSP16, literal(-17)))
        CFI (cfiCond41) V4 load(1, XDATA, add(CFA_XSP16, literal(-16)))
        CFI (cfiCond41) V5 load(1, XDATA, add(CFA_XSP16, literal(-15)))
        CFI (cfiCond41) V6 load(1, XDATA, add(CFA_XSP16, literal(-14)))
        CFI (cfiCond41) V7 load(1, XDATA, add(CFA_XSP16, literal(-13)))
        CFI (cfiCond41) V8 load(1, XDATA, add(CFA_XSP16, literal(-12)))
        CFI (cfiCond41) V9 load(1, XDATA, add(CFA_XSP16, literal(-11)))
        CFI (cfiCond41) V10 load(1, XDATA, add(CFA_XSP16, literal(-10)))
        CFI (cfiCond41) V11 load(1, XDATA, add(CFA_XSP16, literal(-9)))
        CFI (cfiCond41) V12 load(1, XDATA, add(CFA_XSP16, literal(-8)))
        CFI (cfiCond41) V13 load(1, XDATA, add(CFA_XSP16, literal(-7)))
        CFI (cfiCond41) R7 load(1, XDATA, add(CFA_XSP16, literal(-6)))
        CFI (cfiCond41) ?RET_LOW load(1, XDATA, add(CFA_XSP16, literal(-5)))
        CFI (cfiCond41) ?RET_HIGH load(1, XDATA, add(CFA_XSP16, literal(-4)))
        CFI (cfiCond41) ?BRET_EXT load(1, XDATA, add(CFA_XSP16, literal(-3)))
        CFI (cfiCond41) DPL0 load(1, XDATA, add(CFA_XSP16, literal(-2)))
        CFI (cfiCond41) DPH0 load(1, XDATA, add(CFA_XSP16, literal(-1)))
        CFI (cfiCond41) CFA_SP SP+0
        CFI (cfiCond41) CFA_XSP16 add(XSP16, 36)
        CFI Block cfiCond42 Using cfiCommon0
        CFI (cfiCond42) NoFunction
        CFI (cfiCond42) Conditional ??CrossCallReturnLabel_45
        CFI (cfiCond42) R6 load(1, XDATA, add(CFA_XSP16, literal(-22)))
        CFI (cfiCond42) VB load(1, XDATA, add(CFA_XSP16, literal(-21)))
        CFI (cfiCond42) V0 load(1, XDATA, add(CFA_XSP16, literal(-20)))
        CFI (cfiCond42) V1 load(1, XDATA, add(CFA_XSP16, literal(-19)))
        CFI (cfiCond42) V2 load(1, XDATA, add(CFA_XSP16, literal(-18)))
        CFI (cfiCond42) V3 load(1, XDATA, add(CFA_XSP16, literal(-17)))
        CFI (cfiCond42) V4 load(1, XDATA, add(CFA_XSP16, literal(-16)))
        CFI (cfiCond42) V5 load(1, XDATA, add(CFA_XSP16, literal(-15)))
        CFI (cfiCond42) V6 load(1, XDATA, add(CFA_XSP16, literal(-14)))
        CFI (cfiCond42) V7 load(1, XDATA, add(CFA_XSP16, literal(-13)))
        CFI (cfiCond42) V8 load(1, XDATA, add(CFA_XSP16, literal(-12)))
        CFI (cfiCond42) V9 load(1, XDATA, add(CFA_XSP16, literal(-11)))
        CFI (cfiCond42) V10 load(1, XDATA, add(CFA_XSP16, literal(-10)))
        CFI (cfiCond42) V11 load(1, XDATA, add(CFA_XSP16, literal(-9)))
        CFI (cfiCond42) V12 load(1, XDATA, add(CFA_XSP16, literal(-8)))
        CFI (cfiCond42) V13 load(1, XDATA, add(CFA_XSP16, literal(-7)))
        CFI (cfiCond42) R7 load(1, XDATA, add(CFA_XSP16, literal(-6)))
        CFI (cfiCond42) ?RET_LOW load(1, XDATA, add(CFA_XSP16, literal(-5)))
        CFI (cfiCond42) ?RET_HIGH load(1, XDATA, add(CFA_XSP16, literal(-4)))
        CFI (cfiCond42) ?BRET_EXT load(1, XDATA, add(CFA_XSP16, literal(-3)))
        CFI (cfiCond42) DPL0 load(1, XDATA, add(CFA_XSP16, literal(-2)))
        CFI (cfiCond42) DPH0 load(1, XDATA, add(CFA_XSP16, literal(-1)))
        CFI (cfiCond42) CFA_SP SP+0
        CFI (cfiCond42) CFA_XSP16 add(XSP16, 36)
        CFI Block cfiCond43 Using cfiCommon0
        CFI (cfiCond43) NoFunction
        CFI (cfiCond43) Conditional ??CrossCallReturnLabel_46
        CFI (cfiCond43) R6 load(1, XDATA, add(CFA_XSP16, literal(-22)))
        CFI (cfiCond43) VB load(1, XDATA, add(CFA_XSP16, literal(-21)))
        CFI (cfiCond43) V0 load(1, XDATA, add(CFA_XSP16, literal(-20)))
        CFI (cfiCond43) V1 load(1, XDATA, add(CFA_XSP16, literal(-19)))
        CFI (cfiCond43) V2 load(1, XDATA, add(CFA_XSP16, literal(-18)))
        CFI (cfiCond43) V3 load(1, XDATA, add(CFA_XSP16, literal(-17)))
        CFI (cfiCond43) V4 load(1, XDATA, add(CFA_XSP16, literal(-16)))
        CFI (cfiCond43) V5 load(1, XDATA, add(CFA_XSP16, literal(-15)))
        CFI (cfiCond43) V6 load(1, XDATA, add(CFA_XSP16, literal(-14)))
        CFI (cfiCond43) V7 load(1, XDATA, add(CFA_XSP16, literal(-13)))
        CFI (cfiCond43) V8 load(1, XDATA, add(CFA_XSP16, literal(-12)))
        CFI (cfiCond43) V9 load(1, XDATA, add(CFA_XSP16, literal(-11)))
        CFI (cfiCond43) V10 load(1, XDATA, add(CFA_XSP16, literal(-10)))
        CFI (cfiCond43) V11 load(1, XDATA, add(CFA_XSP16, literal(-9)))
        CFI (cfiCond43) V12 load(1, XDATA, add(CFA_XSP16, literal(-8)))
        CFI (cfiCond43) V13 load(1, XDATA, add(CFA_XSP16, literal(-7)))
        CFI (cfiCond43) R7 load(1, XDATA, add(CFA_XSP16, literal(-6)))
        CFI (cfiCond43) ?RET_LOW load(1, XDATA, add(CFA_XSP16, literal(-5)))
        CFI (cfiCond43) ?RET_HIGH load(1, XDATA, add(CFA_XSP16, literal(-4)))
        CFI (cfiCond43) ?BRET_EXT load(1, XDATA, add(CFA_XSP16, literal(-3)))
        CFI (cfiCond43) DPL0 load(1, XDATA, add(CFA_XSP16, literal(-2)))
        CFI (cfiCond43) DPH0 load(1, XDATA, add(CFA_XSP16, literal(-1)))
        CFI (cfiCond43) CFA_SP SP+0
        CFI (cfiCond43) CFA_XSP16 add(XSP16, 36)
        CFI Block cfiCond44 Using cfiCommon0
        CFI (cfiCond44) NoFunction
        CFI (cfiCond44) Conditional ??CrossCallReturnLabel_47
        CFI (cfiCond44) R6 load(1, XDATA, add(CFA_XSP16, literal(-22)))
        CFI (cfiCond44) VB load(1, XDATA, add(CFA_XSP16, literal(-21)))
        CFI (cfiCond44) V0 load(1, XDATA, add(CFA_XSP16, literal(-20)))
        CFI (cfiCond44) V1 load(1, XDATA, add(CFA_XSP16, literal(-19)))
        CFI (cfiCond44) V2 load(1, XDATA, add(CFA_XSP16, literal(-18)))
        CFI (cfiCond44) V3 load(1, XDATA, add(CFA_XSP16, literal(-17)))
        CFI (cfiCond44) V4 load(1, XDATA, add(CFA_XSP16, literal(-16)))
        CFI (cfiCond44) V5 load(1, XDATA, add(CFA_XSP16, literal(-15)))
        CFI (cfiCond44) V6 load(1, XDATA, add(CFA_XSP16, literal(-14)))
        CFI (cfiCond44) V7 load(1, XDATA, add(CFA_XSP16, literal(-13)))
        CFI (cfiCond44) V8 load(1, XDATA, add(CFA_XSP16, literal(-12)))
        CFI (cfiCond44) V9 load(1, XDATA, add(CFA_XSP16, literal(-11)))
        CFI (cfiCond44) V10 load(1, XDATA, add(CFA_XSP16, literal(-10)))
        CFI (cfiCond44) V11 load(1, XDATA, add(CFA_XSP16, literal(-9)))
        CFI (cfiCond44) V12 load(1, XDATA, add(CFA_XSP16, literal(-8)))
        CFI (cfiCond44) V13 load(1, XDATA, add(CFA_XSP16, literal(-7)))
        CFI (cfiCond44) R7 load(1, XDATA, add(CFA_XSP16, literal(-6)))
        CFI (cfiCond44) ?RET_LOW load(1, XDATA, add(CFA_XSP16, literal(-5)))
        CFI (cfiCond44) ?RET_HIGH load(1, XDATA, add(CFA_XSP16, literal(-4)))
        CFI (cfiCond44) ?BRET_EXT load(1, XDATA, add(CFA_XSP16, literal(-3)))
        CFI (cfiCond44) DPL0 load(1, XDATA, add(CFA_XSP16, literal(-2)))
        CFI (cfiCond44) DPH0 load(1, XDATA, add(CFA_XSP16, literal(-1)))
        CFI (cfiCond44) CFA_SP SP+0
        CFI (cfiCond44) CFA_XSP16 add(XSP16, 36)
        CFI Block cfiCond45 Using cfiCommon0
        CFI (cfiCond45) NoFunction
        CFI (cfiCond45) Conditional ??CrossCallReturnLabel_48
        CFI (cfiCond45) R6 load(1, XDATA, add(CFA_XSP16, literal(-22)))
        CFI (cfiCond45) VB load(1, XDATA, add(CFA_XSP16, literal(-21)))
        CFI (cfiCond45) V0 load(1, XDATA, add(CFA_XSP16, literal(-20)))
        CFI (cfiCond45) V1 load(1, XDATA, add(CFA_XSP16, literal(-19)))
        CFI (cfiCond45) V2 load(1, XDATA, add(CFA_XSP16, literal(-18)))
        CFI (cfiCond45) V3 load(1, XDATA, add(CFA_XSP16, literal(-17)))
        CFI (cfiCond45) V4 load(1, XDATA, add(CFA_XSP16, literal(-16)))
        CFI (cfiCond45) V5 load(1, XDATA, add(CFA_XSP16, literal(-15)))
        CFI (cfiCond45) V6 load(1, XDATA, add(CFA_XSP16, literal(-14)))
        CFI (cfiCond45) V7 load(1, XDATA, add(CFA_XSP16, literal(-13)))
        CFI (cfiCond45) V8 load(1, XDATA, add(CFA_XSP16, literal(-12)))
        CFI (cfiCond45) V9 load(1, XDATA, add(CFA_XSP16, literal(-11)))
        CFI (cfiCond45) V10 load(1, XDATA, add(CFA_XSP16, literal(-10)))
        CFI (cfiCond45) V11 load(1, XDATA, add(CFA_XSP16, literal(-9)))
        CFI (cfiCond45) V12 load(1, XDATA, add(CFA_XSP16, literal(-8)))
        CFI (cfiCond45) V13 load(1, XDATA, add(CFA_XSP16, literal(-7)))
        CFI (cfiCond45) R7 load(1, XDATA, add(CFA_XSP16, literal(-6)))
        CFI (cfiCond45) ?RET_LOW load(1, XDATA, add(CFA_XSP16, literal(-5)))
        CFI (cfiCond45) ?RET_HIGH load(1, XDATA, add(CFA_XSP16, literal(-4)))
        CFI (cfiCond45) ?BRET_EXT load(1, XDATA, add(CFA_XSP16, literal(-3)))
        CFI (cfiCond45) DPL0 load(1, XDATA, add(CFA_XSP16, literal(-2)))
        CFI (cfiCond45) DPH0 load(1, XDATA, add(CFA_XSP16, literal(-1)))
        CFI (cfiCond45) CFA_SP SP+0
        CFI (cfiCond45) CFA_XSP16 add(XSP16, 36)
        CFI Block cfiPicker46 Using cfiCommon1
        CFI (cfiPicker46) NoFunction
        CFI (cfiPicker46) Picker
        MOVX    @DPTR,A
        MOV     DPTR,#pMtAfDataReq
        MOVX    A,@DPTR
        RET
        CFI EndBlock cfiCond40
        CFI EndBlock cfiCond41
        CFI EndBlock cfiCond42
        CFI EndBlock cfiCond43
        CFI EndBlock cfiCond44
        CFI EndBlock cfiCond45
        CFI EndBlock cfiPicker46

        RSEG BANKED_CODE:CODE:NOROOT(0)
?Subroutine26:
        CFI Block cfiCond47 Using cfiCommon0
        CFI NoFunction
        CFI Conditional ??CrossCallReturnLabel_42
        CFI R6 load(1, XDATA, add(CFA_XSP16, literal(-22)))
        CFI VB load(1, XDATA, add(CFA_XSP16, literal(-21)))
        CFI V0 load(1, XDATA, add(CFA_XSP16, literal(-20)))
        CFI V1 load(1, XDATA, add(CFA_XSP16, literal(-19)))
        CFI V2 load(1, XDATA, add(CFA_XSP16, literal(-18)))
        CFI V3 load(1, XDATA, add(CFA_XSP16, literal(-17)))
        CFI V4 load(1, XDATA, add(CFA_XSP16, literal(-16)))
        CFI V5 load(1, XDATA, add(CFA_XSP16, literal(-15)))
        CFI V6 load(1, XDATA, add(CFA_XSP16, literal(-14)))
        CFI V7 load(1, XDATA, add(CFA_XSP16, literal(-13)))
        CFI V8 load(1, XDATA, add(CFA_XSP16, literal(-12)))
        CFI V9 load(1, XDATA, add(CFA_XSP16, literal(-11)))
        CFI V10 load(1, XDATA, add(CFA_XSP16, literal(-10)))
        CFI V11 load(1, XDATA, add(CFA_XSP16, literal(-9)))
        CFI V12 load(1, XDATA, add(CFA_XSP16, literal(-8)))
        CFI V13 load(1, XDATA, add(CFA_XSP16, literal(-7)))
        CFI R7 load(1, XDATA, add(CFA_XSP16, literal(-6)))
        CFI ?RET_LOW load(1, XDATA, add(CFA_XSP16, literal(-5)))
        CFI ?RET_HIGH load(1, XDATA, add(CFA_XSP16, literal(-4)))
        CFI ?BRET_EXT load(1, XDATA, add(CFA_XSP16, literal(-3)))
        CFI DPL0 load(1, XDATA, add(CFA_XSP16, literal(-2)))
        CFI DPH0 load(1, XDATA, add(CFA_XSP16, literal(-1)))
        CFI CFA_SP SP+0
        CFI CFA_XSP16 add(XSP16, 36)
        CFI Block cfiCond48 Using cfiCommon0
        CFI (cfiCond48) NoFunction
        CFI (cfiCond48) Conditional ??CrossCallReturnLabel_43
        CFI (cfiCond48) R6 load(1, XDATA, add(CFA_XSP16, literal(-22)))
        CFI (cfiCond48) VB load(1, XDATA, add(CFA_XSP16, literal(-21)))
        CFI (cfiCond48) V0 load(1, XDATA, add(CFA_XSP16, literal(-20)))
        CFI (cfiCond48) V1 load(1, XDATA, add(CFA_XSP16, literal(-19)))
        CFI (cfiCond48) V2 load(1, XDATA, add(CFA_XSP16, literal(-18)))
        CFI (cfiCond48) V3 load(1, XDATA, add(CFA_XSP16, literal(-17)))
        CFI (cfiCond48) V4 load(1, XDATA, add(CFA_XSP16, literal(-16)))
        CFI (cfiCond48) V5 load(1, XDATA, add(CFA_XSP16, literal(-15)))
        CFI (cfiCond48) V6 load(1, XDATA, add(CFA_XSP16, literal(-14)))
        CFI (cfiCond48) V7 load(1, XDATA, add(CFA_XSP16, literal(-13)))
        CFI (cfiCond48) V8 load(1, XDATA, add(CFA_XSP16, literal(-12)))
        CFI (cfiCond48) V9 load(1, XDATA, add(CFA_XSP16, literal(-11)))
        CFI (cfiCond48) V10 load(1, XDATA, add(CFA_XSP16, literal(-10)))
        CFI (cfiCond48) V11 load(1, XDATA, add(CFA_XSP16, literal(-9)))
        CFI (cfiCond48) V12 load(1, XDATA, add(CFA_XSP16, literal(-8)))
        CFI (cfiCond48) V13 load(1, XDATA, add(CFA_XSP16, literal(-7)))
        CFI (cfiCond48) R7 load(1, XDATA, add(CFA_XSP16, literal(-6)))
        CFI (cfiCond48) ?RET_LOW load(1, XDATA, add(CFA_XSP16, literal(-5)))
        CFI (cfiCond48) ?RET_HIGH load(1, XDATA, add(CFA_XSP16, literal(-4)))
        CFI (cfiCond48) ?BRET_EXT load(1, XDATA, add(CFA_XSP16, literal(-3)))
        CFI (cfiCond48) DPL0 load(1, XDATA, add(CFA_XSP16, literal(-2)))
        CFI (cfiCond48) DPH0 load(1, XDATA, add(CFA_XSP16, literal(-1)))
        CFI (cfiCond48) CFA_SP SP+0
        CFI (cfiCond48) CFA_XSP16 add(XSP16, 36)
        CFI Block cfiPicker49 Using cfiCommon1
        CFI (cfiPicker49) NoFunction
        CFI (cfiPicker49) Picker
        LCALL   ?Subroutine41 & 0xFFFF
??CrossCallReturnLabel_71:
        MOV     ?V0 + 4,DPL
        MOV     ?V0 + 5,DPH
        RET
        CFI EndBlock cfiCond47
        CFI EndBlock cfiCond48
        CFI EndBlock cfiPicker49

        RSEG BANKED_CODE:CODE:NOROOT(0)
?Subroutine41:
        CFI Block cfiCond50 Using cfiCommon0
        CFI NoFunction
        CFI Conditional ??CrossCallReturnLabel_70
        CFI R6 load(1, XDATA, add(CFA_XSP16, literal(-22)))
        CFI VB load(1, XDATA, add(CFA_XSP16, literal(-21)))
        CFI V0 load(1, XDATA, add(CFA_XSP16, literal(-20)))
        CFI V1 load(1, XDATA, add(CFA_XSP16, literal(-19)))
        CFI V2 load(1, XDATA, add(CFA_XSP16, literal(-18)))
        CFI V3 load(1, XDATA, add(CFA_XSP16, literal(-17)))
        CFI V4 load(1, XDATA, add(CFA_XSP16, literal(-16)))
        CFI V5 load(1, XDATA, add(CFA_XSP16, literal(-15)))
        CFI V6 load(1, XDATA, add(CFA_XSP16, literal(-14)))
        CFI V7 load(1, XDATA, add(CFA_XSP16, literal(-13)))
        CFI V8 load(1, XDATA, add(CFA_XSP16, literal(-12)))
        CFI V9 load(1, XDATA, add(CFA_XSP16, literal(-11)))
        CFI V10 load(1, XDATA, add(CFA_XSP16, literal(-10)))
        CFI V11 load(1, XDATA, add(CFA_XSP16, literal(-9)))
        CFI V12 load(1, XDATA, add(CFA_XSP16, literal(-8)))
        CFI V13 load(1, XDATA, add(CFA_XSP16, literal(-7)))
        CFI R7 load(1, XDATA, add(CFA_XSP16, literal(-6)))
        CFI ?RET_LOW load(1, XDATA, add(CFA_XSP16, literal(-5)))
        CFI ?RET_HIGH load(1, XDATA, add(CFA_XSP16, literal(-4)))
        CFI ?BRET_EXT load(1, XDATA, add(CFA_XSP16, literal(-3)))
        CFI DPL0 load(1, XDATA, add(CFA_XSP16, literal(-2)))
        CFI DPH0 load(1, XDATA, add(CFA_XSP16, literal(-1)))
        CFI CFA_SP SP+0
        CFI CFA_XSP16 add(XSP16, 36)
        CFI Block cfiCond51 Using cfiCommon0
        CFI (cfiCond51) NoFunction
        CFI (cfiCond51) Conditional ??CrossCallReturnLabel_71, ??CrossCallReturnLabel_42
        CFI (cfiCond51) R6 load(1, XDATA, add(CFA_XSP16, literal(-22)))
        CFI (cfiCond51) VB load(1, XDATA, add(CFA_XSP16, literal(-21)))
        CFI (cfiCond51) V0 load(1, XDATA, add(CFA_XSP16, literal(-20)))
        CFI (cfiCond51) V1 load(1, XDATA, add(CFA_XSP16, literal(-19)))
        CFI (cfiCond51) V2 load(1, XDATA, add(CFA_XSP16, literal(-18)))
        CFI (cfiCond51) V3 load(1, XDATA, add(CFA_XSP16, literal(-17)))
        CFI (cfiCond51) V4 load(1, XDATA, add(CFA_XSP16, literal(-16)))
        CFI (cfiCond51) V5 load(1, XDATA, add(CFA_XSP16, literal(-15)))
        CFI (cfiCond51) V6 load(1, XDATA, add(CFA_XSP16, literal(-14)))
        CFI (cfiCond51) V7 load(1, XDATA, add(CFA_XSP16, literal(-13)))
        CFI (cfiCond51) V8 load(1, XDATA, add(CFA_XSP16, literal(-12)))
        CFI (cfiCond51) V9 load(1, XDATA, add(CFA_XSP16, literal(-11)))
        CFI (cfiCond51) V10 load(1, XDATA, add(CFA_XSP16, literal(-10)))
        CFI (cfiCond51) V11 load(1, XDATA, add(CFA_XSP16, literal(-9)))
        CFI (cfiCond51) V12 load(1, XDATA, add(CFA_XSP16, literal(-8)))
        CFI (cfiCond51) V13 load(1, XDATA, add(CFA_XSP16, literal(-7)))
        CFI (cfiCond51) R7 load(1, XDATA, add(CFA_XSP16, literal(-6)))
        CFI (cfiCond51) ?RET_LOW load(1, XDATA, add(CFA_XSP16, literal(-5)))
        CFI (cfiCond51) ?RET_HIGH load(1, XDATA, add(CFA_XSP16, literal(-4)))
        CFI (cfiCond51) ?BRET_EXT load(1, XDATA, add(CFA_XSP16, literal(-3)))
        CFI (cfiCond51) DPL0 load(1, XDATA, add(CFA_XSP16, literal(-2)))
        CFI (cfiCond51) DPH0 load(1, XDATA, add(CFA_XSP16, literal(-1)))
        CFI (cfiCond51) CFA_SP SP+0
        CFI (cfiCond51) CFA_XSP16 add(XSP16, 36)
        CFI Block cfiCond52 Using cfiCommon0
        CFI (cfiCond52) NoFunction
        CFI (cfiCond52) Conditional ??CrossCallReturnLabel_71, ??CrossCallReturnLabel_43
        CFI (cfiCond52) R6 load(1, XDATA, add(CFA_XSP16, literal(-22)))
        CFI (cfiCond52) VB load(1, XDATA, add(CFA_XSP16, literal(-21)))
        CFI (cfiCond52) V0 load(1, XDATA, add(CFA_XSP16, literal(-20)))
        CFI (cfiCond52) V1 load(1, XDATA, add(CFA_XSP16, literal(-19)))
        CFI (cfiCond52) V2 load(1, XDATA, add(CFA_XSP16, literal(-18)))
        CFI (cfiCond52) V3 load(1, XDATA, add(CFA_XSP16, literal(-17)))
        CFI (cfiCond52) V4 load(1, XDATA, add(CFA_XSP16, literal(-16)))
        CFI (cfiCond52) V5 load(1, XDATA, add(CFA_XSP16, literal(-15)))
        CFI (cfiCond52) V6 load(1, XDATA, add(CFA_XSP16, literal(-14)))
        CFI (cfiCond52) V7 load(1, XDATA, add(CFA_XSP16, literal(-13)))
        CFI (cfiCond52) V8 load(1, XDATA, add(CFA_XSP16, literal(-12)))
        CFI (cfiCond52) V9 load(1, XDATA, add(CFA_XSP16, literal(-11)))
        CFI (cfiCond52) V10 load(1, XDATA, add(CFA_XSP16, literal(-10)))
        CFI (cfiCond52) V11 load(1, XDATA, add(CFA_XSP16, literal(-9)))
        CFI (cfiCond52) V12 load(1, XDATA, add(CFA_XSP16, literal(-8)))
        CFI (cfiCond52) V13 load(1, XDATA, add(CFA_XSP16, literal(-7)))
        CFI (cfiCond52) R7 load(1, XDATA, add(CFA_XSP16, literal(-6)))
        CFI (cfiCond52) ?RET_LOW load(1, XDATA, add(CFA_XSP16, literal(-5)))
        CFI (cfiCond52) ?RET_HIGH load(1, XDATA, add(CFA_XSP16, literal(-4)))
        CFI (cfiCond52) ?BRET_EXT load(1, XDATA, add(CFA_XSP16, literal(-3)))
        CFI (cfiCond52) DPL0 load(1, XDATA, add(CFA_XSP16, literal(-2)))
        CFI (cfiCond52) DPH0 load(1, XDATA, add(CFA_XSP16, literal(-1)))
        CFI (cfiCond52) CFA_SP SP+0
        CFI (cfiCond52) CFA_XSP16 add(XSP16, 36)
        CFI Block cfiPicker53 Using cfiCommon1
        CFI (cfiPicker53) NoFunction
        CFI (cfiPicker53) Picker
        MOVX    @DPTR,A
        MOV     DPL,?V0 + 4
        MOV     DPH,?V0 + 5
        INC     DPTR
        RET
        CFI EndBlock cfiCond50
        CFI EndBlock cfiCond51
        CFI EndBlock cfiCond52
        CFI EndBlock cfiPicker53

        RSEG BANKED_CODE:CODE:NOROOT(0)
?Subroutine18:
        CFI Block cfiCond54 Using cfiCommon0
        CFI NoFunction
        CFI Conditional ??CrossCallReturnLabel_86
        CFI R6 load(1, XDATA, add(CFA_XSP16, literal(-22)))
        CFI VB load(1, XDATA, add(CFA_XSP16, literal(-21)))
        CFI V0 load(1, XDATA, add(CFA_XSP16, literal(-20)))
        CFI V1 load(1, XDATA, add(CFA_XSP16, literal(-19)))
        CFI V2 load(1, XDATA, add(CFA_XSP16, literal(-18)))
        CFI V3 load(1, XDATA, add(CFA_XSP16, literal(-17)))
        CFI V4 load(1, XDATA, add(CFA_XSP16, literal(-16)))
        CFI V5 load(1, XDATA, add(CFA_XSP16, literal(-15)))
        CFI V6 load(1, XDATA, add(CFA_XSP16, literal(-14)))
        CFI V7 load(1, XDATA, add(CFA_XSP16, literal(-13)))
        CFI V8 load(1, XDATA, add(CFA_XSP16, literal(-12)))
        CFI V9 load(1, XDATA, add(CFA_XSP16, literal(-11)))
        CFI V10 load(1, XDATA, add(CFA_XSP16, literal(-10)))
        CFI V11 load(1, XDATA, add(CFA_XSP16, literal(-9)))
        CFI V12 load(1, XDATA, add(CFA_XSP16, literal(-8)))
        CFI V13 load(1, XDATA, add(CFA_XSP16, literal(-7)))
        CFI R7 load(1, XDATA, add(CFA_XSP16, literal(-6)))
        CFI ?RET_LOW load(1, XDATA, add(CFA_XSP16, literal(-5)))
        CFI ?RET_HIGH load(1, XDATA, add(CFA_XSP16, literal(-4)))
        CFI ?BRET_EXT load(1, XDATA, add(CFA_XSP16, literal(-3)))
        CFI DPL0 load(1, XDATA, add(CFA_XSP16, literal(-2)))
        CFI DPH0 load(1, XDATA, add(CFA_XSP16, literal(-1)))
        CFI CFA_SP SP+0
        CFI CFA_XSP16 add(XSP16, 36)
        CFI Block cfiCond55 Using cfiCommon0
        CFI (cfiCond55) NoFunction
        CFI (cfiCond55) Conditional ??CrossCallReturnLabel_87
        CFI (cfiCond55) R6 load(1, XDATA, add(CFA_XSP16, literal(-22)))
        CFI (cfiCond55) VB load(1, XDATA, add(CFA_XSP16, literal(-21)))
        CFI (cfiCond55) V0 load(1, XDATA, add(CFA_XSP16, literal(-20)))
        CFI (cfiCond55) V1 load(1, XDATA, add(CFA_XSP16, literal(-19)))
        CFI (cfiCond55) V2 load(1, XDATA, add(CFA_XSP16, literal(-18)))
        CFI (cfiCond55) V3 load(1, XDATA, add(CFA_XSP16, literal(-17)))
        CFI (cfiCond55) V4 load(1, XDATA, add(CFA_XSP16, literal(-16)))
        CFI (cfiCond55) V5 load(1, XDATA, add(CFA_XSP16, literal(-15)))
        CFI (cfiCond55) V6 load(1, XDATA, add(CFA_XSP16, literal(-14)))
        CFI (cfiCond55) V7 load(1, XDATA, add(CFA_XSP16, literal(-13)))
        CFI (cfiCond55) V8 load(1, XDATA, add(CFA_XSP16, literal(-12)))
        CFI (cfiCond55) V9 load(1, XDATA, add(CFA_XSP16, literal(-11)))
        CFI (cfiCond55) V10 load(1, XDATA, add(CFA_XSP16, literal(-10)))
        CFI (cfiCond55) V11 load(1, XDATA, add(CFA_XSP16, literal(-9)))
        CFI (cfiCond55) V12 load(1, XDATA, add(CFA_XSP16, literal(-8)))
        CFI (cfiCond55) V13 load(1, XDATA, add(CFA_XSP16, literal(-7)))
        CFI (cfiCond55) R7 load(1, XDATA, add(CFA_XSP16, literal(-6)))
        CFI (cfiCond55) ?RET_LOW load(1, XDATA, add(CFA_XSP16, literal(-5)))
        CFI (cfiCond55) ?RET_HIGH load(1, XDATA, add(CFA_XSP16, literal(-4)))
        CFI (cfiCond55) ?BRET_EXT load(1, XDATA, add(CFA_XSP16, literal(-3)))
        CFI (cfiCond55) DPL0 load(1, XDATA, add(CFA_XSP16, literal(-2)))
        CFI (cfiCond55) DPH0 load(1, XDATA, add(CFA_XSP16, literal(-1)))
        CFI (cfiCond55) CFA_SP SP+0
        CFI (cfiCond55) CFA_XSP16 add(XSP16, 36)
        CFI Block cfiPicker56 Using cfiCommon1
        CFI (cfiPicker56) NoFunction
        CFI (cfiPicker56) Picker
        MOV     A,?V0 + 4
        ADD     A,#0x2
        CFI EndBlock cfiCond54
        CFI EndBlock cfiCond55
        CFI EndBlock cfiPicker56
        REQUIRE ??Subroutine48_0
        ; // Fall through to label ??Subroutine48_0

        RSEG BANKED_CODE:CODE:NOROOT(0)
??Subroutine48_0:
        CFI Block cfiCond57 Using cfiCommon0
        CFI NoFunction
        CFI Conditional ??CrossCallReturnLabel_88
        CFI R6 load(1, XDATA, add(CFA_XSP16, literal(-22)))
        CFI VB load(1, XDATA, add(CFA_XSP16, literal(-21)))
        CFI V0 load(1, XDATA, add(CFA_XSP16, literal(-20)))
        CFI V1 load(1, XDATA, add(CFA_XSP16, literal(-19)))
        CFI V2 load(1, XDATA, add(CFA_XSP16, literal(-18)))
        CFI V3 load(1, XDATA, add(CFA_XSP16, literal(-17)))
        CFI V4 load(1, XDATA, add(CFA_XSP16, literal(-16)))
        CFI V5 load(1, XDATA, add(CFA_XSP16, literal(-15)))
        CFI V6 load(1, XDATA, add(CFA_XSP16, literal(-14)))
        CFI V7 load(1, XDATA, add(CFA_XSP16, literal(-13)))
        CFI V8 load(1, XDATA, add(CFA_XSP16, literal(-12)))
        CFI V9 load(1, XDATA, add(CFA_XSP16, literal(-11)))
        CFI V10 load(1, XDATA, add(CFA_XSP16, literal(-10)))
        CFI V11 load(1, XDATA, add(CFA_XSP16, literal(-9)))
        CFI V12 load(1, XDATA, add(CFA_XSP16, literal(-8)))
        CFI V13 load(1, XDATA, add(CFA_XSP16, literal(-7)))
        CFI R7 load(1, XDATA, add(CFA_XSP16, literal(-6)))
        CFI ?RET_LOW load(1, XDATA, add(CFA_XSP16, literal(-5)))
        CFI ?RET_HIGH load(1, XDATA, add(CFA_XSP16, literal(-4)))
        CFI ?BRET_EXT load(1, XDATA, add(CFA_XSP16, literal(-3)))
        CFI DPL0 load(1, XDATA, add(CFA_XSP16, literal(-2)))
        CFI DPH0 load(1, XDATA, add(CFA_XSP16, literal(-1)))
        CFI CFA_SP SP+0
        CFI CFA_XSP16 add(XSP16, 36)
        CFI Block cfiCond58 Using cfiCommon0
        CFI (cfiCond58) NoFunction
        CFI (cfiCond58) Conditional ??CrossCallReturnLabel_86
        CFI (cfiCond58) R6 load(1, XDATA, add(CFA_XSP16, literal(-22)))
        CFI (cfiCond58) VB load(1, XDATA, add(CFA_XSP16, literal(-21)))
        CFI (cfiCond58) V0 load(1, XDATA, add(CFA_XSP16, literal(-20)))
        CFI (cfiCond58) V1 load(1, XDATA, add(CFA_XSP16, literal(-19)))
        CFI (cfiCond58) V2 load(1, XDATA, add(CFA_XSP16, literal(-18)))
        CFI (cfiCond58) V3 load(1, XDATA, add(CFA_XSP16, literal(-17)))
        CFI (cfiCond58) V4 load(1, XDATA, add(CFA_XSP16, literal(-16)))
        CFI (cfiCond58) V5 load(1, XDATA, add(CFA_XSP16, literal(-15)))
        CFI (cfiCond58) V6 load(1, XDATA, add(CFA_XSP16, literal(-14)))
        CFI (cfiCond58) V7 load(1, XDATA, add(CFA_XSP16, literal(-13)))
        CFI (cfiCond58) V8 load(1, XDATA, add(CFA_XSP16, literal(-12)))
        CFI (cfiCond58) V9 load(1, XDATA, add(CFA_XSP16, literal(-11)))
        CFI (cfiCond58) V10 load(1, XDATA, add(CFA_XSP16, literal(-10)))
        CFI (cfiCond58) V11 load(1, XDATA, add(CFA_XSP16, literal(-9)))
        CFI (cfiCond58) V12 load(1, XDATA, add(CFA_XSP16, literal(-8)))
        CFI (cfiCond58) V13 load(1, XDATA, add(CFA_XSP16, literal(-7)))
        CFI (cfiCond58) R7 load(1, XDATA, add(CFA_XSP16, literal(-6)))
        CFI (cfiCond58) ?RET_LOW load(1, XDATA, add(CFA_XSP16, literal(-5)))
        CFI (cfiCond58) ?RET_HIGH load(1, XDATA, add(CFA_XSP16, literal(-4)))
        CFI (cfiCond58) ?BRET_EXT load(1, XDATA, add(CFA_XSP16, literal(-3)))
        CFI (cfiCond58) DPL0 load(1, XDATA, add(CFA_XSP16, literal(-2)))
        CFI (cfiCond58) DPH0 load(1, XDATA, add(CFA_XSP16, literal(-1)))
        CFI (cfiCond58) CFA_SP SP+0
        CFI (cfiCond58) CFA_XSP16 add(XSP16, 36)
        CFI Block cfiCond59 Using cfiCommon0
        CFI (cfiCond59) NoFunction
        CFI (cfiCond59) Conditional ??CrossCallReturnLabel_87
        CFI (cfiCond59) R6 load(1, XDATA, add(CFA_XSP16, literal(-22)))
        CFI (cfiCond59) VB load(1, XDATA, add(CFA_XSP16, literal(-21)))
        CFI (cfiCond59) V0 load(1, XDATA, add(CFA_XSP16, literal(-20)))
        CFI (cfiCond59) V1 load(1, XDATA, add(CFA_XSP16, literal(-19)))
        CFI (cfiCond59) V2 load(1, XDATA, add(CFA_XSP16, literal(-18)))
        CFI (cfiCond59) V3 load(1, XDATA, add(CFA_XSP16, literal(-17)))
        CFI (cfiCond59) V4 load(1, XDATA, add(CFA_XSP16, literal(-16)))
        CFI (cfiCond59) V5 load(1, XDATA, add(CFA_XSP16, literal(-15)))
        CFI (cfiCond59) V6 load(1, XDATA, add(CFA_XSP16, literal(-14)))
        CFI (cfiCond59) V7 load(1, XDATA, add(CFA_XSP16, literal(-13)))
        CFI (cfiCond59) V8 load(1, XDATA, add(CFA_XSP16, literal(-12)))
        CFI (cfiCond59) V9 load(1, XDATA, add(CFA_XSP16, literal(-11)))
        CFI (cfiCond59) V10 load(1, XDATA, add(CFA_XSP16, literal(-10)))
        CFI (cfiCond59) V11 load(1, XDATA, add(CFA_XSP16, literal(-9)))
        CFI (cfiCond59) V12 load(1, XDATA, add(CFA_XSP16, literal(-8)))
        CFI (cfiCond59) V13 load(1, XDATA, add(CFA_XSP16, literal(-7)))
        CFI (cfiCond59) R7 load(1, XDATA, add(CFA_XSP16, literal(-6)))
        CFI (cfiCond59) ?RET_LOW load(1, XDATA, add(CFA_XSP16, literal(-5)))
        CFI (cfiCond59) ?RET_HIGH load(1, XDATA, add(CFA_XSP16, literal(-4)))
        CFI (cfiCond59) ?BRET_EXT load(1, XDATA, add(CFA_XSP16, literal(-3)))
        CFI (cfiCond59) DPL0 load(1, XDATA, add(CFA_XSP16, literal(-2)))
        CFI (cfiCond59) DPH0 load(1, XDATA, add(CFA_XSP16, literal(-1)))
        CFI (cfiCond59) CFA_SP SP+0
        CFI (cfiCond59) CFA_XSP16 add(XSP16, 36)
        CFI Block cfiPicker60 Using cfiCommon1
        CFI (cfiPicker60) NoFunction
        CFI (cfiPicker60) Picker
        MOV     ?V0 + 4,A
        MOV     A,?V0 + 5
        ADDC    A,#0x0
        MOV     ?V0 + 5,A
        MOV     DPL,?V0 + 4
        MOV     DPH,A
        MOVX    A,@DPTR
        RET
        CFI EndBlock cfiCond57
        CFI EndBlock cfiCond58
        CFI EndBlock cfiCond59
        CFI EndBlock cfiPicker60

        RSEG BANKED_CODE:CODE:NOROOT(0)
?Subroutine17:
        CFI Block cfiCond61 Using cfiCommon0
        CFI NoFunction
        CFI Conditional ??CrossCallReturnLabel_24
        CFI R6 load(1, XDATA, add(CFA_XSP16, literal(-9)))
        CFI VB load(1, XDATA, add(CFA_XSP16, literal(-8)))
        CFI V0 load(1, XDATA, add(CFA_XSP16, literal(-7)))
        CFI R7 load(1, XDATA, add(CFA_XSP16, literal(-6)))
        CFI ?RET_LOW load(1, XDATA, add(CFA_XSP16, literal(-5)))
        CFI ?RET_HIGH load(1, XDATA, add(CFA_XSP16, literal(-4)))
        CFI ?BRET_EXT load(1, XDATA, add(CFA_XSP16, literal(-3)))
        CFI DPL0 load(1, XDATA, add(CFA_XSP16, literal(-2)))
        CFI DPH0 load(1, XDATA, add(CFA_XSP16, literal(-1)))
        CFI CFA_SP SP+0
        CFI CFA_XSP16 add(XSP16, 9)
        CFI Block cfiCond62 Using cfiCommon0
        CFI (cfiCond62) NoFunction
        CFI (cfiCond62) Conditional ??CrossCallReturnLabel_25
        CFI (cfiCond62) R6 load(1, XDATA, add(CFA_XSP16, literal(-22)))
        CFI (cfiCond62) VB load(1, XDATA, add(CFA_XSP16, literal(-21)))
        CFI (cfiCond62) V0 load(1, XDATA, add(CFA_XSP16, literal(-20)))
        CFI (cfiCond62) V1 load(1, XDATA, add(CFA_XSP16, literal(-19)))
        CFI (cfiCond62) V2 load(1, XDATA, add(CFA_XSP16, literal(-18)))
        CFI (cfiCond62) V3 load(1, XDATA, add(CFA_XSP16, literal(-17)))
        CFI (cfiCond62) V4 load(1, XDATA, add(CFA_XSP16, literal(-16)))
        CFI (cfiCond62) V5 load(1, XDATA, add(CFA_XSP16, literal(-15)))
        CFI (cfiCond62) V6 load(1, XDATA, add(CFA_XSP16, literal(-14)))
        CFI (cfiCond62) V7 load(1, XDATA, add(CFA_XSP16, literal(-13)))
        CFI (cfiCond62) V8 load(1, XDATA, add(CFA_XSP16, literal(-12)))
        CFI (cfiCond62) V9 load(1, XDATA, add(CFA_XSP16, literal(-11)))
        CFI (cfiCond62) V10 load(1, XDATA, add(CFA_XSP16, literal(-10)))
        CFI (cfiCond62) V11 load(1, XDATA, add(CFA_XSP16, literal(-9)))
        CFI (cfiCond62) V12 load(1, XDATA, add(CFA_XSP16, literal(-8)))
        CFI (cfiCond62) V13 load(1, XDATA, add(CFA_XSP16, literal(-7)))
        CFI (cfiCond62) R7 load(1, XDATA, add(CFA_XSP16, literal(-6)))
        CFI (cfiCond62) ?RET_LOW load(1, XDATA, add(CFA_XSP16, literal(-5)))
        CFI (cfiCond62) ?RET_HIGH load(1, XDATA, add(CFA_XSP16, literal(-4)))
        CFI (cfiCond62) ?BRET_EXT load(1, XDATA, add(CFA_XSP16, literal(-3)))
        CFI (cfiCond62) DPL0 load(1, XDATA, add(CFA_XSP16, literal(-2)))
        CFI (cfiCond62) DPH0 load(1, XDATA, add(CFA_XSP16, literal(-1)))
        CFI (cfiCond62) CFA_SP SP+0
        CFI (cfiCond62) CFA_XSP16 add(XSP16, 36)
        CFI Block cfiCond63 Using cfiCommon0
        CFI (cfiCond63) NoFunction
        CFI (cfiCond63) Conditional ??CrossCallReturnLabel_26
        CFI (cfiCond63) R6 load(1, XDATA, add(CFA_XSP16, literal(-23)))
        CFI (cfiCond63) VB load(1, XDATA, add(CFA_XSP16, literal(-22)))
        CFI (cfiCond63) V0 load(1, XDATA, add(CFA_XSP16, literal(-21)))
        CFI (cfiCond63) V1 load(1, XDATA, add(CFA_XSP16, literal(-20)))
        CFI (cfiCond63) V2 load(1, XDATA, add(CFA_XSP16, literal(-19)))
        CFI (cfiCond63) V3 load(1, XDATA, add(CFA_XSP16, literal(-18)))
        CFI (cfiCond63) V4 load(1, XDATA, add(CFA_XSP16, literal(-17)))
        CFI (cfiCond63) V5 load(1, XDATA, add(CFA_XSP16, literal(-16)))
        CFI (cfiCond63) V6 load(1, XDATA, add(CFA_XSP16, literal(-15)))
        CFI (cfiCond63) V7 load(1, XDATA, add(CFA_XSP16, literal(-14)))
        CFI (cfiCond63) V8 load(1, XDATA, add(CFA_XSP16, literal(-13)))
        CFI (cfiCond63) V9 load(1, XDATA, add(CFA_XSP16, literal(-12)))
        CFI (cfiCond63) V10 load(1, XDATA, add(CFA_XSP16, literal(-11)))
        CFI (cfiCond63) V11 load(1, XDATA, add(CFA_XSP16, literal(-10)))
        CFI (cfiCond63) V12 load(1, XDATA, add(CFA_XSP16, literal(-9)))
        CFI (cfiCond63) V13 load(1, XDATA, add(CFA_XSP16, literal(-8)))
        CFI (cfiCond63) V14 load(1, XDATA, add(CFA_XSP16, literal(-7)))
        CFI (cfiCond63) R7 load(1, XDATA, add(CFA_XSP16, literal(-6)))
        CFI (cfiCond63) ?RET_LOW load(1, XDATA, add(CFA_XSP16, literal(-5)))
        CFI (cfiCond63) ?RET_HIGH load(1, XDATA, add(CFA_XSP16, literal(-4)))
        CFI (cfiCond63) ?BRET_EXT load(1, XDATA, add(CFA_XSP16, literal(-3)))
        CFI (cfiCond63) DPL0 load(1, XDATA, add(CFA_XSP16, literal(-2)))
        CFI (cfiCond63) DPH0 load(1, XDATA, add(CFA_XSP16, literal(-1)))
        CFI (cfiCond63) CFA_SP SP+0
        CFI (cfiCond63) CFA_XSP16 add(XSP16, 23)
        CFI Block cfiPicker64 Using cfiCommon1
        CFI (cfiPicker64) NoFunction
        CFI (cfiPicker64) Picker
        MOV     R2,#0x8
        MOV     R3,#0x0
        MOV     DPTR,#MT_TaskID
        MOVX    A,@DPTR
        MOV     R1,A
        LCALL   ??osal_set_event?relay
        RET
        CFI EndBlock cfiCond61
        CFI EndBlock cfiCond62
        CFI EndBlock cfiCond63
        CFI EndBlock cfiPicker64

        RSEG BANKED_CODE:CODE:NOROOT(0)
?Subroutine11:
        CFI Block cfiCond65 Using cfiCommon0
        CFI NoFunction
        CFI Conditional ??CrossCallReturnLabel_89
        CFI R6 load(1, XDATA, add(CFA_XSP16, literal(-22)))
        CFI VB load(1, XDATA, add(CFA_XSP16, literal(-21)))
        CFI V0 load(1, XDATA, add(CFA_XSP16, literal(-20)))
        CFI V1 load(1, XDATA, add(CFA_XSP16, literal(-19)))
        CFI V2 load(1, XDATA, add(CFA_XSP16, literal(-18)))
        CFI V3 load(1, XDATA, add(CFA_XSP16, literal(-17)))
        CFI V4 load(1, XDATA, add(CFA_XSP16, literal(-16)))
        CFI V5 load(1, XDATA, add(CFA_XSP16, literal(-15)))
        CFI V6 load(1, XDATA, add(CFA_XSP16, literal(-14)))
        CFI V7 load(1, XDATA, add(CFA_XSP16, literal(-13)))
        CFI V8 load(1, XDATA, add(CFA_XSP16, literal(-12)))
        CFI V9 load(1, XDATA, add(CFA_XSP16, literal(-11)))
        CFI V10 load(1, XDATA, add(CFA_XSP16, literal(-10)))
        CFI V11 load(1, XDATA, add(CFA_XSP16, literal(-9)))
        CFI V12 load(1, XDATA, add(CFA_XSP16, literal(-8)))
        CFI V13 load(1, XDATA, add(CFA_XSP16, literal(-7)))
        CFI R7 load(1, XDATA, add(CFA_XSP16, literal(-6)))
        CFI ?RET_LOW load(1, XDATA, add(CFA_XSP16, literal(-5)))
        CFI ?RET_HIGH load(1, XDATA, add(CFA_XSP16, literal(-4)))
        CFI ?BRET_EXT load(1, XDATA, add(CFA_XSP16, literal(-3)))
        CFI DPL0 load(1, XDATA, add(CFA_XSP16, literal(-2)))
        CFI DPH0 load(1, XDATA, add(CFA_XSP16, literal(-1)))
        CFI CFA_SP SP+0
        CFI CFA_XSP16 add(XSP16, 36)
        CFI Block cfiCond66 Using cfiCommon0
        CFI (cfiCond66) NoFunction
        CFI (cfiCond66) Conditional ??CrossCallReturnLabel_90
        CFI (cfiCond66) R6 load(1, XDATA, add(CFA_XSP16, literal(-23)))
        CFI (cfiCond66) VB load(1, XDATA, add(CFA_XSP16, literal(-22)))
        CFI (cfiCond66) V0 load(1, XDATA, add(CFA_XSP16, literal(-21)))
        CFI (cfiCond66) V1 load(1, XDATA, add(CFA_XSP16, literal(-20)))
        CFI (cfiCond66) V2 load(1, XDATA, add(CFA_XSP16, literal(-19)))
        CFI (cfiCond66) V3 load(1, XDATA, add(CFA_XSP16, literal(-18)))
        CFI (cfiCond66) V4 load(1, XDATA, add(CFA_XSP16, literal(-17)))
        CFI (cfiCond66) V5 load(1, XDATA, add(CFA_XSP16, literal(-16)))
        CFI (cfiCond66) V6 load(1, XDATA, add(CFA_XSP16, literal(-15)))
        CFI (cfiCond66) V7 load(1, XDATA, add(CFA_XSP16, literal(-14)))
        CFI (cfiCond66) V8 load(1, XDATA, add(CFA_XSP16, literal(-13)))
        CFI (cfiCond66) V9 load(1, XDATA, add(CFA_XSP16, literal(-12)))
        CFI (cfiCond66) V10 load(1, XDATA, add(CFA_XSP16, literal(-11)))
        CFI (cfiCond66) V11 load(1, XDATA, add(CFA_XSP16, literal(-10)))
        CFI (cfiCond66) V12 load(1, XDATA, add(CFA_XSP16, literal(-9)))
        CFI (cfiCond66) V13 load(1, XDATA, add(CFA_XSP16, literal(-8)))
        CFI (cfiCond66) V14 load(1, XDATA, add(CFA_XSP16, literal(-7)))
        CFI (cfiCond66) R7 load(1, XDATA, add(CFA_XSP16, literal(-6)))
        CFI (cfiCond66) ?RET_LOW load(1, XDATA, add(CFA_XSP16, literal(-5)))
        CFI (cfiCond66) ?RET_HIGH load(1, XDATA, add(CFA_XSP16, literal(-4)))
        CFI (cfiCond66) ?BRET_EXT load(1, XDATA, add(CFA_XSP16, literal(-3)))
        CFI (cfiCond66) DPL0 load(1, XDATA, add(CFA_XSP16, literal(-2)))
        CFI (cfiCond66) DPH0 load(1, XDATA, add(CFA_XSP16, literal(-1)))
        CFI (cfiCond66) CFA_SP SP+0
        CFI (cfiCond66) CFA_XSP16 add(XSP16, 23)
        CFI Block cfiPicker67 Using cfiCommon1
        CFI (cfiPicker67) NoFunction
        CFI (cfiPicker67) Picker
        MOVX    @DPTR,A
        CFI EndBlock cfiCond65
        CFI EndBlock cfiCond66
        CFI EndBlock cfiPicker67
        ; Setup parameters for call to function osal_start_timerEx
        ; Setup parameters for call to function osal_start_timerEx
        REQUIRE ??Subroutine49_0
        ; // Fall through to label ??Subroutine49_0

        RSEG BANKED_CODE:CODE:NOROOT(0)
??Subroutine49_0:
        CFI Block cfiCond68 Using cfiCommon0
        CFI NoFunction
        CFI Conditional ??CrossCallReturnLabel_91
        CFI R6 load(1, XDATA, add(CFA_XSP16, literal(-9)))
        CFI VB load(1, XDATA, add(CFA_XSP16, literal(-8)))
        CFI V0 load(1, XDATA, add(CFA_XSP16, literal(-7)))
        CFI R7 load(1, XDATA, add(CFA_XSP16, literal(-6)))
        CFI ?RET_LOW load(1, XDATA, add(CFA_XSP16, literal(-5)))
        CFI ?RET_HIGH load(1, XDATA, add(CFA_XSP16, literal(-4)))
        CFI ?BRET_EXT load(1, XDATA, add(CFA_XSP16, literal(-3)))
        CFI DPL0 load(1, XDATA, add(CFA_XSP16, literal(-2)))
        CFI DPH0 load(1, XDATA, add(CFA_XSP16, literal(-1)))
        CFI CFA_SP SP+0
        CFI CFA_XSP16 add(XSP16, 9)
        CFI Block cfiCond69 Using cfiCommon0
        CFI (cfiCond69) NoFunction
        CFI (cfiCond69) Conditional ??CrossCallReturnLabel_89
        CFI (cfiCond69) R6 load(1, XDATA, add(CFA_XSP16, literal(-22)))
        CFI (cfiCond69) VB load(1, XDATA, add(CFA_XSP16, literal(-21)))
        CFI (cfiCond69) V0 load(1, XDATA, add(CFA_XSP16, literal(-20)))
        CFI (cfiCond69) V1 load(1, XDATA, add(CFA_XSP16, literal(-19)))
        CFI (cfiCond69) V2 load(1, XDATA, add(CFA_XSP16, literal(-18)))
        CFI (cfiCond69) V3 load(1, XDATA, add(CFA_XSP16, literal(-17)))
        CFI (cfiCond69) V4 load(1, XDATA, add(CFA_XSP16, literal(-16)))
        CFI (cfiCond69) V5 load(1, XDATA, add(CFA_XSP16, literal(-15)))
        CFI (cfiCond69) V6 load(1, XDATA, add(CFA_XSP16, literal(-14)))
        CFI (cfiCond69) V7 load(1, XDATA, add(CFA_XSP16, literal(-13)))
        CFI (cfiCond69) V8 load(1, XDATA, add(CFA_XSP16, literal(-12)))
        CFI (cfiCond69) V9 load(1, XDATA, add(CFA_XSP16, literal(-11)))
        CFI (cfiCond69) V10 load(1, XDATA, add(CFA_XSP16, literal(-10)))
        CFI (cfiCond69) V11 load(1, XDATA, add(CFA_XSP16, literal(-9)))
        CFI (cfiCond69) V12 load(1, XDATA, add(CFA_XSP16, literal(-8)))
        CFI (cfiCond69) V13 load(1, XDATA, add(CFA_XSP16, literal(-7)))
        CFI (cfiCond69) R7 load(1, XDATA, add(CFA_XSP16, literal(-6)))
        CFI (cfiCond69) ?RET_LOW load(1, XDATA, add(CFA_XSP16, literal(-5)))
        CFI (cfiCond69) ?RET_HIGH load(1, XDATA, add(CFA_XSP16, literal(-4)))
        CFI (cfiCond69) ?BRET_EXT load(1, XDATA, add(CFA_XSP16, literal(-3)))
        CFI (cfiCond69) DPL0 load(1, XDATA, add(CFA_XSP16, literal(-2)))
        CFI (cfiCond69) DPH0 load(1, XDATA, add(CFA_XSP16, literal(-1)))
        CFI (cfiCond69) CFA_SP SP+0
        CFI (cfiCond69) CFA_XSP16 add(XSP16, 36)
        CFI Block cfiCond70 Using cfiCommon0
        CFI (cfiCond70) NoFunction
        CFI (cfiCond70) Conditional ??CrossCallReturnLabel_90
        CFI (cfiCond70) R6 load(1, XDATA, add(CFA_XSP16, literal(-23)))
        CFI (cfiCond70) VB load(1, XDATA, add(CFA_XSP16, literal(-22)))
        CFI (cfiCond70) V0 load(1, XDATA, add(CFA_XSP16, literal(-21)))
        CFI (cfiCond70) V1 load(1, XDATA, add(CFA_XSP16, literal(-20)))
        CFI (cfiCond70) V2 load(1, XDATA, add(CFA_XSP16, literal(-19)))
        CFI (cfiCond70) V3 load(1, XDATA, add(CFA_XSP16, literal(-18)))
        CFI (cfiCond70) V4 load(1, XDATA, add(CFA_XSP16, literal(-17)))
        CFI (cfiCond70) V5 load(1, XDATA, add(CFA_XSP16, literal(-16)))
        CFI (cfiCond70) V6 load(1, XDATA, add(CFA_XSP16, literal(-15)))
        CFI (cfiCond70) V7 load(1, XDATA, add(CFA_XSP16, literal(-14)))
        CFI (cfiCond70) V8 load(1, XDATA, add(CFA_XSP16, literal(-13)))
        CFI (cfiCond70) V9 load(1, XDATA, add(CFA_XSP16, literal(-12)))
        CFI (cfiCond70) V10 load(1, XDATA, add(CFA_XSP16, literal(-11)))
        CFI (cfiCond70) V11 load(1, XDATA, add(CFA_XSP16, literal(-10)))
        CFI (cfiCond70) V12 load(1, XDATA, add(CFA_XSP16, literal(-9)))
        CFI (cfiCond70) V13 load(1, XDATA, add(CFA_XSP16, literal(-8)))
        CFI (cfiCond70) V14 load(1, XDATA, add(CFA_XSP16, literal(-7)))
        CFI (cfiCond70) R7 load(1, XDATA, add(CFA_XSP16, literal(-6)))
        CFI (cfiCond70) ?RET_LOW load(1, XDATA, add(CFA_XSP16, literal(-5)))
        CFI (cfiCond70) ?RET_HIGH load(1, XDATA, add(CFA_XSP16, literal(-4)))
        CFI (cfiCond70) ?BRET_EXT load(1, XDATA, add(CFA_XSP16, literal(-3)))
        CFI (cfiCond70) DPL0 load(1, XDATA, add(CFA_XSP16, literal(-2)))
        CFI (cfiCond70) DPH0 load(1, XDATA, add(CFA_XSP16, literal(-1)))
        CFI (cfiCond70) CFA_SP SP+0
        CFI (cfiCond70) CFA_XSP16 add(XSP16, 23)
        CFI Block cfiPicker71 Using cfiCommon1
        CFI (cfiPicker71) NoFunction
        CFI (cfiPicker71) Picker
        MOV     R4,#-0x18
        MOV     R5,#0x3
        MOV     R2,#0x8
        MOV     R3,#0x0
        MOV     DPTR,#MT_TaskID
        MOVX    A,@DPTR
        MOV     R1,A
        LCALL   ??osal_start_timerEx?relay
        MOV     A,R1
        RET
        CFI EndBlock cfiCond68
        CFI EndBlock cfiCond69
        CFI EndBlock cfiCond70
        CFI EndBlock cfiPicker71
//  439 
//  440 #if defined ( ZIGBEE_SOURCE_ROUTING )
//  441 
//  442 /***************************************************************************************************
//  443  * @fn      MT_AfDataRequestSrcRtg
//  444  *
//  445  * @brief   Process AF Register command
//  446  *
//  447  * @param   pBuf - pointer to the received buffer
//  448  *
//  449  * @return  none
//  450  ***************************************************************************************************/

        RSEG BANKED_CODE:CODE:NOROOT(0)
//  451 void MT_AfDataRequestSrcRtg(uint8 *pBuf)
MT_AfDataRequestSrcRtg:
        CFI Block cfiBlock72 Using cfiCommon0
        CFI Function MT_AfDataRequestSrcRtg
//  452 {
        FUNCALL MT_AfDataRequestSrcRtg, osal_memset
        LOCFRAME ISTACK, 0, STACK
        LOCFRAME PSTACK, 0, STACK
        LOCFRAME XSTACK, 34, STACK
        LOCFRAME IOVERLAY, 0, STATIC
        LOCFRAME DOVERLAY, 0, STATIC
        ARGFRAME ISTACK, 0, STACK
        ARGFRAME PSTACK, 0, STACK
        ARGFRAME XSTACK, 34, STACK
        ARGFRAME IOVERLAY, 0, STATIC
        ARGFRAME DOVERLAY, 0, STATIC
        FUNCALL MT_AfDataRequestSrcRtg, afFindEndPointDesc
        LOCFRAME ISTACK, 0, STACK
        LOCFRAME PSTACK, 0, STACK
        LOCFRAME XSTACK, 34, STACK
        LOCFRAME IOVERLAY, 0, STATIC
        LOCFRAME DOVERLAY, 0, STATIC
        ARGFRAME ISTACK, 0, STACK
        ARGFRAME PSTACK, 0, STACK
        ARGFRAME XSTACK, 34, STACK
        ARGFRAME IOVERLAY, 0, STATIC
        ARGFRAME DOVERLAY, 0, STATIC
        FUNCALL MT_AfDataRequestSrcRtg, osal_mem_alloc
        LOCFRAME ISTACK, 0, STACK
        LOCFRAME PSTACK, 0, STACK
        LOCFRAME XSTACK, 34, STACK
        LOCFRAME IOVERLAY, 0, STATIC
        LOCFRAME DOVERLAY, 0, STATIC
        ARGFRAME ISTACK, 0, STACK
        ARGFRAME PSTACK, 0, STACK
        ARGFRAME XSTACK, 34, STACK
        ARGFRAME IOVERLAY, 0, STATIC
        ARGFRAME DOVERLAY, 0, STATIC
        FUNCALL MT_AfDataRequestSrcRtg, AF_DataRequestSrcRtg
        LOCFRAME ISTACK, 0, STACK
        LOCFRAME PSTACK, 0, STACK
        LOCFRAME XSTACK, 46, STACK
        LOCFRAME IOVERLAY, 0, STATIC
        LOCFRAME DOVERLAY, 0, STATIC
        ARGFRAME ISTACK, 0, STACK
        ARGFRAME PSTACK, 0, STACK
        ARGFRAME XSTACK, 46, STACK
        ARGFRAME IOVERLAY, 0, STATIC
        ARGFRAME DOVERLAY, 0, STATIC
        FUNCALL MT_AfDataRequestSrcRtg, osal_mem_free
        LOCFRAME ISTACK, 0, STACK
        LOCFRAME PSTACK, 0, STACK
        LOCFRAME XSTACK, 34, STACK
        LOCFRAME IOVERLAY, 0, STATIC
        LOCFRAME DOVERLAY, 0, STATIC
        ARGFRAME ISTACK, 0, STACK
        ARGFRAME PSTACK, 0, STACK
        ARGFRAME XSTACK, 34, STACK
        ARGFRAME IOVERLAY, 0, STATIC
        ARGFRAME DOVERLAY, 0, STATIC
        FUNCALL MT_AfDataRequestSrcRtg, MT_BuildAndSendZToolResponse
        LOCFRAME ISTACK, 0, STACK
        LOCFRAME PSTACK, 0, STACK
        LOCFRAME XSTACK, 34, STACK
        LOCFRAME IOVERLAY, 0, STATIC
        LOCFRAME DOVERLAY, 0, STATIC
        ARGFRAME ISTACK, 0, STACK
        ARGFRAME PSTACK, 0, STACK
        ARGFRAME XSTACK, 34, STACK
        ARGFRAME IOVERLAY, 0, STATIC
        ARGFRAME DOVERLAY, 0, STATIC
        MOV     A,#-0x14
        LCALL   ?BANKED_ENTER_XDATA
        CFI DPH0 load(1, XDATA, add(CFA_XSP16, literal(-1)))
        CFI DPL0 load(1, XDATA, add(CFA_XSP16, literal(-2)))
        CFI ?BRET_EXT load(1, XDATA, add(CFA_XSP16, literal(-3)))
        CFI ?RET_HIGH load(1, XDATA, add(CFA_XSP16, literal(-4)))
        CFI ?RET_LOW load(1, XDATA, add(CFA_XSP16, literal(-5)))
        CFI R7 load(1, XDATA, add(CFA_XSP16, literal(-6)))
        CFI V11 load(1, XDATA, add(CFA_XSP16, literal(-7)))
        CFI V10 load(1, XDATA, add(CFA_XSP16, literal(-8)))
        CFI V9 load(1, XDATA, add(CFA_XSP16, literal(-9)))
        CFI V8 load(1, XDATA, add(CFA_XSP16, literal(-10)))
        CFI V7 load(1, XDATA, add(CFA_XSP16, literal(-11)))
        CFI V6 load(1, XDATA, add(CFA_XSP16, literal(-12)))
        CFI V5 load(1, XDATA, add(CFA_XSP16, literal(-13)))
        CFI V4 load(1, XDATA, add(CFA_XSP16, literal(-14)))
        CFI V3 load(1, XDATA, add(CFA_XSP16, literal(-15)))
        CFI V2 load(1, XDATA, add(CFA_XSP16, literal(-16)))
        CFI V1 load(1, XDATA, add(CFA_XSP16, literal(-17)))
        CFI V0 load(1, XDATA, add(CFA_XSP16, literal(-18)))
        CFI VB load(1, XDATA, add(CFA_XSP16, literal(-19)))
        CFI R6 load(1, XDATA, add(CFA_XSP16, literal(-20)))
        CFI CFA_SP SP+0
        CFI CFA_XSP16 add(XSP16, 20)
        ; Saved register size: 20
        ; Auto size: 14
        MOV     A,#-0xe
        LCALL   ?ALLOC_XSTACK8
        CFI CFA_XSP16 add(XSP16, 34)
        MOV     A,R2
        MOV     R6,A
        MOV     A,R3
        MOV     R7,A
//  453   uint8 cmdId, dataLen = 0;
//  454   uint8 retValue = ZFailure;
        MOV     A,#0x1
        MOV     DPL,?XSP + 0
        MOV     DPH,?XSP + 1
        LCALL   ?Subroutine29 & 0xFFFF
//  455   endPointDesc_t *epDesc;
//  456   byte transId;
//  457   afAddrType_t dstAddr;
//  458   cId_t cId;
//  459   byte txOpts, radius, srcEP, relayCnt;
//  460   uint16 *pRelayList;
//  461   uint8 i;
//  462 
//  463   /* parse header */
//  464   cmdId = pBuf[MT_RPC_POS_CMD1];
??CrossCallReturnLabel_52:
        INC     DPTR
        MOVX    A,@DPTR
        MOV     ?V0 + 2,A
//  465   pBuf += MT_RPC_FRAME_HDR_SZ;
        MOV     A,R6
        ADD     A,#0x3
        INC     R6
        INC     R6
        INC     R6
        MOV     A,R7
        ADDC    A,#0x0
        MOV     R7,A
//  466 
//  467   /* Destination address */
//  468   /* Initialize the panID field to zero to avoid inter-pan */
//  469   osal_memset( &dstAddr, 0, sizeof(afAddrType_t) ); 
        ; Setup parameters for call to function osal_memset
        MOV     R4,#0xc
        MOV     R5,#0x0
        MOV     R1,#0x0
        MOV     A,#0x2
        LCALL   ?XSTACK_DISP0_8
        MOV     R2,DPL
        MOV     R3,DPH
        LCALL   ??osal_memset?relay
//  470   dstAddr.addrMode = afAddr16Bit;
        MOV     A,#0xa
        LCALL   ?XSTACK_DISP0_8
        MOV     A,#0x2
        MOVX    @DPTR,A
//  471   dstAddr.addr.shortAddr = BUILD_UINT16(pBuf[0], pBuf[1]);
        MOV     DPL,R6
        MOV     DPH,R7
        LCALL   ?Subroutine5 & 0xFFFF
??CrossCallReturnLabel_4:
        LCALL   ?XSTACK_DISP0_8
        LCALL   ?Subroutine31 & 0xFFFF
//  472   pBuf += 2;
??CrossCallReturnLabel_60:
        LCALL   ?Subroutine23 & 0xFFFF
//  473 
//  474   /* Destination endpoint */
//  475   dstAddr.endPoint = *pBuf++;
??CrossCallReturnLabel_36:
        PUSH    A
        CFI CFA_SP SP+-1
        MOV     A,#0xb
        LCALL   ?XSTACK_DISP0_8
        POP     A
        CFI CFA_SP SP+0
        LCALL   ?Subroutine29 & 0xFFFF
//  476 
//  477   /* Source endpoint */
//  478   srcEP = *pBuf++;
??CrossCallReturnLabel_53:
        MOVX    A,@DPTR
        MOV     R1,A
        INC     DPTR
        MOV     R6,DPL
        MOV     R7,DPH
//  479   epDesc = afFindEndPointDesc( srcEP );
        ; Setup parameters for call to function afFindEndPointDesc
        LCALL   ??afFindEndPointDesc?relay
        MOV     ?V0 + 4,R2
        MOV     ?V0 + 5,R3
//  480 
//  481   /* ClusterId */
//  482   cId = BUILD_UINT16(pBuf[0], pBuf[1]);
        MOV     DPL,R6
        MOV     DPH,R7
        LCALL   ??Subroutine50_0 & 0xFFFF
??CrossCallReturnLabel_95:
        MOV     ?V0 + 6,A
        MOV     A,R1
        MOV     ?V0 + 7,A
//  483   pBuf +=2;
        LCALL   ?Subroutine23 & 0xFFFF
//  484 
//  485   /* TransId */
//  486   transId = *pBuf++;
??CrossCallReturnLabel_37:
        PUSH    A
        CFI CFA_SP SP+-1
        MOV     A,#0x1
        LCALL   ?XSTACK_DISP0_8
        POP     A
        CFI CFA_SP SP+0
        LCALL   ?Subroutine29 & 0xFFFF
//  487 
//  488   /* TxOption */
//  489   txOpts = *pBuf++;
??CrossCallReturnLabel_54:
        MOVX    A,@DPTR
        MOV     ?V0 + 3,A
        INC     DPTR
//  490 
//  491   /* Radius */
//  492   radius = *pBuf++;
        MOVX    A,@DPTR
        MOV     ?V0 + 10,A
        INC     DPTR
//  493   
//  494   /* Source route relay count */
//  495   relayCnt = *pBuf++;
        MOVX    A,@DPTR
        MOV     ?V0 + 11,A
        INC     DPTR
        MOV     R6,DPL
        MOV     R7,DPH
//  496   
//  497   /* Convert the source route relay list */
//  498   if( (pRelayList = osal_mem_alloc( relayCnt * sizeof( uint16 ))) != NULL )
        ; Setup parameters for call to function osal_mem_alloc
        CLR     C
        RLC     A
        MOV     R2,A
        CLR     A
        RLC     A
        MOV     R3,A
        LCALL   ??osal_mem_alloc?relay
        MOV     ?V0 + 0,R2
        MOV     ?V0 + 1,R3
        MOV     A,R2
        JNZ     ??MT_AfDataRequestSrcRtg_0
        MOV     A,R3
??MT_AfDataRequestSrcRtg_0:
        JNZ     $+5
        LJMP    ??MT_AfDataRequestSrcRtg_1 & 0xFFFF
//  499   {
//  500     for( i = 0; i < relayCnt; i++ )
        MOV     R4,#0x0
        SJMP    ??MT_AfDataRequestSrcRtg_2
//  501     {
//  502       pRelayList[i]  = BUILD_UINT16( pBuf[0], pBuf[1] );
??MT_AfDataRequestSrcRtg_3:
        MOVX    A,@DPTR
        MOV     R1,A
        CLR     A
        ADD     A,R2
        MOV     A,R1
        MOV     R3,A
        MOV     A,R4
        RLC     A
        MOV     R0,A
        CLR     A
        RLC     A
        MOV     R1,A
        MOV     A,?V0 + 0
        ADD     A,R0
        MOV     DPL,A
        MOV     A,?V0 + 1
        ADDC    A,R1
        MOV     DPH,A
        MOV     A,R2
        MOVX    @DPTR,A
        INC     DPTR
        MOV     A,R3
        MOVX    @DPTR,A
//  503       pBuf += 2;
        LCALL   ?Subroutine42 & 0xFFFF
//  504     }
??CrossCallReturnLabel_72:
        INC     R4
??MT_AfDataRequestSrcRtg_2:
        MOV     A,R4
        CLR     C
        SUBB    A,?V0 + 11
        MOV     DPL,R6
        MOV     DPH,R7
        MOVX    A,@DPTR
        MOV     R2,A
        INC     DPTR
        JC      ??MT_AfDataRequestSrcRtg_3
//  505   
//  506     /* Data payload Length */
//  507     dataLen = *pBuf++;
        MOV     R6,DPL
        MOV     R7,DPH
//  508 
//  509     if ( epDesc == NULL )
        MOV     A,?V0 + 4
        JNZ     ??MT_AfDataRequestSrcRtg_4
        MOV     A,?V0 + 5
??MT_AfDataRequestSrcRtg_4:
        JNZ     ??MT_AfDataRequestSrcRtg_5
//  510     {
//  511       retValue = afStatus_INVALID_PARAMETER;
        MOV     A,#0x2
        SJMP    ??MT_AfDataRequestSrcRtg_6
//  512     }
//  513     else
//  514     {
//  515       retValue = AF_DataRequestSrcRtg( &dstAddr, epDesc, cId, dataLen, pBuf, 
//  516                                      &transId, txOpts, radius, relayCnt, pRelayList );
??MT_AfDataRequestSrcRtg_5:
        ; Setup parameters for call to function AF_DataRequestSrcRtg
        MOV     R0,#?V0 + 0
        LCALL   ?PUSH_XSTACK_I_TWO
        CFI CFA_XSP16 add(XSP16, 36)
        MOV     A,?V0 + 11
        MOV     ?V0 + 8,A
        MOV     R0,#?V0 + 8
        LCALL   ?PUSH_XSTACK_I_ONE
        CFI CFA_XSP16 add(XSP16, 37)
        MOV     A,?V0 + 10
        MOV     ?V0 + 8,A
        MOV     R0,#?V0 + 8
        LCALL   ?PUSH_XSTACK_I_ONE
        CFI CFA_XSP16 add(XSP16, 38)
        MOV     A,#0x5
        LCALL   ?XSTACK_DISP0_8
        MOV     ?V0 + 8,DPL
        MOV     ?V0 + 9,DPH
        MOV     R0,#?V0 + 8
        LCALL   ?PUSH_XSTACK_I_TWO
        CFI CFA_XSP16 add(XSP16, 40)
        MOV     ?V0 + 8,R6
        MOV     ?V0 + 9,R7
        MOV     R0,#?V0 + 8
        LCALL   ?PUSH_XSTACK_I_TWO
        CFI CFA_XSP16 add(XSP16, 42)
        MOV     ?V0 + 8,R2
        MOV     ?V0 + 9,#0x0
        MOV     R0,#?V0 + 8
        LCALL   ?PUSH_XSTACK_I_TWO
        CFI CFA_XSP16 add(XSP16, 44)
        MOV     R0,#?V0 + 6
        LCALL   ?PUSH_XSTACK_I_TWO
        CFI CFA_XSP16 add(XSP16, 46)
        MOV     R1,?V0 + 3
        MOV     R4,?V0 + 4
        MOV     R5,?V0 + 5
        MOV     A,#0xe
        LCALL   ?XSTACK_DISP0_8
        MOV     R2,DPL
        MOV     R3,DPH
        LCALL   ??AF_DataRequestSrcRtg?relay
        MOV     A,#0xc
        LCALL   ?DEALLOC_XSTACK8
        CFI CFA_XSP16 add(XSP16, 34)
        MOV     A,R1
??MT_AfDataRequestSrcRtg_6:
        MOV     DPL,?XSP + 0
        MOV     DPH,?XSP + 1
        MOVX    @DPTR,A
//  517     }
//  518     
//  519     /* Free the memory allocated */
//  520     osal_mem_free( pRelayList );
        ; Setup parameters for call to function osal_mem_free
        MOV     R2,?V0 + 0
        MOV     R3,?V0 + 1
        LCALL   ??osal_mem_free?relay
        SJMP    ??MT_AfDataRequestSrcRtg_7
//  521   }
//  522   else
//  523   {
//  524     retValue = afStatus_MEM_FAIL;
??MT_AfDataRequestSrcRtg_1:
        MOV     A,#0x10
        MOV     DPL,?XSP + 0
        MOV     DPH,?XSP + 1
        MOVX    @DPTR,A
//  525   }
//  526     
//  527 
//  528   /* Build and send back the response */
//  529   MT_BuildAndSendZToolResponse(((uint8)MT_RPC_CMD_SRSP | (uint8)MT_RPC_SYS_AF), cmdId, 1, &retValue);
??MT_AfDataRequestSrcRtg_7:
        ; Setup parameters for call to function MT_BuildAndSendZToolResponse
        MOV     DPL,?XSP + 0
        MOV     DPH,?XSP + 1
        MOV     R4,DPL
        MOV     R5,DPH
        MOV     R3,#0x1
        MOV     R2,?V0 + 2
        MOV     R1,#0x64
        LCALL   ??MT_BuildAndSendZToolResponse?relay
//  530 }
        MOV     A,#0xe
        LCALL   ?DEALLOC_XSTACK8
        CFI CFA_XSP16 add(XSP16, 20)
        MOV     R7,#0xc
        LJMP    ?BANKED_LEAVE_XDATA
        CFI EndBlock cfiBlock72

        RSEG BANKED_CODE:CODE:NOROOT(0)
?Subroutine29:
        CFI Block cfiCond73 Using cfiCommon0
        CFI NoFunction
        CFI Conditional ??CrossCallReturnLabel_52
        CFI R6 load(1, XDATA, add(CFA_XSP16, literal(-20)))
        CFI VB load(1, XDATA, add(CFA_XSP16, literal(-19)))
        CFI V0 load(1, XDATA, add(CFA_XSP16, literal(-18)))
        CFI V1 load(1, XDATA, add(CFA_XSP16, literal(-17)))
        CFI V2 load(1, XDATA, add(CFA_XSP16, literal(-16)))
        CFI V3 load(1, XDATA, add(CFA_XSP16, literal(-15)))
        CFI V4 load(1, XDATA, add(CFA_XSP16, literal(-14)))
        CFI V5 load(1, XDATA, add(CFA_XSP16, literal(-13)))
        CFI V6 load(1, XDATA, add(CFA_XSP16, literal(-12)))
        CFI V7 load(1, XDATA, add(CFA_XSP16, literal(-11)))
        CFI V8 load(1, XDATA, add(CFA_XSP16, literal(-10)))
        CFI V9 load(1, XDATA, add(CFA_XSP16, literal(-9)))
        CFI V10 load(1, XDATA, add(CFA_XSP16, literal(-8)))
        CFI V11 load(1, XDATA, add(CFA_XSP16, literal(-7)))
        CFI R7 load(1, XDATA, add(CFA_XSP16, literal(-6)))
        CFI ?RET_LOW load(1, XDATA, add(CFA_XSP16, literal(-5)))
        CFI ?RET_HIGH load(1, XDATA, add(CFA_XSP16, literal(-4)))
        CFI ?BRET_EXT load(1, XDATA, add(CFA_XSP16, literal(-3)))
        CFI DPL0 load(1, XDATA, add(CFA_XSP16, literal(-2)))
        CFI DPH0 load(1, XDATA, add(CFA_XSP16, literal(-1)))
        CFI CFA_SP SP+0
        CFI CFA_XSP16 add(XSP16, 34)
        CFI Block cfiCond74 Using cfiCommon0
        CFI (cfiCond74) NoFunction
        CFI (cfiCond74) Conditional ??CrossCallReturnLabel_53
        CFI (cfiCond74) R6 load(1, XDATA, add(CFA_XSP16, literal(-20)))
        CFI (cfiCond74) VB load(1, XDATA, add(CFA_XSP16, literal(-19)))
        CFI (cfiCond74) V0 load(1, XDATA, add(CFA_XSP16, literal(-18)))
        CFI (cfiCond74) V1 load(1, XDATA, add(CFA_XSP16, literal(-17)))
        CFI (cfiCond74) V2 load(1, XDATA, add(CFA_XSP16, literal(-16)))
        CFI (cfiCond74) V3 load(1, XDATA, add(CFA_XSP16, literal(-15)))
        CFI (cfiCond74) V4 load(1, XDATA, add(CFA_XSP16, literal(-14)))
        CFI (cfiCond74) V5 load(1, XDATA, add(CFA_XSP16, literal(-13)))
        CFI (cfiCond74) V6 load(1, XDATA, add(CFA_XSP16, literal(-12)))
        CFI (cfiCond74) V7 load(1, XDATA, add(CFA_XSP16, literal(-11)))
        CFI (cfiCond74) V8 load(1, XDATA, add(CFA_XSP16, literal(-10)))
        CFI (cfiCond74) V9 load(1, XDATA, add(CFA_XSP16, literal(-9)))
        CFI (cfiCond74) V10 load(1, XDATA, add(CFA_XSP16, literal(-8)))
        CFI (cfiCond74) V11 load(1, XDATA, add(CFA_XSP16, literal(-7)))
        CFI (cfiCond74) R7 load(1, XDATA, add(CFA_XSP16, literal(-6)))
        CFI (cfiCond74) ?RET_LOW load(1, XDATA, add(CFA_XSP16, literal(-5)))
        CFI (cfiCond74) ?RET_HIGH load(1, XDATA, add(CFA_XSP16, literal(-4)))
        CFI (cfiCond74) ?BRET_EXT load(1, XDATA, add(CFA_XSP16, literal(-3)))
        CFI (cfiCond74) DPL0 load(1, XDATA, add(CFA_XSP16, literal(-2)))
        CFI (cfiCond74) DPH0 load(1, XDATA, add(CFA_XSP16, literal(-1)))
        CFI (cfiCond74) CFA_SP SP+0
        CFI (cfiCond74) CFA_XSP16 add(XSP16, 34)
        CFI Block cfiCond75 Using cfiCommon0
        CFI (cfiCond75) NoFunction
        CFI (cfiCond75) Conditional ??CrossCallReturnLabel_54
        CFI (cfiCond75) R6 load(1, XDATA, add(CFA_XSP16, literal(-20)))
        CFI (cfiCond75) VB load(1, XDATA, add(CFA_XSP16, literal(-19)))
        CFI (cfiCond75) V0 load(1, XDATA, add(CFA_XSP16, literal(-18)))
        CFI (cfiCond75) V1 load(1, XDATA, add(CFA_XSP16, literal(-17)))
        CFI (cfiCond75) V2 load(1, XDATA, add(CFA_XSP16, literal(-16)))
        CFI (cfiCond75) V3 load(1, XDATA, add(CFA_XSP16, literal(-15)))
        CFI (cfiCond75) V4 load(1, XDATA, add(CFA_XSP16, literal(-14)))
        CFI (cfiCond75) V5 load(1, XDATA, add(CFA_XSP16, literal(-13)))
        CFI (cfiCond75) V6 load(1, XDATA, add(CFA_XSP16, literal(-12)))
        CFI (cfiCond75) V7 load(1, XDATA, add(CFA_XSP16, literal(-11)))
        CFI (cfiCond75) V8 load(1, XDATA, add(CFA_XSP16, literal(-10)))
        CFI (cfiCond75) V9 load(1, XDATA, add(CFA_XSP16, literal(-9)))
        CFI (cfiCond75) V10 load(1, XDATA, add(CFA_XSP16, literal(-8)))
        CFI (cfiCond75) V11 load(1, XDATA, add(CFA_XSP16, literal(-7)))
        CFI (cfiCond75) R7 load(1, XDATA, add(CFA_XSP16, literal(-6)))
        CFI (cfiCond75) ?RET_LOW load(1, XDATA, add(CFA_XSP16, literal(-5)))
        CFI (cfiCond75) ?RET_HIGH load(1, XDATA, add(CFA_XSP16, literal(-4)))
        CFI (cfiCond75) ?BRET_EXT load(1, XDATA, add(CFA_XSP16, literal(-3)))
        CFI (cfiCond75) DPL0 load(1, XDATA, add(CFA_XSP16, literal(-2)))
        CFI (cfiCond75) DPH0 load(1, XDATA, add(CFA_XSP16, literal(-1)))
        CFI (cfiCond75) CFA_SP SP+0
        CFI (cfiCond75) CFA_XSP16 add(XSP16, 34)
        CFI Block cfiPicker76 Using cfiCommon1
        CFI (cfiPicker76) NoFunction
        CFI (cfiPicker76) Picker
        MOVX    @DPTR,A
        MOV     DPL,R6
        MOV     DPH,R7
        INC     DPTR
        RET
        CFI EndBlock cfiCond73
        CFI EndBlock cfiCond74
        CFI EndBlock cfiCond75
        CFI EndBlock cfiPicker76

        RSEG BANKED_CODE:CODE:NOROOT(0)
?Subroutine23:
        CFI Block cfiCond77 Using cfiCommon0
        CFI NoFunction
        CFI Conditional ??CrossCallReturnLabel_36
        CFI R6 load(1, XDATA, add(CFA_XSP16, literal(-20)))
        CFI VB load(1, XDATA, add(CFA_XSP16, literal(-19)))
        CFI V0 load(1, XDATA, add(CFA_XSP16, literal(-18)))
        CFI V1 load(1, XDATA, add(CFA_XSP16, literal(-17)))
        CFI V2 load(1, XDATA, add(CFA_XSP16, literal(-16)))
        CFI V3 load(1, XDATA, add(CFA_XSP16, literal(-15)))
        CFI V4 load(1, XDATA, add(CFA_XSP16, literal(-14)))
        CFI V5 load(1, XDATA, add(CFA_XSP16, literal(-13)))
        CFI V6 load(1, XDATA, add(CFA_XSP16, literal(-12)))
        CFI V7 load(1, XDATA, add(CFA_XSP16, literal(-11)))
        CFI V8 load(1, XDATA, add(CFA_XSP16, literal(-10)))
        CFI V9 load(1, XDATA, add(CFA_XSP16, literal(-9)))
        CFI V10 load(1, XDATA, add(CFA_XSP16, literal(-8)))
        CFI V11 load(1, XDATA, add(CFA_XSP16, literal(-7)))
        CFI R7 load(1, XDATA, add(CFA_XSP16, literal(-6)))
        CFI ?RET_LOW load(1, XDATA, add(CFA_XSP16, literal(-5)))
        CFI ?RET_HIGH load(1, XDATA, add(CFA_XSP16, literal(-4)))
        CFI ?BRET_EXT load(1, XDATA, add(CFA_XSP16, literal(-3)))
        CFI DPL0 load(1, XDATA, add(CFA_XSP16, literal(-2)))
        CFI DPH0 load(1, XDATA, add(CFA_XSP16, literal(-1)))
        CFI CFA_SP SP+0
        CFI CFA_XSP16 add(XSP16, 34)
        CFI Block cfiCond78 Using cfiCommon0
        CFI (cfiCond78) NoFunction
        CFI (cfiCond78) Conditional ??CrossCallReturnLabel_37
        CFI (cfiCond78) R6 load(1, XDATA, add(CFA_XSP16, literal(-20)))
        CFI (cfiCond78) VB load(1, XDATA, add(CFA_XSP16, literal(-19)))
        CFI (cfiCond78) V0 load(1, XDATA, add(CFA_XSP16, literal(-18)))
        CFI (cfiCond78) V1 load(1, XDATA, add(CFA_XSP16, literal(-17)))
        CFI (cfiCond78) V2 load(1, XDATA, add(CFA_XSP16, literal(-16)))
        CFI (cfiCond78) V3 load(1, XDATA, add(CFA_XSP16, literal(-15)))
        CFI (cfiCond78) V4 load(1, XDATA, add(CFA_XSP16, literal(-14)))
        CFI (cfiCond78) V5 load(1, XDATA, add(CFA_XSP16, literal(-13)))
        CFI (cfiCond78) V6 load(1, XDATA, add(CFA_XSP16, literal(-12)))
        CFI (cfiCond78) V7 load(1, XDATA, add(CFA_XSP16, literal(-11)))
        CFI (cfiCond78) V8 load(1, XDATA, add(CFA_XSP16, literal(-10)))
        CFI (cfiCond78) V9 load(1, XDATA, add(CFA_XSP16, literal(-9)))
        CFI (cfiCond78) V10 load(1, XDATA, add(CFA_XSP16, literal(-8)))
        CFI (cfiCond78) V11 load(1, XDATA, add(CFA_XSP16, literal(-7)))
        CFI (cfiCond78) R7 load(1, XDATA, add(CFA_XSP16, literal(-6)))
        CFI (cfiCond78) ?RET_LOW load(1, XDATA, add(CFA_XSP16, literal(-5)))
        CFI (cfiCond78) ?RET_HIGH load(1, XDATA, add(CFA_XSP16, literal(-4)))
        CFI (cfiCond78) ?BRET_EXT load(1, XDATA, add(CFA_XSP16, literal(-3)))
        CFI (cfiCond78) DPL0 load(1, XDATA, add(CFA_XSP16, literal(-2)))
        CFI (cfiCond78) DPH0 load(1, XDATA, add(CFA_XSP16, literal(-1)))
        CFI (cfiCond78) CFA_SP SP+0
        CFI (cfiCond78) CFA_XSP16 add(XSP16, 34)
        CFI Block cfiPicker79 Using cfiCommon1
        CFI (cfiPicker79) NoFunction
        CFI (cfiPicker79) Picker
        LCALL   ?Subroutine42 & 0xFFFF
??CrossCallReturnLabel_73:
        MOV     DPL,R6
        MOV     DPH,R7
        MOVX    A,@DPTR
        RET
        CFI EndBlock cfiCond77
        CFI EndBlock cfiCond78
        CFI EndBlock cfiPicker79

        RSEG BANKED_CODE:CODE:NOROOT(0)
?Subroutine42:
        CFI Block cfiCond80 Using cfiCommon0
        CFI NoFunction
        CFI Conditional ??CrossCallReturnLabel_72
        CFI R6 load(1, XDATA, add(CFA_XSP16, literal(-20)))
        CFI VB load(1, XDATA, add(CFA_XSP16, literal(-19)))
        CFI V0 load(1, XDATA, add(CFA_XSP16, literal(-18)))
        CFI V1 load(1, XDATA, add(CFA_XSP16, literal(-17)))
        CFI V2 load(1, XDATA, add(CFA_XSP16, literal(-16)))
        CFI V3 load(1, XDATA, add(CFA_XSP16, literal(-15)))
        CFI V4 load(1, XDATA, add(CFA_XSP16, literal(-14)))
        CFI V5 load(1, XDATA, add(CFA_XSP16, literal(-13)))
        CFI V6 load(1, XDATA, add(CFA_XSP16, literal(-12)))
        CFI V7 load(1, XDATA, add(CFA_XSP16, literal(-11)))
        CFI V8 load(1, XDATA, add(CFA_XSP16, literal(-10)))
        CFI V9 load(1, XDATA, add(CFA_XSP16, literal(-9)))
        CFI V10 load(1, XDATA, add(CFA_XSP16, literal(-8)))
        CFI V11 load(1, XDATA, add(CFA_XSP16, literal(-7)))
        CFI R7 load(1, XDATA, add(CFA_XSP16, literal(-6)))
        CFI ?RET_LOW load(1, XDATA, add(CFA_XSP16, literal(-5)))
        CFI ?RET_HIGH load(1, XDATA, add(CFA_XSP16, literal(-4)))
        CFI ?BRET_EXT load(1, XDATA, add(CFA_XSP16, literal(-3)))
        CFI DPL0 load(1, XDATA, add(CFA_XSP16, literal(-2)))
        CFI DPH0 load(1, XDATA, add(CFA_XSP16, literal(-1)))
        CFI CFA_SP SP+0
        CFI CFA_XSP16 add(XSP16, 34)
        CFI Block cfiCond81 Using cfiCommon0
        CFI (cfiCond81) NoFunction
        CFI (cfiCond81) Conditional ??CrossCallReturnLabel_73, ??CrossCallReturnLabel_36
        CFI (cfiCond81) R6 load(1, XDATA, add(CFA_XSP16, literal(-20)))
        CFI (cfiCond81) VB load(1, XDATA, add(CFA_XSP16, literal(-19)))
        CFI (cfiCond81) V0 load(1, XDATA, add(CFA_XSP16, literal(-18)))
        CFI (cfiCond81) V1 load(1, XDATA, add(CFA_XSP16, literal(-17)))
        CFI (cfiCond81) V2 load(1, XDATA, add(CFA_XSP16, literal(-16)))
        CFI (cfiCond81) V3 load(1, XDATA, add(CFA_XSP16, literal(-15)))
        CFI (cfiCond81) V4 load(1, XDATA, add(CFA_XSP16, literal(-14)))
        CFI (cfiCond81) V5 load(1, XDATA, add(CFA_XSP16, literal(-13)))
        CFI (cfiCond81) V6 load(1, XDATA, add(CFA_XSP16, literal(-12)))
        CFI (cfiCond81) V7 load(1, XDATA, add(CFA_XSP16, literal(-11)))
        CFI (cfiCond81) V8 load(1, XDATA, add(CFA_XSP16, literal(-10)))
        CFI (cfiCond81) V9 load(1, XDATA, add(CFA_XSP16, literal(-9)))
        CFI (cfiCond81) V10 load(1, XDATA, add(CFA_XSP16, literal(-8)))
        CFI (cfiCond81) V11 load(1, XDATA, add(CFA_XSP16, literal(-7)))
        CFI (cfiCond81) R7 load(1, XDATA, add(CFA_XSP16, literal(-6)))
        CFI (cfiCond81) ?RET_LOW load(1, XDATA, add(CFA_XSP16, literal(-5)))
        CFI (cfiCond81) ?RET_HIGH load(1, XDATA, add(CFA_XSP16, literal(-4)))
        CFI (cfiCond81) ?BRET_EXT load(1, XDATA, add(CFA_XSP16, literal(-3)))
        CFI (cfiCond81) DPL0 load(1, XDATA, add(CFA_XSP16, literal(-2)))
        CFI (cfiCond81) DPH0 load(1, XDATA, add(CFA_XSP16, literal(-1)))
        CFI (cfiCond81) CFA_SP SP+0
        CFI (cfiCond81) CFA_XSP16 add(XSP16, 34)
        CFI Block cfiCond82 Using cfiCommon0
        CFI (cfiCond82) NoFunction
        CFI (cfiCond82) Conditional ??CrossCallReturnLabel_73, ??CrossCallReturnLabel_37
        CFI (cfiCond82) R6 load(1, XDATA, add(CFA_XSP16, literal(-20)))
        CFI (cfiCond82) VB load(1, XDATA, add(CFA_XSP16, literal(-19)))
        CFI (cfiCond82) V0 load(1, XDATA, add(CFA_XSP16, literal(-18)))
        CFI (cfiCond82) V1 load(1, XDATA, add(CFA_XSP16, literal(-17)))
        CFI (cfiCond82) V2 load(1, XDATA, add(CFA_XSP16, literal(-16)))
        CFI (cfiCond82) V3 load(1, XDATA, add(CFA_XSP16, literal(-15)))
        CFI (cfiCond82) V4 load(1, XDATA, add(CFA_XSP16, literal(-14)))
        CFI (cfiCond82) V5 load(1, XDATA, add(CFA_XSP16, literal(-13)))
        CFI (cfiCond82) V6 load(1, XDATA, add(CFA_XSP16, literal(-12)))
        CFI (cfiCond82) V7 load(1, XDATA, add(CFA_XSP16, literal(-11)))
        CFI (cfiCond82) V8 load(1, XDATA, add(CFA_XSP16, literal(-10)))
        CFI (cfiCond82) V9 load(1, XDATA, add(CFA_XSP16, literal(-9)))
        CFI (cfiCond82) V10 load(1, XDATA, add(CFA_XSP16, literal(-8)))
        CFI (cfiCond82) V11 load(1, XDATA, add(CFA_XSP16, literal(-7)))
        CFI (cfiCond82) R7 load(1, XDATA, add(CFA_XSP16, literal(-6)))
        CFI (cfiCond82) ?RET_LOW load(1, XDATA, add(CFA_XSP16, literal(-5)))
        CFI (cfiCond82) ?RET_HIGH load(1, XDATA, add(CFA_XSP16, literal(-4)))
        CFI (cfiCond82) ?BRET_EXT load(1, XDATA, add(CFA_XSP16, literal(-3)))
        CFI (cfiCond82) DPL0 load(1, XDATA, add(CFA_XSP16, literal(-2)))
        CFI (cfiCond82) DPH0 load(1, XDATA, add(CFA_XSP16, literal(-1)))
        CFI (cfiCond82) CFA_SP SP+0
        CFI (cfiCond82) CFA_XSP16 add(XSP16, 34)
        CFI Block cfiPicker83 Using cfiCommon1
        CFI (cfiPicker83) NoFunction
        CFI (cfiPicker83) Picker
        MOV     A,R6
        ADD     A,#0x2
        INC     R6
        INC     R6
        MOV     A,R7
        ADDC    A,#0x0
        MOV     R7,A
        RET
        CFI EndBlock cfiCond80
        CFI EndBlock cfiCond81
        CFI EndBlock cfiCond82
        CFI EndBlock cfiPicker83

        RSEG BANKED_CODE:CODE:NOROOT(0)
?Subroutine6:
        CFI Block cfiCond84 Using cfiCommon0
        CFI NoFunction
        CFI Conditional ??CrossCallReturnLabel_92
        CFI R6 load(1, XDATA, add(CFA_XSP16, literal(-22)))
        CFI VB load(1, XDATA, add(CFA_XSP16, literal(-21)))
        CFI V0 load(1, XDATA, add(CFA_XSP16, literal(-20)))
        CFI V1 load(1, XDATA, add(CFA_XSP16, literal(-19)))
        CFI V2 load(1, XDATA, add(CFA_XSP16, literal(-18)))
        CFI V3 load(1, XDATA, add(CFA_XSP16, literal(-17)))
        CFI V4 load(1, XDATA, add(CFA_XSP16, literal(-16)))
        CFI V5 load(1, XDATA, add(CFA_XSP16, literal(-15)))
        CFI V6 load(1, XDATA, add(CFA_XSP16, literal(-14)))
        CFI V7 load(1, XDATA, add(CFA_XSP16, literal(-13)))
        CFI V8 load(1, XDATA, add(CFA_XSP16, literal(-12)))
        CFI V9 load(1, XDATA, add(CFA_XSP16, literal(-11)))
        CFI V10 load(1, XDATA, add(CFA_XSP16, literal(-10)))
        CFI V11 load(1, XDATA, add(CFA_XSP16, literal(-9)))
        CFI V12 load(1, XDATA, add(CFA_XSP16, literal(-8)))
        CFI V13 load(1, XDATA, add(CFA_XSP16, literal(-7)))
        CFI R7 load(1, XDATA, add(CFA_XSP16, literal(-6)))
        CFI ?RET_LOW load(1, XDATA, add(CFA_XSP16, literal(-5)))
        CFI ?RET_HIGH load(1, XDATA, add(CFA_XSP16, literal(-4)))
        CFI ?BRET_EXT load(1, XDATA, add(CFA_XSP16, literal(-3)))
        CFI DPL0 load(1, XDATA, add(CFA_XSP16, literal(-2)))
        CFI DPH0 load(1, XDATA, add(CFA_XSP16, literal(-1)))
        CFI CFA_SP SP+0
        CFI CFA_XSP16 add(XSP16, 36)
        CFI Block cfiCond85 Using cfiCommon0
        CFI (cfiCond85) NoFunction
        CFI (cfiCond85) Conditional ??CrossCallReturnLabel_93
        CFI (cfiCond85) R6 load(1, XDATA, add(CFA_XSP16, literal(-22)))
        CFI (cfiCond85) VB load(1, XDATA, add(CFA_XSP16, literal(-21)))
        CFI (cfiCond85) V0 load(1, XDATA, add(CFA_XSP16, literal(-20)))
        CFI (cfiCond85) V1 load(1, XDATA, add(CFA_XSP16, literal(-19)))
        CFI (cfiCond85) V2 load(1, XDATA, add(CFA_XSP16, literal(-18)))
        CFI (cfiCond85) V3 load(1, XDATA, add(CFA_XSP16, literal(-17)))
        CFI (cfiCond85) V4 load(1, XDATA, add(CFA_XSP16, literal(-16)))
        CFI (cfiCond85) V5 load(1, XDATA, add(CFA_XSP16, literal(-15)))
        CFI (cfiCond85) V6 load(1, XDATA, add(CFA_XSP16, literal(-14)))
        CFI (cfiCond85) V7 load(1, XDATA, add(CFA_XSP16, literal(-13)))
        CFI (cfiCond85) V8 load(1, XDATA, add(CFA_XSP16, literal(-12)))
        CFI (cfiCond85) V9 load(1, XDATA, add(CFA_XSP16, literal(-11)))
        CFI (cfiCond85) V10 load(1, XDATA, add(CFA_XSP16, literal(-10)))
        CFI (cfiCond85) V11 load(1, XDATA, add(CFA_XSP16, literal(-9)))
        CFI (cfiCond85) V12 load(1, XDATA, add(CFA_XSP16, literal(-8)))
        CFI (cfiCond85) V13 load(1, XDATA, add(CFA_XSP16, literal(-7)))
        CFI (cfiCond85) R7 load(1, XDATA, add(CFA_XSP16, literal(-6)))
        CFI (cfiCond85) ?RET_LOW load(1, XDATA, add(CFA_XSP16, literal(-5)))
        CFI (cfiCond85) ?RET_HIGH load(1, XDATA, add(CFA_XSP16, literal(-4)))
        CFI (cfiCond85) ?BRET_EXT load(1, XDATA, add(CFA_XSP16, literal(-3)))
        CFI (cfiCond85) DPL0 load(1, XDATA, add(CFA_XSP16, literal(-2)))
        CFI (cfiCond85) DPH0 load(1, XDATA, add(CFA_XSP16, literal(-1)))
        CFI (cfiCond85) CFA_SP SP+0
        CFI (cfiCond85) CFA_XSP16 add(XSP16, 36)
        CFI Block cfiPicker86 Using cfiCommon1
        CFI (cfiPicker86) NoFunction
        CFI (cfiPicker86) Picker
        MOV     DPL,?V0 + 4
        MOV     DPH,?V0 + 5
        INC     DPTR
        MOV     ?V0 + 4,DPL
        MOV     ?V0 + 5,DPH
        CFI EndBlock cfiCond84
        CFI EndBlock cfiCond85
        CFI EndBlock cfiPicker86
        REQUIRE ??Subroutine50_0
        ; // Fall through to label ??Subroutine50_0

        RSEG BANKED_CODE:CODE:NOROOT(0)
??Subroutine50_0:
        CFI Block cfiCond87 Using cfiCommon0
        CFI NoFunction
        CFI Conditional ??CrossCallReturnLabel_94
        CFI R6 load(1, XDATA, add(CFA_XSP16, literal(-22)))
        CFI VB load(1, XDATA, add(CFA_XSP16, literal(-21)))
        CFI V0 load(1, XDATA, add(CFA_XSP16, literal(-20)))
        CFI V1 load(1, XDATA, add(CFA_XSP16, literal(-19)))
        CFI V2 load(1, XDATA, add(CFA_XSP16, literal(-18)))
        CFI V3 load(1, XDATA, add(CFA_XSP16, literal(-17)))
        CFI V4 load(1, XDATA, add(CFA_XSP16, literal(-16)))
        CFI V5 load(1, XDATA, add(CFA_XSP16, literal(-15)))
        CFI V6 load(1, XDATA, add(CFA_XSP16, literal(-14)))
        CFI V7 load(1, XDATA, add(CFA_XSP16, literal(-13)))
        CFI V8 load(1, XDATA, add(CFA_XSP16, literal(-12)))
        CFI V9 load(1, XDATA, add(CFA_XSP16, literal(-11)))
        CFI V10 load(1, XDATA, add(CFA_XSP16, literal(-10)))
        CFI V11 load(1, XDATA, add(CFA_XSP16, literal(-9)))
        CFI V12 load(1, XDATA, add(CFA_XSP16, literal(-8)))
        CFI V13 load(1, XDATA, add(CFA_XSP16, literal(-7)))
        CFI R7 load(1, XDATA, add(CFA_XSP16, literal(-6)))
        CFI ?RET_LOW load(1, XDATA, add(CFA_XSP16, literal(-5)))
        CFI ?RET_HIGH load(1, XDATA, add(CFA_XSP16, literal(-4)))
        CFI ?BRET_EXT load(1, XDATA, add(CFA_XSP16, literal(-3)))
        CFI DPL0 load(1, XDATA, add(CFA_XSP16, literal(-2)))
        CFI DPH0 load(1, XDATA, add(CFA_XSP16, literal(-1)))
        CFI CFA_SP SP+0
        CFI CFA_XSP16 add(XSP16, 36)
        CFI Block cfiCond88 Using cfiCommon0
        CFI (cfiCond88) NoFunction
        CFI (cfiCond88) Conditional ??CrossCallReturnLabel_95
        CFI (cfiCond88) R6 load(1, XDATA, add(CFA_XSP16, literal(-20)))
        CFI (cfiCond88) VB load(1, XDATA, add(CFA_XSP16, literal(-19)))
        CFI (cfiCond88) V0 load(1, XDATA, add(CFA_XSP16, literal(-18)))
        CFI (cfiCond88) V1 load(1, XDATA, add(CFA_XSP16, literal(-17)))
        CFI (cfiCond88) V2 load(1, XDATA, add(CFA_XSP16, literal(-16)))
        CFI (cfiCond88) V3 load(1, XDATA, add(CFA_XSP16, literal(-15)))
        CFI (cfiCond88) V4 load(1, XDATA, add(CFA_XSP16, literal(-14)))
        CFI (cfiCond88) V5 load(1, XDATA, add(CFA_XSP16, literal(-13)))
        CFI (cfiCond88) V6 load(1, XDATA, add(CFA_XSP16, literal(-12)))
        CFI (cfiCond88) V7 load(1, XDATA, add(CFA_XSP16, literal(-11)))
        CFI (cfiCond88) V8 load(1, XDATA, add(CFA_XSP16, literal(-10)))
        CFI (cfiCond88) V9 load(1, XDATA, add(CFA_XSP16, literal(-9)))
        CFI (cfiCond88) V10 load(1, XDATA, add(CFA_XSP16, literal(-8)))
        CFI (cfiCond88) V11 load(1, XDATA, add(CFA_XSP16, literal(-7)))
        CFI (cfiCond88) R7 load(1, XDATA, add(CFA_XSP16, literal(-6)))
        CFI (cfiCond88) ?RET_LOW load(1, XDATA, add(CFA_XSP16, literal(-5)))
        CFI (cfiCond88) ?RET_HIGH load(1, XDATA, add(CFA_XSP16, literal(-4)))
        CFI (cfiCond88) ?BRET_EXT load(1, XDATA, add(CFA_XSP16, literal(-3)))
        CFI (cfiCond88) DPL0 load(1, XDATA, add(CFA_XSP16, literal(-2)))
        CFI (cfiCond88) DPH0 load(1, XDATA, add(CFA_XSP16, literal(-1)))
        CFI (cfiCond88) CFA_SP SP+0
        CFI (cfiCond88) CFA_XSP16 add(XSP16, 34)
        CFI Block cfiCond89 Using cfiCommon0
        CFI (cfiCond89) NoFunction
        CFI (cfiCond89) Conditional ??CrossCallReturnLabel_96
        CFI (cfiCond89) R6 load(1, XDATA, add(CFA_XSP16, literal(-21)))
        CFI (cfiCond89) VB load(1, XDATA, add(CFA_XSP16, literal(-20)))
        CFI (cfiCond89) V0 load(1, XDATA, add(CFA_XSP16, literal(-19)))
        CFI (cfiCond89) V1 load(1, XDATA, add(CFA_XSP16, literal(-18)))
        CFI (cfiCond89) V2 load(1, XDATA, add(CFA_XSP16, literal(-17)))
        CFI (cfiCond89) V3 load(1, XDATA, add(CFA_XSP16, literal(-16)))
        CFI (cfiCond89) V4 load(1, XDATA, add(CFA_XSP16, literal(-15)))
        CFI (cfiCond89) V5 load(1, XDATA, add(CFA_XSP16, literal(-14)))
        CFI (cfiCond89) V6 load(1, XDATA, add(CFA_XSP16, literal(-13)))
        CFI (cfiCond89) V7 load(1, XDATA, add(CFA_XSP16, literal(-12)))
        CFI (cfiCond89) V8 load(1, XDATA, add(CFA_XSP16, literal(-11)))
        CFI (cfiCond89) V9 load(1, XDATA, add(CFA_XSP16, literal(-10)))
        CFI (cfiCond89) V10 load(1, XDATA, add(CFA_XSP16, literal(-9)))
        CFI (cfiCond89) V11 load(1, XDATA, add(CFA_XSP16, literal(-8)))
        CFI (cfiCond89) V12 load(1, XDATA, add(CFA_XSP16, literal(-7)))
        CFI (cfiCond89) R7 load(1, XDATA, add(CFA_XSP16, literal(-6)))
        CFI (cfiCond89) ?RET_LOW load(1, XDATA, add(CFA_XSP16, literal(-5)))
        CFI (cfiCond89) ?RET_HIGH load(1, XDATA, add(CFA_XSP16, literal(-4)))
        CFI (cfiCond89) ?BRET_EXT load(1, XDATA, add(CFA_XSP16, literal(-3)))
        CFI (cfiCond89) DPL0 load(1, XDATA, add(CFA_XSP16, literal(-2)))
        CFI (cfiCond89) DPH0 load(1, XDATA, add(CFA_XSP16, literal(-1)))
        CFI (cfiCond89) CFA_SP SP+0
        CFI (cfiCond89) CFA_XSP16 add(XSP16, 21)
        CFI Block cfiCond90 Using cfiCommon0
        CFI (cfiCond90) NoFunction
        CFI (cfiCond90) Conditional ??CrossCallReturnLabel_92
        CFI (cfiCond90) R6 load(1, XDATA, add(CFA_XSP16, literal(-22)))
        CFI (cfiCond90) VB load(1, XDATA, add(CFA_XSP16, literal(-21)))
        CFI (cfiCond90) V0 load(1, XDATA, add(CFA_XSP16, literal(-20)))
        CFI (cfiCond90) V1 load(1, XDATA, add(CFA_XSP16, literal(-19)))
        CFI (cfiCond90) V2 load(1, XDATA, add(CFA_XSP16, literal(-18)))
        CFI (cfiCond90) V3 load(1, XDATA, add(CFA_XSP16, literal(-17)))
        CFI (cfiCond90) V4 load(1, XDATA, add(CFA_XSP16, literal(-16)))
        CFI (cfiCond90) V5 load(1, XDATA, add(CFA_XSP16, literal(-15)))
        CFI (cfiCond90) V6 load(1, XDATA, add(CFA_XSP16, literal(-14)))
        CFI (cfiCond90) V7 load(1, XDATA, add(CFA_XSP16, literal(-13)))
        CFI (cfiCond90) V8 load(1, XDATA, add(CFA_XSP16, literal(-12)))
        CFI (cfiCond90) V9 load(1, XDATA, add(CFA_XSP16, literal(-11)))
        CFI (cfiCond90) V10 load(1, XDATA, add(CFA_XSP16, literal(-10)))
        CFI (cfiCond90) V11 load(1, XDATA, add(CFA_XSP16, literal(-9)))
        CFI (cfiCond90) V12 load(1, XDATA, add(CFA_XSP16, literal(-8)))
        CFI (cfiCond90) V13 load(1, XDATA, add(CFA_XSP16, literal(-7)))
        CFI (cfiCond90) R7 load(1, XDATA, add(CFA_XSP16, literal(-6)))
        CFI (cfiCond90) ?RET_LOW load(1, XDATA, add(CFA_XSP16, literal(-5)))
        CFI (cfiCond90) ?RET_HIGH load(1, XDATA, add(CFA_XSP16, literal(-4)))
        CFI (cfiCond90) ?BRET_EXT load(1, XDATA, add(CFA_XSP16, literal(-3)))
        CFI (cfiCond90) DPL0 load(1, XDATA, add(CFA_XSP16, literal(-2)))
        CFI (cfiCond90) DPH0 load(1, XDATA, add(CFA_XSP16, literal(-1)))
        CFI (cfiCond90) CFA_SP SP+0
        CFI (cfiCond90) CFA_XSP16 add(XSP16, 36)
        CFI Block cfiCond91 Using cfiCommon0
        CFI (cfiCond91) NoFunction
        CFI (cfiCond91) Conditional ??CrossCallReturnLabel_93
        CFI (cfiCond91) R6 load(1, XDATA, add(CFA_XSP16, literal(-22)))
        CFI (cfiCond91) VB load(1, XDATA, add(CFA_XSP16, literal(-21)))
        CFI (cfiCond91) V0 load(1, XDATA, add(CFA_XSP16, literal(-20)))
        CFI (cfiCond91) V1 load(1, XDATA, add(CFA_XSP16, literal(-19)))
        CFI (cfiCond91) V2 load(1, XDATA, add(CFA_XSP16, literal(-18)))
        CFI (cfiCond91) V3 load(1, XDATA, add(CFA_XSP16, literal(-17)))
        CFI (cfiCond91) V4 load(1, XDATA, add(CFA_XSP16, literal(-16)))
        CFI (cfiCond91) V5 load(1, XDATA, add(CFA_XSP16, literal(-15)))
        CFI (cfiCond91) V6 load(1, XDATA, add(CFA_XSP16, literal(-14)))
        CFI (cfiCond91) V7 load(1, XDATA, add(CFA_XSP16, literal(-13)))
        CFI (cfiCond91) V8 load(1, XDATA, add(CFA_XSP16, literal(-12)))
        CFI (cfiCond91) V9 load(1, XDATA, add(CFA_XSP16, literal(-11)))
        CFI (cfiCond91) V10 load(1, XDATA, add(CFA_XSP16, literal(-10)))
        CFI (cfiCond91) V11 load(1, XDATA, add(CFA_XSP16, literal(-9)))
        CFI (cfiCond91) V12 load(1, XDATA, add(CFA_XSP16, literal(-8)))
        CFI (cfiCond91) V13 load(1, XDATA, add(CFA_XSP16, literal(-7)))
        CFI (cfiCond91) R7 load(1, XDATA, add(CFA_XSP16, literal(-6)))
        CFI (cfiCond91) ?RET_LOW load(1, XDATA, add(CFA_XSP16, literal(-5)))
        CFI (cfiCond91) ?RET_HIGH load(1, XDATA, add(CFA_XSP16, literal(-4)))
        CFI (cfiCond91) ?BRET_EXT load(1, XDATA, add(CFA_XSP16, literal(-3)))
        CFI (cfiCond91) DPL0 load(1, XDATA, add(CFA_XSP16, literal(-2)))
        CFI (cfiCond91) DPH0 load(1, XDATA, add(CFA_XSP16, literal(-1)))
        CFI (cfiCond91) CFA_SP SP+0
        CFI (cfiCond91) CFA_XSP16 add(XSP16, 36)
        CFI Block cfiPicker92 Using cfiCommon1
        CFI (cfiPicker92) NoFunction
        CFI (cfiPicker92) Picker
        MOVX    A,@DPTR
        MOV     R2,A
        INC     DPTR
        MOVX    A,@DPTR
        MOV     R1,A
        MOV     A,R2
        RET
        CFI EndBlock cfiCond87
        CFI EndBlock cfiCond88
        CFI EndBlock cfiCond89
        CFI EndBlock cfiCond90
        CFI EndBlock cfiCond91
        CFI EndBlock cfiPicker92

        RSEG BANKED_CODE:CODE:NOROOT(0)
?Subroutine5:
        CFI Block cfiCond93 Using cfiCommon0
        CFI NoFunction
        CFI Conditional ??CrossCallReturnLabel_2
        CFI R6 load(1, XDATA, add(CFA_XSP16, literal(-22)))
        CFI VB load(1, XDATA, add(CFA_XSP16, literal(-21)))
        CFI V0 load(1, XDATA, add(CFA_XSP16, literal(-20)))
        CFI V1 load(1, XDATA, add(CFA_XSP16, literal(-19)))
        CFI V2 load(1, XDATA, add(CFA_XSP16, literal(-18)))
        CFI V3 load(1, XDATA, add(CFA_XSP16, literal(-17)))
        CFI V4 load(1, XDATA, add(CFA_XSP16, literal(-16)))
        CFI V5 load(1, XDATA, add(CFA_XSP16, literal(-15)))
        CFI V6 load(1, XDATA, add(CFA_XSP16, literal(-14)))
        CFI V7 load(1, XDATA, add(CFA_XSP16, literal(-13)))
        CFI V8 load(1, XDATA, add(CFA_XSP16, literal(-12)))
        CFI V9 load(1, XDATA, add(CFA_XSP16, literal(-11)))
        CFI V10 load(1, XDATA, add(CFA_XSP16, literal(-10)))
        CFI V11 load(1, XDATA, add(CFA_XSP16, literal(-9)))
        CFI V12 load(1, XDATA, add(CFA_XSP16, literal(-8)))
        CFI V13 load(1, XDATA, add(CFA_XSP16, literal(-7)))
        CFI R7 load(1, XDATA, add(CFA_XSP16, literal(-6)))
        CFI ?RET_LOW load(1, XDATA, add(CFA_XSP16, literal(-5)))
        CFI ?RET_HIGH load(1, XDATA, add(CFA_XSP16, literal(-4)))
        CFI ?BRET_EXT load(1, XDATA, add(CFA_XSP16, literal(-3)))
        CFI DPL0 load(1, XDATA, add(CFA_XSP16, literal(-2)))
        CFI DPH0 load(1, XDATA, add(CFA_XSP16, literal(-1)))
        CFI CFA_SP SP+0
        CFI CFA_XSP16 add(XSP16, 36)
        CFI Block cfiCond94 Using cfiCommon0
        CFI (cfiCond94) NoFunction
        CFI (cfiCond94) Conditional ??CrossCallReturnLabel_3
        CFI (cfiCond94) R6 load(1, XDATA, add(CFA_XSP16, literal(-22)))
        CFI (cfiCond94) VB load(1, XDATA, add(CFA_XSP16, literal(-21)))
        CFI (cfiCond94) V0 load(1, XDATA, add(CFA_XSP16, literal(-20)))
        CFI (cfiCond94) V1 load(1, XDATA, add(CFA_XSP16, literal(-19)))
        CFI (cfiCond94) V2 load(1, XDATA, add(CFA_XSP16, literal(-18)))
        CFI (cfiCond94) V3 load(1, XDATA, add(CFA_XSP16, literal(-17)))
        CFI (cfiCond94) V4 load(1, XDATA, add(CFA_XSP16, literal(-16)))
        CFI (cfiCond94) V5 load(1, XDATA, add(CFA_XSP16, literal(-15)))
        CFI (cfiCond94) V6 load(1, XDATA, add(CFA_XSP16, literal(-14)))
        CFI (cfiCond94) V7 load(1, XDATA, add(CFA_XSP16, literal(-13)))
        CFI (cfiCond94) V8 load(1, XDATA, add(CFA_XSP16, literal(-12)))
        CFI (cfiCond94) V9 load(1, XDATA, add(CFA_XSP16, literal(-11)))
        CFI (cfiCond94) V10 load(1, XDATA, add(CFA_XSP16, literal(-10)))
        CFI (cfiCond94) V11 load(1, XDATA, add(CFA_XSP16, literal(-9)))
        CFI (cfiCond94) V12 load(1, XDATA, add(CFA_XSP16, literal(-8)))
        CFI (cfiCond94) V13 load(1, XDATA, add(CFA_XSP16, literal(-7)))
        CFI (cfiCond94) R7 load(1, XDATA, add(CFA_XSP16, literal(-6)))
        CFI (cfiCond94) ?RET_LOW load(1, XDATA, add(CFA_XSP16, literal(-5)))
        CFI (cfiCond94) ?RET_HIGH load(1, XDATA, add(CFA_XSP16, literal(-4)))
        CFI (cfiCond94) ?BRET_EXT load(1, XDATA, add(CFA_XSP16, literal(-3)))
        CFI (cfiCond94) DPL0 load(1, XDATA, add(CFA_XSP16, literal(-2)))
        CFI (cfiCond94) DPH0 load(1, XDATA, add(CFA_XSP16, literal(-1)))
        CFI (cfiCond94) CFA_SP SP+0
        CFI (cfiCond94) CFA_XSP16 add(XSP16, 36)
        CFI Block cfiCond95 Using cfiCommon0
        CFI (cfiCond95) NoFunction
        CFI (cfiCond95) Conditional ??CrossCallReturnLabel_4
        CFI (cfiCond95) R6 load(1, XDATA, add(CFA_XSP16, literal(-20)))
        CFI (cfiCond95) VB load(1, XDATA, add(CFA_XSP16, literal(-19)))
        CFI (cfiCond95) V0 load(1, XDATA, add(CFA_XSP16, literal(-18)))
        CFI (cfiCond95) V1 load(1, XDATA, add(CFA_XSP16, literal(-17)))
        CFI (cfiCond95) V2 load(1, XDATA, add(CFA_XSP16, literal(-16)))
        CFI (cfiCond95) V3 load(1, XDATA, add(CFA_XSP16, literal(-15)))
        CFI (cfiCond95) V4 load(1, XDATA, add(CFA_XSP16, literal(-14)))
        CFI (cfiCond95) V5 load(1, XDATA, add(CFA_XSP16, literal(-13)))
        CFI (cfiCond95) V6 load(1, XDATA, add(CFA_XSP16, literal(-12)))
        CFI (cfiCond95) V7 load(1, XDATA, add(CFA_XSP16, literal(-11)))
        CFI (cfiCond95) V8 load(1, XDATA, add(CFA_XSP16, literal(-10)))
        CFI (cfiCond95) V9 load(1, XDATA, add(CFA_XSP16, literal(-9)))
        CFI (cfiCond95) V10 load(1, XDATA, add(CFA_XSP16, literal(-8)))
        CFI (cfiCond95) V11 load(1, XDATA, add(CFA_XSP16, literal(-7)))
        CFI (cfiCond95) R7 load(1, XDATA, add(CFA_XSP16, literal(-6)))
        CFI (cfiCond95) ?RET_LOW load(1, XDATA, add(CFA_XSP16, literal(-5)))
        CFI (cfiCond95) ?RET_HIGH load(1, XDATA, add(CFA_XSP16, literal(-4)))
        CFI (cfiCond95) ?BRET_EXT load(1, XDATA, add(CFA_XSP16, literal(-3)))
        CFI (cfiCond95) DPL0 load(1, XDATA, add(CFA_XSP16, literal(-2)))
        CFI (cfiCond95) DPH0 load(1, XDATA, add(CFA_XSP16, literal(-1)))
        CFI (cfiCond95) CFA_SP SP+0
        CFI (cfiCond95) CFA_XSP16 add(XSP16, 34)
        CFI Block cfiPicker96 Using cfiCommon1
        CFI (cfiPicker96) NoFunction
        CFI (cfiPicker96) Picker
        MOVX    A,@DPTR
        MOV     R2,A
        INC     DPTR
        MOVX    A,@DPTR
        MOV     R1,A
        MOV     A,R2
        MOV     R0,A
        MOV     A,#0x2
        RET
        CFI EndBlock cfiCond93
        CFI EndBlock cfiCond94
        CFI EndBlock cfiCond95
        CFI EndBlock cfiPicker96
//  531 #endif
//  532 
//  533 #if defined INTER_PAN
//  534 /***************************************************************************************************
//  535  * @fn      MT_AfInterPanCtl
//  536  *
//  537  * @brief   Process the AF Inter Pan control command.
//  538  *
//  539  * @param   pBuf - pointer to the received buffer
//  540  *
//  541  * @return  none
//  542  ***************************************************************************************************/
//  543 static void MT_AfInterPanCtl(uint8 *pBuf)
//  544 {
//  545   uint8 cmd, rtrn;
//  546   uint16 panId;
//  547   endPointDesc_t *pEP;
//  548   
//  549   cmd = pBuf[MT_RPC_POS_CMD1];
//  550   pBuf += MT_RPC_FRAME_HDR_SZ;
//  551 
//  552   switch (*pBuf++)  // Inter-pan request parameter.
//  553   {
//  554   case InterPanClr:
//  555     rtrn = StubAPS_SetIntraPanChannel();           // Switch channel back to the NIB channel.
//  556     break;
//  557 
//  558   case InterPanSet:
//  559     rtrn = StubAPS_SetInterPanChannel(*pBuf);      // Set channel for inter-pan communication.
//  560     break;
//  561 
//  562   case InterPanReg:
//  563     if ((pEP = afFindEndPointDesc(*pBuf)))
//  564     {
//  565       StubAPS_RegisterApp(pEP);
//  566       rtrn = SUCCESS;
//  567     }
//  568     else
//  569     {
//  570       rtrn = FAILURE;
//  571     }
//  572     break;
//  573 
//  574   case InterPanChk:
//  575     panId = BUILD_UINT16(pBuf[0], pBuf[1]);
//  576     rtrn = (StubAPS_InterPan(panId, pBuf[2])) ? ZSuccess : ZFailure;
//  577     break;
//  578 
//  579   default:
//  580     rtrn = afStatus_INVALID_PARAMETER;
//  581     break;
//  582   }
//  583 
//  584   MT_BuildAndSendZToolResponse(((uint8)MT_RPC_CMD_SRSP | (uint8)MT_RPC_SYS_AF), cmd, 1, &rtrn);
//  585 }
//  586 #endif
//  587 
//  588 /***************************************************************************************************
//  589  * @fn      MT_AfDataConfirm
//  590  *
//  591  * @brief   Process
//  592  *
//  593  * @param   pBuf - pointer to the received buffer
//  594  *
//  595  * @return  none
//  596  ***************************************************************************************************/

        RSEG BANKED_CODE:CODE:NOROOT(0)
//  597 void MT_AfDataConfirm(afDataConfirm_t *pMsg)
MT_AfDataConfirm:
        CFI Block cfiBlock97 Using cfiCommon0
        CFI Function MT_AfDataConfirm
//  598 {
        FUNCALL MT_AfDataConfirm, MT_BuildAndSendZToolResponse
        LOCFRAME ISTACK, 2, STACK
        LOCFRAME PSTACK, 0, STACK
        LOCFRAME XSTACK, 3, STACK
        LOCFRAME IOVERLAY, 0, STATIC
        LOCFRAME DOVERLAY, 0, STATIC
        ARGFRAME ISTACK, 2, STACK
        ARGFRAME PSTACK, 0, STACK
        ARGFRAME XSTACK, 3, STACK
        ARGFRAME IOVERLAY, 0, STATIC
        ARGFRAME DOVERLAY, 0, STATIC
        PUSH    DPL
        CFI DPL0 Frame(CFA_SP, 4)
        CFI CFA_SP SP+-4
        PUSH    DPH
        CFI DPH0 Frame(CFA_SP, 5)
        CFI CFA_SP SP+-5
        ; Saved register size: 2
        ; Auto size: 3
        MOV     A,#-0x3
        LCALL   ?ALLOC_XSTACK8
        CFI CFA_XSP16 add(XSP16, 3)
//  599   uint8 retArray[3];
//  600 
//  601   retArray[0] = pMsg->hdr.status;
        MOV     DPL,R2
        MOV     DPH,R3
        INC     DPTR
        MOVX    A,@DPTR
        LCALL   ?Subroutine32 & 0xFFFF
//  602   retArray[1] = pMsg->endpoint;
??CrossCallReturnLabel_65:
        PUSH    A
        CFI CFA_SP SP+-6
        MOV     A,#0x1
        LCALL   ?XSTACK_DISP0_8
        POP     A
        CFI CFA_SP SP+-5
        LCALL   ??Subroutine47_0 & 0xFFFF
//  603   retArray[2] = pMsg->transID;
??CrossCallReturnLabel_85:
        INC     DPTR
        INC     DPTR
        MOVX    A,@DPTR
        PUSH    A
        CFI CFA_SP SP+-6
        MOV     A,#0x2
        LCALL   ?XSTACK_DISP0_8
        POP     A
        CFI CFA_SP SP+-5
        LCALL   ?Subroutine28 & 0xFFFF
//  604 
//  605   /* Build and send back the response */
//  606   MT_BuildAndSendZToolResponse(((uint8)MT_RPC_CMD_AREQ | (uint8)MT_RPC_SYS_AF), MT_AF_DATA_CONFIRM, 3, retArray);
??CrossCallReturnLabel_50:
        MOV     R3,#0x3
        MOV     R2,#-0x80
        MOV     R1,#0x44
        LCALL   ??MT_BuildAndSendZToolResponse?relay
//  607 }
        MOV     A,#0x3
        LCALL   ?DEALLOC_XSTACK8
        CFI CFA_XSP16 XSP16+0
        POP     DPH
        CFI DPH0 SameValue
        CFI CFA_SP SP+-4
        POP     DPL
        CFI DPL0 SameValue
        CFI CFA_SP SP+-3
        LJMP    ?BRET
        CFI EndBlock cfiBlock97

        RSEG BANKED_CODE:CODE:NOROOT(0)
?Subroutine32:
        CFI Block cfiCond98 Using cfiCommon0
        CFI NoFunction
        CFI Conditional ??CrossCallReturnLabel_64
        CFI R6 load(1, XDATA, add(CFA_XSP16, literal(-14)))
        CFI VB load(1, XDATA, add(CFA_XSP16, literal(-13)))
        CFI V0 load(1, XDATA, add(CFA_XSP16, literal(-12)))
        CFI V1 load(1, XDATA, add(CFA_XSP16, literal(-11)))
        CFI V2 load(1, XDATA, add(CFA_XSP16, literal(-10)))
        CFI V3 load(1, XDATA, add(CFA_XSP16, literal(-9)))
        CFI V4 load(1, XDATA, add(CFA_XSP16, literal(-8)))
        CFI V5 load(1, XDATA, add(CFA_XSP16, literal(-7)))
        CFI R7 load(1, XDATA, add(CFA_XSP16, literal(-6)))
        CFI ?RET_LOW load(1, XDATA, add(CFA_XSP16, literal(-5)))
        CFI ?RET_HIGH load(1, XDATA, add(CFA_XSP16, literal(-4)))
        CFI ?BRET_EXT load(1, XDATA, add(CFA_XSP16, literal(-3)))
        CFI DPL0 load(1, XDATA, add(CFA_XSP16, literal(-2)))
        CFI DPH0 load(1, XDATA, add(CFA_XSP16, literal(-1)))
        CFI CFA_SP SP+0
        CFI CFA_XSP16 add(XSP16, 15)
        CFI Block cfiCond99 Using cfiCommon0
        CFI (cfiCond99) NoFunction
        CFI (cfiCond99) Conditional ??CrossCallReturnLabel_65
        CFI (cfiCond99) DPL0 Frame(CFA_SP, 4)
        CFI (cfiCond99) DPH0 Frame(CFA_SP, 5)
        CFI (cfiCond99) CFA_SP SP+-5
        CFI (cfiCond99) CFA_XSP16 add(XSP16, 3)
        CFI Block cfiPicker100 Using cfiCommon1
        CFI (cfiPicker100) NoFunction
        CFI (cfiPicker100) Picker
        LCALL   ?Subroutine39 & 0xFFFF
??CrossCallReturnLabel_84:
        INC     DPTR
        MOVX    A,@DPTR
        RET
        CFI EndBlock cfiCond98
        CFI EndBlock cfiCond99
        CFI EndBlock cfiPicker100
//  608 
//  609 /***************************************************************************************************
//  610  * @fn          MT_AfIncomingMsg
//  611  *
//  612  * @brief       Process the callback subscription for AF Incoming data.
//  613  *
//  614  * @param       pkt - Incoming AF data.
//  615  *
//  616  * @return      none
//  617  ***************************************************************************************************/

        RSEG BANKED_CODE:CODE:NOROOT(0)
//  618 void MT_AfIncomingMsg(afIncomingMSGPacket_t *pMsg)
MT_AfIncomingMsg:
        CFI Block cfiBlock101 Using cfiCommon0
        CFI Function MT_AfIncomingMsg
//  619 {
        FUNCALL MT_AfIncomingMsg, osal_mem_alloc
        LOCFRAME ISTACK, 0, STACK
        LOCFRAME PSTACK, 0, STACK
        LOCFRAME XSTACK, 23, STACK
        LOCFRAME IOVERLAY, 0, STATIC
        LOCFRAME DOVERLAY, 0, STATIC
        ARGFRAME ISTACK, 0, STACK
        ARGFRAME PSTACK, 0, STACK
        ARGFRAME XSTACK, 23, STACK
        ARGFRAME IOVERLAY, 0, STATIC
        ARGFRAME DOVERLAY, 0, STATIC
        FUNCALL MT_AfIncomingMsg, osal_mem_alloc
        LOCFRAME ISTACK, 0, STACK
        LOCFRAME PSTACK, 0, STACK
        LOCFRAME XSTACK, 23, STACK
        LOCFRAME IOVERLAY, 0, STATIC
        LOCFRAME DOVERLAY, 0, STATIC
        ARGFRAME ISTACK, 0, STACK
        ARGFRAME PSTACK, 0, STACK
        ARGFRAME XSTACK, 23, STACK
        ARGFRAME IOVERLAY, 0, STATIC
        ARGFRAME DOVERLAY, 0, STATIC
        FUNCALL MT_AfIncomingMsg, osal_mem_free
        LOCFRAME ISTACK, 0, STACK
        LOCFRAME PSTACK, 0, STACK
        LOCFRAME XSTACK, 23, STACK
        LOCFRAME IOVERLAY, 0, STATIC
        LOCFRAME DOVERLAY, 0, STATIC
        ARGFRAME ISTACK, 0, STACK
        ARGFRAME PSTACK, 0, STACK
        ARGFRAME XSTACK, 23, STACK
        ARGFRAME IOVERLAY, 0, STATIC
        ARGFRAME DOVERLAY, 0, STATIC
        FUNCALL MT_AfIncomingMsg, osal_memcpy
        LOCFRAME ISTACK, 0, STACK
        LOCFRAME PSTACK, 0, STACK
        LOCFRAME XSTACK, 26, STACK
        LOCFRAME IOVERLAY, 0, STATIC
        LOCFRAME DOVERLAY, 0, STATIC
        ARGFRAME ISTACK, 0, STACK
        ARGFRAME PSTACK, 0, STACK
        ARGFRAME XSTACK, 26, STACK
        ARGFRAME IOVERLAY, 0, STATIC
        ARGFRAME DOVERLAY, 0, STATIC
        FUNCALL MT_AfIncomingMsg, osal_start_timerEx
        LOCFRAME ISTACK, 0, STACK
        LOCFRAME PSTACK, 0, STACK
        LOCFRAME XSTACK, 23, STACK
        LOCFRAME IOVERLAY, 0, STATIC
        LOCFRAME DOVERLAY, 0, STATIC
        ARGFRAME ISTACK, 0, STACK
        ARGFRAME PSTACK, 0, STACK
        ARGFRAME XSTACK, 23, STACK
        ARGFRAME IOVERLAY, 0, STATIC
        ARGFRAME DOVERLAY, 0, STATIC
        FUNCALL MT_AfIncomingMsg, osal_set_event
        LOCFRAME ISTACK, 0, STACK
        LOCFRAME PSTACK, 0, STACK
        LOCFRAME XSTACK, 23, STACK
        LOCFRAME IOVERLAY, 0, STATIC
        LOCFRAME DOVERLAY, 0, STATIC
        ARGFRAME ISTACK, 0, STACK
        ARGFRAME PSTACK, 0, STACK
        ARGFRAME XSTACK, 23, STACK
        ARGFRAME IOVERLAY, 0, STATIC
        ARGFRAME DOVERLAY, 0, STATIC
        FUNCALL MT_AfIncomingMsg, osal_memcpy
        LOCFRAME ISTACK, 0, STACK
        LOCFRAME PSTACK, 0, STACK
        LOCFRAME XSTACK, 26, STACK
        LOCFRAME IOVERLAY, 0, STATIC
        LOCFRAME DOVERLAY, 0, STATIC
        ARGFRAME ISTACK, 0, STACK
        ARGFRAME PSTACK, 0, STACK
        ARGFRAME XSTACK, 26, STACK
        ARGFRAME IOVERLAY, 0, STATIC
        ARGFRAME DOVERLAY, 0, STATIC
        FUNCALL MT_AfIncomingMsg, osal_memcpy
        LOCFRAME ISTACK, 0, STACK
        LOCFRAME PSTACK, 0, STACK
        LOCFRAME XSTACK, 26, STACK
        LOCFRAME IOVERLAY, 0, STATIC
        LOCFRAME DOVERLAY, 0, STATIC
        ARGFRAME ISTACK, 0, STACK
        ARGFRAME PSTACK, 0, STACK
        ARGFRAME XSTACK, 26, STACK
        ARGFRAME IOVERLAY, 0, STATIC
        ARGFRAME DOVERLAY, 0, STATIC
        FUNCALL MT_AfIncomingMsg, MT_BuildAndSendZToolResponse
        LOCFRAME ISTACK, 0, STACK
        LOCFRAME PSTACK, 0, STACK
        LOCFRAME XSTACK, 23, STACK
        LOCFRAME IOVERLAY, 0, STATIC
        LOCFRAME DOVERLAY, 0, STATIC
        ARGFRAME ISTACK, 0, STACK
        ARGFRAME PSTACK, 0, STACK
        ARGFRAME XSTACK, 23, STACK
        ARGFRAME IOVERLAY, 0, STATIC
        ARGFRAME DOVERLAY, 0, STATIC
        FUNCALL MT_AfIncomingMsg, osal_mem_free
        LOCFRAME ISTACK, 0, STACK
        LOCFRAME PSTACK, 0, STACK
        LOCFRAME XSTACK, 23, STACK
        LOCFRAME IOVERLAY, 0, STATIC
        LOCFRAME DOVERLAY, 0, STATIC
        ARGFRAME ISTACK, 0, STACK
        ARGFRAME PSTACK, 0, STACK
        ARGFRAME XSTACK, 23, STACK
        ARGFRAME IOVERLAY, 0, STATIC
        ARGFRAME DOVERLAY, 0, STATIC
        MOV     A,#-0x17
        LCALL   ?BANKED_ENTER_XDATA
        CFI DPH0 load(1, XDATA, add(CFA_XSP16, literal(-1)))
        CFI DPL0 load(1, XDATA, add(CFA_XSP16, literal(-2)))
        CFI ?BRET_EXT load(1, XDATA, add(CFA_XSP16, literal(-3)))
        CFI ?RET_HIGH load(1, XDATA, add(CFA_XSP16, literal(-4)))
        CFI ?RET_LOW load(1, XDATA, add(CFA_XSP16, literal(-5)))
        CFI R7 load(1, XDATA, add(CFA_XSP16, literal(-6)))
        CFI V14 load(1, XDATA, add(CFA_XSP16, literal(-7)))
        CFI V13 load(1, XDATA, add(CFA_XSP16, literal(-8)))
        CFI V12 load(1, XDATA, add(CFA_XSP16, literal(-9)))
        CFI V11 load(1, XDATA, add(CFA_XSP16, literal(-10)))
        CFI V10 load(1, XDATA, add(CFA_XSP16, literal(-11)))
        CFI V9 load(1, XDATA, add(CFA_XSP16, literal(-12)))
        CFI V8 load(1, XDATA, add(CFA_XSP16, literal(-13)))
        CFI V7 load(1, XDATA, add(CFA_XSP16, literal(-14)))
        CFI V6 load(1, XDATA, add(CFA_XSP16, literal(-15)))
        CFI V5 load(1, XDATA, add(CFA_XSP16, literal(-16)))
        CFI V4 load(1, XDATA, add(CFA_XSP16, literal(-17)))
        CFI V3 load(1, XDATA, add(CFA_XSP16, literal(-18)))
        CFI V2 load(1, XDATA, add(CFA_XSP16, literal(-19)))
        CFI V1 load(1, XDATA, add(CFA_XSP16, literal(-20)))
        CFI V0 load(1, XDATA, add(CFA_XSP16, literal(-21)))
        CFI VB load(1, XDATA, add(CFA_XSP16, literal(-22)))
        CFI R6 load(1, XDATA, add(CFA_XSP16, literal(-23)))
        CFI CFA_SP SP+0
        CFI CFA_XSP16 add(XSP16, 23)
        ; Saved register size: 23
        ; Auto size: 0
        MOV     ?V0 + 8,R2
        MOV     ?V0 + 9,R3
//  620   #define MT_AF_INC_MSG_LEN  17
//  621   #define MT_AF_INC_MSG_EXT  10
//  622 
//  623   uint16 dataLen = pMsg->cmd.DataLength;  // Length of the data section in the response packet.
        MOV     A,R2
        ADD     A,#0x1f
        LCALL   ?Subroutine38 & 0xFFFF
??CrossCallReturnLabel_77:
        MOV     R6,A
        INC     DPTR
        MOVX    A,@DPTR
        MOV     R7,A
//  624   uint16 respLen = MT_AF_INC_MSG_LEN + dataLen;
        MOV     A,#0x11
        ADD     A,R6
        MOV     ?V0 + 0,A
        CLR     A
        ADDC    A,R7
        MOV     ?V0 + 1,A
//  625   uint8 cmd = MT_AF_INCOMING_MSG;
        MOV     ?V0 + 14,#-0x7f
//  626   uint8 *pRsp, *pTmp;
//  627   mtAfInMsgList_t *pItem = NULL;
        MOV     ?V0 + 10,#0x0
        MOV     ?V0 + 11,#0x0
//  628 
//  629 #if defined INTER_PAN
//  630   if (StubAPS_InterPan(pMsg->srcAddr.panId, pMsg->srcAddr.endPoint))
//  631   {
//  632     cmd = MT_AF_INCOMING_MSG_EXT;
//  633   }
//  634   else
//  635 #endif
//  636   if ((pMsg->srcAddr.addrMode == afAddr64Bit) ||
//  637       (respLen > (uint16)(MT_RPC_DATA_MAX - MT_AF_INC_MSG_EXT)))
        MOV     A,R2
        ADD     A,#0xe
        LCALL   ?Subroutine38 & 0xFFFF
??CrossCallReturnLabel_78:
        XRL     A,#0x3
        JZ      ??MT_AfIncomingMsg_0
        CLR     C
        MOV     A,?V0 + 0
        SUBB    A,#-0xf
        MOV     A,?V0 + 1
        SUBB    A,#0x0
        JC      ??MT_AfIncomingMsg_1
//  638   {
//  639     cmd = MT_AF_INCOMING_MSG_EXT;
??MT_AfIncomingMsg_0:
        MOV     ?V0 + 14,#-0x7e
//  640   }
//  641 
//  642   if (cmd == MT_AF_INCOMING_MSG_EXT)
//  643   {
//  644     respLen += MT_AF_INC_MSG_EXT;
        MOV     A,?V0 + 0
        ADD     A,#0xa
        MOV     ?V0 + 0,A
        MOV     A,?V0 + 1
        ADDC    A,#0x0
        MOV     ?V0 + 1,A
//  645   }
//  646 
//  647   if (respLen > (uint16)MT_RPC_DATA_MAX)
??MT_AfIncomingMsg_1:
        CLR     C
        MOV     A,?V0 + 0
        SUBB    A,#-0x5
        MOV     A,?V0 + 1
        SUBB    A,#0x0
        JC      ??MT_AfIncomingMsg_2
//  648   {
//  649     if ((pItem = (mtAfInMsgList_t *)osal_mem_alloc(sizeof(mtAfInMsgList_t) + dataLen)) == NULL)
        ; Setup parameters for call to function osal_mem_alloc
        MOV     A,#0x9
        LCALL   ?Subroutine35 & 0xFFFF
??CrossCallReturnLabel_69:
        MOV     ?V0 + 10,R2
        MOV     ?V0 + 11,R3
        MOV     A,R2
        JNZ     ??MT_AfIncomingMsg_3
        MOV     A,R3
??MT_AfIncomingMsg_3:
        JNZ     $+5
        LJMP    ??MT_AfIncomingMsg_4 & 0xFFFF
//  650     {
//  651       return;  // If cannot hold a huge message, cannot give indication at all.
//  652     }
//  653 
//  654     pItem->data = (uint8 *)(pItem+1);
        MOV     A,R2
        ADD     A,#0x9
        MOV     R0,A
        MOV     A,R3
        ADDC    A,#0x0
        MOV     R1,A
        MOV     DPL,R2
        MOV     DPH,R3
        INC     DPTR
        INC     DPTR
        LCALL   ?Subroutine31 & 0xFFFF
//  655     respLen -= dataLen;  // Zero data bytes are sent with an over-sized incoming indication.
??CrossCallReturnLabel_61:
        CLR     C
        MOV     A,?V0 + 0
        SUBB    A,R6
        MOV     ?V0 + 0,A
        MOV     A,?V0 + 1
        SUBB    A,R7
        MOV     ?V0 + 1,A
//  656   }
//  657 
//  658   // Attempt to allocate memory for the response packet.
//  659   if ((pRsp = osal_mem_alloc(respLen)) == NULL)
??MT_AfIncomingMsg_2:
        ; Setup parameters for call to function osal_mem_alloc
        MOV     R2,?V0 + 0
        MOV     R3,?V0 + 1
        LCALL   ??osal_mem_alloc?relay
        MOV     ?V0 + 12,R2
        MOV     ?V0 + 13,R3
        MOV     A,R2
        JNZ     ??MT_AfIncomingMsg_5
        MOV     A,R3
??MT_AfIncomingMsg_5:
        JNZ     ??MT_AfIncomingMsg_6
//  660   {
//  661     if (pItem != NULL)
        MOV     A,?V0 + 10
        JNZ     ??MT_AfIncomingMsg_7
        MOV     A,?V0 + 11
??MT_AfIncomingMsg_7:
        JNZ     $+5
        LJMP    ??MT_AfIncomingMsg_4 & 0xFFFF
//  662     {
//  663       (void)osal_mem_free(pItem);
        ; Setup parameters for call to function osal_mem_free
        MOV     R2,?V0 + 10
        MOV     R3,?V0 + 11
        LJMP    ??MT_AfIncomingMsg_8 & 0xFFFF
//  664     }
//  665     return;
//  666   }
//  667   pTmp = pRsp;
//  668 
//  669   /* Group ID */
//  670   *pTmp++ = LO_UINT16(pMsg->groupId);
??MT_AfIncomingMsg_6:
        MOV     A,?V0 + 8
        ADD     A,#0x2
        LCALL   ?Subroutine21 & 0xFFFF
??CrossCallReturnLabel_31:
        MOVX    A,@DPTR
        MOV     DPL,R2
        MOV     DPH,R3
        LCALL   ?Subroutine25 & 0xFFFF
//  671   *pTmp++ = HI_UINT16(pMsg->groupId);
??CrossCallReturnLabel_38:
        MOV     DPL,R0
        MOV     DPH,R1
        INC     DPTR
        LCALL   ??Subroutine53_0 & 0xFFFF
//  672 
//  673   /* Cluster ID */
//  674   *pTmp++ = LO_UINT16(pMsg->clusterId);
??CrossCallReturnLabel_106:
        ADD     A,#0x4
        LCALL   ?Subroutine4 & 0xFFFF
//  675   *pTmp++ = HI_UINT16(pMsg->clusterId);
??CrossCallReturnLabel_0:
        LCALL   ?Subroutine7 & 0xFFFF
//  676 
//  677   if (cmd == MT_AF_INCOMING_MSG_EXT)
??CrossCallReturnLabel_5:
        MOV     A,#-0x7e
        XRL     A,?V0 + 14
        JNZ     ??MT_AfIncomingMsg_9
//  678   {
//  679     *pTmp++ = pMsg->srcAddr.addrMode;
        MOV     A,?V0 + 8
        ADD     A,#0xe
        LCALL   ?Subroutine21 & 0xFFFF
??CrossCallReturnLabel_32:
        LCALL   ?Subroutine7 & 0xFFFF
//  680 
//  681     if (pMsg->srcAddr.addrMode == afAddr64Bit)
??CrossCallReturnLabel_6:
        MOV     DPL,R0
        MOV     DPH,R1
        MOVX    A,@DPTR
        XRL     A,#0x3
        JNZ     ??MT_AfIncomingMsg_10
//  682     {
//  683       (void)osal_memcpy(pTmp, pMsg->srcAddr.addr.extAddr, Z_EXTADDR_LEN);
        ; Setup parameters for call to function osal_memcpy
        MOV     A,?V0 + 8
        ADD     A,#0x6
        MOV     ?V0 + 4,A
        MOV     A,?V0 + 9
        ADDC    A,#0x0
        MOV     ?V0 + 5,A
        MOV     ?V0 + 6,#0x0
        MOV     R0,#?V0 + 4
        LCALL   ?PUSH_XSTACK_I_THREE
        CFI CFA_XSP16 add(XSP16, 26)
        MOV     R4,#0x8
        MOV     R5,#0x0
        MOV     R2,?V0 + 2
        MOV     R3,?V0 + 3
        LCALL   ??Subroutine54_0 & 0xFFFF
//  684     }
??CrossCallReturnLabel_117:
        LCALL   ?DEALLOC_XSTACK8
        CFI CFA_XSP16 add(XSP16, 23)
        SJMP    ??MT_AfIncomingMsg_11
//  685     else
//  686     {
//  687       pTmp[0] = LO_UINT16(pMsg->srcAddr.addr.shortAddr);
??MT_AfIncomingMsg_10:
        MOV     A,?V0 + 8
        ADD     A,#0x6
        LCALL   ?Subroutine21 & 0xFFFF
??CrossCallReturnLabel_33:
        LCALL   ?Subroutine14 & 0xFFFF
??CrossCallReturnLabel_19:
        MOVX    @DPTR,A
//  688       pTmp[1] = HI_UINT16(pMsg->srcAddr.addr.shortAddr);
        MOV     DPL,R0
        MOV     DPH,R1
        INC     DPTR
        LCALL   ?Subroutine14 & 0xFFFF
//  689     }
??CrossCallReturnLabel_20:
        INC     DPTR
        MOVX    @DPTR,A
//  690     pTmp += Z_EXTADDR_LEN;
??MT_AfIncomingMsg_11:
        MOV     A,?V0 + 2
        ADD     A,#0x8
        MOV     ?V0 + 2,A
        MOV     A,?V0 + 3
        ADDC    A,#0x0
        MOV     ?V0 + 3,A
//  691 
//  692     *pTmp++ = pMsg->srcAddr.endPoint;
        MOV     A,?V0 + 8
        ADD     A,#0xf
        LCALL   ?Subroutine13 & 0xFFFF
//  693 #if defined INTER_PAN
//  694     *pTmp++ = LO_UINT16(pMsg->srcAddr.panId);
//  695     *pTmp++ = HI_UINT16(pMsg->srcAddr.panId);
//  696 #else
//  697     *pTmp++ = 0;
??CrossCallReturnLabel_17:
        CLR     A
        MOVX    @DPTR,A
        INC     DPTR
//  698     *pTmp++ = 0;
        SJMP    ??CrossCallReturnLabel_21
//  699 #endif
//  700   }
//  701   else
//  702   {
//  703     /* Source Address */
//  704     *pTmp++ = LO_UINT16(pMsg->srcAddr.addr.shortAddr);
??MT_AfIncomingMsg_9:
        MOV     A,?V0 + 8
        ADD     A,#0x6
        LCALL   ?Subroutine4 & 0xFFFF
//  705     *pTmp++ = HI_UINT16(pMsg->srcAddr.addr.shortAddr);
//  706 
//  707     /* Source EP */
//  708     *pTmp++ = pMsg->srcAddr.endPoint;
//  709   }
??CrossCallReturnLabel_1:
        LCALL   ??Subroutine53_0 & 0xFFFF
??CrossCallReturnLabel_107:
        ADD     A,#0xf
        MOV     DPL,A
        MOV     A,?V0 + 9
        ADDC    A,#0x0
        MOV     DPH,A
        LCALL   ?Subroutine14 & 0xFFFF
??CrossCallReturnLabel_21:
        LCALL   ?Subroutine25 & 0xFFFF
//  710 
//  711   /* Destination EP */
//  712   *pTmp++ = pMsg->endPoint;
??CrossCallReturnLabel_39:
        MOV     A,?V0 + 8
        ADD     A,#0x14
        LCALL   ?Subroutine1 & 0xFFFF
//  713 
//  714   /* WasBroadCast */
//  715   *pTmp++ = pMsg->wasBroadcast;
??CrossCallReturnLabel_102:
        ADD     A,#0x15
        LCALL   ?Subroutine1 & 0xFFFF
//  716 
//  717   /* LinkQuality */
//  718   *pTmp++ = pMsg->LinkQuality;
??CrossCallReturnLabel_103:
        ADD     A,#0x16
        LCALL   ?Subroutine1 & 0xFFFF
//  719 
//  720   /* SecurityUse */
//  721   *pTmp++ = pMsg->SecurityUse;
??CrossCallReturnLabel_104:
        ADD     A,#0x19
        LCALL   ?Subroutine1 & 0xFFFF
//  722 
//  723   /* Timestamp */
//  724   *pTmp++ = BREAK_UINT32(pMsg->timestamp, 0);
??CrossCallReturnLabel_105:
        ADD     A,#0x1a
        MOV     R2,A
        MOV     A,?V0 + 9
        ADDC    A,#0x0
        MOV     R3,A
        MOV     DPL,R2
        MOV     DPH,R3
        MOV     R0,#?V0 + 4
        LCALL   ?L_MOV_X
        LCALL   ?Subroutine24 & 0xFFFF
//  725   *pTmp++ = BREAK_UINT32(pMsg->timestamp, 1);
??CrossCallReturnLabel_97:
        LCALL   ?L_MOV_X
        MOV     A,?V0 + 5
        MOV     DPL,?V0 + 2
        MOV     DPH,?V0 + 3
        LCALL   ??Subroutine51_0 & 0xFFFF
//  726   *pTmp++ = BREAK_UINT32(pMsg->timestamp, 2);
??CrossCallReturnLabel_99:
        LCALL   ?L_MOV_X
        MOV     A,#0x10
        MOV     R0,#?V0 + 4
        LCALL   ?UL_SHR
        LCALL   ?Subroutine24 & 0xFFFF
//  727   *pTmp++ = BREAK_UINT32(pMsg->timestamp, 3);
??CrossCallReturnLabel_98:
        LCALL   ?L_MOV_X
        MOV     A,#0x18
        MOV     R0,#?V0 + 4
        LCALL   ?UL_SHR
        MOV     DPL,?V0 + 2
        MOV     DPH,?V0 + 3
        MOV     A,?V0 + 4
        LCALL   ?Subroutine25 & 0xFFFF
//  728 
//  729 
//  730   /* Data Length */
//  731   if (cmd == MT_AF_INCOMING_MSG_EXT)
??CrossCallReturnLabel_40:
        MOV     A,#-0x7e
        XRL     A,?V0 + 14
        JNZ     ??MT_AfIncomingMsg_12
//  732   {
//  733     /* Z-Tool apparently takes the last Byte before the data buffer as the dynamic length and
//  734      * ignores the bigger UInt16 length of an EXT incoming message. But no data bytes will be sent
//  735      * with a huge message, so it's necessary to work-around and fake-out Z-Tool with a zero here.
//  736      */
//  737     *pTmp++ = 0;  // TODO - workaround Z-Tool shortcoming; should be: = pMsg->cmd.TransSeqNumber;
        CLR     A
        MOVX    @DPTR,A
        INC     DPTR
//  738     *pTmp++ = LO_UINT16(dataLen);
        MOV     A,R6
        MOVX    @DPTR,A
        INC     DPTR
//  739     *pTmp++ = HI_UINT16(dataLen);
        MOV     A,R7
        SJMP    ??MT_AfIncomingMsg_13
//  740   }
//  741   else
//  742   {
//  743     *pTmp++ = pMsg->cmd.TransSeqNumber;
??MT_AfIncomingMsg_12:
        MOV     A,?V0 + 8
        ADD     A,#0x1e
        LCALL   ?Subroutine13 & 0xFFFF
//  744     *pTmp++ = dataLen;
??CrossCallReturnLabel_18:
        MOV     A,R6
//  745   }
??MT_AfIncomingMsg_13:
        LCALL   ?Subroutine25 & 0xFFFF
//  746 
//  747   /* Data */
//  748   if (pItem != NULL)
??CrossCallReturnLabel_41:
        MOV     A,?V0 + 10
        JNZ     ??MT_AfIncomingMsg_14
        MOV     A,?V0 + 11
??MT_AfIncomingMsg_14:
        JZ      ??MT_AfIncomingMsg_15
//  749   {
//  750     // Enqueue the new huge incoming item.
//  751     pItem->next = pMtAfInMsgList;
        LCALL   ?Subroutine16 & 0xFFFF
??CrossCallReturnLabel_122:
        MOV     DPL,?V0 + 10
        MOV     DPH,?V0 + 11
        LCALL   ?Subroutine31 & 0xFFFF
//  752     pMtAfInMsgList = pItem;
??CrossCallReturnLabel_62:
        MOV     DPTR,#pMtAfInMsgList
        MOV     A,?V0 + 10
        MOVX    @DPTR,A
        INC     DPTR
        MOV     A,?V0 + 11
        MOVX    @DPTR,A
//  753 
//  754     // Setup to time-out the huge incoming item if host does not MT_AF_DATA_RETRIEVE it.
//  755     pItem->tick = MT_AF_EXEC_CNT;
        MOV     A,#0xf
        MOV     DPL,?V0 + 10
        MOV     DPH,?V0 + 11
        INC     DPTR
        INC     DPTR
        INC     DPTR
        INC     DPTR
        INC     DPTR
        INC     DPTR
        INC     DPTR
        INC     DPTR
        LCALL   ?Subroutine11 & 0xFFFF
//  756     if (ZSuccess != osal_start_timerEx(MT_TaskID, MT_AF_EXEC_EVT, MT_AF_EXEC_DLY))
??CrossCallReturnLabel_90:
        JZ      ??CrossCallReturnLabel_26
//  757     {
//  758       (void)osal_set_event(MT_TaskID, MT_AF_EXEC_EVT);
        ; Setup parameters for call to function osal_set_event
        LCALL   ?Subroutine17 & 0xFFFF
//  759     }
//  760 
//  761     pItem->timestamp = pMsg->timestamp;
??CrossCallReturnLabel_26:
        MOV     A,?V0 + 8
        ADD     A,#0x1a
        MOV     DPL,A
        MOV     A,?V0 + 9
        ADDC    A,#0x0
        MOV     DPH,A
        MOV     R0,#?V0 + 4
        LCALL   ?L_MOV_X
        MOV     DPL,?V0 + 10
        MOV     DPH,?V0 + 11
        INC     DPTR
        INC     DPTR
        INC     DPTR
        INC     DPTR
        MOV     A,?V0 + 4
        MOVX    @DPTR,A
        INC     DPTR
        MOV     A,?V0 + 5
        MOVX    @DPTR,A
        INC     DPTR
        MOV     A,?V0 + 6
        MOVX    @DPTR,A
        INC     DPTR
        MOV     A,?V0 + 7
        MOVX    @DPTR,A
//  762     (void)osal_memcpy(pItem->data, pMsg->cmd.Data, dataLen);
        ; Setup parameters for call to function osal_memcpy
        LCALL   ?Subroutine19 & 0xFFFF
//  763   }
??CrossCallReturnLabel_27:
        MOV     ?V0 + 6,#0x0
        MOV     R0,#?V0 + 4
        LCALL   ?PUSH_XSTACK_I_THREE
        CFI CFA_XSP16 add(XSP16, 26)
        MOV     A,R6
        MOV     R4,A
        MOV     A,R7
        MOV     R5,A
        MOV     DPL,?V0 + 10
        MOV     DPH,?V0 + 11
        INC     DPTR
        INC     DPTR
        MOVX    A,@DPTR
        MOV     R2,A
        INC     DPTR
        MOVX    A,@DPTR
        MOV     R3,A
        SJMP    ??MT_AfIncomingMsg_16
        CFI CFA_XSP16 add(XSP16, 23)
//  764   else
//  765   {
//  766     (void)osal_memcpy(pTmp, pMsg->cmd.Data, dataLen);
??MT_AfIncomingMsg_15:
        ; Setup parameters for call to function osal_memcpy
        LCALL   ?Subroutine19 & 0xFFFF
//  767   }
??CrossCallReturnLabel_28:
        MOV     R0,#?V0 + 4
        LCALL   ?PUSH_XSTACK_I_THREE
        CFI CFA_XSP16 add(XSP16, 26)
        MOV     A,R6
        MOV     R4,A
        MOV     A,R7
        MOV     R5,A
        MOV     R2,?V0 + 2
        MOV     R3,?V0 + 3
??MT_AfIncomingMsg_16:
        LCALL   ??Subroutine54_0 & 0xFFFF
??CrossCallReturnLabel_118:
        LCALL   ?DEALLOC_XSTACK8
        CFI CFA_XSP16 add(XSP16, 23)
//  768 
//  769   /* Build and send back the response */
//  770   MT_BuildAndSendZToolResponse(((uint8)MT_RPC_CMD_AREQ|(uint8)MT_RPC_SYS_AF), cmd, respLen, pRsp);
        ; Setup parameters for call to function MT_BuildAndSendZToolResponse
        MOV     R4,?V0 + 12
        MOV     R5,?V0 + 13
        MOV     R3,?V0 + 0
        MOV     R2,?V0 + 14
        MOV     R1,#0x44
        LCALL   ??MT_BuildAndSendZToolResponse?relay
//  771 
//  772   (void)osal_mem_free(pRsp);
        ; Setup parameters for call to function osal_mem_free
        MOV     R2,?V0 + 12
        MOV     R3,?V0 + 13
??MT_AfIncomingMsg_8:
        LCALL   ??osal_mem_free?relay
//  773 }
??MT_AfIncomingMsg_4:
        MOV     R7,#0xf
        LJMP    ?BANKED_LEAVE_XDATA
        CFI EndBlock cfiBlock101

        RSEG BANKED_CODE:CODE:NOROOT(0)
?Subroutine35:
        CFI Block cfiCond102 Using cfiCommon0
        CFI NoFunction
        CFI Conditional ??CrossCallReturnLabel_68
        CFI R6 load(1, XDATA, add(CFA_XSP16, literal(-22)))
        CFI VB load(1, XDATA, add(CFA_XSP16, literal(-21)))
        CFI V0 load(1, XDATA, add(CFA_XSP16, literal(-20)))
        CFI V1 load(1, XDATA, add(CFA_XSP16, literal(-19)))
        CFI V2 load(1, XDATA, add(CFA_XSP16, literal(-18)))
        CFI V3 load(1, XDATA, add(CFA_XSP16, literal(-17)))
        CFI V4 load(1, XDATA, add(CFA_XSP16, literal(-16)))
        CFI V5 load(1, XDATA, add(CFA_XSP16, literal(-15)))
        CFI V6 load(1, XDATA, add(CFA_XSP16, literal(-14)))
        CFI V7 load(1, XDATA, add(CFA_XSP16, literal(-13)))
        CFI V8 load(1, XDATA, add(CFA_XSP16, literal(-12)))
        CFI V9 load(1, XDATA, add(CFA_XSP16, literal(-11)))
        CFI V10 load(1, XDATA, add(CFA_XSP16, literal(-10)))
        CFI V11 load(1, XDATA, add(CFA_XSP16, literal(-9)))
        CFI V12 load(1, XDATA, add(CFA_XSP16, literal(-8)))
        CFI V13 load(1, XDATA, add(CFA_XSP16, literal(-7)))
        CFI R7 load(1, XDATA, add(CFA_XSP16, literal(-6)))
        CFI ?RET_LOW load(1, XDATA, add(CFA_XSP16, literal(-5)))
        CFI ?RET_HIGH load(1, XDATA, add(CFA_XSP16, literal(-4)))
        CFI ?BRET_EXT load(1, XDATA, add(CFA_XSP16, literal(-3)))
        CFI DPL0 load(1, XDATA, add(CFA_XSP16, literal(-2)))
        CFI DPH0 load(1, XDATA, add(CFA_XSP16, literal(-1)))
        CFI CFA_SP SP+0
        CFI CFA_XSP16 add(XSP16, 36)
        CFI Block cfiCond103 Using cfiCommon0
        CFI (cfiCond103) NoFunction
        CFI (cfiCond103) Conditional ??CrossCallReturnLabel_69
        CFI (cfiCond103) R6 load(1, XDATA, add(CFA_XSP16, literal(-23)))
        CFI (cfiCond103) VB load(1, XDATA, add(CFA_XSP16, literal(-22)))
        CFI (cfiCond103) V0 load(1, XDATA, add(CFA_XSP16, literal(-21)))
        CFI (cfiCond103) V1 load(1, XDATA, add(CFA_XSP16, literal(-20)))
        CFI (cfiCond103) V2 load(1, XDATA, add(CFA_XSP16, literal(-19)))
        CFI (cfiCond103) V3 load(1, XDATA, add(CFA_XSP16, literal(-18)))
        CFI (cfiCond103) V4 load(1, XDATA, add(CFA_XSP16, literal(-17)))
        CFI (cfiCond103) V5 load(1, XDATA, add(CFA_XSP16, literal(-16)))
        CFI (cfiCond103) V6 load(1, XDATA, add(CFA_XSP16, literal(-15)))
        CFI (cfiCond103) V7 load(1, XDATA, add(CFA_XSP16, literal(-14)))
        CFI (cfiCond103) V8 load(1, XDATA, add(CFA_XSP16, literal(-13)))
        CFI (cfiCond103) V9 load(1, XDATA, add(CFA_XSP16, literal(-12)))
        CFI (cfiCond103) V10 load(1, XDATA, add(CFA_XSP16, literal(-11)))
        CFI (cfiCond103) V11 load(1, XDATA, add(CFA_XSP16, literal(-10)))
        CFI (cfiCond103) V12 load(1, XDATA, add(CFA_XSP16, literal(-9)))
        CFI (cfiCond103) V13 load(1, XDATA, add(CFA_XSP16, literal(-8)))
        CFI (cfiCond103) V14 load(1, XDATA, add(CFA_XSP16, literal(-7)))
        CFI (cfiCond103) R7 load(1, XDATA, add(CFA_XSP16, literal(-6)))
        CFI (cfiCond103) ?RET_LOW load(1, XDATA, add(CFA_XSP16, literal(-5)))
        CFI (cfiCond103) ?RET_HIGH load(1, XDATA, add(CFA_XSP16, literal(-4)))
        CFI (cfiCond103) ?BRET_EXT load(1, XDATA, add(CFA_XSP16, literal(-3)))
        CFI (cfiCond103) DPL0 load(1, XDATA, add(CFA_XSP16, literal(-2)))
        CFI (cfiCond103) DPH0 load(1, XDATA, add(CFA_XSP16, literal(-1)))
        CFI (cfiCond103) CFA_SP SP+0
        CFI (cfiCond103) CFA_XSP16 add(XSP16, 23)
        CFI Block cfiPicker104 Using cfiCommon1
        CFI (cfiPicker104) NoFunction
        CFI (cfiPicker104) Picker
        ADD     A,R6
        MOV     R2,A
        CLR     A
        ADDC    A,R7
        MOV     R3,A
        LCALL   ??osal_mem_alloc?relay
        RET
        CFI EndBlock cfiCond102
        CFI EndBlock cfiCond103
        CFI EndBlock cfiPicker104

        RSEG BANKED_CODE:CODE:NOROOT(0)
?Subroutine31:
        CFI Block cfiCond105 Using cfiCommon0
        CFI NoFunction
        CFI Conditional ??CrossCallReturnLabel_57
        CFI R6 load(1, XDATA, add(CFA_XSP16, literal(-22)))
        CFI VB load(1, XDATA, add(CFA_XSP16, literal(-21)))
        CFI V0 load(1, XDATA, add(CFA_XSP16, literal(-20)))
        CFI V1 load(1, XDATA, add(CFA_XSP16, literal(-19)))
        CFI V2 load(1, XDATA, add(CFA_XSP16, literal(-18)))
        CFI V3 load(1, XDATA, add(CFA_XSP16, literal(-17)))
        CFI V4 load(1, XDATA, add(CFA_XSP16, literal(-16)))
        CFI V5 load(1, XDATA, add(CFA_XSP16, literal(-15)))
        CFI V6 load(1, XDATA, add(CFA_XSP16, literal(-14)))
        CFI V7 load(1, XDATA, add(CFA_XSP16, literal(-13)))
        CFI V8 load(1, XDATA, add(CFA_XSP16, literal(-12)))
        CFI V9 load(1, XDATA, add(CFA_XSP16, literal(-11)))
        CFI V10 load(1, XDATA, add(CFA_XSP16, literal(-10)))
        CFI V11 load(1, XDATA, add(CFA_XSP16, literal(-9)))
        CFI V12 load(1, XDATA, add(CFA_XSP16, literal(-8)))
        CFI V13 load(1, XDATA, add(CFA_XSP16, literal(-7)))
        CFI R7 load(1, XDATA, add(CFA_XSP16, literal(-6)))
        CFI ?RET_LOW load(1, XDATA, add(CFA_XSP16, literal(-5)))
        CFI ?RET_HIGH load(1, XDATA, add(CFA_XSP16, literal(-4)))
        CFI ?BRET_EXT load(1, XDATA, add(CFA_XSP16, literal(-3)))
        CFI DPL0 load(1, XDATA, add(CFA_XSP16, literal(-2)))
        CFI DPH0 load(1, XDATA, add(CFA_XSP16, literal(-1)))
        CFI CFA_SP SP+0
        CFI CFA_XSP16 add(XSP16, 36)
        CFI Block cfiCond106 Using cfiCommon0
        CFI (cfiCond106) NoFunction
        CFI (cfiCond106) Conditional ??CrossCallReturnLabel_58
        CFI (cfiCond106) R6 load(1, XDATA, add(CFA_XSP16, literal(-22)))
        CFI (cfiCond106) VB load(1, XDATA, add(CFA_XSP16, literal(-21)))
        CFI (cfiCond106) V0 load(1, XDATA, add(CFA_XSP16, literal(-20)))
        CFI (cfiCond106) V1 load(1, XDATA, add(CFA_XSP16, literal(-19)))
        CFI (cfiCond106) V2 load(1, XDATA, add(CFA_XSP16, literal(-18)))
        CFI (cfiCond106) V3 load(1, XDATA, add(CFA_XSP16, literal(-17)))
        CFI (cfiCond106) V4 load(1, XDATA, add(CFA_XSP16, literal(-16)))
        CFI (cfiCond106) V5 load(1, XDATA, add(CFA_XSP16, literal(-15)))
        CFI (cfiCond106) V6 load(1, XDATA, add(CFA_XSP16, literal(-14)))
        CFI (cfiCond106) V7 load(1, XDATA, add(CFA_XSP16, literal(-13)))
        CFI (cfiCond106) V8 load(1, XDATA, add(CFA_XSP16, literal(-12)))
        CFI (cfiCond106) V9 load(1, XDATA, add(CFA_XSP16, literal(-11)))
        CFI (cfiCond106) V10 load(1, XDATA, add(CFA_XSP16, literal(-10)))
        CFI (cfiCond106) V11 load(1, XDATA, add(CFA_XSP16, literal(-9)))
        CFI (cfiCond106) V12 load(1, XDATA, add(CFA_XSP16, literal(-8)))
        CFI (cfiCond106) V13 load(1, XDATA, add(CFA_XSP16, literal(-7)))
        CFI (cfiCond106) R7 load(1, XDATA, add(CFA_XSP16, literal(-6)))
        CFI (cfiCond106) ?RET_LOW load(1, XDATA, add(CFA_XSP16, literal(-5)))
        CFI (cfiCond106) ?RET_HIGH load(1, XDATA, add(CFA_XSP16, literal(-4)))
        CFI (cfiCond106) ?BRET_EXT load(1, XDATA, add(CFA_XSP16, literal(-3)))
        CFI (cfiCond106) DPL0 load(1, XDATA, add(CFA_XSP16, literal(-2)))
        CFI (cfiCond106) DPH0 load(1, XDATA, add(CFA_XSP16, literal(-1)))
        CFI (cfiCond106) CFA_SP SP+0
        CFI (cfiCond106) CFA_XSP16 add(XSP16, 36)
        CFI Block cfiCond107 Using cfiCommon0
        CFI (cfiCond107) NoFunction
        CFI (cfiCond107) Conditional ??CrossCallReturnLabel_59
        CFI (cfiCond107) R6 load(1, XDATA, add(CFA_XSP16, literal(-22)))
        CFI (cfiCond107) VB load(1, XDATA, add(CFA_XSP16, literal(-21)))
        CFI (cfiCond107) V0 load(1, XDATA, add(CFA_XSP16, literal(-20)))
        CFI (cfiCond107) V1 load(1, XDATA, add(CFA_XSP16, literal(-19)))
        CFI (cfiCond107) V2 load(1, XDATA, add(CFA_XSP16, literal(-18)))
        CFI (cfiCond107) V3 load(1, XDATA, add(CFA_XSP16, literal(-17)))
        CFI (cfiCond107) V4 load(1, XDATA, add(CFA_XSP16, literal(-16)))
        CFI (cfiCond107) V5 load(1, XDATA, add(CFA_XSP16, literal(-15)))
        CFI (cfiCond107) V6 load(1, XDATA, add(CFA_XSP16, literal(-14)))
        CFI (cfiCond107) V7 load(1, XDATA, add(CFA_XSP16, literal(-13)))
        CFI (cfiCond107) V8 load(1, XDATA, add(CFA_XSP16, literal(-12)))
        CFI (cfiCond107) V9 load(1, XDATA, add(CFA_XSP16, literal(-11)))
        CFI (cfiCond107) V10 load(1, XDATA, add(CFA_XSP16, literal(-10)))
        CFI (cfiCond107) V11 load(1, XDATA, add(CFA_XSP16, literal(-9)))
        CFI (cfiCond107) V12 load(1, XDATA, add(CFA_XSP16, literal(-8)))
        CFI (cfiCond107) V13 load(1, XDATA, add(CFA_XSP16, literal(-7)))
        CFI (cfiCond107) R7 load(1, XDATA, add(CFA_XSP16, literal(-6)))
        CFI (cfiCond107) ?RET_LOW load(1, XDATA, add(CFA_XSP16, literal(-5)))
        CFI (cfiCond107) ?RET_HIGH load(1, XDATA, add(CFA_XSP16, literal(-4)))
        CFI (cfiCond107) ?BRET_EXT load(1, XDATA, add(CFA_XSP16, literal(-3)))
        CFI (cfiCond107) DPL0 load(1, XDATA, add(CFA_XSP16, literal(-2)))
        CFI (cfiCond107) DPH0 load(1, XDATA, add(CFA_XSP16, literal(-1)))
        CFI (cfiCond107) CFA_SP SP+0
        CFI (cfiCond107) CFA_XSP16 add(XSP16, 36)
        CFI Block cfiCond108 Using cfiCommon0
        CFI (cfiCond108) NoFunction
        CFI (cfiCond108) Conditional ??CrossCallReturnLabel_60
        CFI (cfiCond108) R6 load(1, XDATA, add(CFA_XSP16, literal(-20)))
        CFI (cfiCond108) VB load(1, XDATA, add(CFA_XSP16, literal(-19)))
        CFI (cfiCond108) V0 load(1, XDATA, add(CFA_XSP16, literal(-18)))
        CFI (cfiCond108) V1 load(1, XDATA, add(CFA_XSP16, literal(-17)))
        CFI (cfiCond108) V2 load(1, XDATA, add(CFA_XSP16, literal(-16)))
        CFI (cfiCond108) V3 load(1, XDATA, add(CFA_XSP16, literal(-15)))
        CFI (cfiCond108) V4 load(1, XDATA, add(CFA_XSP16, literal(-14)))
        CFI (cfiCond108) V5 load(1, XDATA, add(CFA_XSP16, literal(-13)))
        CFI (cfiCond108) V6 load(1, XDATA, add(CFA_XSP16, literal(-12)))
        CFI (cfiCond108) V7 load(1, XDATA, add(CFA_XSP16, literal(-11)))
        CFI (cfiCond108) V8 load(1, XDATA, add(CFA_XSP16, literal(-10)))
        CFI (cfiCond108) V9 load(1, XDATA, add(CFA_XSP16, literal(-9)))
        CFI (cfiCond108) V10 load(1, XDATA, add(CFA_XSP16, literal(-8)))
        CFI (cfiCond108) V11 load(1, XDATA, add(CFA_XSP16, literal(-7)))
        CFI (cfiCond108) R7 load(1, XDATA, add(CFA_XSP16, literal(-6)))
        CFI (cfiCond108) ?RET_LOW load(1, XDATA, add(CFA_XSP16, literal(-5)))
        CFI (cfiCond108) ?RET_HIGH load(1, XDATA, add(CFA_XSP16, literal(-4)))
        CFI (cfiCond108) ?BRET_EXT load(1, XDATA, add(CFA_XSP16, literal(-3)))
        CFI (cfiCond108) DPL0 load(1, XDATA, add(CFA_XSP16, literal(-2)))
        CFI (cfiCond108) DPH0 load(1, XDATA, add(CFA_XSP16, literal(-1)))
        CFI (cfiCond108) CFA_SP SP+0
        CFI (cfiCond108) CFA_XSP16 add(XSP16, 34)
        CFI Block cfiCond109 Using cfiCommon0
        CFI (cfiCond109) NoFunction
        CFI (cfiCond109) Conditional ??CrossCallReturnLabel_61
        CFI (cfiCond109) R6 load(1, XDATA, add(CFA_XSP16, literal(-23)))
        CFI (cfiCond109) VB load(1, XDATA, add(CFA_XSP16, literal(-22)))
        CFI (cfiCond109) V0 load(1, XDATA, add(CFA_XSP16, literal(-21)))
        CFI (cfiCond109) V1 load(1, XDATA, add(CFA_XSP16, literal(-20)))
        CFI (cfiCond109) V2 load(1, XDATA, add(CFA_XSP16, literal(-19)))
        CFI (cfiCond109) V3 load(1, XDATA, add(CFA_XSP16, literal(-18)))
        CFI (cfiCond109) V4 load(1, XDATA, add(CFA_XSP16, literal(-17)))
        CFI (cfiCond109) V5 load(1, XDATA, add(CFA_XSP16, literal(-16)))
        CFI (cfiCond109) V6 load(1, XDATA, add(CFA_XSP16, literal(-15)))
        CFI (cfiCond109) V7 load(1, XDATA, add(CFA_XSP16, literal(-14)))
        CFI (cfiCond109) V8 load(1, XDATA, add(CFA_XSP16, literal(-13)))
        CFI (cfiCond109) V9 load(1, XDATA, add(CFA_XSP16, literal(-12)))
        CFI (cfiCond109) V10 load(1, XDATA, add(CFA_XSP16, literal(-11)))
        CFI (cfiCond109) V11 load(1, XDATA, add(CFA_XSP16, literal(-10)))
        CFI (cfiCond109) V12 load(1, XDATA, add(CFA_XSP16, literal(-9)))
        CFI (cfiCond109) V13 load(1, XDATA, add(CFA_XSP16, literal(-8)))
        CFI (cfiCond109) V14 load(1, XDATA, add(CFA_XSP16, literal(-7)))
        CFI (cfiCond109) R7 load(1, XDATA, add(CFA_XSP16, literal(-6)))
        CFI (cfiCond109) ?RET_LOW load(1, XDATA, add(CFA_XSP16, literal(-5)))
        CFI (cfiCond109) ?RET_HIGH load(1, XDATA, add(CFA_XSP16, literal(-4)))
        CFI (cfiCond109) ?BRET_EXT load(1, XDATA, add(CFA_XSP16, literal(-3)))
        CFI (cfiCond109) DPL0 load(1, XDATA, add(CFA_XSP16, literal(-2)))
        CFI (cfiCond109) DPH0 load(1, XDATA, add(CFA_XSP16, literal(-1)))
        CFI (cfiCond109) CFA_SP SP+0
        CFI (cfiCond109) CFA_XSP16 add(XSP16, 23)
        CFI Block cfiCond110 Using cfiCommon0
        CFI (cfiCond110) NoFunction
        CFI (cfiCond110) Conditional ??CrossCallReturnLabel_62
        CFI (cfiCond110) R6 load(1, XDATA, add(CFA_XSP16, literal(-23)))
        CFI (cfiCond110) VB load(1, XDATA, add(CFA_XSP16, literal(-22)))
        CFI (cfiCond110) V0 load(1, XDATA, add(CFA_XSP16, literal(-21)))
        CFI (cfiCond110) V1 load(1, XDATA, add(CFA_XSP16, literal(-20)))
        CFI (cfiCond110) V2 load(1, XDATA, add(CFA_XSP16, literal(-19)))
        CFI (cfiCond110) V3 load(1, XDATA, add(CFA_XSP16, literal(-18)))
        CFI (cfiCond110) V4 load(1, XDATA, add(CFA_XSP16, literal(-17)))
        CFI (cfiCond110) V5 load(1, XDATA, add(CFA_XSP16, literal(-16)))
        CFI (cfiCond110) V6 load(1, XDATA, add(CFA_XSP16, literal(-15)))
        CFI (cfiCond110) V7 load(1, XDATA, add(CFA_XSP16, literal(-14)))
        CFI (cfiCond110) V8 load(1, XDATA, add(CFA_XSP16, literal(-13)))
        CFI (cfiCond110) V9 load(1, XDATA, add(CFA_XSP16, literal(-12)))
        CFI (cfiCond110) V10 load(1, XDATA, add(CFA_XSP16, literal(-11)))
        CFI (cfiCond110) V11 load(1, XDATA, add(CFA_XSP16, literal(-10)))
        CFI (cfiCond110) V12 load(1, XDATA, add(CFA_XSP16, literal(-9)))
        CFI (cfiCond110) V13 load(1, XDATA, add(CFA_XSP16, literal(-8)))
        CFI (cfiCond110) V14 load(1, XDATA, add(CFA_XSP16, literal(-7)))
        CFI (cfiCond110) R7 load(1, XDATA, add(CFA_XSP16, literal(-6)))
        CFI (cfiCond110) ?RET_LOW load(1, XDATA, add(CFA_XSP16, literal(-5)))
        CFI (cfiCond110) ?RET_HIGH load(1, XDATA, add(CFA_XSP16, literal(-4)))
        CFI (cfiCond110) ?BRET_EXT load(1, XDATA, add(CFA_XSP16, literal(-3)))
        CFI (cfiCond110) DPL0 load(1, XDATA, add(CFA_XSP16, literal(-2)))
        CFI (cfiCond110) DPH0 load(1, XDATA, add(CFA_XSP16, literal(-1)))
        CFI (cfiCond110) CFA_SP SP+0
        CFI (cfiCond110) CFA_XSP16 add(XSP16, 23)
        CFI Block cfiCond111 Using cfiCommon0
        CFI (cfiCond111) NoFunction
        CFI (cfiCond111) Conditional ??CrossCallReturnLabel_63
        CFI (cfiCond111) R6 load(1, XDATA, add(CFA_XSP16, literal(-21)))
        CFI (cfiCond111) VB load(1, XDATA, add(CFA_XSP16, literal(-20)))
        CFI (cfiCond111) V0 load(1, XDATA, add(CFA_XSP16, literal(-19)))
        CFI (cfiCond111) V1 load(1, XDATA, add(CFA_XSP16, literal(-18)))
        CFI (cfiCond111) V2 load(1, XDATA, add(CFA_XSP16, literal(-17)))
        CFI (cfiCond111) V3 load(1, XDATA, add(CFA_XSP16, literal(-16)))
        CFI (cfiCond111) V4 load(1, XDATA, add(CFA_XSP16, literal(-15)))
        CFI (cfiCond111) V5 load(1, XDATA, add(CFA_XSP16, literal(-14)))
        CFI (cfiCond111) V6 load(1, XDATA, add(CFA_XSP16, literal(-13)))
        CFI (cfiCond111) V7 load(1, XDATA, add(CFA_XSP16, literal(-12)))
        CFI (cfiCond111) V8 load(1, XDATA, add(CFA_XSP16, literal(-11)))
        CFI (cfiCond111) V9 load(1, XDATA, add(CFA_XSP16, literal(-10)))
        CFI (cfiCond111) V10 load(1, XDATA, add(CFA_XSP16, literal(-9)))
        CFI (cfiCond111) V11 load(1, XDATA, add(CFA_XSP16, literal(-8)))
        CFI (cfiCond111) V12 load(1, XDATA, add(CFA_XSP16, literal(-7)))
        CFI (cfiCond111) R7 load(1, XDATA, add(CFA_XSP16, literal(-6)))
        CFI (cfiCond111) ?RET_LOW load(1, XDATA, add(CFA_XSP16, literal(-5)))
        CFI (cfiCond111) ?RET_HIGH load(1, XDATA, add(CFA_XSP16, literal(-4)))
        CFI (cfiCond111) ?BRET_EXT load(1, XDATA, add(CFA_XSP16, literal(-3)))
        CFI (cfiCond111) DPL0 load(1, XDATA, add(CFA_XSP16, literal(-2)))
        CFI (cfiCond111) DPH0 load(1, XDATA, add(CFA_XSP16, literal(-1)))
        CFI (cfiCond111) CFA_SP SP+0
        CFI (cfiCond111) CFA_XSP16 add(XSP16, 21)
        CFI Block cfiPicker112 Using cfiCommon1
        CFI (cfiPicker112) NoFunction
        CFI (cfiPicker112) Picker
        MOV     A,R0
        MOVX    @DPTR,A
        INC     DPTR
        MOV     A,R1
        MOVX    @DPTR,A
        RET
        CFI EndBlock cfiCond105
        CFI EndBlock cfiCond106
        CFI EndBlock cfiCond107
        CFI EndBlock cfiCond108
        CFI EndBlock cfiCond109
        CFI EndBlock cfiCond110
        CFI EndBlock cfiCond111
        CFI EndBlock cfiPicker112

        RSEG BANKED_CODE:CODE:NOROOT(0)
?Subroutine25:
        CFI Block cfiCond113 Using cfiCommon0
        CFI NoFunction
        CFI Conditional ??CrossCallReturnLabel_38
        CFI R6 load(1, XDATA, add(CFA_XSP16, literal(-23)))
        CFI VB load(1, XDATA, add(CFA_XSP16, literal(-22)))
        CFI V0 load(1, XDATA, add(CFA_XSP16, literal(-21)))
        CFI V1 load(1, XDATA, add(CFA_XSP16, literal(-20)))
        CFI V2 load(1, XDATA, add(CFA_XSP16, literal(-19)))
        CFI V3 load(1, XDATA, add(CFA_XSP16, literal(-18)))
        CFI V4 load(1, XDATA, add(CFA_XSP16, literal(-17)))
        CFI V5 load(1, XDATA, add(CFA_XSP16, literal(-16)))
        CFI V6 load(1, XDATA, add(CFA_XSP16, literal(-15)))
        CFI V7 load(1, XDATA, add(CFA_XSP16, literal(-14)))
        CFI V8 load(1, XDATA, add(CFA_XSP16, literal(-13)))
        CFI V9 load(1, XDATA, add(CFA_XSP16, literal(-12)))
        CFI V10 load(1, XDATA, add(CFA_XSP16, literal(-11)))
        CFI V11 load(1, XDATA, add(CFA_XSP16, literal(-10)))
        CFI V12 load(1, XDATA, add(CFA_XSP16, literal(-9)))
        CFI V13 load(1, XDATA, add(CFA_XSP16, literal(-8)))
        CFI V14 load(1, XDATA, add(CFA_XSP16, literal(-7)))
        CFI R7 load(1, XDATA, add(CFA_XSP16, literal(-6)))
        CFI ?RET_LOW load(1, XDATA, add(CFA_XSP16, literal(-5)))
        CFI ?RET_HIGH load(1, XDATA, add(CFA_XSP16, literal(-4)))
        CFI ?BRET_EXT load(1, XDATA, add(CFA_XSP16, literal(-3)))
        CFI DPL0 load(1, XDATA, add(CFA_XSP16, literal(-2)))
        CFI DPH0 load(1, XDATA, add(CFA_XSP16, literal(-1)))
        CFI CFA_SP SP+0
        CFI CFA_XSP16 add(XSP16, 23)
        CFI Block cfiCond114 Using cfiCommon0
        CFI (cfiCond114) NoFunction
        CFI (cfiCond114) Conditional ??CrossCallReturnLabel_39
        CFI (cfiCond114) R6 load(1, XDATA, add(CFA_XSP16, literal(-23)))
        CFI (cfiCond114) VB load(1, XDATA, add(CFA_XSP16, literal(-22)))
        CFI (cfiCond114) V0 load(1, XDATA, add(CFA_XSP16, literal(-21)))
        CFI (cfiCond114) V1 load(1, XDATA, add(CFA_XSP16, literal(-20)))
        CFI (cfiCond114) V2 load(1, XDATA, add(CFA_XSP16, literal(-19)))
        CFI (cfiCond114) V3 load(1, XDATA, add(CFA_XSP16, literal(-18)))
        CFI (cfiCond114) V4 load(1, XDATA, add(CFA_XSP16, literal(-17)))
        CFI (cfiCond114) V5 load(1, XDATA, add(CFA_XSP16, literal(-16)))
        CFI (cfiCond114) V6 load(1, XDATA, add(CFA_XSP16, literal(-15)))
        CFI (cfiCond114) V7 load(1, XDATA, add(CFA_XSP16, literal(-14)))
        CFI (cfiCond114) V8 load(1, XDATA, add(CFA_XSP16, literal(-13)))
        CFI (cfiCond114) V9 load(1, XDATA, add(CFA_XSP16, literal(-12)))
        CFI (cfiCond114) V10 load(1, XDATA, add(CFA_XSP16, literal(-11)))
        CFI (cfiCond114) V11 load(1, XDATA, add(CFA_XSP16, literal(-10)))
        CFI (cfiCond114) V12 load(1, XDATA, add(CFA_XSP16, literal(-9)))
        CFI (cfiCond114) V13 load(1, XDATA, add(CFA_XSP16, literal(-8)))
        CFI (cfiCond114) V14 load(1, XDATA, add(CFA_XSP16, literal(-7)))
        CFI (cfiCond114) R7 load(1, XDATA, add(CFA_XSP16, literal(-6)))
        CFI (cfiCond114) ?RET_LOW load(1, XDATA, add(CFA_XSP16, literal(-5)))
        CFI (cfiCond114) ?RET_HIGH load(1, XDATA, add(CFA_XSP16, literal(-4)))
        CFI (cfiCond114) ?BRET_EXT load(1, XDATA, add(CFA_XSP16, literal(-3)))
        CFI (cfiCond114) DPL0 load(1, XDATA, add(CFA_XSP16, literal(-2)))
        CFI (cfiCond114) DPH0 load(1, XDATA, add(CFA_XSP16, literal(-1)))
        CFI (cfiCond114) CFA_SP SP+0
        CFI (cfiCond114) CFA_XSP16 add(XSP16, 23)
        CFI Block cfiCond115 Using cfiCommon0
        CFI (cfiCond115) NoFunction
        CFI (cfiCond115) Conditional ??CrossCallReturnLabel_40
        CFI (cfiCond115) R6 load(1, XDATA, add(CFA_XSP16, literal(-23)))
        CFI (cfiCond115) VB load(1, XDATA, add(CFA_XSP16, literal(-22)))
        CFI (cfiCond115) V0 load(1, XDATA, add(CFA_XSP16, literal(-21)))
        CFI (cfiCond115) V1 load(1, XDATA, add(CFA_XSP16, literal(-20)))
        CFI (cfiCond115) V2 load(1, XDATA, add(CFA_XSP16, literal(-19)))
        CFI (cfiCond115) V3 load(1, XDATA, add(CFA_XSP16, literal(-18)))
        CFI (cfiCond115) V4 load(1, XDATA, add(CFA_XSP16, literal(-17)))
        CFI (cfiCond115) V5 load(1, XDATA, add(CFA_XSP16, literal(-16)))
        CFI (cfiCond115) V6 load(1, XDATA, add(CFA_XSP16, literal(-15)))
        CFI (cfiCond115) V7 load(1, XDATA, add(CFA_XSP16, literal(-14)))
        CFI (cfiCond115) V8 load(1, XDATA, add(CFA_XSP16, literal(-13)))
        CFI (cfiCond115) V9 load(1, XDATA, add(CFA_XSP16, literal(-12)))
        CFI (cfiCond115) V10 load(1, XDATA, add(CFA_XSP16, literal(-11)))
        CFI (cfiCond115) V11 load(1, XDATA, add(CFA_XSP16, literal(-10)))
        CFI (cfiCond115) V12 load(1, XDATA, add(CFA_XSP16, literal(-9)))
        CFI (cfiCond115) V13 load(1, XDATA, add(CFA_XSP16, literal(-8)))
        CFI (cfiCond115) V14 load(1, XDATA, add(CFA_XSP16, literal(-7)))
        CFI (cfiCond115) R7 load(1, XDATA, add(CFA_XSP16, literal(-6)))
        CFI (cfiCond115) ?RET_LOW load(1, XDATA, add(CFA_XSP16, literal(-5)))
        CFI (cfiCond115) ?RET_HIGH load(1, XDATA, add(CFA_XSP16, literal(-4)))
        CFI (cfiCond115) ?BRET_EXT load(1, XDATA, add(CFA_XSP16, literal(-3)))
        CFI (cfiCond115) DPL0 load(1, XDATA, add(CFA_XSP16, literal(-2)))
        CFI (cfiCond115) DPH0 load(1, XDATA, add(CFA_XSP16, literal(-1)))
        CFI (cfiCond115) CFA_SP SP+0
        CFI (cfiCond115) CFA_XSP16 add(XSP16, 23)
        CFI Block cfiCond116 Using cfiCommon0
        CFI (cfiCond116) NoFunction
        CFI (cfiCond116) Conditional ??CrossCallReturnLabel_41
        CFI (cfiCond116) R6 load(1, XDATA, add(CFA_XSP16, literal(-23)))
        CFI (cfiCond116) VB load(1, XDATA, add(CFA_XSP16, literal(-22)))
        CFI (cfiCond116) V0 load(1, XDATA, add(CFA_XSP16, literal(-21)))
        CFI (cfiCond116) V1 load(1, XDATA, add(CFA_XSP16, literal(-20)))
        CFI (cfiCond116) V2 load(1, XDATA, add(CFA_XSP16, literal(-19)))
        CFI (cfiCond116) V3 load(1, XDATA, add(CFA_XSP16, literal(-18)))
        CFI (cfiCond116) V4 load(1, XDATA, add(CFA_XSP16, literal(-17)))
        CFI (cfiCond116) V5 load(1, XDATA, add(CFA_XSP16, literal(-16)))
        CFI (cfiCond116) V6 load(1, XDATA, add(CFA_XSP16, literal(-15)))
        CFI (cfiCond116) V7 load(1, XDATA, add(CFA_XSP16, literal(-14)))
        CFI (cfiCond116) V8 load(1, XDATA, add(CFA_XSP16, literal(-13)))
        CFI (cfiCond116) V9 load(1, XDATA, add(CFA_XSP16, literal(-12)))
        CFI (cfiCond116) V10 load(1, XDATA, add(CFA_XSP16, literal(-11)))
        CFI (cfiCond116) V11 load(1, XDATA, add(CFA_XSP16, literal(-10)))
        CFI (cfiCond116) V12 load(1, XDATA, add(CFA_XSP16, literal(-9)))
        CFI (cfiCond116) V13 load(1, XDATA, add(CFA_XSP16, literal(-8)))
        CFI (cfiCond116) V14 load(1, XDATA, add(CFA_XSP16, literal(-7)))
        CFI (cfiCond116) R7 load(1, XDATA, add(CFA_XSP16, literal(-6)))
        CFI (cfiCond116) ?RET_LOW load(1, XDATA, add(CFA_XSP16, literal(-5)))
        CFI (cfiCond116) ?RET_HIGH load(1, XDATA, add(CFA_XSP16, literal(-4)))
        CFI (cfiCond116) ?BRET_EXT load(1, XDATA, add(CFA_XSP16, literal(-3)))
        CFI (cfiCond116) DPL0 load(1, XDATA, add(CFA_XSP16, literal(-2)))
        CFI (cfiCond116) DPH0 load(1, XDATA, add(CFA_XSP16, literal(-1)))
        CFI (cfiCond116) CFA_SP SP+0
        CFI (cfiCond116) CFA_XSP16 add(XSP16, 23)
        CFI Block cfiPicker117 Using cfiCommon1
        CFI (cfiPicker117) NoFunction
        CFI (cfiPicker117) Picker
        LCALL   ?Subroutine40 & 0xFFFF
??CrossCallReturnLabel_100:
        RET
        CFI EndBlock cfiCond113
        CFI EndBlock cfiCond114
        CFI EndBlock cfiCond115
        CFI EndBlock cfiCond116
        CFI EndBlock cfiPicker117

        RSEG BANKED_CODE:CODE:NOROOT(0)
?Subroutine40:
        CFI Block cfiCond118 Using cfiCommon0
        CFI NoFunction
        CFI Conditional ??CrossCallReturnLabel_100, ??CrossCallReturnLabel_38
        CFI R6 load(1, XDATA, add(CFA_XSP16, literal(-23)))
        CFI VB load(1, XDATA, add(CFA_XSP16, literal(-22)))
        CFI V0 load(1, XDATA, add(CFA_XSP16, literal(-21)))
        CFI V1 load(1, XDATA, add(CFA_XSP16, literal(-20)))
        CFI V2 load(1, XDATA, add(CFA_XSP16, literal(-19)))
        CFI V3 load(1, XDATA, add(CFA_XSP16, literal(-18)))
        CFI V4 load(1, XDATA, add(CFA_XSP16, literal(-17)))
        CFI V5 load(1, XDATA, add(CFA_XSP16, literal(-16)))
        CFI V6 load(1, XDATA, add(CFA_XSP16, literal(-15)))
        CFI V7 load(1, XDATA, add(CFA_XSP16, literal(-14)))
        CFI V8 load(1, XDATA, add(CFA_XSP16, literal(-13)))
        CFI V9 load(1, XDATA, add(CFA_XSP16, literal(-12)))
        CFI V10 load(1, XDATA, add(CFA_XSP16, literal(-11)))
        CFI V11 load(1, XDATA, add(CFA_XSP16, literal(-10)))
        CFI V12 load(1, XDATA, add(CFA_XSP16, literal(-9)))
        CFI V13 load(1, XDATA, add(CFA_XSP16, literal(-8)))
        CFI V14 load(1, XDATA, add(CFA_XSP16, literal(-7)))
        CFI R7 load(1, XDATA, add(CFA_XSP16, literal(-6)))
        CFI ?RET_LOW load(1, XDATA, add(CFA_XSP16, literal(-5)))
        CFI ?RET_HIGH load(1, XDATA, add(CFA_XSP16, literal(-4)))
        CFI ?BRET_EXT load(1, XDATA, add(CFA_XSP16, literal(-3)))
        CFI DPL0 load(1, XDATA, add(CFA_XSP16, literal(-2)))
        CFI DPH0 load(1, XDATA, add(CFA_XSP16, literal(-1)))
        CFI CFA_SP SP+0
        CFI CFA_XSP16 add(XSP16, 23)
        CFI Block cfiCond119 Using cfiCommon0
        CFI (cfiCond119) NoFunction
        CFI (cfiCond119) Conditional ??CrossCallReturnLabel_100, ??CrossCallReturnLabel_39
        CFI (cfiCond119) R6 load(1, XDATA, add(CFA_XSP16, literal(-23)))
        CFI (cfiCond119) VB load(1, XDATA, add(CFA_XSP16, literal(-22)))
        CFI (cfiCond119) V0 load(1, XDATA, add(CFA_XSP16, literal(-21)))
        CFI (cfiCond119) V1 load(1, XDATA, add(CFA_XSP16, literal(-20)))
        CFI (cfiCond119) V2 load(1, XDATA, add(CFA_XSP16, literal(-19)))
        CFI (cfiCond119) V3 load(1, XDATA, add(CFA_XSP16, literal(-18)))
        CFI (cfiCond119) V4 load(1, XDATA, add(CFA_XSP16, literal(-17)))
        CFI (cfiCond119) V5 load(1, XDATA, add(CFA_XSP16, literal(-16)))
        CFI (cfiCond119) V6 load(1, XDATA, add(CFA_XSP16, literal(-15)))
        CFI (cfiCond119) V7 load(1, XDATA, add(CFA_XSP16, literal(-14)))
        CFI (cfiCond119) V8 load(1, XDATA, add(CFA_XSP16, literal(-13)))
        CFI (cfiCond119) V9 load(1, XDATA, add(CFA_XSP16, literal(-12)))
        CFI (cfiCond119) V10 load(1, XDATA, add(CFA_XSP16, literal(-11)))
        CFI (cfiCond119) V11 load(1, XDATA, add(CFA_XSP16, literal(-10)))
        CFI (cfiCond119) V12 load(1, XDATA, add(CFA_XSP16, literal(-9)))
        CFI (cfiCond119) V13 load(1, XDATA, add(CFA_XSP16, literal(-8)))
        CFI (cfiCond119) V14 load(1, XDATA, add(CFA_XSP16, literal(-7)))
        CFI (cfiCond119) R7 load(1, XDATA, add(CFA_XSP16, literal(-6)))
        CFI (cfiCond119) ?RET_LOW load(1, XDATA, add(CFA_XSP16, literal(-5)))
        CFI (cfiCond119) ?RET_HIGH load(1, XDATA, add(CFA_XSP16, literal(-4)))
        CFI (cfiCond119) ?BRET_EXT load(1, XDATA, add(CFA_XSP16, literal(-3)))
        CFI (cfiCond119) DPL0 load(1, XDATA, add(CFA_XSP16, literal(-2)))
        CFI (cfiCond119) DPH0 load(1, XDATA, add(CFA_XSP16, literal(-1)))
        CFI (cfiCond119) CFA_SP SP+0
        CFI (cfiCond119) CFA_XSP16 add(XSP16, 23)
        CFI Block cfiCond120 Using cfiCommon0
        CFI (cfiCond120) NoFunction
        CFI (cfiCond120) Conditional ??CrossCallReturnLabel_100, ??CrossCallReturnLabel_40
        CFI (cfiCond120) R6 load(1, XDATA, add(CFA_XSP16, literal(-23)))
        CFI (cfiCond120) VB load(1, XDATA, add(CFA_XSP16, literal(-22)))
        CFI (cfiCond120) V0 load(1, XDATA, add(CFA_XSP16, literal(-21)))
        CFI (cfiCond120) V1 load(1, XDATA, add(CFA_XSP16, literal(-20)))
        CFI (cfiCond120) V2 load(1, XDATA, add(CFA_XSP16, literal(-19)))
        CFI (cfiCond120) V3 load(1, XDATA, add(CFA_XSP16, literal(-18)))
        CFI (cfiCond120) V4 load(1, XDATA, add(CFA_XSP16, literal(-17)))
        CFI (cfiCond120) V5 load(1, XDATA, add(CFA_XSP16, literal(-16)))
        CFI (cfiCond120) V6 load(1, XDATA, add(CFA_XSP16, literal(-15)))
        CFI (cfiCond120) V7 load(1, XDATA, add(CFA_XSP16, literal(-14)))
        CFI (cfiCond120) V8 load(1, XDATA, add(CFA_XSP16, literal(-13)))
        CFI (cfiCond120) V9 load(1, XDATA, add(CFA_XSP16, literal(-12)))
        CFI (cfiCond120) V10 load(1, XDATA, add(CFA_XSP16, literal(-11)))
        CFI (cfiCond120) V11 load(1, XDATA, add(CFA_XSP16, literal(-10)))
        CFI (cfiCond120) V12 load(1, XDATA, add(CFA_XSP16, literal(-9)))
        CFI (cfiCond120) V13 load(1, XDATA, add(CFA_XSP16, literal(-8)))
        CFI (cfiCond120) V14 load(1, XDATA, add(CFA_XSP16, literal(-7)))
        CFI (cfiCond120) R7 load(1, XDATA, add(CFA_XSP16, literal(-6)))
        CFI (cfiCond120) ?RET_LOW load(1, XDATA, add(CFA_XSP16, literal(-5)))
        CFI (cfiCond120) ?RET_HIGH load(1, XDATA, add(CFA_XSP16, literal(-4)))
        CFI (cfiCond120) ?BRET_EXT load(1, XDATA, add(CFA_XSP16, literal(-3)))
        CFI (cfiCond120) DPL0 load(1, XDATA, add(CFA_XSP16, literal(-2)))
        CFI (cfiCond120) DPH0 load(1, XDATA, add(CFA_XSP16, literal(-1)))
        CFI (cfiCond120) CFA_SP SP+0
        CFI (cfiCond120) CFA_XSP16 add(XSP16, 23)
        CFI Block cfiCond121 Using cfiCommon0
        CFI (cfiCond121) NoFunction
        CFI (cfiCond121) Conditional ??CrossCallReturnLabel_100, ??CrossCallReturnLabel_41
        CFI (cfiCond121) R6 load(1, XDATA, add(CFA_XSP16, literal(-23)))
        CFI (cfiCond121) VB load(1, XDATA, add(CFA_XSP16, literal(-22)))
        CFI (cfiCond121) V0 load(1, XDATA, add(CFA_XSP16, literal(-21)))
        CFI (cfiCond121) V1 load(1, XDATA, add(CFA_XSP16, literal(-20)))
        CFI (cfiCond121) V2 load(1, XDATA, add(CFA_XSP16, literal(-19)))
        CFI (cfiCond121) V3 load(1, XDATA, add(CFA_XSP16, literal(-18)))
        CFI (cfiCond121) V4 load(1, XDATA, add(CFA_XSP16, literal(-17)))
        CFI (cfiCond121) V5 load(1, XDATA, add(CFA_XSP16, literal(-16)))
        CFI (cfiCond121) V6 load(1, XDATA, add(CFA_XSP16, literal(-15)))
        CFI (cfiCond121) V7 load(1, XDATA, add(CFA_XSP16, literal(-14)))
        CFI (cfiCond121) V8 load(1, XDATA, add(CFA_XSP16, literal(-13)))
        CFI (cfiCond121) V9 load(1, XDATA, add(CFA_XSP16, literal(-12)))
        CFI (cfiCond121) V10 load(1, XDATA, add(CFA_XSP16, literal(-11)))
        CFI (cfiCond121) V11 load(1, XDATA, add(CFA_XSP16, literal(-10)))
        CFI (cfiCond121) V12 load(1, XDATA, add(CFA_XSP16, literal(-9)))
        CFI (cfiCond121) V13 load(1, XDATA, add(CFA_XSP16, literal(-8)))
        CFI (cfiCond121) V14 load(1, XDATA, add(CFA_XSP16, literal(-7)))
        CFI (cfiCond121) R7 load(1, XDATA, add(CFA_XSP16, literal(-6)))
        CFI (cfiCond121) ?RET_LOW load(1, XDATA, add(CFA_XSP16, literal(-5)))
        CFI (cfiCond121) ?RET_HIGH load(1, XDATA, add(CFA_XSP16, literal(-4)))
        CFI (cfiCond121) ?BRET_EXT load(1, XDATA, add(CFA_XSP16, literal(-3)))
        CFI (cfiCond121) DPL0 load(1, XDATA, add(CFA_XSP16, literal(-2)))
        CFI (cfiCond121) DPH0 load(1, XDATA, add(CFA_XSP16, literal(-1)))
        CFI (cfiCond121) CFA_SP SP+0
        CFI (cfiCond121) CFA_XSP16 add(XSP16, 23)
        CFI Block cfiCond122 Using cfiCommon0
        CFI (cfiCond122) NoFunction
        CFI (cfiCond122) Conditional ??CrossCallReturnLabel_101, ??CrossCallReturnLabel_97
        CFI (cfiCond122) R6 load(1, XDATA, add(CFA_XSP16, literal(-23)))
        CFI (cfiCond122) VB load(1, XDATA, add(CFA_XSP16, literal(-22)))
        CFI (cfiCond122) V0 load(1, XDATA, add(CFA_XSP16, literal(-21)))
        CFI (cfiCond122) V1 load(1, XDATA, add(CFA_XSP16, literal(-20)))
        CFI (cfiCond122) V2 load(1, XDATA, add(CFA_XSP16, literal(-19)))
        CFI (cfiCond122) V3 load(1, XDATA, add(CFA_XSP16, literal(-18)))
        CFI (cfiCond122) V4 load(1, XDATA, add(CFA_XSP16, literal(-17)))
        CFI (cfiCond122) V5 load(1, XDATA, add(CFA_XSP16, literal(-16)))
        CFI (cfiCond122) V6 load(1, XDATA, add(CFA_XSP16, literal(-15)))
        CFI (cfiCond122) V7 load(1, XDATA, add(CFA_XSP16, literal(-14)))
        CFI (cfiCond122) V8 load(1, XDATA, add(CFA_XSP16, literal(-13)))
        CFI (cfiCond122) V9 load(1, XDATA, add(CFA_XSP16, literal(-12)))
        CFI (cfiCond122) V10 load(1, XDATA, add(CFA_XSP16, literal(-11)))
        CFI (cfiCond122) V11 load(1, XDATA, add(CFA_XSP16, literal(-10)))
        CFI (cfiCond122) V12 load(1, XDATA, add(CFA_XSP16, literal(-9)))
        CFI (cfiCond122) V13 load(1, XDATA, add(CFA_XSP16, literal(-8)))
        CFI (cfiCond122) V14 load(1, XDATA, add(CFA_XSP16, literal(-7)))
        CFI (cfiCond122) R7 load(1, XDATA, add(CFA_XSP16, literal(-6)))
        CFI (cfiCond122) ?RET_LOW load(1, XDATA, add(CFA_XSP16, literal(-5)))
        CFI (cfiCond122) ?RET_HIGH load(1, XDATA, add(CFA_XSP16, literal(-4)))
        CFI (cfiCond122) ?BRET_EXT load(1, XDATA, add(CFA_XSP16, literal(-3)))
        CFI (cfiCond122) DPL0 load(1, XDATA, add(CFA_XSP16, literal(-2)))
        CFI (cfiCond122) DPH0 load(1, XDATA, add(CFA_XSP16, literal(-1)))
        CFI (cfiCond122) CFA_SP SP+0
        CFI (cfiCond122) CFA_XSP16 add(XSP16, 23)
        CFI Block cfiCond123 Using cfiCommon0
        CFI (cfiCond123) NoFunction
        CFI (cfiCond123) Conditional ??CrossCallReturnLabel_101, ??CrossCallReturnLabel_98
        CFI (cfiCond123) R6 load(1, XDATA, add(CFA_XSP16, literal(-23)))
        CFI (cfiCond123) VB load(1, XDATA, add(CFA_XSP16, literal(-22)))
        CFI (cfiCond123) V0 load(1, XDATA, add(CFA_XSP16, literal(-21)))
        CFI (cfiCond123) V1 load(1, XDATA, add(CFA_XSP16, literal(-20)))
        CFI (cfiCond123) V2 load(1, XDATA, add(CFA_XSP16, literal(-19)))
        CFI (cfiCond123) V3 load(1, XDATA, add(CFA_XSP16, literal(-18)))
        CFI (cfiCond123) V4 load(1, XDATA, add(CFA_XSP16, literal(-17)))
        CFI (cfiCond123) V5 load(1, XDATA, add(CFA_XSP16, literal(-16)))
        CFI (cfiCond123) V6 load(1, XDATA, add(CFA_XSP16, literal(-15)))
        CFI (cfiCond123) V7 load(1, XDATA, add(CFA_XSP16, literal(-14)))
        CFI (cfiCond123) V8 load(1, XDATA, add(CFA_XSP16, literal(-13)))
        CFI (cfiCond123) V9 load(1, XDATA, add(CFA_XSP16, literal(-12)))
        CFI (cfiCond123) V10 load(1, XDATA, add(CFA_XSP16, literal(-11)))
        CFI (cfiCond123) V11 load(1, XDATA, add(CFA_XSP16, literal(-10)))
        CFI (cfiCond123) V12 load(1, XDATA, add(CFA_XSP16, literal(-9)))
        CFI (cfiCond123) V13 load(1, XDATA, add(CFA_XSP16, literal(-8)))
        CFI (cfiCond123) V14 load(1, XDATA, add(CFA_XSP16, literal(-7)))
        CFI (cfiCond123) R7 load(1, XDATA, add(CFA_XSP16, literal(-6)))
        CFI (cfiCond123) ?RET_LOW load(1, XDATA, add(CFA_XSP16, literal(-5)))
        CFI (cfiCond123) ?RET_HIGH load(1, XDATA, add(CFA_XSP16, literal(-4)))
        CFI (cfiCond123) ?BRET_EXT load(1, XDATA, add(CFA_XSP16, literal(-3)))
        CFI (cfiCond123) DPL0 load(1, XDATA, add(CFA_XSP16, literal(-2)))
        CFI (cfiCond123) DPH0 load(1, XDATA, add(CFA_XSP16, literal(-1)))
        CFI (cfiCond123) CFA_SP SP+0
        CFI (cfiCond123) CFA_XSP16 add(XSP16, 23)
        CFI Block cfiCond124 Using cfiCommon0
        CFI (cfiCond124) NoFunction
        CFI (cfiCond124) Conditional ??CrossCallReturnLabel_101, ??CrossCallReturnLabel_99
        CFI (cfiCond124) R6 load(1, XDATA, add(CFA_XSP16, literal(-23)))
        CFI (cfiCond124) VB load(1, XDATA, add(CFA_XSP16, literal(-22)))
        CFI (cfiCond124) V0 load(1, XDATA, add(CFA_XSP16, literal(-21)))
        CFI (cfiCond124) V1 load(1, XDATA, add(CFA_XSP16, literal(-20)))
        CFI (cfiCond124) V2 load(1, XDATA, add(CFA_XSP16, literal(-19)))
        CFI (cfiCond124) V3 load(1, XDATA, add(CFA_XSP16, literal(-18)))
        CFI (cfiCond124) V4 load(1, XDATA, add(CFA_XSP16, literal(-17)))
        CFI (cfiCond124) V5 load(1, XDATA, add(CFA_XSP16, literal(-16)))
        CFI (cfiCond124) V6 load(1, XDATA, add(CFA_XSP16, literal(-15)))
        CFI (cfiCond124) V7 load(1, XDATA, add(CFA_XSP16, literal(-14)))
        CFI (cfiCond124) V8 load(1, XDATA, add(CFA_XSP16, literal(-13)))
        CFI (cfiCond124) V9 load(1, XDATA, add(CFA_XSP16, literal(-12)))
        CFI (cfiCond124) V10 load(1, XDATA, add(CFA_XSP16, literal(-11)))
        CFI (cfiCond124) V11 load(1, XDATA, add(CFA_XSP16, literal(-10)))
        CFI (cfiCond124) V12 load(1, XDATA, add(CFA_XSP16, literal(-9)))
        CFI (cfiCond124) V13 load(1, XDATA, add(CFA_XSP16, literal(-8)))
        CFI (cfiCond124) V14 load(1, XDATA, add(CFA_XSP16, literal(-7)))
        CFI (cfiCond124) R7 load(1, XDATA, add(CFA_XSP16, literal(-6)))
        CFI (cfiCond124) ?RET_LOW load(1, XDATA, add(CFA_XSP16, literal(-5)))
        CFI (cfiCond124) ?RET_HIGH load(1, XDATA, add(CFA_XSP16, literal(-4)))
        CFI (cfiCond124) ?BRET_EXT load(1, XDATA, add(CFA_XSP16, literal(-3)))
        CFI (cfiCond124) DPL0 load(1, XDATA, add(CFA_XSP16, literal(-2)))
        CFI (cfiCond124) DPH0 load(1, XDATA, add(CFA_XSP16, literal(-1)))
        CFI (cfiCond124) CFA_SP SP+0
        CFI (cfiCond124) CFA_XSP16 add(XSP16, 23)
        CFI Block cfiPicker125 Using cfiCommon1
        CFI (cfiPicker125) NoFunction
        CFI (cfiPicker125) Picker
        LCALL   ?Subroutine44 & 0xFFFF
??CrossCallReturnLabel_111:
        RET
        CFI EndBlock cfiCond118
        CFI EndBlock cfiCond119
        CFI EndBlock cfiCond120
        CFI EndBlock cfiCond121
        CFI EndBlock cfiCond122
        CFI EndBlock cfiCond123
        CFI EndBlock cfiCond124
        CFI EndBlock cfiPicker125

        RSEG BANKED_CODE:CODE:NOROOT(0)
?Subroutine24:
        CFI Block cfiCond126 Using cfiCommon0
        CFI NoFunction
        CFI Conditional ??CrossCallReturnLabel_97
        CFI R6 load(1, XDATA, add(CFA_XSP16, literal(-23)))
        CFI VB load(1, XDATA, add(CFA_XSP16, literal(-22)))
        CFI V0 load(1, XDATA, add(CFA_XSP16, literal(-21)))
        CFI V1 load(1, XDATA, add(CFA_XSP16, literal(-20)))
        CFI V2 load(1, XDATA, add(CFA_XSP16, literal(-19)))
        CFI V3 load(1, XDATA, add(CFA_XSP16, literal(-18)))
        CFI V4 load(1, XDATA, add(CFA_XSP16, literal(-17)))
        CFI V5 load(1, XDATA, add(CFA_XSP16, literal(-16)))
        CFI V6 load(1, XDATA, add(CFA_XSP16, literal(-15)))
        CFI V7 load(1, XDATA, add(CFA_XSP16, literal(-14)))
        CFI V8 load(1, XDATA, add(CFA_XSP16, literal(-13)))
        CFI V9 load(1, XDATA, add(CFA_XSP16, literal(-12)))
        CFI V10 load(1, XDATA, add(CFA_XSP16, literal(-11)))
        CFI V11 load(1, XDATA, add(CFA_XSP16, literal(-10)))
        CFI V12 load(1, XDATA, add(CFA_XSP16, literal(-9)))
        CFI V13 load(1, XDATA, add(CFA_XSP16, literal(-8)))
        CFI V14 load(1, XDATA, add(CFA_XSP16, literal(-7)))
        CFI R7 load(1, XDATA, add(CFA_XSP16, literal(-6)))
        CFI ?RET_LOW load(1, XDATA, add(CFA_XSP16, literal(-5)))
        CFI ?RET_HIGH load(1, XDATA, add(CFA_XSP16, literal(-4)))
        CFI ?BRET_EXT load(1, XDATA, add(CFA_XSP16, literal(-3)))
        CFI DPL0 load(1, XDATA, add(CFA_XSP16, literal(-2)))
        CFI DPH0 load(1, XDATA, add(CFA_XSP16, literal(-1)))
        CFI CFA_SP SP+0
        CFI CFA_XSP16 add(XSP16, 23)
        CFI Block cfiCond127 Using cfiCommon0
        CFI (cfiCond127) NoFunction
        CFI (cfiCond127) Conditional ??CrossCallReturnLabel_98
        CFI (cfiCond127) R6 load(1, XDATA, add(CFA_XSP16, literal(-23)))
        CFI (cfiCond127) VB load(1, XDATA, add(CFA_XSP16, literal(-22)))
        CFI (cfiCond127) V0 load(1, XDATA, add(CFA_XSP16, literal(-21)))
        CFI (cfiCond127) V1 load(1, XDATA, add(CFA_XSP16, literal(-20)))
        CFI (cfiCond127) V2 load(1, XDATA, add(CFA_XSP16, literal(-19)))
        CFI (cfiCond127) V3 load(1, XDATA, add(CFA_XSP16, literal(-18)))
        CFI (cfiCond127) V4 load(1, XDATA, add(CFA_XSP16, literal(-17)))
        CFI (cfiCond127) V5 load(1, XDATA, add(CFA_XSP16, literal(-16)))
        CFI (cfiCond127) V6 load(1, XDATA, add(CFA_XSP16, literal(-15)))
        CFI (cfiCond127) V7 load(1, XDATA, add(CFA_XSP16, literal(-14)))
        CFI (cfiCond127) V8 load(1, XDATA, add(CFA_XSP16, literal(-13)))
        CFI (cfiCond127) V9 load(1, XDATA, add(CFA_XSP16, literal(-12)))
        CFI (cfiCond127) V10 load(1, XDATA, add(CFA_XSP16, literal(-11)))
        CFI (cfiCond127) V11 load(1, XDATA, add(CFA_XSP16, literal(-10)))
        CFI (cfiCond127) V12 load(1, XDATA, add(CFA_XSP16, literal(-9)))
        CFI (cfiCond127) V13 load(1, XDATA, add(CFA_XSP16, literal(-8)))
        CFI (cfiCond127) V14 load(1, XDATA, add(CFA_XSP16, literal(-7)))
        CFI (cfiCond127) R7 load(1, XDATA, add(CFA_XSP16, literal(-6)))
        CFI (cfiCond127) ?RET_LOW load(1, XDATA, add(CFA_XSP16, literal(-5)))
        CFI (cfiCond127) ?RET_HIGH load(1, XDATA, add(CFA_XSP16, literal(-4)))
        CFI (cfiCond127) ?BRET_EXT load(1, XDATA, add(CFA_XSP16, literal(-3)))
        CFI (cfiCond127) DPL0 load(1, XDATA, add(CFA_XSP16, literal(-2)))
        CFI (cfiCond127) DPH0 load(1, XDATA, add(CFA_XSP16, literal(-1)))
        CFI (cfiCond127) CFA_SP SP+0
        CFI (cfiCond127) CFA_XSP16 add(XSP16, 23)
        CFI Block cfiPicker128 Using cfiCommon1
        CFI (cfiPicker128) NoFunction
        CFI (cfiPicker128) Picker
        MOV     DPL,?V0 + 2
        MOV     DPH,?V0 + 3
        MOV     A,?V0 + 4
        CFI EndBlock cfiCond126
        CFI EndBlock cfiCond127
        CFI EndBlock cfiPicker128
        REQUIRE ??Subroutine51_0
        ; // Fall through to label ??Subroutine51_0

        RSEG BANKED_CODE:CODE:NOROOT(0)
??Subroutine51_0:
        CFI Block cfiCond129 Using cfiCommon0
        CFI NoFunction
        CFI Conditional ??CrossCallReturnLabel_99
        CFI R6 load(1, XDATA, add(CFA_XSP16, literal(-23)))
        CFI VB load(1, XDATA, add(CFA_XSP16, literal(-22)))
        CFI V0 load(1, XDATA, add(CFA_XSP16, literal(-21)))
        CFI V1 load(1, XDATA, add(CFA_XSP16, literal(-20)))
        CFI V2 load(1, XDATA, add(CFA_XSP16, literal(-19)))
        CFI V3 load(1, XDATA, add(CFA_XSP16, literal(-18)))
        CFI V4 load(1, XDATA, add(CFA_XSP16, literal(-17)))
        CFI V5 load(1, XDATA, add(CFA_XSP16, literal(-16)))
        CFI V6 load(1, XDATA, add(CFA_XSP16, literal(-15)))
        CFI V7 load(1, XDATA, add(CFA_XSP16, literal(-14)))
        CFI V8 load(1, XDATA, add(CFA_XSP16, literal(-13)))
        CFI V9 load(1, XDATA, add(CFA_XSP16, literal(-12)))
        CFI V10 load(1, XDATA, add(CFA_XSP16, literal(-11)))
        CFI V11 load(1, XDATA, add(CFA_XSP16, literal(-10)))
        CFI V12 load(1, XDATA, add(CFA_XSP16, literal(-9)))
        CFI V13 load(1, XDATA, add(CFA_XSP16, literal(-8)))
        CFI V14 load(1, XDATA, add(CFA_XSP16, literal(-7)))
        CFI R7 load(1, XDATA, add(CFA_XSP16, literal(-6)))
        CFI ?RET_LOW load(1, XDATA, add(CFA_XSP16, literal(-5)))
        CFI ?RET_HIGH load(1, XDATA, add(CFA_XSP16, literal(-4)))
        CFI ?BRET_EXT load(1, XDATA, add(CFA_XSP16, literal(-3)))
        CFI DPL0 load(1, XDATA, add(CFA_XSP16, literal(-2)))
        CFI DPH0 load(1, XDATA, add(CFA_XSP16, literal(-1)))
        CFI CFA_SP SP+0
        CFI CFA_XSP16 add(XSP16, 23)
        CFI Block cfiCond130 Using cfiCommon0
        CFI (cfiCond130) NoFunction
        CFI (cfiCond130) Conditional ??CrossCallReturnLabel_97
        CFI (cfiCond130) R6 load(1, XDATA, add(CFA_XSP16, literal(-23)))
        CFI (cfiCond130) VB load(1, XDATA, add(CFA_XSP16, literal(-22)))
        CFI (cfiCond130) V0 load(1, XDATA, add(CFA_XSP16, literal(-21)))
        CFI (cfiCond130) V1 load(1, XDATA, add(CFA_XSP16, literal(-20)))
        CFI (cfiCond130) V2 load(1, XDATA, add(CFA_XSP16, literal(-19)))
        CFI (cfiCond130) V3 load(1, XDATA, add(CFA_XSP16, literal(-18)))
        CFI (cfiCond130) V4 load(1, XDATA, add(CFA_XSP16, literal(-17)))
        CFI (cfiCond130) V5 load(1, XDATA, add(CFA_XSP16, literal(-16)))
        CFI (cfiCond130) V6 load(1, XDATA, add(CFA_XSP16, literal(-15)))
        CFI (cfiCond130) V7 load(1, XDATA, add(CFA_XSP16, literal(-14)))
        CFI (cfiCond130) V8 load(1, XDATA, add(CFA_XSP16, literal(-13)))
        CFI (cfiCond130) V9 load(1, XDATA, add(CFA_XSP16, literal(-12)))
        CFI (cfiCond130) V10 load(1, XDATA, add(CFA_XSP16, literal(-11)))
        CFI (cfiCond130) V11 load(1, XDATA, add(CFA_XSP16, literal(-10)))
        CFI (cfiCond130) V12 load(1, XDATA, add(CFA_XSP16, literal(-9)))
        CFI (cfiCond130) V13 load(1, XDATA, add(CFA_XSP16, literal(-8)))
        CFI (cfiCond130) V14 load(1, XDATA, add(CFA_XSP16, literal(-7)))
        CFI (cfiCond130) R7 load(1, XDATA, add(CFA_XSP16, literal(-6)))
        CFI (cfiCond130) ?RET_LOW load(1, XDATA, add(CFA_XSP16, literal(-5)))
        CFI (cfiCond130) ?RET_HIGH load(1, XDATA, add(CFA_XSP16, literal(-4)))
        CFI (cfiCond130) ?BRET_EXT load(1, XDATA, add(CFA_XSP16, literal(-3)))
        CFI (cfiCond130) DPL0 load(1, XDATA, add(CFA_XSP16, literal(-2)))
        CFI (cfiCond130) DPH0 load(1, XDATA, add(CFA_XSP16, literal(-1)))
        CFI (cfiCond130) CFA_SP SP+0
        CFI (cfiCond130) CFA_XSP16 add(XSP16, 23)
        CFI Block cfiCond131 Using cfiCommon0
        CFI (cfiCond131) NoFunction
        CFI (cfiCond131) Conditional ??CrossCallReturnLabel_98
        CFI (cfiCond131) R6 load(1, XDATA, add(CFA_XSP16, literal(-23)))
        CFI (cfiCond131) VB load(1, XDATA, add(CFA_XSP16, literal(-22)))
        CFI (cfiCond131) V0 load(1, XDATA, add(CFA_XSP16, literal(-21)))
        CFI (cfiCond131) V1 load(1, XDATA, add(CFA_XSP16, literal(-20)))
        CFI (cfiCond131) V2 load(1, XDATA, add(CFA_XSP16, literal(-19)))
        CFI (cfiCond131) V3 load(1, XDATA, add(CFA_XSP16, literal(-18)))
        CFI (cfiCond131) V4 load(1, XDATA, add(CFA_XSP16, literal(-17)))
        CFI (cfiCond131) V5 load(1, XDATA, add(CFA_XSP16, literal(-16)))
        CFI (cfiCond131) V6 load(1, XDATA, add(CFA_XSP16, literal(-15)))
        CFI (cfiCond131) V7 load(1, XDATA, add(CFA_XSP16, literal(-14)))
        CFI (cfiCond131) V8 load(1, XDATA, add(CFA_XSP16, literal(-13)))
        CFI (cfiCond131) V9 load(1, XDATA, add(CFA_XSP16, literal(-12)))
        CFI (cfiCond131) V10 load(1, XDATA, add(CFA_XSP16, literal(-11)))
        CFI (cfiCond131) V11 load(1, XDATA, add(CFA_XSP16, literal(-10)))
        CFI (cfiCond131) V12 load(1, XDATA, add(CFA_XSP16, literal(-9)))
        CFI (cfiCond131) V13 load(1, XDATA, add(CFA_XSP16, literal(-8)))
        CFI (cfiCond131) V14 load(1, XDATA, add(CFA_XSP16, literal(-7)))
        CFI (cfiCond131) R7 load(1, XDATA, add(CFA_XSP16, literal(-6)))
        CFI (cfiCond131) ?RET_LOW load(1, XDATA, add(CFA_XSP16, literal(-5)))
        CFI (cfiCond131) ?RET_HIGH load(1, XDATA, add(CFA_XSP16, literal(-4)))
        CFI (cfiCond131) ?BRET_EXT load(1, XDATA, add(CFA_XSP16, literal(-3)))
        CFI (cfiCond131) DPL0 load(1, XDATA, add(CFA_XSP16, literal(-2)))
        CFI (cfiCond131) DPH0 load(1, XDATA, add(CFA_XSP16, literal(-1)))
        CFI (cfiCond131) CFA_SP SP+0
        CFI (cfiCond131) CFA_XSP16 add(XSP16, 23)
        CFI Block cfiPicker132 Using cfiCommon1
        CFI (cfiPicker132) NoFunction
        CFI (cfiPicker132) Picker
        LCALL   ?Subroutine40 & 0xFFFF
??CrossCallReturnLabel_101:
        MOV     DPL,R2
        MOV     DPH,R3
        MOV     R0,#?V0 + 4
        RET
        CFI EndBlock cfiCond129
        CFI EndBlock cfiCond130
        CFI EndBlock cfiCond131
        CFI EndBlock cfiPicker132

        RSEG BANKED_CODE:CODE:NOROOT(0)
?Subroutine21:
        CFI Block cfiCond133 Using cfiCommon0
        CFI NoFunction
        CFI Conditional ??CrossCallReturnLabel_31
        CFI R6 load(1, XDATA, add(CFA_XSP16, literal(-23)))
        CFI VB load(1, XDATA, add(CFA_XSP16, literal(-22)))
        CFI V0 load(1, XDATA, add(CFA_XSP16, literal(-21)))
        CFI V1 load(1, XDATA, add(CFA_XSP16, literal(-20)))
        CFI V2 load(1, XDATA, add(CFA_XSP16, literal(-19)))
        CFI V3 load(1, XDATA, add(CFA_XSP16, literal(-18)))
        CFI V4 load(1, XDATA, add(CFA_XSP16, literal(-17)))
        CFI V5 load(1, XDATA, add(CFA_XSP16, literal(-16)))
        CFI V6 load(1, XDATA, add(CFA_XSP16, literal(-15)))
        CFI V7 load(1, XDATA, add(CFA_XSP16, literal(-14)))
        CFI V8 load(1, XDATA, add(CFA_XSP16, literal(-13)))
        CFI V9 load(1, XDATA, add(CFA_XSP16, literal(-12)))
        CFI V10 load(1, XDATA, add(CFA_XSP16, literal(-11)))
        CFI V11 load(1, XDATA, add(CFA_XSP16, literal(-10)))
        CFI V12 load(1, XDATA, add(CFA_XSP16, literal(-9)))
        CFI V13 load(1, XDATA, add(CFA_XSP16, literal(-8)))
        CFI V14 load(1, XDATA, add(CFA_XSP16, literal(-7)))
        CFI R7 load(1, XDATA, add(CFA_XSP16, literal(-6)))
        CFI ?RET_LOW load(1, XDATA, add(CFA_XSP16, literal(-5)))
        CFI ?RET_HIGH load(1, XDATA, add(CFA_XSP16, literal(-4)))
        CFI ?BRET_EXT load(1, XDATA, add(CFA_XSP16, literal(-3)))
        CFI DPL0 load(1, XDATA, add(CFA_XSP16, literal(-2)))
        CFI DPH0 load(1, XDATA, add(CFA_XSP16, literal(-1)))
        CFI CFA_SP SP+0
        CFI CFA_XSP16 add(XSP16, 23)
        CFI Block cfiCond134 Using cfiCommon0
        CFI (cfiCond134) NoFunction
        CFI (cfiCond134) Conditional ??CrossCallReturnLabel_32
        CFI (cfiCond134) R6 load(1, XDATA, add(CFA_XSP16, literal(-23)))
        CFI (cfiCond134) VB load(1, XDATA, add(CFA_XSP16, literal(-22)))
        CFI (cfiCond134) V0 load(1, XDATA, add(CFA_XSP16, literal(-21)))
        CFI (cfiCond134) V1 load(1, XDATA, add(CFA_XSP16, literal(-20)))
        CFI (cfiCond134) V2 load(1, XDATA, add(CFA_XSP16, literal(-19)))
        CFI (cfiCond134) V3 load(1, XDATA, add(CFA_XSP16, literal(-18)))
        CFI (cfiCond134) V4 load(1, XDATA, add(CFA_XSP16, literal(-17)))
        CFI (cfiCond134) V5 load(1, XDATA, add(CFA_XSP16, literal(-16)))
        CFI (cfiCond134) V6 load(1, XDATA, add(CFA_XSP16, literal(-15)))
        CFI (cfiCond134) V7 load(1, XDATA, add(CFA_XSP16, literal(-14)))
        CFI (cfiCond134) V8 load(1, XDATA, add(CFA_XSP16, literal(-13)))
        CFI (cfiCond134) V9 load(1, XDATA, add(CFA_XSP16, literal(-12)))
        CFI (cfiCond134) V10 load(1, XDATA, add(CFA_XSP16, literal(-11)))
        CFI (cfiCond134) V11 load(1, XDATA, add(CFA_XSP16, literal(-10)))
        CFI (cfiCond134) V12 load(1, XDATA, add(CFA_XSP16, literal(-9)))
        CFI (cfiCond134) V13 load(1, XDATA, add(CFA_XSP16, literal(-8)))
        CFI (cfiCond134) V14 load(1, XDATA, add(CFA_XSP16, literal(-7)))
        CFI (cfiCond134) R7 load(1, XDATA, add(CFA_XSP16, literal(-6)))
        CFI (cfiCond134) ?RET_LOW load(1, XDATA, add(CFA_XSP16, literal(-5)))
        CFI (cfiCond134) ?RET_HIGH load(1, XDATA, add(CFA_XSP16, literal(-4)))
        CFI (cfiCond134) ?BRET_EXT load(1, XDATA, add(CFA_XSP16, literal(-3)))
        CFI (cfiCond134) DPL0 load(1, XDATA, add(CFA_XSP16, literal(-2)))
        CFI (cfiCond134) DPH0 load(1, XDATA, add(CFA_XSP16, literal(-1)))
        CFI (cfiCond134) CFA_SP SP+0
        CFI (cfiCond134) CFA_XSP16 add(XSP16, 23)
        CFI Block cfiCond135 Using cfiCommon0
        CFI (cfiCond135) NoFunction
        CFI (cfiCond135) Conditional ??CrossCallReturnLabel_33
        CFI (cfiCond135) R6 load(1, XDATA, add(CFA_XSP16, literal(-23)))
        CFI (cfiCond135) VB load(1, XDATA, add(CFA_XSP16, literal(-22)))
        CFI (cfiCond135) V0 load(1, XDATA, add(CFA_XSP16, literal(-21)))
        CFI (cfiCond135) V1 load(1, XDATA, add(CFA_XSP16, literal(-20)))
        CFI (cfiCond135) V2 load(1, XDATA, add(CFA_XSP16, literal(-19)))
        CFI (cfiCond135) V3 load(1, XDATA, add(CFA_XSP16, literal(-18)))
        CFI (cfiCond135) V4 load(1, XDATA, add(CFA_XSP16, literal(-17)))
        CFI (cfiCond135) V5 load(1, XDATA, add(CFA_XSP16, literal(-16)))
        CFI (cfiCond135) V6 load(1, XDATA, add(CFA_XSP16, literal(-15)))
        CFI (cfiCond135) V7 load(1, XDATA, add(CFA_XSP16, literal(-14)))
        CFI (cfiCond135) V8 load(1, XDATA, add(CFA_XSP16, literal(-13)))
        CFI (cfiCond135) V9 load(1, XDATA, add(CFA_XSP16, literal(-12)))
        CFI (cfiCond135) V10 load(1, XDATA, add(CFA_XSP16, literal(-11)))
        CFI (cfiCond135) V11 load(1, XDATA, add(CFA_XSP16, literal(-10)))
        CFI (cfiCond135) V12 load(1, XDATA, add(CFA_XSP16, literal(-9)))
        CFI (cfiCond135) V13 load(1, XDATA, add(CFA_XSP16, literal(-8)))
        CFI (cfiCond135) V14 load(1, XDATA, add(CFA_XSP16, literal(-7)))
        CFI (cfiCond135) R7 load(1, XDATA, add(CFA_XSP16, literal(-6)))
        CFI (cfiCond135) ?RET_LOW load(1, XDATA, add(CFA_XSP16, literal(-5)))
        CFI (cfiCond135) ?RET_HIGH load(1, XDATA, add(CFA_XSP16, literal(-4)))
        CFI (cfiCond135) ?BRET_EXT load(1, XDATA, add(CFA_XSP16, literal(-3)))
        CFI (cfiCond135) DPL0 load(1, XDATA, add(CFA_XSP16, literal(-2)))
        CFI (cfiCond135) DPH0 load(1, XDATA, add(CFA_XSP16, literal(-1)))
        CFI (cfiCond135) CFA_SP SP+0
        CFI (cfiCond135) CFA_XSP16 add(XSP16, 23)
        CFI Block cfiPicker136 Using cfiCommon1
        CFI (cfiPicker136) NoFunction
        CFI (cfiPicker136) Picker
        MOV     R0,A
        LCALL   ?Subroutine43 & 0xFFFF
??CrossCallReturnLabel_136:
        RET
        CFI EndBlock cfiCond133
        CFI EndBlock cfiCond134
        CFI EndBlock cfiCond135
        CFI EndBlock cfiPicker136

        RSEG BANKED_CODE:CODE:NOROOT(0)
?Subroutine43:
        CFI Block cfiCond137 Using cfiCommon0
        CFI NoFunction
        CFI Conditional ??CrossCallReturnLabel_136, ??CrossCallReturnLabel_31
        CFI R6 load(1, XDATA, add(CFA_XSP16, literal(-23)))
        CFI VB load(1, XDATA, add(CFA_XSP16, literal(-22)))
        CFI V0 load(1, XDATA, add(CFA_XSP16, literal(-21)))
        CFI V1 load(1, XDATA, add(CFA_XSP16, literal(-20)))
        CFI V2 load(1, XDATA, add(CFA_XSP16, literal(-19)))
        CFI V3 load(1, XDATA, add(CFA_XSP16, literal(-18)))
        CFI V4 load(1, XDATA, add(CFA_XSP16, literal(-17)))
        CFI V5 load(1, XDATA, add(CFA_XSP16, literal(-16)))
        CFI V6 load(1, XDATA, add(CFA_XSP16, literal(-15)))
        CFI V7 load(1, XDATA, add(CFA_XSP16, literal(-14)))
        CFI V8 load(1, XDATA, add(CFA_XSP16, literal(-13)))
        CFI V9 load(1, XDATA, add(CFA_XSP16, literal(-12)))
        CFI V10 load(1, XDATA, add(CFA_XSP16, literal(-11)))
        CFI V11 load(1, XDATA, add(CFA_XSP16, literal(-10)))
        CFI V12 load(1, XDATA, add(CFA_XSP16, literal(-9)))
        CFI V13 load(1, XDATA, add(CFA_XSP16, literal(-8)))
        CFI V14 load(1, XDATA, add(CFA_XSP16, literal(-7)))
        CFI R7 load(1, XDATA, add(CFA_XSP16, literal(-6)))
        CFI ?RET_LOW load(1, XDATA, add(CFA_XSP16, literal(-5)))
        CFI ?RET_HIGH load(1, XDATA, add(CFA_XSP16, literal(-4)))
        CFI ?BRET_EXT load(1, XDATA, add(CFA_XSP16, literal(-3)))
        CFI DPL0 load(1, XDATA, add(CFA_XSP16, literal(-2)))
        CFI DPH0 load(1, XDATA, add(CFA_XSP16, literal(-1)))
        CFI CFA_SP SP+0
        CFI CFA_XSP16 add(XSP16, 23)
        CFI Block cfiCond138 Using cfiCommon0
        CFI (cfiCond138) NoFunction
        CFI (cfiCond138) Conditional ??CrossCallReturnLabel_136, ??CrossCallReturnLabel_32
        CFI (cfiCond138) R6 load(1, XDATA, add(CFA_XSP16, literal(-23)))
        CFI (cfiCond138) VB load(1, XDATA, add(CFA_XSP16, literal(-22)))
        CFI (cfiCond138) V0 load(1, XDATA, add(CFA_XSP16, literal(-21)))
        CFI (cfiCond138) V1 load(1, XDATA, add(CFA_XSP16, literal(-20)))
        CFI (cfiCond138) V2 load(1, XDATA, add(CFA_XSP16, literal(-19)))
        CFI (cfiCond138) V3 load(1, XDATA, add(CFA_XSP16, literal(-18)))
        CFI (cfiCond138) V4 load(1, XDATA, add(CFA_XSP16, literal(-17)))
        CFI (cfiCond138) V5 load(1, XDATA, add(CFA_XSP16, literal(-16)))
        CFI (cfiCond138) V6 load(1, XDATA, add(CFA_XSP16, literal(-15)))
        CFI (cfiCond138) V7 load(1, XDATA, add(CFA_XSP16, literal(-14)))
        CFI (cfiCond138) V8 load(1, XDATA, add(CFA_XSP16, literal(-13)))
        CFI (cfiCond138) V9 load(1, XDATA, add(CFA_XSP16, literal(-12)))
        CFI (cfiCond138) V10 load(1, XDATA, add(CFA_XSP16, literal(-11)))
        CFI (cfiCond138) V11 load(1, XDATA, add(CFA_XSP16, literal(-10)))
        CFI (cfiCond138) V12 load(1, XDATA, add(CFA_XSP16, literal(-9)))
        CFI (cfiCond138) V13 load(1, XDATA, add(CFA_XSP16, literal(-8)))
        CFI (cfiCond138) V14 load(1, XDATA, add(CFA_XSP16, literal(-7)))
        CFI (cfiCond138) R7 load(1, XDATA, add(CFA_XSP16, literal(-6)))
        CFI (cfiCond138) ?RET_LOW load(1, XDATA, add(CFA_XSP16, literal(-5)))
        CFI (cfiCond138) ?RET_HIGH load(1, XDATA, add(CFA_XSP16, literal(-4)))
        CFI (cfiCond138) ?BRET_EXT load(1, XDATA, add(CFA_XSP16, literal(-3)))
        CFI (cfiCond138) DPL0 load(1, XDATA, add(CFA_XSP16, literal(-2)))
        CFI (cfiCond138) DPH0 load(1, XDATA, add(CFA_XSP16, literal(-1)))
        CFI (cfiCond138) CFA_SP SP+0
        CFI (cfiCond138) CFA_XSP16 add(XSP16, 23)
        CFI Block cfiCond139 Using cfiCommon0
        CFI (cfiCond139) NoFunction
        CFI (cfiCond139) Conditional ??CrossCallReturnLabel_136, ??CrossCallReturnLabel_33
        CFI (cfiCond139) R6 load(1, XDATA, add(CFA_XSP16, literal(-23)))
        CFI (cfiCond139) VB load(1, XDATA, add(CFA_XSP16, literal(-22)))
        CFI (cfiCond139) V0 load(1, XDATA, add(CFA_XSP16, literal(-21)))
        CFI (cfiCond139) V1 load(1, XDATA, add(CFA_XSP16, literal(-20)))
        CFI (cfiCond139) V2 load(1, XDATA, add(CFA_XSP16, literal(-19)))
        CFI (cfiCond139) V3 load(1, XDATA, add(CFA_XSP16, literal(-18)))
        CFI (cfiCond139) V4 load(1, XDATA, add(CFA_XSP16, literal(-17)))
        CFI (cfiCond139) V5 load(1, XDATA, add(CFA_XSP16, literal(-16)))
        CFI (cfiCond139) V6 load(1, XDATA, add(CFA_XSP16, literal(-15)))
        CFI (cfiCond139) V7 load(1, XDATA, add(CFA_XSP16, literal(-14)))
        CFI (cfiCond139) V8 load(1, XDATA, add(CFA_XSP16, literal(-13)))
        CFI (cfiCond139) V9 load(1, XDATA, add(CFA_XSP16, literal(-12)))
        CFI (cfiCond139) V10 load(1, XDATA, add(CFA_XSP16, literal(-11)))
        CFI (cfiCond139) V11 load(1, XDATA, add(CFA_XSP16, literal(-10)))
        CFI (cfiCond139) V12 load(1, XDATA, add(CFA_XSP16, literal(-9)))
        CFI (cfiCond139) V13 load(1, XDATA, add(CFA_XSP16, literal(-8)))
        CFI (cfiCond139) V14 load(1, XDATA, add(CFA_XSP16, literal(-7)))
        CFI (cfiCond139) R7 load(1, XDATA, add(CFA_XSP16, literal(-6)))
        CFI (cfiCond139) ?RET_LOW load(1, XDATA, add(CFA_XSP16, literal(-5)))
        CFI (cfiCond139) ?RET_HIGH load(1, XDATA, add(CFA_XSP16, literal(-4)))
        CFI (cfiCond139) ?BRET_EXT load(1, XDATA, add(CFA_XSP16, literal(-3)))
        CFI (cfiCond139) DPL0 load(1, XDATA, add(CFA_XSP16, literal(-2)))
        CFI (cfiCond139) DPH0 load(1, XDATA, add(CFA_XSP16, literal(-1)))
        CFI (cfiCond139) CFA_SP SP+0
        CFI (cfiCond139) CFA_XSP16 add(XSP16, 23)
        CFI Block cfiCond140 Using cfiCommon0
        CFI (cfiCond140) NoFunction
        CFI (cfiCond140) Conditional ??CrossCallReturnLabel_135, ??CrossCallReturnLabel_0
        CFI (cfiCond140) R6 load(1, XDATA, add(CFA_XSP16, literal(-23)))
        CFI (cfiCond140) VB load(1, XDATA, add(CFA_XSP16, literal(-22)))
        CFI (cfiCond140) V0 load(1, XDATA, add(CFA_XSP16, literal(-21)))
        CFI (cfiCond140) V1 load(1, XDATA, add(CFA_XSP16, literal(-20)))
        CFI (cfiCond140) V2 load(1, XDATA, add(CFA_XSP16, literal(-19)))
        CFI (cfiCond140) V3 load(1, XDATA, add(CFA_XSP16, literal(-18)))
        CFI (cfiCond140) V4 load(1, XDATA, add(CFA_XSP16, literal(-17)))
        CFI (cfiCond140) V5 load(1, XDATA, add(CFA_XSP16, literal(-16)))
        CFI (cfiCond140) V6 load(1, XDATA, add(CFA_XSP16, literal(-15)))
        CFI (cfiCond140) V7 load(1, XDATA, add(CFA_XSP16, literal(-14)))
        CFI (cfiCond140) V8 load(1, XDATA, add(CFA_XSP16, literal(-13)))
        CFI (cfiCond140) V9 load(1, XDATA, add(CFA_XSP16, literal(-12)))
        CFI (cfiCond140) V10 load(1, XDATA, add(CFA_XSP16, literal(-11)))
        CFI (cfiCond140) V11 load(1, XDATA, add(CFA_XSP16, literal(-10)))
        CFI (cfiCond140) V12 load(1, XDATA, add(CFA_XSP16, literal(-9)))
        CFI (cfiCond140) V13 load(1, XDATA, add(CFA_XSP16, literal(-8)))
        CFI (cfiCond140) V14 load(1, XDATA, add(CFA_XSP16, literal(-7)))
        CFI (cfiCond140) R7 load(1, XDATA, add(CFA_XSP16, literal(-6)))
        CFI (cfiCond140) ?RET_LOW load(1, XDATA, add(CFA_XSP16, literal(-5)))
        CFI (cfiCond140) ?RET_HIGH load(1, XDATA, add(CFA_XSP16, literal(-4)))
        CFI (cfiCond140) ?BRET_EXT load(1, XDATA, add(CFA_XSP16, literal(-3)))
        CFI (cfiCond140) DPL0 load(1, XDATA, add(CFA_XSP16, literal(-2)))
        CFI (cfiCond140) DPH0 load(1, XDATA, add(CFA_XSP16, literal(-1)))
        CFI (cfiCond140) CFA_SP SP+0
        CFI (cfiCond140) CFA_XSP16 add(XSP16, 23)
        CFI Block cfiCond141 Using cfiCommon0
        CFI (cfiCond141) NoFunction
        CFI (cfiCond141) Conditional ??CrossCallReturnLabel_135, ??CrossCallReturnLabel_1
        CFI (cfiCond141) R6 load(1, XDATA, add(CFA_XSP16, literal(-23)))
        CFI (cfiCond141) VB load(1, XDATA, add(CFA_XSP16, literal(-22)))
        CFI (cfiCond141) V0 load(1, XDATA, add(CFA_XSP16, literal(-21)))
        CFI (cfiCond141) V1 load(1, XDATA, add(CFA_XSP16, literal(-20)))
        CFI (cfiCond141) V2 load(1, XDATA, add(CFA_XSP16, literal(-19)))
        CFI (cfiCond141) V3 load(1, XDATA, add(CFA_XSP16, literal(-18)))
        CFI (cfiCond141) V4 load(1, XDATA, add(CFA_XSP16, literal(-17)))
        CFI (cfiCond141) V5 load(1, XDATA, add(CFA_XSP16, literal(-16)))
        CFI (cfiCond141) V6 load(1, XDATA, add(CFA_XSP16, literal(-15)))
        CFI (cfiCond141) V7 load(1, XDATA, add(CFA_XSP16, literal(-14)))
        CFI (cfiCond141) V8 load(1, XDATA, add(CFA_XSP16, literal(-13)))
        CFI (cfiCond141) V9 load(1, XDATA, add(CFA_XSP16, literal(-12)))
        CFI (cfiCond141) V10 load(1, XDATA, add(CFA_XSP16, literal(-11)))
        CFI (cfiCond141) V11 load(1, XDATA, add(CFA_XSP16, literal(-10)))
        CFI (cfiCond141) V12 load(1, XDATA, add(CFA_XSP16, literal(-9)))
        CFI (cfiCond141) V13 load(1, XDATA, add(CFA_XSP16, literal(-8)))
        CFI (cfiCond141) V14 load(1, XDATA, add(CFA_XSP16, literal(-7)))
        CFI (cfiCond141) R7 load(1, XDATA, add(CFA_XSP16, literal(-6)))
        CFI (cfiCond141) ?RET_LOW load(1, XDATA, add(CFA_XSP16, literal(-5)))
        CFI (cfiCond141) ?RET_HIGH load(1, XDATA, add(CFA_XSP16, literal(-4)))
        CFI (cfiCond141) ?BRET_EXT load(1, XDATA, add(CFA_XSP16, literal(-3)))
        CFI (cfiCond141) DPL0 load(1, XDATA, add(CFA_XSP16, literal(-2)))
        CFI (cfiCond141) DPH0 load(1, XDATA, add(CFA_XSP16, literal(-1)))
        CFI (cfiCond141) CFA_SP SP+0
        CFI (cfiCond141) CFA_XSP16 add(XSP16, 23)
        CFI Block cfiPicker142 Using cfiCommon1
        CFI (cfiPicker142) NoFunction
        CFI (cfiPicker142) Picker
        MOV     A,?V0 + 9
        CFI EndBlock cfiCond137
        CFI EndBlock cfiCond138
        CFI EndBlock cfiCond139
        CFI EndBlock cfiCond140
        CFI EndBlock cfiCond141
        CFI EndBlock cfiPicker142
        REQUIRE ??Subroutine52_0
        ; // Fall through to label ??Subroutine52_0

        RSEG BANKED_CODE:CODE:NOROOT(0)
??Subroutine52_0:
        CFI Block cfiCond143 Using cfiCommon0
        CFI NoFunction
        CFI Conditional ??CrossCallReturnLabel_137, ??CrossCallReturnLabel_133, ??CrossCallReturnLabel_81
        CFI R6 load(1, XDATA, add(CFA_XSP16, literal(-9)))
        CFI VB load(1, XDATA, add(CFA_XSP16, literal(-8)))
        CFI V0 load(1, XDATA, add(CFA_XSP16, literal(-7)))
        CFI R7 load(1, XDATA, add(CFA_XSP16, literal(-6)))
        CFI ?RET_LOW load(1, XDATA, add(CFA_XSP16, literal(-5)))
        CFI ?RET_HIGH load(1, XDATA, add(CFA_XSP16, literal(-4)))
        CFI ?BRET_EXT load(1, XDATA, add(CFA_XSP16, literal(-3)))
        CFI DPL0 load(1, XDATA, add(CFA_XSP16, literal(-2)))
        CFI DPH0 load(1, XDATA, add(CFA_XSP16, literal(-1)))
        CFI CFA_SP SP+0
        CFI CFA_XSP16 add(XSP16, 9)
        CFI Block cfiCond144 Using cfiCommon0
        CFI (cfiCond144) NoFunction
        CFI (cfiCond144) Conditional ??CrossCallReturnLabel_137, ??CrossCallReturnLabel_133, ??CrossCallReturnLabel_82
        CFI (cfiCond144) R6 load(1, XDATA, add(CFA_XSP16, literal(-9)))
        CFI (cfiCond144) VB load(1, XDATA, add(CFA_XSP16, literal(-8)))
        CFI (cfiCond144) V0 load(1, XDATA, add(CFA_XSP16, literal(-7)))
        CFI (cfiCond144) R7 load(1, XDATA, add(CFA_XSP16, literal(-6)))
        CFI (cfiCond144) ?RET_LOW load(1, XDATA, add(CFA_XSP16, literal(-5)))
        CFI (cfiCond144) ?RET_HIGH load(1, XDATA, add(CFA_XSP16, literal(-4)))
        CFI (cfiCond144) ?BRET_EXT load(1, XDATA, add(CFA_XSP16, literal(-3)))
        CFI (cfiCond144) DPL0 load(1, XDATA, add(CFA_XSP16, literal(-2)))
        CFI (cfiCond144) DPH0 load(1, XDATA, add(CFA_XSP16, literal(-1)))
        CFI (cfiCond144) CFA_SP SP+0
        CFI (cfiCond144) CFA_XSP16 add(XSP16, 9)
        CFI Block cfiCond145 Using cfiCommon0
        CFI (cfiCond145) NoFunction
        CFI (cfiCond145) Conditional ??CrossCallReturnLabel_137, ??CrossCallReturnLabel_133, ??CrossCallReturnLabel_79
        CFI (cfiCond145) R6 load(1, XDATA, add(CFA_XSP16, literal(-11)))
        CFI (cfiCond145) VB load(1, XDATA, add(CFA_XSP16, literal(-10)))
        CFI (cfiCond145) V0 load(1, XDATA, add(CFA_XSP16, literal(-9)))
        CFI (cfiCond145) V1 load(1, XDATA, add(CFA_XSP16, literal(-8)))
        CFI (cfiCond145) V2 load(1, XDATA, add(CFA_XSP16, literal(-7)))
        CFI (cfiCond145) R7 load(1, XDATA, add(CFA_XSP16, literal(-6)))
        CFI (cfiCond145) ?RET_LOW load(1, XDATA, add(CFA_XSP16, literal(-5)))
        CFI (cfiCond145) ?RET_HIGH load(1, XDATA, add(CFA_XSP16, literal(-4)))
        CFI (cfiCond145) ?BRET_EXT load(1, XDATA, add(CFA_XSP16, literal(-3)))
        CFI (cfiCond145) DPL0 load(1, XDATA, add(CFA_XSP16, literal(-2)))
        CFI (cfiCond145) DPH0 load(1, XDATA, add(CFA_XSP16, literal(-1)))
        CFI (cfiCond145) CFA_SP SP+0
        CFI (cfiCond145) CFA_XSP16 add(XSP16, 12)
        CFI Block cfiCond146 Using cfiCommon0
        CFI (cfiCond146) NoFunction
        CFI (cfiCond146) Conditional ??CrossCallReturnLabel_137, ??CrossCallReturnLabel_133, ??CrossCallReturnLabel_80
        CFI (cfiCond146) R6 load(1, XDATA, add(CFA_XSP16, literal(-11)))
        CFI (cfiCond146) VB load(1, XDATA, add(CFA_XSP16, literal(-10)))
        CFI (cfiCond146) V0 load(1, XDATA, add(CFA_XSP16, literal(-9)))
        CFI (cfiCond146) V1 load(1, XDATA, add(CFA_XSP16, literal(-8)))
        CFI (cfiCond146) V2 load(1, XDATA, add(CFA_XSP16, literal(-7)))
        CFI (cfiCond146) R7 load(1, XDATA, add(CFA_XSP16, literal(-6)))
        CFI (cfiCond146) ?RET_LOW load(1, XDATA, add(CFA_XSP16, literal(-5)))
        CFI (cfiCond146) ?RET_HIGH load(1, XDATA, add(CFA_XSP16, literal(-4)))
        CFI (cfiCond146) ?BRET_EXT load(1, XDATA, add(CFA_XSP16, literal(-3)))
        CFI (cfiCond146) DPL0 load(1, XDATA, add(CFA_XSP16, literal(-2)))
        CFI (cfiCond146) DPH0 load(1, XDATA, add(CFA_XSP16, literal(-1)))
        CFI (cfiCond146) CFA_SP SP+0
        CFI (cfiCond146) CFA_XSP16 add(XSP16, 21)
        CFI Block cfiCond147 Using cfiCommon0
        CFI (cfiCond147) NoFunction
        CFI (cfiCond147) Conditional ??CrossCallReturnLabel_137, ??CrossCallReturnLabel_134, ??CrossCallReturnLabel_131
        CFI (cfiCond147) R6 load(1, XDATA, add(CFA_XSP16, literal(-22)))
        CFI (cfiCond147) VB load(1, XDATA, add(CFA_XSP16, literal(-21)))
        CFI (cfiCond147) V0 load(1, XDATA, add(CFA_XSP16, literal(-20)))
        CFI (cfiCond147) V1 load(1, XDATA, add(CFA_XSP16, literal(-19)))
        CFI (cfiCond147) V2 load(1, XDATA, add(CFA_XSP16, literal(-18)))
        CFI (cfiCond147) V3 load(1, XDATA, add(CFA_XSP16, literal(-17)))
        CFI (cfiCond147) V4 load(1, XDATA, add(CFA_XSP16, literal(-16)))
        CFI (cfiCond147) V5 load(1, XDATA, add(CFA_XSP16, literal(-15)))
        CFI (cfiCond147) V6 load(1, XDATA, add(CFA_XSP16, literal(-14)))
        CFI (cfiCond147) V7 load(1, XDATA, add(CFA_XSP16, literal(-13)))
        CFI (cfiCond147) V8 load(1, XDATA, add(CFA_XSP16, literal(-12)))
        CFI (cfiCond147) V9 load(1, XDATA, add(CFA_XSP16, literal(-11)))
        CFI (cfiCond147) V10 load(1, XDATA, add(CFA_XSP16, literal(-10)))
        CFI (cfiCond147) V11 load(1, XDATA, add(CFA_XSP16, literal(-9)))
        CFI (cfiCond147) V12 load(1, XDATA, add(CFA_XSP16, literal(-8)))
        CFI (cfiCond147) V13 load(1, XDATA, add(CFA_XSP16, literal(-7)))
        CFI (cfiCond147) R7 load(1, XDATA, add(CFA_XSP16, literal(-6)))
        CFI (cfiCond147) ?RET_LOW load(1, XDATA, add(CFA_XSP16, literal(-5)))
        CFI (cfiCond147) ?RET_HIGH load(1, XDATA, add(CFA_XSP16, literal(-4)))
        CFI (cfiCond147) ?BRET_EXT load(1, XDATA, add(CFA_XSP16, literal(-3)))
        CFI (cfiCond147) DPL0 load(1, XDATA, add(CFA_XSP16, literal(-2)))
        CFI (cfiCond147) DPH0 load(1, XDATA, add(CFA_XSP16, literal(-1)))
        CFI (cfiCond147) CFA_SP SP+0
        CFI (cfiCond147) CFA_XSP16 add(XSP16, 36)
        CFI Block cfiCond148 Using cfiCommon0
        CFI (cfiCond148) NoFunction
        CFI (cfiCond148) Conditional ??CrossCallReturnLabel_137, ??CrossCallReturnLabel_134, ??CrossCallReturnLabel_132
        CFI (cfiCond148) R6 load(1, XDATA, add(CFA_XSP16, literal(-11)))
        CFI (cfiCond148) VB load(1, XDATA, add(CFA_XSP16, literal(-10)))
        CFI (cfiCond148) V0 load(1, XDATA, add(CFA_XSP16, literal(-9)))
        CFI (cfiCond148) V1 load(1, XDATA, add(CFA_XSP16, literal(-8)))
        CFI (cfiCond148) V2 load(1, XDATA, add(CFA_XSP16, literal(-7)))
        CFI (cfiCond148) R7 load(1, XDATA, add(CFA_XSP16, literal(-6)))
        CFI (cfiCond148) ?RET_LOW load(1, XDATA, add(CFA_XSP16, literal(-5)))
        CFI (cfiCond148) ?RET_HIGH load(1, XDATA, add(CFA_XSP16, literal(-4)))
        CFI (cfiCond148) ?BRET_EXT load(1, XDATA, add(CFA_XSP16, literal(-3)))
        CFI (cfiCond148) DPL0 load(1, XDATA, add(CFA_XSP16, literal(-2)))
        CFI (cfiCond148) DPH0 load(1, XDATA, add(CFA_XSP16, literal(-1)))
        CFI (cfiCond148) CFA_SP SP+0
        CFI (cfiCond148) CFA_XSP16 add(XSP16, 19)
        CFI Block cfiCond149 Using cfiCommon0
        CFI (cfiCond149) NoFunction
        CFI (cfiCond149) Conditional ??CrossCallReturnLabel_137, ??CrossCallReturnLabel_134, ??CrossCallReturnLabel_124
        CFI (cfiCond149) R6 load(1, XDATA, add(CFA_XSP16, literal(-22)))
        CFI (cfiCond149) VB load(1, XDATA, add(CFA_XSP16, literal(-21)))
        CFI (cfiCond149) V0 load(1, XDATA, add(CFA_XSP16, literal(-20)))
        CFI (cfiCond149) V1 load(1, XDATA, add(CFA_XSP16, literal(-19)))
        CFI (cfiCond149) V2 load(1, XDATA, add(CFA_XSP16, literal(-18)))
        CFI (cfiCond149) V3 load(1, XDATA, add(CFA_XSP16, literal(-17)))
        CFI (cfiCond149) V4 load(1, XDATA, add(CFA_XSP16, literal(-16)))
        CFI (cfiCond149) V5 load(1, XDATA, add(CFA_XSP16, literal(-15)))
        CFI (cfiCond149) V6 load(1, XDATA, add(CFA_XSP16, literal(-14)))
        CFI (cfiCond149) V7 load(1, XDATA, add(CFA_XSP16, literal(-13)))
        CFI (cfiCond149) V8 load(1, XDATA, add(CFA_XSP16, literal(-12)))
        CFI (cfiCond149) V9 load(1, XDATA, add(CFA_XSP16, literal(-11)))
        CFI (cfiCond149) V10 load(1, XDATA, add(CFA_XSP16, literal(-10)))
        CFI (cfiCond149) V11 load(1, XDATA, add(CFA_XSP16, literal(-9)))
        CFI (cfiCond149) V12 load(1, XDATA, add(CFA_XSP16, literal(-8)))
        CFI (cfiCond149) V13 load(1, XDATA, add(CFA_XSP16, literal(-7)))
        CFI (cfiCond149) R7 load(1, XDATA, add(CFA_XSP16, literal(-6)))
        CFI (cfiCond149) ?RET_LOW load(1, XDATA, add(CFA_XSP16, literal(-5)))
        CFI (cfiCond149) ?RET_HIGH load(1, XDATA, add(CFA_XSP16, literal(-4)))
        CFI (cfiCond149) ?BRET_EXT load(1, XDATA, add(CFA_XSP16, literal(-3)))
        CFI (cfiCond149) DPL0 load(1, XDATA, add(CFA_XSP16, literal(-2)))
        CFI (cfiCond149) DPH0 load(1, XDATA, add(CFA_XSP16, literal(-1)))
        CFI (cfiCond149) CFA_SP SP+0
        CFI (cfiCond149) CFA_XSP16 add(XSP16, 36)
        CFI Block cfiCond150 Using cfiCommon0
        CFI (cfiCond150) NoFunction
        CFI (cfiCond150) Conditional ??CrossCallReturnLabel_137, ??CrossCallReturnLabel_134, ??CrossCallReturnLabel_125
        CFI (cfiCond150) R6 load(1, XDATA, add(CFA_XSP16, literal(-22)))
        CFI (cfiCond150) VB load(1, XDATA, add(CFA_XSP16, literal(-21)))
        CFI (cfiCond150) V0 load(1, XDATA, add(CFA_XSP16, literal(-20)))
        CFI (cfiCond150) V1 load(1, XDATA, add(CFA_XSP16, literal(-19)))
        CFI (cfiCond150) V2 load(1, XDATA, add(CFA_XSP16, literal(-18)))
        CFI (cfiCond150) V3 load(1, XDATA, add(CFA_XSP16, literal(-17)))
        CFI (cfiCond150) V4 load(1, XDATA, add(CFA_XSP16, literal(-16)))
        CFI (cfiCond150) V5 load(1, XDATA, add(CFA_XSP16, literal(-15)))
        CFI (cfiCond150) V6 load(1, XDATA, add(CFA_XSP16, literal(-14)))
        CFI (cfiCond150) V7 load(1, XDATA, add(CFA_XSP16, literal(-13)))
        CFI (cfiCond150) V8 load(1, XDATA, add(CFA_XSP16, literal(-12)))
        CFI (cfiCond150) V9 load(1, XDATA, add(CFA_XSP16, literal(-11)))
        CFI (cfiCond150) V10 load(1, XDATA, add(CFA_XSP16, literal(-10)))
        CFI (cfiCond150) V11 load(1, XDATA, add(CFA_XSP16, literal(-9)))
        CFI (cfiCond150) V12 load(1, XDATA, add(CFA_XSP16, literal(-8)))
        CFI (cfiCond150) V13 load(1, XDATA, add(CFA_XSP16, literal(-7)))
        CFI (cfiCond150) R7 load(1, XDATA, add(CFA_XSP16, literal(-6)))
        CFI (cfiCond150) ?RET_LOW load(1, XDATA, add(CFA_XSP16, literal(-5)))
        CFI (cfiCond150) ?RET_HIGH load(1, XDATA, add(CFA_XSP16, literal(-4)))
        CFI (cfiCond150) ?BRET_EXT load(1, XDATA, add(CFA_XSP16, literal(-3)))
        CFI (cfiCond150) DPL0 load(1, XDATA, add(CFA_XSP16, literal(-2)))
        CFI (cfiCond150) DPH0 load(1, XDATA, add(CFA_XSP16, literal(-1)))
        CFI (cfiCond150) CFA_SP SP+0
        CFI (cfiCond150) CFA_XSP16 add(XSP16, 36)
        CFI Block cfiCond151 Using cfiCommon0
        CFI (cfiCond151) NoFunction
        CFI (cfiCond151) Conditional ??CrossCallReturnLabel_137, ??CrossCallReturnLabel_134, ??CrossCallReturnLabel_126
        CFI (cfiCond151) R6 load(1, XDATA, add(CFA_XSP16, literal(-22)))
        CFI (cfiCond151) VB load(1, XDATA, add(CFA_XSP16, literal(-21)))
        CFI (cfiCond151) V0 load(1, XDATA, add(CFA_XSP16, literal(-20)))
        CFI (cfiCond151) V1 load(1, XDATA, add(CFA_XSP16, literal(-19)))
        CFI (cfiCond151) V2 load(1, XDATA, add(CFA_XSP16, literal(-18)))
        CFI (cfiCond151) V3 load(1, XDATA, add(CFA_XSP16, literal(-17)))
        CFI (cfiCond151) V4 load(1, XDATA, add(CFA_XSP16, literal(-16)))
        CFI (cfiCond151) V5 load(1, XDATA, add(CFA_XSP16, literal(-15)))
        CFI (cfiCond151) V6 load(1, XDATA, add(CFA_XSP16, literal(-14)))
        CFI (cfiCond151) V7 load(1, XDATA, add(CFA_XSP16, literal(-13)))
        CFI (cfiCond151) V8 load(1, XDATA, add(CFA_XSP16, literal(-12)))
        CFI (cfiCond151) V9 load(1, XDATA, add(CFA_XSP16, literal(-11)))
        CFI (cfiCond151) V10 load(1, XDATA, add(CFA_XSP16, literal(-10)))
        CFI (cfiCond151) V11 load(1, XDATA, add(CFA_XSP16, literal(-9)))
        CFI (cfiCond151) V12 load(1, XDATA, add(CFA_XSP16, literal(-8)))
        CFI (cfiCond151) V13 load(1, XDATA, add(CFA_XSP16, literal(-7)))
        CFI (cfiCond151) R7 load(1, XDATA, add(CFA_XSP16, literal(-6)))
        CFI (cfiCond151) ?RET_LOW load(1, XDATA, add(CFA_XSP16, literal(-5)))
        CFI (cfiCond151) ?RET_HIGH load(1, XDATA, add(CFA_XSP16, literal(-4)))
        CFI (cfiCond151) ?BRET_EXT load(1, XDATA, add(CFA_XSP16, literal(-3)))
        CFI (cfiCond151) DPL0 load(1, XDATA, add(CFA_XSP16, literal(-2)))
        CFI (cfiCond151) DPH0 load(1, XDATA, add(CFA_XSP16, literal(-1)))
        CFI (cfiCond151) CFA_SP SP+-1
        CFI (cfiCond151) CFA_XSP16 add(XSP16, 36)
        CFI Block cfiCond152 Using cfiCommon0
        CFI (cfiCond152) NoFunction
        CFI (cfiCond152) Conditional ??CrossCallReturnLabel_137, ??CrossCallReturnLabel_134, ??CrossCallReturnLabel_127
        CFI (cfiCond152) R6 load(1, XDATA, add(CFA_XSP16, literal(-22)))
        CFI (cfiCond152) VB load(1, XDATA, add(CFA_XSP16, literal(-21)))
        CFI (cfiCond152) V0 load(1, XDATA, add(CFA_XSP16, literal(-20)))
        CFI (cfiCond152) V1 load(1, XDATA, add(CFA_XSP16, literal(-19)))
        CFI (cfiCond152) V2 load(1, XDATA, add(CFA_XSP16, literal(-18)))
        CFI (cfiCond152) V3 load(1, XDATA, add(CFA_XSP16, literal(-17)))
        CFI (cfiCond152) V4 load(1, XDATA, add(CFA_XSP16, literal(-16)))
        CFI (cfiCond152) V5 load(1, XDATA, add(CFA_XSP16, literal(-15)))
        CFI (cfiCond152) V6 load(1, XDATA, add(CFA_XSP16, literal(-14)))
        CFI (cfiCond152) V7 load(1, XDATA, add(CFA_XSP16, literal(-13)))
        CFI (cfiCond152) V8 load(1, XDATA, add(CFA_XSP16, literal(-12)))
        CFI (cfiCond152) V9 load(1, XDATA, add(CFA_XSP16, literal(-11)))
        CFI (cfiCond152) V10 load(1, XDATA, add(CFA_XSP16, literal(-10)))
        CFI (cfiCond152) V11 load(1, XDATA, add(CFA_XSP16, literal(-9)))
        CFI (cfiCond152) V12 load(1, XDATA, add(CFA_XSP16, literal(-8)))
        CFI (cfiCond152) V13 load(1, XDATA, add(CFA_XSP16, literal(-7)))
        CFI (cfiCond152) R7 load(1, XDATA, add(CFA_XSP16, literal(-6)))
        CFI (cfiCond152) ?RET_LOW load(1, XDATA, add(CFA_XSP16, literal(-5)))
        CFI (cfiCond152) ?RET_HIGH load(1, XDATA, add(CFA_XSP16, literal(-4)))
        CFI (cfiCond152) ?BRET_EXT load(1, XDATA, add(CFA_XSP16, literal(-3)))
        CFI (cfiCond152) DPL0 load(1, XDATA, add(CFA_XSP16, literal(-2)))
        CFI (cfiCond152) DPH0 load(1, XDATA, add(CFA_XSP16, literal(-1)))
        CFI (cfiCond152) CFA_SP SP+0
        CFI (cfiCond152) CFA_XSP16 add(XSP16, 36)
        CFI Block cfiCond153 Using cfiCommon0
        CFI (cfiCond153) NoFunction
        CFI (cfiCond153) Conditional ??CrossCallReturnLabel_137, ??CrossCallReturnLabel_134, ??CrossCallReturnLabel_128
        CFI (cfiCond153) R6 load(1, XDATA, add(CFA_XSP16, literal(-22)))
        CFI (cfiCond153) VB load(1, XDATA, add(CFA_XSP16, literal(-21)))
        CFI (cfiCond153) V0 load(1, XDATA, add(CFA_XSP16, literal(-20)))
        CFI (cfiCond153) V1 load(1, XDATA, add(CFA_XSP16, literal(-19)))
        CFI (cfiCond153) V2 load(1, XDATA, add(CFA_XSP16, literal(-18)))
        CFI (cfiCond153) V3 load(1, XDATA, add(CFA_XSP16, literal(-17)))
        CFI (cfiCond153) V4 load(1, XDATA, add(CFA_XSP16, literal(-16)))
        CFI (cfiCond153) V5 load(1, XDATA, add(CFA_XSP16, literal(-15)))
        CFI (cfiCond153) V6 load(1, XDATA, add(CFA_XSP16, literal(-14)))
        CFI (cfiCond153) V7 load(1, XDATA, add(CFA_XSP16, literal(-13)))
        CFI (cfiCond153) V8 load(1, XDATA, add(CFA_XSP16, literal(-12)))
        CFI (cfiCond153) V9 load(1, XDATA, add(CFA_XSP16, literal(-11)))
        CFI (cfiCond153) V10 load(1, XDATA, add(CFA_XSP16, literal(-10)))
        CFI (cfiCond153) V11 load(1, XDATA, add(CFA_XSP16, literal(-9)))
        CFI (cfiCond153) V12 load(1, XDATA, add(CFA_XSP16, literal(-8)))
        CFI (cfiCond153) V13 load(1, XDATA, add(CFA_XSP16, literal(-7)))
        CFI (cfiCond153) R7 load(1, XDATA, add(CFA_XSP16, literal(-6)))
        CFI (cfiCond153) ?RET_LOW load(1, XDATA, add(CFA_XSP16, literal(-5)))
        CFI (cfiCond153) ?RET_HIGH load(1, XDATA, add(CFA_XSP16, literal(-4)))
        CFI (cfiCond153) ?BRET_EXT load(1, XDATA, add(CFA_XSP16, literal(-3)))
        CFI (cfiCond153) DPL0 load(1, XDATA, add(CFA_XSP16, literal(-2)))
        CFI (cfiCond153) DPH0 load(1, XDATA, add(CFA_XSP16, literal(-1)))
        CFI (cfiCond153) CFA_SP SP+0
        CFI (cfiCond153) CFA_XSP16 add(XSP16, 36)
        CFI Block cfiCond154 Using cfiCommon0
        CFI (cfiCond154) NoFunction
        CFI (cfiCond154) Conditional ??CrossCallReturnLabel_137, ??CrossCallReturnLabel_134, ??CrossCallReturnLabel_129
        CFI (cfiCond154) R6 load(1, XDATA, add(CFA_XSP16, literal(-22)))
        CFI (cfiCond154) VB load(1, XDATA, add(CFA_XSP16, literal(-21)))
        CFI (cfiCond154) V0 load(1, XDATA, add(CFA_XSP16, literal(-20)))
        CFI (cfiCond154) V1 load(1, XDATA, add(CFA_XSP16, literal(-19)))
        CFI (cfiCond154) V2 load(1, XDATA, add(CFA_XSP16, literal(-18)))
        CFI (cfiCond154) V3 load(1, XDATA, add(CFA_XSP16, literal(-17)))
        CFI (cfiCond154) V4 load(1, XDATA, add(CFA_XSP16, literal(-16)))
        CFI (cfiCond154) V5 load(1, XDATA, add(CFA_XSP16, literal(-15)))
        CFI (cfiCond154) V6 load(1, XDATA, add(CFA_XSP16, literal(-14)))
        CFI (cfiCond154) V7 load(1, XDATA, add(CFA_XSP16, literal(-13)))
        CFI (cfiCond154) V8 load(1, XDATA, add(CFA_XSP16, literal(-12)))
        CFI (cfiCond154) V9 load(1, XDATA, add(CFA_XSP16, literal(-11)))
        CFI (cfiCond154) V10 load(1, XDATA, add(CFA_XSP16, literal(-10)))
        CFI (cfiCond154) V11 load(1, XDATA, add(CFA_XSP16, literal(-9)))
        CFI (cfiCond154) V12 load(1, XDATA, add(CFA_XSP16, literal(-8)))
        CFI (cfiCond154) V13 load(1, XDATA, add(CFA_XSP16, literal(-7)))
        CFI (cfiCond154) R7 load(1, XDATA, add(CFA_XSP16, literal(-6)))
        CFI (cfiCond154) ?RET_LOW load(1, XDATA, add(CFA_XSP16, literal(-5)))
        CFI (cfiCond154) ?RET_HIGH load(1, XDATA, add(CFA_XSP16, literal(-4)))
        CFI (cfiCond154) ?BRET_EXT load(1, XDATA, add(CFA_XSP16, literal(-3)))
        CFI (cfiCond154) DPL0 load(1, XDATA, add(CFA_XSP16, literal(-2)))
        CFI (cfiCond154) DPH0 load(1, XDATA, add(CFA_XSP16, literal(-1)))
        CFI (cfiCond154) CFA_SP SP+0
        CFI (cfiCond154) CFA_XSP16 add(XSP16, 36)
        CFI Block cfiCond155 Using cfiCommon0
        CFI (cfiCond155) NoFunction
        CFI (cfiCond155) Conditional ??CrossCallReturnLabel_137, ??CrossCallReturnLabel_134, ??CrossCallReturnLabel_130
        CFI (cfiCond155) R6 load(1, XDATA, add(CFA_XSP16, literal(-11)))
        CFI (cfiCond155) VB load(1, XDATA, add(CFA_XSP16, literal(-10)))
        CFI (cfiCond155) V0 load(1, XDATA, add(CFA_XSP16, literal(-9)))
        CFI (cfiCond155) V1 load(1, XDATA, add(CFA_XSP16, literal(-8)))
        CFI (cfiCond155) V2 load(1, XDATA, add(CFA_XSP16, literal(-7)))
        CFI (cfiCond155) R7 load(1, XDATA, add(CFA_XSP16, literal(-6)))
        CFI (cfiCond155) ?RET_LOW load(1, XDATA, add(CFA_XSP16, literal(-5)))
        CFI (cfiCond155) ?RET_HIGH load(1, XDATA, add(CFA_XSP16, literal(-4)))
        CFI (cfiCond155) ?BRET_EXT load(1, XDATA, add(CFA_XSP16, literal(-3)))
        CFI (cfiCond155) DPL0 load(1, XDATA, add(CFA_XSP16, literal(-2)))
        CFI (cfiCond155) DPH0 load(1, XDATA, add(CFA_XSP16, literal(-1)))
        CFI (cfiCond155) CFA_SP SP+0
        CFI (cfiCond155) CFA_XSP16 add(XSP16, 17)
        CFI Block cfiCond156 Using cfiCommon0
        CFI (cfiCond156) NoFunction
        CFI (cfiCond156) Conditional ??CrossCallReturnLabel_136, ??CrossCallReturnLabel_31
        CFI (cfiCond156) R6 load(1, XDATA, add(CFA_XSP16, literal(-23)))
        CFI (cfiCond156) VB load(1, XDATA, add(CFA_XSP16, literal(-22)))
        CFI (cfiCond156) V0 load(1, XDATA, add(CFA_XSP16, literal(-21)))
        CFI (cfiCond156) V1 load(1, XDATA, add(CFA_XSP16, literal(-20)))
        CFI (cfiCond156) V2 load(1, XDATA, add(CFA_XSP16, literal(-19)))
        CFI (cfiCond156) V3 load(1, XDATA, add(CFA_XSP16, literal(-18)))
        CFI (cfiCond156) V4 load(1, XDATA, add(CFA_XSP16, literal(-17)))
        CFI (cfiCond156) V5 load(1, XDATA, add(CFA_XSP16, literal(-16)))
        CFI (cfiCond156) V6 load(1, XDATA, add(CFA_XSP16, literal(-15)))
        CFI (cfiCond156) V7 load(1, XDATA, add(CFA_XSP16, literal(-14)))
        CFI (cfiCond156) V8 load(1, XDATA, add(CFA_XSP16, literal(-13)))
        CFI (cfiCond156) V9 load(1, XDATA, add(CFA_XSP16, literal(-12)))
        CFI (cfiCond156) V10 load(1, XDATA, add(CFA_XSP16, literal(-11)))
        CFI (cfiCond156) V11 load(1, XDATA, add(CFA_XSP16, literal(-10)))
        CFI (cfiCond156) V12 load(1, XDATA, add(CFA_XSP16, literal(-9)))
        CFI (cfiCond156) V13 load(1, XDATA, add(CFA_XSP16, literal(-8)))
        CFI (cfiCond156) V14 load(1, XDATA, add(CFA_XSP16, literal(-7)))
        CFI (cfiCond156) R7 load(1, XDATA, add(CFA_XSP16, literal(-6)))
        CFI (cfiCond156) ?RET_LOW load(1, XDATA, add(CFA_XSP16, literal(-5)))
        CFI (cfiCond156) ?RET_HIGH load(1, XDATA, add(CFA_XSP16, literal(-4)))
        CFI (cfiCond156) ?BRET_EXT load(1, XDATA, add(CFA_XSP16, literal(-3)))
        CFI (cfiCond156) DPL0 load(1, XDATA, add(CFA_XSP16, literal(-2)))
        CFI (cfiCond156) DPH0 load(1, XDATA, add(CFA_XSP16, literal(-1)))
        CFI (cfiCond156) CFA_SP SP+0
        CFI (cfiCond156) CFA_XSP16 add(XSP16, 23)
        CFI Block cfiCond157 Using cfiCommon0
        CFI (cfiCond157) NoFunction
        CFI (cfiCond157) Conditional ??CrossCallReturnLabel_136, ??CrossCallReturnLabel_32
        CFI (cfiCond157) R6 load(1, XDATA, add(CFA_XSP16, literal(-23)))
        CFI (cfiCond157) VB load(1, XDATA, add(CFA_XSP16, literal(-22)))
        CFI (cfiCond157) V0 load(1, XDATA, add(CFA_XSP16, literal(-21)))
        CFI (cfiCond157) V1 load(1, XDATA, add(CFA_XSP16, literal(-20)))
        CFI (cfiCond157) V2 load(1, XDATA, add(CFA_XSP16, literal(-19)))
        CFI (cfiCond157) V3 load(1, XDATA, add(CFA_XSP16, literal(-18)))
        CFI (cfiCond157) V4 load(1, XDATA, add(CFA_XSP16, literal(-17)))
        CFI (cfiCond157) V5 load(1, XDATA, add(CFA_XSP16, literal(-16)))
        CFI (cfiCond157) V6 load(1, XDATA, add(CFA_XSP16, literal(-15)))
        CFI (cfiCond157) V7 load(1, XDATA, add(CFA_XSP16, literal(-14)))
        CFI (cfiCond157) V8 load(1, XDATA, add(CFA_XSP16, literal(-13)))
        CFI (cfiCond157) V9 load(1, XDATA, add(CFA_XSP16, literal(-12)))
        CFI (cfiCond157) V10 load(1, XDATA, add(CFA_XSP16, literal(-11)))
        CFI (cfiCond157) V11 load(1, XDATA, add(CFA_XSP16, literal(-10)))
        CFI (cfiCond157) V12 load(1, XDATA, add(CFA_XSP16, literal(-9)))
        CFI (cfiCond157) V13 load(1, XDATA, add(CFA_XSP16, literal(-8)))
        CFI (cfiCond157) V14 load(1, XDATA, add(CFA_XSP16, literal(-7)))
        CFI (cfiCond157) R7 load(1, XDATA, add(CFA_XSP16, literal(-6)))
        CFI (cfiCond157) ?RET_LOW load(1, XDATA, add(CFA_XSP16, literal(-5)))
        CFI (cfiCond157) ?RET_HIGH load(1, XDATA, add(CFA_XSP16, literal(-4)))
        CFI (cfiCond157) ?BRET_EXT load(1, XDATA, add(CFA_XSP16, literal(-3)))
        CFI (cfiCond157) DPL0 load(1, XDATA, add(CFA_XSP16, literal(-2)))
        CFI (cfiCond157) DPH0 load(1, XDATA, add(CFA_XSP16, literal(-1)))
        CFI (cfiCond157) CFA_SP SP+0
        CFI (cfiCond157) CFA_XSP16 add(XSP16, 23)
        CFI Block cfiCond158 Using cfiCommon0
        CFI (cfiCond158) NoFunction
        CFI (cfiCond158) Conditional ??CrossCallReturnLabel_136, ??CrossCallReturnLabel_33
        CFI (cfiCond158) R6 load(1, XDATA, add(CFA_XSP16, literal(-23)))
        CFI (cfiCond158) VB load(1, XDATA, add(CFA_XSP16, literal(-22)))
        CFI (cfiCond158) V0 load(1, XDATA, add(CFA_XSP16, literal(-21)))
        CFI (cfiCond158) V1 load(1, XDATA, add(CFA_XSP16, literal(-20)))
        CFI (cfiCond158) V2 load(1, XDATA, add(CFA_XSP16, literal(-19)))
        CFI (cfiCond158) V3 load(1, XDATA, add(CFA_XSP16, literal(-18)))
        CFI (cfiCond158) V4 load(1, XDATA, add(CFA_XSP16, literal(-17)))
        CFI (cfiCond158) V5 load(1, XDATA, add(CFA_XSP16, literal(-16)))
        CFI (cfiCond158) V6 load(1, XDATA, add(CFA_XSP16, literal(-15)))
        CFI (cfiCond158) V7 load(1, XDATA, add(CFA_XSP16, literal(-14)))
        CFI (cfiCond158) V8 load(1, XDATA, add(CFA_XSP16, literal(-13)))
        CFI (cfiCond158) V9 load(1, XDATA, add(CFA_XSP16, literal(-12)))
        CFI (cfiCond158) V10 load(1, XDATA, add(CFA_XSP16, literal(-11)))
        CFI (cfiCond158) V11 load(1, XDATA, add(CFA_XSP16, literal(-10)))
        CFI (cfiCond158) V12 load(1, XDATA, add(CFA_XSP16, literal(-9)))
        CFI (cfiCond158) V13 load(1, XDATA, add(CFA_XSP16, literal(-8)))
        CFI (cfiCond158) V14 load(1, XDATA, add(CFA_XSP16, literal(-7)))
        CFI (cfiCond158) R7 load(1, XDATA, add(CFA_XSP16, literal(-6)))
        CFI (cfiCond158) ?RET_LOW load(1, XDATA, add(CFA_XSP16, literal(-5)))
        CFI (cfiCond158) ?RET_HIGH load(1, XDATA, add(CFA_XSP16, literal(-4)))
        CFI (cfiCond158) ?BRET_EXT load(1, XDATA, add(CFA_XSP16, literal(-3)))
        CFI (cfiCond158) DPL0 load(1, XDATA, add(CFA_XSP16, literal(-2)))
        CFI (cfiCond158) DPH0 load(1, XDATA, add(CFA_XSP16, literal(-1)))
        CFI (cfiCond158) CFA_SP SP+0
        CFI (cfiCond158) CFA_XSP16 add(XSP16, 23)
        CFI Block cfiCond159 Using cfiCommon0
        CFI (cfiCond159) NoFunction
        CFI (cfiCond159) Conditional ??CrossCallReturnLabel_135, ??CrossCallReturnLabel_0
        CFI (cfiCond159) R6 load(1, XDATA, add(CFA_XSP16, literal(-23)))
        CFI (cfiCond159) VB load(1, XDATA, add(CFA_XSP16, literal(-22)))
        CFI (cfiCond159) V0 load(1, XDATA, add(CFA_XSP16, literal(-21)))
        CFI (cfiCond159) V1 load(1, XDATA, add(CFA_XSP16, literal(-20)))
        CFI (cfiCond159) V2 load(1, XDATA, add(CFA_XSP16, literal(-19)))
        CFI (cfiCond159) V3 load(1, XDATA, add(CFA_XSP16, literal(-18)))
        CFI (cfiCond159) V4 load(1, XDATA, add(CFA_XSP16, literal(-17)))
        CFI (cfiCond159) V5 load(1, XDATA, add(CFA_XSP16, literal(-16)))
        CFI (cfiCond159) V6 load(1, XDATA, add(CFA_XSP16, literal(-15)))
        CFI (cfiCond159) V7 load(1, XDATA, add(CFA_XSP16, literal(-14)))
        CFI (cfiCond159) V8 load(1, XDATA, add(CFA_XSP16, literal(-13)))
        CFI (cfiCond159) V9 load(1, XDATA, add(CFA_XSP16, literal(-12)))
        CFI (cfiCond159) V10 load(1, XDATA, add(CFA_XSP16, literal(-11)))
        CFI (cfiCond159) V11 load(1, XDATA, add(CFA_XSP16, literal(-10)))
        CFI (cfiCond159) V12 load(1, XDATA, add(CFA_XSP16, literal(-9)))
        CFI (cfiCond159) V13 load(1, XDATA, add(CFA_XSP16, literal(-8)))
        CFI (cfiCond159) V14 load(1, XDATA, add(CFA_XSP16, literal(-7)))
        CFI (cfiCond159) R7 load(1, XDATA, add(CFA_XSP16, literal(-6)))
        CFI (cfiCond159) ?RET_LOW load(1, XDATA, add(CFA_XSP16, literal(-5)))
        CFI (cfiCond159) ?RET_HIGH load(1, XDATA, add(CFA_XSP16, literal(-4)))
        CFI (cfiCond159) ?BRET_EXT load(1, XDATA, add(CFA_XSP16, literal(-3)))
        CFI (cfiCond159) DPL0 load(1, XDATA, add(CFA_XSP16, literal(-2)))
        CFI (cfiCond159) DPH0 load(1, XDATA, add(CFA_XSP16, literal(-1)))
        CFI (cfiCond159) CFA_SP SP+0
        CFI (cfiCond159) CFA_XSP16 add(XSP16, 23)
        CFI Block cfiCond160 Using cfiCommon0
        CFI (cfiCond160) NoFunction
        CFI (cfiCond160) Conditional ??CrossCallReturnLabel_135, ??CrossCallReturnLabel_1
        CFI (cfiCond160) R6 load(1, XDATA, add(CFA_XSP16, literal(-23)))
        CFI (cfiCond160) VB load(1, XDATA, add(CFA_XSP16, literal(-22)))
        CFI (cfiCond160) V0 load(1, XDATA, add(CFA_XSP16, literal(-21)))
        CFI (cfiCond160) V1 load(1, XDATA, add(CFA_XSP16, literal(-20)))
        CFI (cfiCond160) V2 load(1, XDATA, add(CFA_XSP16, literal(-19)))
        CFI (cfiCond160) V3 load(1, XDATA, add(CFA_XSP16, literal(-18)))
        CFI (cfiCond160) V4 load(1, XDATA, add(CFA_XSP16, literal(-17)))
        CFI (cfiCond160) V5 load(1, XDATA, add(CFA_XSP16, literal(-16)))
        CFI (cfiCond160) V6 load(1, XDATA, add(CFA_XSP16, literal(-15)))
        CFI (cfiCond160) V7 load(1, XDATA, add(CFA_XSP16, literal(-14)))
        CFI (cfiCond160) V8 load(1, XDATA, add(CFA_XSP16, literal(-13)))
        CFI (cfiCond160) V9 load(1, XDATA, add(CFA_XSP16, literal(-12)))
        CFI (cfiCond160) V10 load(1, XDATA, add(CFA_XSP16, literal(-11)))
        CFI (cfiCond160) V11 load(1, XDATA, add(CFA_XSP16, literal(-10)))
        CFI (cfiCond160) V12 load(1, XDATA, add(CFA_XSP16, literal(-9)))
        CFI (cfiCond160) V13 load(1, XDATA, add(CFA_XSP16, literal(-8)))
        CFI (cfiCond160) V14 load(1, XDATA, add(CFA_XSP16, literal(-7)))
        CFI (cfiCond160) R7 load(1, XDATA, add(CFA_XSP16, literal(-6)))
        CFI (cfiCond160) ?RET_LOW load(1, XDATA, add(CFA_XSP16, literal(-5)))
        CFI (cfiCond160) ?RET_HIGH load(1, XDATA, add(CFA_XSP16, literal(-4)))
        CFI (cfiCond160) ?BRET_EXT load(1, XDATA, add(CFA_XSP16, literal(-3)))
        CFI (cfiCond160) DPL0 load(1, XDATA, add(CFA_XSP16, literal(-2)))
        CFI (cfiCond160) DPH0 load(1, XDATA, add(CFA_XSP16, literal(-1)))
        CFI (cfiCond160) CFA_SP SP+0
        CFI (cfiCond160) CFA_XSP16 add(XSP16, 23)
        CFI Block cfiPicker161 Using cfiCommon1
        CFI (cfiPicker161) NoFunction
        CFI (cfiPicker161) Picker
        ADDC    A,#0x0
        MOV     R1,A
        MOV     DPL,R0
        MOV     DPH,R1
        RET
        CFI EndBlock cfiCond143
        CFI EndBlock cfiCond144
        CFI EndBlock cfiCond145
        CFI EndBlock cfiCond146
        CFI EndBlock cfiCond147
        CFI EndBlock cfiCond148
        CFI EndBlock cfiCond149
        CFI EndBlock cfiCond150
        CFI EndBlock cfiCond151
        CFI EndBlock cfiCond152
        CFI EndBlock cfiCond153
        CFI EndBlock cfiCond154
        CFI EndBlock cfiCond155
        CFI EndBlock cfiCond156
        CFI EndBlock cfiCond157
        CFI EndBlock cfiCond158
        CFI EndBlock cfiCond159
        CFI EndBlock cfiCond160
        CFI EndBlock cfiPicker161

        RSEG BANKED_CODE:CODE:NOROOT(0)
?Subroutine19:
        CFI Block cfiCond162 Using cfiCommon0
        CFI NoFunction
        CFI Conditional ??CrossCallReturnLabel_27
        CFI R6 load(1, XDATA, add(CFA_XSP16, literal(-23)))
        CFI VB load(1, XDATA, add(CFA_XSP16, literal(-22)))
        CFI V0 load(1, XDATA, add(CFA_XSP16, literal(-21)))
        CFI V1 load(1, XDATA, add(CFA_XSP16, literal(-20)))
        CFI V2 load(1, XDATA, add(CFA_XSP16, literal(-19)))
        CFI V3 load(1, XDATA, add(CFA_XSP16, literal(-18)))
        CFI V4 load(1, XDATA, add(CFA_XSP16, literal(-17)))
        CFI V5 load(1, XDATA, add(CFA_XSP16, literal(-16)))
        CFI V6 load(1, XDATA, add(CFA_XSP16, literal(-15)))
        CFI V7 load(1, XDATA, add(CFA_XSP16, literal(-14)))
        CFI V8 load(1, XDATA, add(CFA_XSP16, literal(-13)))
        CFI V9 load(1, XDATA, add(CFA_XSP16, literal(-12)))
        CFI V10 load(1, XDATA, add(CFA_XSP16, literal(-11)))
        CFI V11 load(1, XDATA, add(CFA_XSP16, literal(-10)))
        CFI V12 load(1, XDATA, add(CFA_XSP16, literal(-9)))
        CFI V13 load(1, XDATA, add(CFA_XSP16, literal(-8)))
        CFI V14 load(1, XDATA, add(CFA_XSP16, literal(-7)))
        CFI R7 load(1, XDATA, add(CFA_XSP16, literal(-6)))
        CFI ?RET_LOW load(1, XDATA, add(CFA_XSP16, literal(-5)))
        CFI ?RET_HIGH load(1, XDATA, add(CFA_XSP16, literal(-4)))
        CFI ?BRET_EXT load(1, XDATA, add(CFA_XSP16, literal(-3)))
        CFI DPL0 load(1, XDATA, add(CFA_XSP16, literal(-2)))
        CFI DPH0 load(1, XDATA, add(CFA_XSP16, literal(-1)))
        CFI CFA_SP SP+0
        CFI CFA_XSP16 add(XSP16, 23)
        CFI Block cfiCond163 Using cfiCommon0
        CFI (cfiCond163) NoFunction
        CFI (cfiCond163) Conditional ??CrossCallReturnLabel_28
        CFI (cfiCond163) R6 load(1, XDATA, add(CFA_XSP16, literal(-23)))
        CFI (cfiCond163) VB load(1, XDATA, add(CFA_XSP16, literal(-22)))
        CFI (cfiCond163) V0 load(1, XDATA, add(CFA_XSP16, literal(-21)))
        CFI (cfiCond163) V1 load(1, XDATA, add(CFA_XSP16, literal(-20)))
        CFI (cfiCond163) V2 load(1, XDATA, add(CFA_XSP16, literal(-19)))
        CFI (cfiCond163) V3 load(1, XDATA, add(CFA_XSP16, literal(-18)))
        CFI (cfiCond163) V4 load(1, XDATA, add(CFA_XSP16, literal(-17)))
        CFI (cfiCond163) V5 load(1, XDATA, add(CFA_XSP16, literal(-16)))
        CFI (cfiCond163) V6 load(1, XDATA, add(CFA_XSP16, literal(-15)))
        CFI (cfiCond163) V7 load(1, XDATA, add(CFA_XSP16, literal(-14)))
        CFI (cfiCond163) V8 load(1, XDATA, add(CFA_XSP16, literal(-13)))
        CFI (cfiCond163) V9 load(1, XDATA, add(CFA_XSP16, literal(-12)))
        CFI (cfiCond163) V10 load(1, XDATA, add(CFA_XSP16, literal(-11)))
        CFI (cfiCond163) V11 load(1, XDATA, add(CFA_XSP16, literal(-10)))
        CFI (cfiCond163) V12 load(1, XDATA, add(CFA_XSP16, literal(-9)))
        CFI (cfiCond163) V13 load(1, XDATA, add(CFA_XSP16, literal(-8)))
        CFI (cfiCond163) V14 load(1, XDATA, add(CFA_XSP16, literal(-7)))
        CFI (cfiCond163) R7 load(1, XDATA, add(CFA_XSP16, literal(-6)))
        CFI (cfiCond163) ?RET_LOW load(1, XDATA, add(CFA_XSP16, literal(-5)))
        CFI (cfiCond163) ?RET_HIGH load(1, XDATA, add(CFA_XSP16, literal(-4)))
        CFI (cfiCond163) ?BRET_EXT load(1, XDATA, add(CFA_XSP16, literal(-3)))
        CFI (cfiCond163) DPL0 load(1, XDATA, add(CFA_XSP16, literal(-2)))
        CFI (cfiCond163) DPH0 load(1, XDATA, add(CFA_XSP16, literal(-1)))
        CFI (cfiCond163) CFA_SP SP+0
        CFI (cfiCond163) CFA_XSP16 add(XSP16, 23)
        CFI Block cfiPicker164 Using cfiCommon1
        CFI (cfiPicker164) NoFunction
        CFI (cfiPicker164) Picker
        MOV     A,?V0 + 8
        ADD     A,#0x21
        MOV     DPL,A
        MOV     A,?V0 + 9
        LCALL   ??Subroutine45_0 & 0xFFFF
??CrossCallReturnLabel_75:
        MOV     ?V0 + 4,A
        INC     DPTR
        MOVX    A,@DPTR
        MOV     ?V0 + 5,A
        RET
        CFI EndBlock cfiCond162
        CFI EndBlock cfiCond163
        CFI EndBlock cfiPicker164

        RSEG BANKED_CODE:CODE:NOROOT(0)
?Subroutine14:
        CFI Block cfiCond165 Using cfiCommon0
        CFI NoFunction
        CFI Conditional ??CrossCallReturnLabel_19
        CFI R6 load(1, XDATA, add(CFA_XSP16, literal(-23)))
        CFI VB load(1, XDATA, add(CFA_XSP16, literal(-22)))
        CFI V0 load(1, XDATA, add(CFA_XSP16, literal(-21)))
        CFI V1 load(1, XDATA, add(CFA_XSP16, literal(-20)))
        CFI V2 load(1, XDATA, add(CFA_XSP16, literal(-19)))
        CFI V3 load(1, XDATA, add(CFA_XSP16, literal(-18)))
        CFI V4 load(1, XDATA, add(CFA_XSP16, literal(-17)))
        CFI V5 load(1, XDATA, add(CFA_XSP16, literal(-16)))
        CFI V6 load(1, XDATA, add(CFA_XSP16, literal(-15)))
        CFI V7 load(1, XDATA, add(CFA_XSP16, literal(-14)))
        CFI V8 load(1, XDATA, add(CFA_XSP16, literal(-13)))
        CFI V9 load(1, XDATA, add(CFA_XSP16, literal(-12)))
        CFI V10 load(1, XDATA, add(CFA_XSP16, literal(-11)))
        CFI V11 load(1, XDATA, add(CFA_XSP16, literal(-10)))
        CFI V12 load(1, XDATA, add(CFA_XSP16, literal(-9)))
        CFI V13 load(1, XDATA, add(CFA_XSP16, literal(-8)))
        CFI V14 load(1, XDATA, add(CFA_XSP16, literal(-7)))
        CFI R7 load(1, XDATA, add(CFA_XSP16, literal(-6)))
        CFI ?RET_LOW load(1, XDATA, add(CFA_XSP16, literal(-5)))
        CFI ?RET_HIGH load(1, XDATA, add(CFA_XSP16, literal(-4)))
        CFI ?BRET_EXT load(1, XDATA, add(CFA_XSP16, literal(-3)))
        CFI DPL0 load(1, XDATA, add(CFA_XSP16, literal(-2)))
        CFI DPH0 load(1, XDATA, add(CFA_XSP16, literal(-1)))
        CFI CFA_SP SP+0
        CFI CFA_XSP16 add(XSP16, 23)
        CFI Block cfiCond166 Using cfiCommon0
        CFI (cfiCond166) NoFunction
        CFI (cfiCond166) Conditional ??CrossCallReturnLabel_20
        CFI (cfiCond166) R6 load(1, XDATA, add(CFA_XSP16, literal(-23)))
        CFI (cfiCond166) VB load(1, XDATA, add(CFA_XSP16, literal(-22)))
        CFI (cfiCond166) V0 load(1, XDATA, add(CFA_XSP16, literal(-21)))
        CFI (cfiCond166) V1 load(1, XDATA, add(CFA_XSP16, literal(-20)))
        CFI (cfiCond166) V2 load(1, XDATA, add(CFA_XSP16, literal(-19)))
        CFI (cfiCond166) V3 load(1, XDATA, add(CFA_XSP16, literal(-18)))
        CFI (cfiCond166) V4 load(1, XDATA, add(CFA_XSP16, literal(-17)))
        CFI (cfiCond166) V5 load(1, XDATA, add(CFA_XSP16, literal(-16)))
        CFI (cfiCond166) V6 load(1, XDATA, add(CFA_XSP16, literal(-15)))
        CFI (cfiCond166) V7 load(1, XDATA, add(CFA_XSP16, literal(-14)))
        CFI (cfiCond166) V8 load(1, XDATA, add(CFA_XSP16, literal(-13)))
        CFI (cfiCond166) V9 load(1, XDATA, add(CFA_XSP16, literal(-12)))
        CFI (cfiCond166) V10 load(1, XDATA, add(CFA_XSP16, literal(-11)))
        CFI (cfiCond166) V11 load(1, XDATA, add(CFA_XSP16, literal(-10)))
        CFI (cfiCond166) V12 load(1, XDATA, add(CFA_XSP16, literal(-9)))
        CFI (cfiCond166) V13 load(1, XDATA, add(CFA_XSP16, literal(-8)))
        CFI (cfiCond166) V14 load(1, XDATA, add(CFA_XSP16, literal(-7)))
        CFI (cfiCond166) R7 load(1, XDATA, add(CFA_XSP16, literal(-6)))
        CFI (cfiCond166) ?RET_LOW load(1, XDATA, add(CFA_XSP16, literal(-5)))
        CFI (cfiCond166) ?RET_HIGH load(1, XDATA, add(CFA_XSP16, literal(-4)))
        CFI (cfiCond166) ?BRET_EXT load(1, XDATA, add(CFA_XSP16, literal(-3)))
        CFI (cfiCond166) DPL0 load(1, XDATA, add(CFA_XSP16, literal(-2)))
        CFI (cfiCond166) DPH0 load(1, XDATA, add(CFA_XSP16, literal(-1)))
        CFI (cfiCond166) CFA_SP SP+0
        CFI (cfiCond166) CFA_XSP16 add(XSP16, 23)
        CFI Block cfiCond167 Using cfiCommon0
        CFI (cfiCond167) NoFunction
        CFI (cfiCond167) Conditional ??CrossCallReturnLabel_21
        CFI (cfiCond167) R6 load(1, XDATA, add(CFA_XSP16, literal(-23)))
        CFI (cfiCond167) VB load(1, XDATA, add(CFA_XSP16, literal(-22)))
        CFI (cfiCond167) V0 load(1, XDATA, add(CFA_XSP16, literal(-21)))
        CFI (cfiCond167) V1 load(1, XDATA, add(CFA_XSP16, literal(-20)))
        CFI (cfiCond167) V2 load(1, XDATA, add(CFA_XSP16, literal(-19)))
        CFI (cfiCond167) V3 load(1, XDATA, add(CFA_XSP16, literal(-18)))
        CFI (cfiCond167) V4 load(1, XDATA, add(CFA_XSP16, literal(-17)))
        CFI (cfiCond167) V5 load(1, XDATA, add(CFA_XSP16, literal(-16)))
        CFI (cfiCond167) V6 load(1, XDATA, add(CFA_XSP16, literal(-15)))
        CFI (cfiCond167) V7 load(1, XDATA, add(CFA_XSP16, literal(-14)))
        CFI (cfiCond167) V8 load(1, XDATA, add(CFA_XSP16, literal(-13)))
        CFI (cfiCond167) V9 load(1, XDATA, add(CFA_XSP16, literal(-12)))
        CFI (cfiCond167) V10 load(1, XDATA, add(CFA_XSP16, literal(-11)))
        CFI (cfiCond167) V11 load(1, XDATA, add(CFA_XSP16, literal(-10)))
        CFI (cfiCond167) V12 load(1, XDATA, add(CFA_XSP16, literal(-9)))
        CFI (cfiCond167) V13 load(1, XDATA, add(CFA_XSP16, literal(-8)))
        CFI (cfiCond167) V14 load(1, XDATA, add(CFA_XSP16, literal(-7)))
        CFI (cfiCond167) R7 load(1, XDATA, add(CFA_XSP16, literal(-6)))
        CFI (cfiCond167) ?RET_LOW load(1, XDATA, add(CFA_XSP16, literal(-5)))
        CFI (cfiCond167) ?RET_HIGH load(1, XDATA, add(CFA_XSP16, literal(-4)))
        CFI (cfiCond167) ?BRET_EXT load(1, XDATA, add(CFA_XSP16, literal(-3)))
        CFI (cfiCond167) DPL0 load(1, XDATA, add(CFA_XSP16, literal(-2)))
        CFI (cfiCond167) DPH0 load(1, XDATA, add(CFA_XSP16, literal(-1)))
        CFI (cfiCond167) CFA_SP SP+0
        CFI (cfiCond167) CFA_XSP16 add(XSP16, 23)
        CFI Block cfiPicker168 Using cfiCommon1
        CFI (cfiPicker168) NoFunction
        CFI (cfiPicker168) Picker
        MOVX    A,@DPTR
        MOV     DPL,?V0 + 2
        MOV     DPH,?V0 + 3
        RET
        CFI EndBlock cfiCond165
        CFI EndBlock cfiCond166
        CFI EndBlock cfiCond167
        CFI EndBlock cfiPicker168

        RSEG BANKED_CODE:CODE:NOROOT(0)
?Subroutine13:
        CFI Block cfiCond169 Using cfiCommon0
        CFI NoFunction
        CFI Conditional ??CrossCallReturnLabel_17
        CFI R6 load(1, XDATA, add(CFA_XSP16, literal(-23)))
        CFI VB load(1, XDATA, add(CFA_XSP16, literal(-22)))
        CFI V0 load(1, XDATA, add(CFA_XSP16, literal(-21)))
        CFI V1 load(1, XDATA, add(CFA_XSP16, literal(-20)))
        CFI V2 load(1, XDATA, add(CFA_XSP16, literal(-19)))
        CFI V3 load(1, XDATA, add(CFA_XSP16, literal(-18)))
        CFI V4 load(1, XDATA, add(CFA_XSP16, literal(-17)))
        CFI V5 load(1, XDATA, add(CFA_XSP16, literal(-16)))
        CFI V6 load(1, XDATA, add(CFA_XSP16, literal(-15)))
        CFI V7 load(1, XDATA, add(CFA_XSP16, literal(-14)))
        CFI V8 load(1, XDATA, add(CFA_XSP16, literal(-13)))
        CFI V9 load(1, XDATA, add(CFA_XSP16, literal(-12)))
        CFI V10 load(1, XDATA, add(CFA_XSP16, literal(-11)))
        CFI V11 load(1, XDATA, add(CFA_XSP16, literal(-10)))
        CFI V12 load(1, XDATA, add(CFA_XSP16, literal(-9)))
        CFI V13 load(1, XDATA, add(CFA_XSP16, literal(-8)))
        CFI V14 load(1, XDATA, add(CFA_XSP16, literal(-7)))
        CFI R7 load(1, XDATA, add(CFA_XSP16, literal(-6)))
        CFI ?RET_LOW load(1, XDATA, add(CFA_XSP16, literal(-5)))
        CFI ?RET_HIGH load(1, XDATA, add(CFA_XSP16, literal(-4)))
        CFI ?BRET_EXT load(1, XDATA, add(CFA_XSP16, literal(-3)))
        CFI DPL0 load(1, XDATA, add(CFA_XSP16, literal(-2)))
        CFI DPH0 load(1, XDATA, add(CFA_XSP16, literal(-1)))
        CFI CFA_SP SP+0
        CFI CFA_XSP16 add(XSP16, 23)
        CFI Block cfiCond170 Using cfiCommon0
        CFI (cfiCond170) NoFunction
        CFI (cfiCond170) Conditional ??CrossCallReturnLabel_18
        CFI (cfiCond170) R6 load(1, XDATA, add(CFA_XSP16, literal(-23)))
        CFI (cfiCond170) VB load(1, XDATA, add(CFA_XSP16, literal(-22)))
        CFI (cfiCond170) V0 load(1, XDATA, add(CFA_XSP16, literal(-21)))
        CFI (cfiCond170) V1 load(1, XDATA, add(CFA_XSP16, literal(-20)))
        CFI (cfiCond170) V2 load(1, XDATA, add(CFA_XSP16, literal(-19)))
        CFI (cfiCond170) V3 load(1, XDATA, add(CFA_XSP16, literal(-18)))
        CFI (cfiCond170) V4 load(1, XDATA, add(CFA_XSP16, literal(-17)))
        CFI (cfiCond170) V5 load(1, XDATA, add(CFA_XSP16, literal(-16)))
        CFI (cfiCond170) V6 load(1, XDATA, add(CFA_XSP16, literal(-15)))
        CFI (cfiCond170) V7 load(1, XDATA, add(CFA_XSP16, literal(-14)))
        CFI (cfiCond170) V8 load(1, XDATA, add(CFA_XSP16, literal(-13)))
        CFI (cfiCond170) V9 load(1, XDATA, add(CFA_XSP16, literal(-12)))
        CFI (cfiCond170) V10 load(1, XDATA, add(CFA_XSP16, literal(-11)))
        CFI (cfiCond170) V11 load(1, XDATA, add(CFA_XSP16, literal(-10)))
        CFI (cfiCond170) V12 load(1, XDATA, add(CFA_XSP16, literal(-9)))
        CFI (cfiCond170) V13 load(1, XDATA, add(CFA_XSP16, literal(-8)))
        CFI (cfiCond170) V14 load(1, XDATA, add(CFA_XSP16, literal(-7)))
        CFI (cfiCond170) R7 load(1, XDATA, add(CFA_XSP16, literal(-6)))
        CFI (cfiCond170) ?RET_LOW load(1, XDATA, add(CFA_XSP16, literal(-5)))
        CFI (cfiCond170) ?RET_HIGH load(1, XDATA, add(CFA_XSP16, literal(-4)))
        CFI (cfiCond170) ?BRET_EXT load(1, XDATA, add(CFA_XSP16, literal(-3)))
        CFI (cfiCond170) DPL0 load(1, XDATA, add(CFA_XSP16, literal(-2)))
        CFI (cfiCond170) DPH0 load(1, XDATA, add(CFA_XSP16, literal(-1)))
        CFI (cfiCond170) CFA_SP SP+0
        CFI (cfiCond170) CFA_XSP16 add(XSP16, 23)
        CFI Block cfiPicker171 Using cfiCommon1
        CFI (cfiPicker171) NoFunction
        CFI (cfiPicker171) Picker
        MOV     DPL,A
        MOV     A,?V0 + 9
        LCALL   ??Subroutine45_0 & 0xFFFF
??CrossCallReturnLabel_74:
        MOV     DPL,?V0 + 2
        MOV     DPH,?V0 + 3
        MOVX    @DPTR,A
        INC     DPTR
        RET
        CFI EndBlock cfiCond169
        CFI EndBlock cfiCond170
        CFI EndBlock cfiPicker171

        RSEG BANKED_CODE:CODE:NOROOT(0)
?Subroutine7:
        CFI Block cfiCond172 Using cfiCommon0
        CFI NoFunction
        CFI Conditional ??CrossCallReturnLabel_5
        CFI R6 load(1, XDATA, add(CFA_XSP16, literal(-23)))
        CFI VB load(1, XDATA, add(CFA_XSP16, literal(-22)))
        CFI V0 load(1, XDATA, add(CFA_XSP16, literal(-21)))
        CFI V1 load(1, XDATA, add(CFA_XSP16, literal(-20)))
        CFI V2 load(1, XDATA, add(CFA_XSP16, literal(-19)))
        CFI V3 load(1, XDATA, add(CFA_XSP16, literal(-18)))
        CFI V4 load(1, XDATA, add(CFA_XSP16, literal(-17)))
        CFI V5 load(1, XDATA, add(CFA_XSP16, literal(-16)))
        CFI V6 load(1, XDATA, add(CFA_XSP16, literal(-15)))
        CFI V7 load(1, XDATA, add(CFA_XSP16, literal(-14)))
        CFI V8 load(1, XDATA, add(CFA_XSP16, literal(-13)))
        CFI V9 load(1, XDATA, add(CFA_XSP16, literal(-12)))
        CFI V10 load(1, XDATA, add(CFA_XSP16, literal(-11)))
        CFI V11 load(1, XDATA, add(CFA_XSP16, literal(-10)))
        CFI V12 load(1, XDATA, add(CFA_XSP16, literal(-9)))
        CFI V13 load(1, XDATA, add(CFA_XSP16, literal(-8)))
        CFI V14 load(1, XDATA, add(CFA_XSP16, literal(-7)))
        CFI R7 load(1, XDATA, add(CFA_XSP16, literal(-6)))
        CFI ?RET_LOW load(1, XDATA, add(CFA_XSP16, literal(-5)))
        CFI ?RET_HIGH load(1, XDATA, add(CFA_XSP16, literal(-4)))
        CFI ?BRET_EXT load(1, XDATA, add(CFA_XSP16, literal(-3)))
        CFI DPL0 load(1, XDATA, add(CFA_XSP16, literal(-2)))
        CFI DPH0 load(1, XDATA, add(CFA_XSP16, literal(-1)))
        CFI CFA_SP SP+0
        CFI CFA_XSP16 add(XSP16, 23)
        CFI Block cfiCond173 Using cfiCommon0
        CFI (cfiCond173) NoFunction
        CFI (cfiCond173) Conditional ??CrossCallReturnLabel_6
        CFI (cfiCond173) R6 load(1, XDATA, add(CFA_XSP16, literal(-23)))
        CFI (cfiCond173) VB load(1, XDATA, add(CFA_XSP16, literal(-22)))
        CFI (cfiCond173) V0 load(1, XDATA, add(CFA_XSP16, literal(-21)))
        CFI (cfiCond173) V1 load(1, XDATA, add(CFA_XSP16, literal(-20)))
        CFI (cfiCond173) V2 load(1, XDATA, add(CFA_XSP16, literal(-19)))
        CFI (cfiCond173) V3 load(1, XDATA, add(CFA_XSP16, literal(-18)))
        CFI (cfiCond173) V4 load(1, XDATA, add(CFA_XSP16, literal(-17)))
        CFI (cfiCond173) V5 load(1, XDATA, add(CFA_XSP16, literal(-16)))
        CFI (cfiCond173) V6 load(1, XDATA, add(CFA_XSP16, literal(-15)))
        CFI (cfiCond173) V7 load(1, XDATA, add(CFA_XSP16, literal(-14)))
        CFI (cfiCond173) V8 load(1, XDATA, add(CFA_XSP16, literal(-13)))
        CFI (cfiCond173) V9 load(1, XDATA, add(CFA_XSP16, literal(-12)))
        CFI (cfiCond173) V10 load(1, XDATA, add(CFA_XSP16, literal(-11)))
        CFI (cfiCond173) V11 load(1, XDATA, add(CFA_XSP16, literal(-10)))
        CFI (cfiCond173) V12 load(1, XDATA, add(CFA_XSP16, literal(-9)))
        CFI (cfiCond173) V13 load(1, XDATA, add(CFA_XSP16, literal(-8)))
        CFI (cfiCond173) V14 load(1, XDATA, add(CFA_XSP16, literal(-7)))
        CFI (cfiCond173) R7 load(1, XDATA, add(CFA_XSP16, literal(-6)))
        CFI (cfiCond173) ?RET_LOW load(1, XDATA, add(CFA_XSP16, literal(-5)))
        CFI (cfiCond173) ?RET_HIGH load(1, XDATA, add(CFA_XSP16, literal(-4)))
        CFI (cfiCond173) ?BRET_EXT load(1, XDATA, add(CFA_XSP16, literal(-3)))
        CFI (cfiCond173) DPL0 load(1, XDATA, add(CFA_XSP16, literal(-2)))
        CFI (cfiCond173) DPH0 load(1, XDATA, add(CFA_XSP16, literal(-1)))
        CFI (cfiCond173) CFA_SP SP+0
        CFI (cfiCond173) CFA_XSP16 add(XSP16, 23)
        CFI Block cfiPicker174 Using cfiCommon1
        CFI (cfiPicker174) NoFunction
        CFI (cfiPicker174) Picker
        LCALL   ?Subroutine36 & 0xFFFF
??CrossCallReturnLabel_109:
        RET
        CFI EndBlock cfiCond172
        CFI EndBlock cfiCond173
        CFI EndBlock cfiPicker174

        RSEG BANKED_CODE:CODE:NOROOT(0)
?Subroutine36:
        CFI Block cfiCond175 Using cfiCommon0
        CFI NoFunction
        CFI Conditional ??CrossCallReturnLabel_109, ??CrossCallReturnLabel_5
        CFI R6 load(1, XDATA, add(CFA_XSP16, literal(-23)))
        CFI VB load(1, XDATA, add(CFA_XSP16, literal(-22)))
        CFI V0 load(1, XDATA, add(CFA_XSP16, literal(-21)))
        CFI V1 load(1, XDATA, add(CFA_XSP16, literal(-20)))
        CFI V2 load(1, XDATA, add(CFA_XSP16, literal(-19)))
        CFI V3 load(1, XDATA, add(CFA_XSP16, literal(-18)))
        CFI V4 load(1, XDATA, add(CFA_XSP16, literal(-17)))
        CFI V5 load(1, XDATA, add(CFA_XSP16, literal(-16)))
        CFI V6 load(1, XDATA, add(CFA_XSP16, literal(-15)))
        CFI V7 load(1, XDATA, add(CFA_XSP16, literal(-14)))
        CFI V8 load(1, XDATA, add(CFA_XSP16, literal(-13)))
        CFI V9 load(1, XDATA, add(CFA_XSP16, literal(-12)))
        CFI V10 load(1, XDATA, add(CFA_XSP16, literal(-11)))
        CFI V11 load(1, XDATA, add(CFA_XSP16, literal(-10)))
        CFI V12 load(1, XDATA, add(CFA_XSP16, literal(-9)))
        CFI V13 load(1, XDATA, add(CFA_XSP16, literal(-8)))
        CFI V14 load(1, XDATA, add(CFA_XSP16, literal(-7)))
        CFI R7 load(1, XDATA, add(CFA_XSP16, literal(-6)))
        CFI ?RET_LOW load(1, XDATA, add(CFA_XSP16, literal(-5)))
        CFI ?RET_HIGH load(1, XDATA, add(CFA_XSP16, literal(-4)))
        CFI ?BRET_EXT load(1, XDATA, add(CFA_XSP16, literal(-3)))
        CFI DPL0 load(1, XDATA, add(CFA_XSP16, literal(-2)))
        CFI DPH0 load(1, XDATA, add(CFA_XSP16, literal(-1)))
        CFI CFA_SP SP+0
        CFI CFA_XSP16 add(XSP16, 23)
        CFI Block cfiCond176 Using cfiCommon0
        CFI (cfiCond176) NoFunction
        CFI (cfiCond176) Conditional ??CrossCallReturnLabel_109, ??CrossCallReturnLabel_6
        CFI (cfiCond176) R6 load(1, XDATA, add(CFA_XSP16, literal(-23)))
        CFI (cfiCond176) VB load(1, XDATA, add(CFA_XSP16, literal(-22)))
        CFI (cfiCond176) V0 load(1, XDATA, add(CFA_XSP16, literal(-21)))
        CFI (cfiCond176) V1 load(1, XDATA, add(CFA_XSP16, literal(-20)))
        CFI (cfiCond176) V2 load(1, XDATA, add(CFA_XSP16, literal(-19)))
        CFI (cfiCond176) V3 load(1, XDATA, add(CFA_XSP16, literal(-18)))
        CFI (cfiCond176) V4 load(1, XDATA, add(CFA_XSP16, literal(-17)))
        CFI (cfiCond176) V5 load(1, XDATA, add(CFA_XSP16, literal(-16)))
        CFI (cfiCond176) V6 load(1, XDATA, add(CFA_XSP16, literal(-15)))
        CFI (cfiCond176) V7 load(1, XDATA, add(CFA_XSP16, literal(-14)))
        CFI (cfiCond176) V8 load(1, XDATA, add(CFA_XSP16, literal(-13)))
        CFI (cfiCond176) V9 load(1, XDATA, add(CFA_XSP16, literal(-12)))
        CFI (cfiCond176) V10 load(1, XDATA, add(CFA_XSP16, literal(-11)))
        CFI (cfiCond176) V11 load(1, XDATA, add(CFA_XSP16, literal(-10)))
        CFI (cfiCond176) V12 load(1, XDATA, add(CFA_XSP16, literal(-9)))
        CFI (cfiCond176) V13 load(1, XDATA, add(CFA_XSP16, literal(-8)))
        CFI (cfiCond176) V14 load(1, XDATA, add(CFA_XSP16, literal(-7)))
        CFI (cfiCond176) R7 load(1, XDATA, add(CFA_XSP16, literal(-6)))
        CFI (cfiCond176) ?RET_LOW load(1, XDATA, add(CFA_XSP16, literal(-5)))
        CFI (cfiCond176) ?RET_HIGH load(1, XDATA, add(CFA_XSP16, literal(-4)))
        CFI (cfiCond176) ?BRET_EXT load(1, XDATA, add(CFA_XSP16, literal(-3)))
        CFI (cfiCond176) DPL0 load(1, XDATA, add(CFA_XSP16, literal(-2)))
        CFI (cfiCond176) DPH0 load(1, XDATA, add(CFA_XSP16, literal(-1)))
        CFI (cfiCond176) CFA_SP SP+0
        CFI (cfiCond176) CFA_XSP16 add(XSP16, 23)
        CFI Block cfiCond177 Using cfiCommon0
        CFI (cfiCond177) NoFunction
        CFI (cfiCond177) Conditional ??CrossCallReturnLabel_108, ??CrossCallReturnLabel_0
        CFI (cfiCond177) R6 load(1, XDATA, add(CFA_XSP16, literal(-23)))
        CFI (cfiCond177) VB load(1, XDATA, add(CFA_XSP16, literal(-22)))
        CFI (cfiCond177) V0 load(1, XDATA, add(CFA_XSP16, literal(-21)))
        CFI (cfiCond177) V1 load(1, XDATA, add(CFA_XSP16, literal(-20)))
        CFI (cfiCond177) V2 load(1, XDATA, add(CFA_XSP16, literal(-19)))
        CFI (cfiCond177) V3 load(1, XDATA, add(CFA_XSP16, literal(-18)))
        CFI (cfiCond177) V4 load(1, XDATA, add(CFA_XSP16, literal(-17)))
        CFI (cfiCond177) V5 load(1, XDATA, add(CFA_XSP16, literal(-16)))
        CFI (cfiCond177) V6 load(1, XDATA, add(CFA_XSP16, literal(-15)))
        CFI (cfiCond177) V7 load(1, XDATA, add(CFA_XSP16, literal(-14)))
        CFI (cfiCond177) V8 load(1, XDATA, add(CFA_XSP16, literal(-13)))
        CFI (cfiCond177) V9 load(1, XDATA, add(CFA_XSP16, literal(-12)))
        CFI (cfiCond177) V10 load(1, XDATA, add(CFA_XSP16, literal(-11)))
        CFI (cfiCond177) V11 load(1, XDATA, add(CFA_XSP16, literal(-10)))
        CFI (cfiCond177) V12 load(1, XDATA, add(CFA_XSP16, literal(-9)))
        CFI (cfiCond177) V13 load(1, XDATA, add(CFA_XSP16, literal(-8)))
        CFI (cfiCond177) V14 load(1, XDATA, add(CFA_XSP16, literal(-7)))
        CFI (cfiCond177) R7 load(1, XDATA, add(CFA_XSP16, literal(-6)))
        CFI (cfiCond177) ?RET_LOW load(1, XDATA, add(CFA_XSP16, literal(-5)))
        CFI (cfiCond177) ?RET_HIGH load(1, XDATA, add(CFA_XSP16, literal(-4)))
        CFI (cfiCond177) ?BRET_EXT load(1, XDATA, add(CFA_XSP16, literal(-3)))
        CFI (cfiCond177) DPL0 load(1, XDATA, add(CFA_XSP16, literal(-2)))
        CFI (cfiCond177) DPH0 load(1, XDATA, add(CFA_XSP16, literal(-1)))
        CFI (cfiCond177) CFA_SP SP+0
        CFI (cfiCond177) CFA_XSP16 add(XSP16, 23)
        CFI Block cfiCond178 Using cfiCommon0
        CFI (cfiCond178) NoFunction
        CFI (cfiCond178) Conditional ??CrossCallReturnLabel_108, ??CrossCallReturnLabel_1
        CFI (cfiCond178) R6 load(1, XDATA, add(CFA_XSP16, literal(-23)))
        CFI (cfiCond178) VB load(1, XDATA, add(CFA_XSP16, literal(-22)))
        CFI (cfiCond178) V0 load(1, XDATA, add(CFA_XSP16, literal(-21)))
        CFI (cfiCond178) V1 load(1, XDATA, add(CFA_XSP16, literal(-20)))
        CFI (cfiCond178) V2 load(1, XDATA, add(CFA_XSP16, literal(-19)))
        CFI (cfiCond178) V3 load(1, XDATA, add(CFA_XSP16, literal(-18)))
        CFI (cfiCond178) V4 load(1, XDATA, add(CFA_XSP16, literal(-17)))
        CFI (cfiCond178) V5 load(1, XDATA, add(CFA_XSP16, literal(-16)))
        CFI (cfiCond178) V6 load(1, XDATA, add(CFA_XSP16, literal(-15)))
        CFI (cfiCond178) V7 load(1, XDATA, add(CFA_XSP16, literal(-14)))
        CFI (cfiCond178) V8 load(1, XDATA, add(CFA_XSP16, literal(-13)))
        CFI (cfiCond178) V9 load(1, XDATA, add(CFA_XSP16, literal(-12)))
        CFI (cfiCond178) V10 load(1, XDATA, add(CFA_XSP16, literal(-11)))
        CFI (cfiCond178) V11 load(1, XDATA, add(CFA_XSP16, literal(-10)))
        CFI (cfiCond178) V12 load(1, XDATA, add(CFA_XSP16, literal(-9)))
        CFI (cfiCond178) V13 load(1, XDATA, add(CFA_XSP16, literal(-8)))
        CFI (cfiCond178) V14 load(1, XDATA, add(CFA_XSP16, literal(-7)))
        CFI (cfiCond178) R7 load(1, XDATA, add(CFA_XSP16, literal(-6)))
        CFI (cfiCond178) ?RET_LOW load(1, XDATA, add(CFA_XSP16, literal(-5)))
        CFI (cfiCond178) ?RET_HIGH load(1, XDATA, add(CFA_XSP16, literal(-4)))
        CFI (cfiCond178) ?BRET_EXT load(1, XDATA, add(CFA_XSP16, literal(-3)))
        CFI (cfiCond178) DPL0 load(1, XDATA, add(CFA_XSP16, literal(-2)))
        CFI (cfiCond178) DPH0 load(1, XDATA, add(CFA_XSP16, literal(-1)))
        CFI (cfiCond178) CFA_SP SP+0
        CFI (cfiCond178) CFA_XSP16 add(XSP16, 23)
        CFI Block cfiCond179 Using cfiCommon0
        CFI (cfiCond179) NoFunction
        CFI (cfiCond179) Conditional ??CrossCallReturnLabel_110, ??CrossCallReturnLabel_102
        CFI (cfiCond179) R6 load(1, XDATA, add(CFA_XSP16, literal(-23)))
        CFI (cfiCond179) VB load(1, XDATA, add(CFA_XSP16, literal(-22)))
        CFI (cfiCond179) V0 load(1, XDATA, add(CFA_XSP16, literal(-21)))
        CFI (cfiCond179) V1 load(1, XDATA, add(CFA_XSP16, literal(-20)))
        CFI (cfiCond179) V2 load(1, XDATA, add(CFA_XSP16, literal(-19)))
        CFI (cfiCond179) V3 load(1, XDATA, add(CFA_XSP16, literal(-18)))
        CFI (cfiCond179) V4 load(1, XDATA, add(CFA_XSP16, literal(-17)))
        CFI (cfiCond179) V5 load(1, XDATA, add(CFA_XSP16, literal(-16)))
        CFI (cfiCond179) V6 load(1, XDATA, add(CFA_XSP16, literal(-15)))
        CFI (cfiCond179) V7 load(1, XDATA, add(CFA_XSP16, literal(-14)))
        CFI (cfiCond179) V8 load(1, XDATA, add(CFA_XSP16, literal(-13)))
        CFI (cfiCond179) V9 load(1, XDATA, add(CFA_XSP16, literal(-12)))
        CFI (cfiCond179) V10 load(1, XDATA, add(CFA_XSP16, literal(-11)))
        CFI (cfiCond179) V11 load(1, XDATA, add(CFA_XSP16, literal(-10)))
        CFI (cfiCond179) V12 load(1, XDATA, add(CFA_XSP16, literal(-9)))
        CFI (cfiCond179) V13 load(1, XDATA, add(CFA_XSP16, literal(-8)))
        CFI (cfiCond179) V14 load(1, XDATA, add(CFA_XSP16, literal(-7)))
        CFI (cfiCond179) R7 load(1, XDATA, add(CFA_XSP16, literal(-6)))
        CFI (cfiCond179) ?RET_LOW load(1, XDATA, add(CFA_XSP16, literal(-5)))
        CFI (cfiCond179) ?RET_HIGH load(1, XDATA, add(CFA_XSP16, literal(-4)))
        CFI (cfiCond179) ?BRET_EXT load(1, XDATA, add(CFA_XSP16, literal(-3)))
        CFI (cfiCond179) DPL0 load(1, XDATA, add(CFA_XSP16, literal(-2)))
        CFI (cfiCond179) DPH0 load(1, XDATA, add(CFA_XSP16, literal(-1)))
        CFI (cfiCond179) CFA_SP SP+0
        CFI (cfiCond179) CFA_XSP16 add(XSP16, 23)
        CFI Block cfiCond180 Using cfiCommon0
        CFI (cfiCond180) NoFunction
        CFI (cfiCond180) Conditional ??CrossCallReturnLabel_110, ??CrossCallReturnLabel_103
        CFI (cfiCond180) R6 load(1, XDATA, add(CFA_XSP16, literal(-23)))
        CFI (cfiCond180) VB load(1, XDATA, add(CFA_XSP16, literal(-22)))
        CFI (cfiCond180) V0 load(1, XDATA, add(CFA_XSP16, literal(-21)))
        CFI (cfiCond180) V1 load(1, XDATA, add(CFA_XSP16, literal(-20)))
        CFI (cfiCond180) V2 load(1, XDATA, add(CFA_XSP16, literal(-19)))
        CFI (cfiCond180) V3 load(1, XDATA, add(CFA_XSP16, literal(-18)))
        CFI (cfiCond180) V4 load(1, XDATA, add(CFA_XSP16, literal(-17)))
        CFI (cfiCond180) V5 load(1, XDATA, add(CFA_XSP16, literal(-16)))
        CFI (cfiCond180) V6 load(1, XDATA, add(CFA_XSP16, literal(-15)))
        CFI (cfiCond180) V7 load(1, XDATA, add(CFA_XSP16, literal(-14)))
        CFI (cfiCond180) V8 load(1, XDATA, add(CFA_XSP16, literal(-13)))
        CFI (cfiCond180) V9 load(1, XDATA, add(CFA_XSP16, literal(-12)))
        CFI (cfiCond180) V10 load(1, XDATA, add(CFA_XSP16, literal(-11)))
        CFI (cfiCond180) V11 load(1, XDATA, add(CFA_XSP16, literal(-10)))
        CFI (cfiCond180) V12 load(1, XDATA, add(CFA_XSP16, literal(-9)))
        CFI (cfiCond180) V13 load(1, XDATA, add(CFA_XSP16, literal(-8)))
        CFI (cfiCond180) V14 load(1, XDATA, add(CFA_XSP16, literal(-7)))
        CFI (cfiCond180) R7 load(1, XDATA, add(CFA_XSP16, literal(-6)))
        CFI (cfiCond180) ?RET_LOW load(1, XDATA, add(CFA_XSP16, literal(-5)))
        CFI (cfiCond180) ?RET_HIGH load(1, XDATA, add(CFA_XSP16, literal(-4)))
        CFI (cfiCond180) ?BRET_EXT load(1, XDATA, add(CFA_XSP16, literal(-3)))
        CFI (cfiCond180) DPL0 load(1, XDATA, add(CFA_XSP16, literal(-2)))
        CFI (cfiCond180) DPH0 load(1, XDATA, add(CFA_XSP16, literal(-1)))
        CFI (cfiCond180) CFA_SP SP+0
        CFI (cfiCond180) CFA_XSP16 add(XSP16, 23)
        CFI Block cfiCond181 Using cfiCommon0
        CFI (cfiCond181) NoFunction
        CFI (cfiCond181) Conditional ??CrossCallReturnLabel_110, ??CrossCallReturnLabel_104
        CFI (cfiCond181) R6 load(1, XDATA, add(CFA_XSP16, literal(-23)))
        CFI (cfiCond181) VB load(1, XDATA, add(CFA_XSP16, literal(-22)))
        CFI (cfiCond181) V0 load(1, XDATA, add(CFA_XSP16, literal(-21)))
        CFI (cfiCond181) V1 load(1, XDATA, add(CFA_XSP16, literal(-20)))
        CFI (cfiCond181) V2 load(1, XDATA, add(CFA_XSP16, literal(-19)))
        CFI (cfiCond181) V3 load(1, XDATA, add(CFA_XSP16, literal(-18)))
        CFI (cfiCond181) V4 load(1, XDATA, add(CFA_XSP16, literal(-17)))
        CFI (cfiCond181) V5 load(1, XDATA, add(CFA_XSP16, literal(-16)))
        CFI (cfiCond181) V6 load(1, XDATA, add(CFA_XSP16, literal(-15)))
        CFI (cfiCond181) V7 load(1, XDATA, add(CFA_XSP16, literal(-14)))
        CFI (cfiCond181) V8 load(1, XDATA, add(CFA_XSP16, literal(-13)))
        CFI (cfiCond181) V9 load(1, XDATA, add(CFA_XSP16, literal(-12)))
        CFI (cfiCond181) V10 load(1, XDATA, add(CFA_XSP16, literal(-11)))
        CFI (cfiCond181) V11 load(1, XDATA, add(CFA_XSP16, literal(-10)))
        CFI (cfiCond181) V12 load(1, XDATA, add(CFA_XSP16, literal(-9)))
        CFI (cfiCond181) V13 load(1, XDATA, add(CFA_XSP16, literal(-8)))
        CFI (cfiCond181) V14 load(1, XDATA, add(CFA_XSP16, literal(-7)))
        CFI (cfiCond181) R7 load(1, XDATA, add(CFA_XSP16, literal(-6)))
        CFI (cfiCond181) ?RET_LOW load(1, XDATA, add(CFA_XSP16, literal(-5)))
        CFI (cfiCond181) ?RET_HIGH load(1, XDATA, add(CFA_XSP16, literal(-4)))
        CFI (cfiCond181) ?BRET_EXT load(1, XDATA, add(CFA_XSP16, literal(-3)))
        CFI (cfiCond181) DPL0 load(1, XDATA, add(CFA_XSP16, literal(-2)))
        CFI (cfiCond181) DPH0 load(1, XDATA, add(CFA_XSP16, literal(-1)))
        CFI (cfiCond181) CFA_SP SP+0
        CFI (cfiCond181) CFA_XSP16 add(XSP16, 23)
        CFI Block cfiCond182 Using cfiCommon0
        CFI (cfiCond182) NoFunction
        CFI (cfiCond182) Conditional ??CrossCallReturnLabel_110, ??CrossCallReturnLabel_105
        CFI (cfiCond182) R6 load(1, XDATA, add(CFA_XSP16, literal(-23)))
        CFI (cfiCond182) VB load(1, XDATA, add(CFA_XSP16, literal(-22)))
        CFI (cfiCond182) V0 load(1, XDATA, add(CFA_XSP16, literal(-21)))
        CFI (cfiCond182) V1 load(1, XDATA, add(CFA_XSP16, literal(-20)))
        CFI (cfiCond182) V2 load(1, XDATA, add(CFA_XSP16, literal(-19)))
        CFI (cfiCond182) V3 load(1, XDATA, add(CFA_XSP16, literal(-18)))
        CFI (cfiCond182) V4 load(1, XDATA, add(CFA_XSP16, literal(-17)))
        CFI (cfiCond182) V5 load(1, XDATA, add(CFA_XSP16, literal(-16)))
        CFI (cfiCond182) V6 load(1, XDATA, add(CFA_XSP16, literal(-15)))
        CFI (cfiCond182) V7 load(1, XDATA, add(CFA_XSP16, literal(-14)))
        CFI (cfiCond182) V8 load(1, XDATA, add(CFA_XSP16, literal(-13)))
        CFI (cfiCond182) V9 load(1, XDATA, add(CFA_XSP16, literal(-12)))
        CFI (cfiCond182) V10 load(1, XDATA, add(CFA_XSP16, literal(-11)))
        CFI (cfiCond182) V11 load(1, XDATA, add(CFA_XSP16, literal(-10)))
        CFI (cfiCond182) V12 load(1, XDATA, add(CFA_XSP16, literal(-9)))
        CFI (cfiCond182) V13 load(1, XDATA, add(CFA_XSP16, literal(-8)))
        CFI (cfiCond182) V14 load(1, XDATA, add(CFA_XSP16, literal(-7)))
        CFI (cfiCond182) R7 load(1, XDATA, add(CFA_XSP16, literal(-6)))
        CFI (cfiCond182) ?RET_LOW load(1, XDATA, add(CFA_XSP16, literal(-5)))
        CFI (cfiCond182) ?RET_HIGH load(1, XDATA, add(CFA_XSP16, literal(-4)))
        CFI (cfiCond182) ?BRET_EXT load(1, XDATA, add(CFA_XSP16, literal(-3)))
        CFI (cfiCond182) DPL0 load(1, XDATA, add(CFA_XSP16, literal(-2)))
        CFI (cfiCond182) DPH0 load(1, XDATA, add(CFA_XSP16, literal(-1)))
        CFI (cfiCond182) CFA_SP SP+0
        CFI (cfiCond182) CFA_XSP16 add(XSP16, 23)
        CFI Block cfiCond183 Using cfiCommon0
        CFI (cfiCond183) NoFunction
        CFI (cfiCond183) Conditional ??CrossCallReturnLabel_110, ??CrossCallReturnLabel_106
        CFI (cfiCond183) R6 load(1, XDATA, add(CFA_XSP16, literal(-23)))
        CFI (cfiCond183) VB load(1, XDATA, add(CFA_XSP16, literal(-22)))
        CFI (cfiCond183) V0 load(1, XDATA, add(CFA_XSP16, literal(-21)))
        CFI (cfiCond183) V1 load(1, XDATA, add(CFA_XSP16, literal(-20)))
        CFI (cfiCond183) V2 load(1, XDATA, add(CFA_XSP16, literal(-19)))
        CFI (cfiCond183) V3 load(1, XDATA, add(CFA_XSP16, literal(-18)))
        CFI (cfiCond183) V4 load(1, XDATA, add(CFA_XSP16, literal(-17)))
        CFI (cfiCond183) V5 load(1, XDATA, add(CFA_XSP16, literal(-16)))
        CFI (cfiCond183) V6 load(1, XDATA, add(CFA_XSP16, literal(-15)))
        CFI (cfiCond183) V7 load(1, XDATA, add(CFA_XSP16, literal(-14)))
        CFI (cfiCond183) V8 load(1, XDATA, add(CFA_XSP16, literal(-13)))
        CFI (cfiCond183) V9 load(1, XDATA, add(CFA_XSP16, literal(-12)))
        CFI (cfiCond183) V10 load(1, XDATA, add(CFA_XSP16, literal(-11)))
        CFI (cfiCond183) V11 load(1, XDATA, add(CFA_XSP16, literal(-10)))
        CFI (cfiCond183) V12 load(1, XDATA, add(CFA_XSP16, literal(-9)))
        CFI (cfiCond183) V13 load(1, XDATA, add(CFA_XSP16, literal(-8)))
        CFI (cfiCond183) V14 load(1, XDATA, add(CFA_XSP16, literal(-7)))
        CFI (cfiCond183) R7 load(1, XDATA, add(CFA_XSP16, literal(-6)))
        CFI (cfiCond183) ?RET_LOW load(1, XDATA, add(CFA_XSP16, literal(-5)))
        CFI (cfiCond183) ?RET_HIGH load(1, XDATA, add(CFA_XSP16, literal(-4)))
        CFI (cfiCond183) ?BRET_EXT load(1, XDATA, add(CFA_XSP16, literal(-3)))
        CFI (cfiCond183) DPL0 load(1, XDATA, add(CFA_XSP16, literal(-2)))
        CFI (cfiCond183) DPH0 load(1, XDATA, add(CFA_XSP16, literal(-1)))
        CFI (cfiCond183) CFA_SP SP+0
        CFI (cfiCond183) CFA_XSP16 add(XSP16, 23)
        CFI Block cfiCond184 Using cfiCommon0
        CFI (cfiCond184) NoFunction
        CFI (cfiCond184) Conditional ??CrossCallReturnLabel_110, ??CrossCallReturnLabel_107
        CFI (cfiCond184) R6 load(1, XDATA, add(CFA_XSP16, literal(-23)))
        CFI (cfiCond184) VB load(1, XDATA, add(CFA_XSP16, literal(-22)))
        CFI (cfiCond184) V0 load(1, XDATA, add(CFA_XSP16, literal(-21)))
        CFI (cfiCond184) V1 load(1, XDATA, add(CFA_XSP16, literal(-20)))
        CFI (cfiCond184) V2 load(1, XDATA, add(CFA_XSP16, literal(-19)))
        CFI (cfiCond184) V3 load(1, XDATA, add(CFA_XSP16, literal(-18)))
        CFI (cfiCond184) V4 load(1, XDATA, add(CFA_XSP16, literal(-17)))
        CFI (cfiCond184) V5 load(1, XDATA, add(CFA_XSP16, literal(-16)))
        CFI (cfiCond184) V6 load(1, XDATA, add(CFA_XSP16, literal(-15)))
        CFI (cfiCond184) V7 load(1, XDATA, add(CFA_XSP16, literal(-14)))
        CFI (cfiCond184) V8 load(1, XDATA, add(CFA_XSP16, literal(-13)))
        CFI (cfiCond184) V9 load(1, XDATA, add(CFA_XSP16, literal(-12)))
        CFI (cfiCond184) V10 load(1, XDATA, add(CFA_XSP16, literal(-11)))
        CFI (cfiCond184) V11 load(1, XDATA, add(CFA_XSP16, literal(-10)))
        CFI (cfiCond184) V12 load(1, XDATA, add(CFA_XSP16, literal(-9)))
        CFI (cfiCond184) V13 load(1, XDATA, add(CFA_XSP16, literal(-8)))
        CFI (cfiCond184) V14 load(1, XDATA, add(CFA_XSP16, literal(-7)))
        CFI (cfiCond184) R7 load(1, XDATA, add(CFA_XSP16, literal(-6)))
        CFI (cfiCond184) ?RET_LOW load(1, XDATA, add(CFA_XSP16, literal(-5)))
        CFI (cfiCond184) ?RET_HIGH load(1, XDATA, add(CFA_XSP16, literal(-4)))
        CFI (cfiCond184) ?BRET_EXT load(1, XDATA, add(CFA_XSP16, literal(-3)))
        CFI (cfiCond184) DPL0 load(1, XDATA, add(CFA_XSP16, literal(-2)))
        CFI (cfiCond184) DPH0 load(1, XDATA, add(CFA_XSP16, literal(-1)))
        CFI (cfiCond184) CFA_SP SP+0
        CFI (cfiCond184) CFA_XSP16 add(XSP16, 23)
        CFI Block cfiPicker185 Using cfiCommon1
        CFI (cfiPicker185) NoFunction
        CFI (cfiPicker185) Picker
        MOVX    A,@DPTR
        MOV     DPL,?V0 + 2
        MOV     DPH,?V0 + 3
        LCALL   ?Subroutine44 & 0xFFFF
??CrossCallReturnLabel_112:
        RET
        CFI EndBlock cfiCond175
        CFI EndBlock cfiCond176
        CFI EndBlock cfiCond177
        CFI EndBlock cfiCond178
        CFI EndBlock cfiCond179
        CFI EndBlock cfiCond180
        CFI EndBlock cfiCond181
        CFI EndBlock cfiCond182
        CFI EndBlock cfiCond183
        CFI EndBlock cfiCond184
        CFI EndBlock cfiPicker185

        RSEG BANKED_CODE:CODE:NOROOT(0)
?Subroutine44:
        CFI Block cfiCond186 Using cfiCommon0
        CFI NoFunction
        CFI Conditional ??CrossCallReturnLabel_111, ??CrossCallReturnLabel_100, ??CrossCallReturnLabel_38
        CFI R6 load(1, XDATA, add(CFA_XSP16, literal(-23)))
        CFI VB load(1, XDATA, add(CFA_XSP16, literal(-22)))
        CFI V0 load(1, XDATA, add(CFA_XSP16, literal(-21)))
        CFI V1 load(1, XDATA, add(CFA_XSP16, literal(-20)))
        CFI V2 load(1, XDATA, add(CFA_XSP16, literal(-19)))
        CFI V3 load(1, XDATA, add(CFA_XSP16, literal(-18)))
        CFI V4 load(1, XDATA, add(CFA_XSP16, literal(-17)))
        CFI V5 load(1, XDATA, add(CFA_XSP16, literal(-16)))
        CFI V6 load(1, XDATA, add(CFA_XSP16, literal(-15)))
        CFI V7 load(1, XDATA, add(CFA_XSP16, literal(-14)))
        CFI V8 load(1, XDATA, add(CFA_XSP16, literal(-13)))
        CFI V9 load(1, XDATA, add(CFA_XSP16, literal(-12)))
        CFI V10 load(1, XDATA, add(CFA_XSP16, literal(-11)))
        CFI V11 load(1, XDATA, add(CFA_XSP16, literal(-10)))
        CFI V12 load(1, XDATA, add(CFA_XSP16, literal(-9)))
        CFI V13 load(1, XDATA, add(CFA_XSP16, literal(-8)))
        CFI V14 load(1, XDATA, add(CFA_XSP16, literal(-7)))
        CFI R7 load(1, XDATA, add(CFA_XSP16, literal(-6)))
        CFI ?RET_LOW load(1, XDATA, add(CFA_XSP16, literal(-5)))
        CFI ?RET_HIGH load(1, XDATA, add(CFA_XSP16, literal(-4)))
        CFI ?BRET_EXT load(1, XDATA, add(CFA_XSP16, literal(-3)))
        CFI DPL0 load(1, XDATA, add(CFA_XSP16, literal(-2)))
        CFI DPH0 load(1, XDATA, add(CFA_XSP16, literal(-1)))
        CFI CFA_SP SP+0
        CFI CFA_XSP16 add(XSP16, 23)
        CFI Block cfiCond187 Using cfiCommon0
        CFI (cfiCond187) NoFunction
        CFI (cfiCond187) Conditional ??CrossCallReturnLabel_111, ??CrossCallReturnLabel_100, ??CrossCallReturnLabel_39
        CFI (cfiCond187) R6 load(1, XDATA, add(CFA_XSP16, literal(-23)))
        CFI (cfiCond187) VB load(1, XDATA, add(CFA_XSP16, literal(-22)))
        CFI (cfiCond187) V0 load(1, XDATA, add(CFA_XSP16, literal(-21)))
        CFI (cfiCond187) V1 load(1, XDATA, add(CFA_XSP16, literal(-20)))
        CFI (cfiCond187) V2 load(1, XDATA, add(CFA_XSP16, literal(-19)))
        CFI (cfiCond187) V3 load(1, XDATA, add(CFA_XSP16, literal(-18)))
        CFI (cfiCond187) V4 load(1, XDATA, add(CFA_XSP16, literal(-17)))
        CFI (cfiCond187) V5 load(1, XDATA, add(CFA_XSP16, literal(-16)))
        CFI (cfiCond187) V6 load(1, XDATA, add(CFA_XSP16, literal(-15)))
        CFI (cfiCond187) V7 load(1, XDATA, add(CFA_XSP16, literal(-14)))
        CFI (cfiCond187) V8 load(1, XDATA, add(CFA_XSP16, literal(-13)))
        CFI (cfiCond187) V9 load(1, XDATA, add(CFA_XSP16, literal(-12)))
        CFI (cfiCond187) V10 load(1, XDATA, add(CFA_XSP16, literal(-11)))
        CFI (cfiCond187) V11 load(1, XDATA, add(CFA_XSP16, literal(-10)))
        CFI (cfiCond187) V12 load(1, XDATA, add(CFA_XSP16, literal(-9)))
        CFI (cfiCond187) V13 load(1, XDATA, add(CFA_XSP16, literal(-8)))
        CFI (cfiCond187) V14 load(1, XDATA, add(CFA_XSP16, literal(-7)))
        CFI (cfiCond187) R7 load(1, XDATA, add(CFA_XSP16, literal(-6)))
        CFI (cfiCond187) ?RET_LOW load(1, XDATA, add(CFA_XSP16, literal(-5)))
        CFI (cfiCond187) ?RET_HIGH load(1, XDATA, add(CFA_XSP16, literal(-4)))
        CFI (cfiCond187) ?BRET_EXT load(1, XDATA, add(CFA_XSP16, literal(-3)))
        CFI (cfiCond187) DPL0 load(1, XDATA, add(CFA_XSP16, literal(-2)))
        CFI (cfiCond187) DPH0 load(1, XDATA, add(CFA_XSP16, literal(-1)))
        CFI (cfiCond187) CFA_SP SP+0
        CFI (cfiCond187) CFA_XSP16 add(XSP16, 23)
        CFI Block cfiCond188 Using cfiCommon0
        CFI (cfiCond188) NoFunction
        CFI (cfiCond188) Conditional ??CrossCallReturnLabel_111, ??CrossCallReturnLabel_100, ??CrossCallReturnLabel_40
        CFI (cfiCond188) R6 load(1, XDATA, add(CFA_XSP16, literal(-23)))
        CFI (cfiCond188) VB load(1, XDATA, add(CFA_XSP16, literal(-22)))
        CFI (cfiCond188) V0 load(1, XDATA, add(CFA_XSP16, literal(-21)))
        CFI (cfiCond188) V1 load(1, XDATA, add(CFA_XSP16, literal(-20)))
        CFI (cfiCond188) V2 load(1, XDATA, add(CFA_XSP16, literal(-19)))
        CFI (cfiCond188) V3 load(1, XDATA, add(CFA_XSP16, literal(-18)))
        CFI (cfiCond188) V4 load(1, XDATA, add(CFA_XSP16, literal(-17)))
        CFI (cfiCond188) V5 load(1, XDATA, add(CFA_XSP16, literal(-16)))
        CFI (cfiCond188) V6 load(1, XDATA, add(CFA_XSP16, literal(-15)))
        CFI (cfiCond188) V7 load(1, XDATA, add(CFA_XSP16, literal(-14)))
        CFI (cfiCond188) V8 load(1, XDATA, add(CFA_XSP16, literal(-13)))
        CFI (cfiCond188) V9 load(1, XDATA, add(CFA_XSP16, literal(-12)))
        CFI (cfiCond188) V10 load(1, XDATA, add(CFA_XSP16, literal(-11)))
        CFI (cfiCond188) V11 load(1, XDATA, add(CFA_XSP16, literal(-10)))
        CFI (cfiCond188) V12 load(1, XDATA, add(CFA_XSP16, literal(-9)))
        CFI (cfiCond188) V13 load(1, XDATA, add(CFA_XSP16, literal(-8)))
        CFI (cfiCond188) V14 load(1, XDATA, add(CFA_XSP16, literal(-7)))
        CFI (cfiCond188) R7 load(1, XDATA, add(CFA_XSP16, literal(-6)))
        CFI (cfiCond188) ?RET_LOW load(1, XDATA, add(CFA_XSP16, literal(-5)))
        CFI (cfiCond188) ?RET_HIGH load(1, XDATA, add(CFA_XSP16, literal(-4)))
        CFI (cfiCond188) ?BRET_EXT load(1, XDATA, add(CFA_XSP16, literal(-3)))
        CFI (cfiCond188) DPL0 load(1, XDATA, add(CFA_XSP16, literal(-2)))
        CFI (cfiCond188) DPH0 load(1, XDATA, add(CFA_XSP16, literal(-1)))
        CFI (cfiCond188) CFA_SP SP+0
        CFI (cfiCond188) CFA_XSP16 add(XSP16, 23)
        CFI Block cfiCond189 Using cfiCommon0
        CFI (cfiCond189) NoFunction
        CFI (cfiCond189) Conditional ??CrossCallReturnLabel_111, ??CrossCallReturnLabel_100, ??CrossCallReturnLabel_41
        CFI (cfiCond189) R6 load(1, XDATA, add(CFA_XSP16, literal(-23)))
        CFI (cfiCond189) VB load(1, XDATA, add(CFA_XSP16, literal(-22)))
        CFI (cfiCond189) V0 load(1, XDATA, add(CFA_XSP16, literal(-21)))
        CFI (cfiCond189) V1 load(1, XDATA, add(CFA_XSP16, literal(-20)))
        CFI (cfiCond189) V2 load(1, XDATA, add(CFA_XSP16, literal(-19)))
        CFI (cfiCond189) V3 load(1, XDATA, add(CFA_XSP16, literal(-18)))
        CFI (cfiCond189) V4 load(1, XDATA, add(CFA_XSP16, literal(-17)))
        CFI (cfiCond189) V5 load(1, XDATA, add(CFA_XSP16, literal(-16)))
        CFI (cfiCond189) V6 load(1, XDATA, add(CFA_XSP16, literal(-15)))
        CFI (cfiCond189) V7 load(1, XDATA, add(CFA_XSP16, literal(-14)))
        CFI (cfiCond189) V8 load(1, XDATA, add(CFA_XSP16, literal(-13)))
        CFI (cfiCond189) V9 load(1, XDATA, add(CFA_XSP16, literal(-12)))
        CFI (cfiCond189) V10 load(1, XDATA, add(CFA_XSP16, literal(-11)))
        CFI (cfiCond189) V11 load(1, XDATA, add(CFA_XSP16, literal(-10)))
        CFI (cfiCond189) V12 load(1, XDATA, add(CFA_XSP16, literal(-9)))
        CFI (cfiCond189) V13 load(1, XDATA, add(CFA_XSP16, literal(-8)))
        CFI (cfiCond189) V14 load(1, XDATA, add(CFA_XSP16, literal(-7)))
        CFI (cfiCond189) R7 load(1, XDATA, add(CFA_XSP16, literal(-6)))
        CFI (cfiCond189) ?RET_LOW load(1, XDATA, add(CFA_XSP16, literal(-5)))
        CFI (cfiCond189) ?RET_HIGH load(1, XDATA, add(CFA_XSP16, literal(-4)))
        CFI (cfiCond189) ?BRET_EXT load(1, XDATA, add(CFA_XSP16, literal(-3)))
        CFI (cfiCond189) DPL0 load(1, XDATA, add(CFA_XSP16, literal(-2)))
        CFI (cfiCond189) DPH0 load(1, XDATA, add(CFA_XSP16, literal(-1)))
        CFI (cfiCond189) CFA_SP SP+0
        CFI (cfiCond189) CFA_XSP16 add(XSP16, 23)
        CFI Block cfiCond190 Using cfiCommon0
        CFI (cfiCond190) NoFunction
        CFI (cfiCond190) Conditional ??CrossCallReturnLabel_111, ??CrossCallReturnLabel_101, ??CrossCallReturnLabel_97
        CFI (cfiCond190) R6 load(1, XDATA, add(CFA_XSP16, literal(-23)))
        CFI (cfiCond190) VB load(1, XDATA, add(CFA_XSP16, literal(-22)))
        CFI (cfiCond190) V0 load(1, XDATA, add(CFA_XSP16, literal(-21)))
        CFI (cfiCond190) V1 load(1, XDATA, add(CFA_XSP16, literal(-20)))
        CFI (cfiCond190) V2 load(1, XDATA, add(CFA_XSP16, literal(-19)))
        CFI (cfiCond190) V3 load(1, XDATA, add(CFA_XSP16, literal(-18)))
        CFI (cfiCond190) V4 load(1, XDATA, add(CFA_XSP16, literal(-17)))
        CFI (cfiCond190) V5 load(1, XDATA, add(CFA_XSP16, literal(-16)))
        CFI (cfiCond190) V6 load(1, XDATA, add(CFA_XSP16, literal(-15)))
        CFI (cfiCond190) V7 load(1, XDATA, add(CFA_XSP16, literal(-14)))
        CFI (cfiCond190) V8 load(1, XDATA, add(CFA_XSP16, literal(-13)))
        CFI (cfiCond190) V9 load(1, XDATA, add(CFA_XSP16, literal(-12)))
        CFI (cfiCond190) V10 load(1, XDATA, add(CFA_XSP16, literal(-11)))
        CFI (cfiCond190) V11 load(1, XDATA, add(CFA_XSP16, literal(-10)))
        CFI (cfiCond190) V12 load(1, XDATA, add(CFA_XSP16, literal(-9)))
        CFI (cfiCond190) V13 load(1, XDATA, add(CFA_XSP16, literal(-8)))
        CFI (cfiCond190) V14 load(1, XDATA, add(CFA_XSP16, literal(-7)))
        CFI (cfiCond190) R7 load(1, XDATA, add(CFA_XSP16, literal(-6)))
        CFI (cfiCond190) ?RET_LOW load(1, XDATA, add(CFA_XSP16, literal(-5)))
        CFI (cfiCond190) ?RET_HIGH load(1, XDATA, add(CFA_XSP16, literal(-4)))
        CFI (cfiCond190) ?BRET_EXT load(1, XDATA, add(CFA_XSP16, literal(-3)))
        CFI (cfiCond190) DPL0 load(1, XDATA, add(CFA_XSP16, literal(-2)))
        CFI (cfiCond190) DPH0 load(1, XDATA, add(CFA_XSP16, literal(-1)))
        CFI (cfiCond190) CFA_SP SP+0
        CFI (cfiCond190) CFA_XSP16 add(XSP16, 23)
        CFI Block cfiCond191 Using cfiCommon0
        CFI (cfiCond191) NoFunction
        CFI (cfiCond191) Conditional ??CrossCallReturnLabel_111, ??CrossCallReturnLabel_101, ??CrossCallReturnLabel_98
        CFI (cfiCond191) R6 load(1, XDATA, add(CFA_XSP16, literal(-23)))
        CFI (cfiCond191) VB load(1, XDATA, add(CFA_XSP16, literal(-22)))
        CFI (cfiCond191) V0 load(1, XDATA, add(CFA_XSP16, literal(-21)))
        CFI (cfiCond191) V1 load(1, XDATA, add(CFA_XSP16, literal(-20)))
        CFI (cfiCond191) V2 load(1, XDATA, add(CFA_XSP16, literal(-19)))
        CFI (cfiCond191) V3 load(1, XDATA, add(CFA_XSP16, literal(-18)))
        CFI (cfiCond191) V4 load(1, XDATA, add(CFA_XSP16, literal(-17)))
        CFI (cfiCond191) V5 load(1, XDATA, add(CFA_XSP16, literal(-16)))
        CFI (cfiCond191) V6 load(1, XDATA, add(CFA_XSP16, literal(-15)))
        CFI (cfiCond191) V7 load(1, XDATA, add(CFA_XSP16, literal(-14)))
        CFI (cfiCond191) V8 load(1, XDATA, add(CFA_XSP16, literal(-13)))
        CFI (cfiCond191) V9 load(1, XDATA, add(CFA_XSP16, literal(-12)))
        CFI (cfiCond191) V10 load(1, XDATA, add(CFA_XSP16, literal(-11)))
        CFI (cfiCond191) V11 load(1, XDATA, add(CFA_XSP16, literal(-10)))
        CFI (cfiCond191) V12 load(1, XDATA, add(CFA_XSP16, literal(-9)))
        CFI (cfiCond191) V13 load(1, XDATA, add(CFA_XSP16, literal(-8)))
        CFI (cfiCond191) V14 load(1, XDATA, add(CFA_XSP16, literal(-7)))
        CFI (cfiCond191) R7 load(1, XDATA, add(CFA_XSP16, literal(-6)))
        CFI (cfiCond191) ?RET_LOW load(1, XDATA, add(CFA_XSP16, literal(-5)))
        CFI (cfiCond191) ?RET_HIGH load(1, XDATA, add(CFA_XSP16, literal(-4)))
        CFI (cfiCond191) ?BRET_EXT load(1, XDATA, add(CFA_XSP16, literal(-3)))
        CFI (cfiCond191) DPL0 load(1, XDATA, add(CFA_XSP16, literal(-2)))
        CFI (cfiCond191) DPH0 load(1, XDATA, add(CFA_XSP16, literal(-1)))
        CFI (cfiCond191) CFA_SP SP+0
        CFI (cfiCond191) CFA_XSP16 add(XSP16, 23)
        CFI Block cfiCond192 Using cfiCommon0
        CFI (cfiCond192) NoFunction
        CFI (cfiCond192) Conditional ??CrossCallReturnLabel_111, ??CrossCallReturnLabel_101, ??CrossCallReturnLabel_99
        CFI (cfiCond192) R6 load(1, XDATA, add(CFA_XSP16, literal(-23)))
        CFI (cfiCond192) VB load(1, XDATA, add(CFA_XSP16, literal(-22)))
        CFI (cfiCond192) V0 load(1, XDATA, add(CFA_XSP16, literal(-21)))
        CFI (cfiCond192) V1 load(1, XDATA, add(CFA_XSP16, literal(-20)))
        CFI (cfiCond192) V2 load(1, XDATA, add(CFA_XSP16, literal(-19)))
        CFI (cfiCond192) V3 load(1, XDATA, add(CFA_XSP16, literal(-18)))
        CFI (cfiCond192) V4 load(1, XDATA, add(CFA_XSP16, literal(-17)))
        CFI (cfiCond192) V5 load(1, XDATA, add(CFA_XSP16, literal(-16)))
        CFI (cfiCond192) V6 load(1, XDATA, add(CFA_XSP16, literal(-15)))
        CFI (cfiCond192) V7 load(1, XDATA, add(CFA_XSP16, literal(-14)))
        CFI (cfiCond192) V8 load(1, XDATA, add(CFA_XSP16, literal(-13)))
        CFI (cfiCond192) V9 load(1, XDATA, add(CFA_XSP16, literal(-12)))
        CFI (cfiCond192) V10 load(1, XDATA, add(CFA_XSP16, literal(-11)))
        CFI (cfiCond192) V11 load(1, XDATA, add(CFA_XSP16, literal(-10)))
        CFI (cfiCond192) V12 load(1, XDATA, add(CFA_XSP16, literal(-9)))
        CFI (cfiCond192) V13 load(1, XDATA, add(CFA_XSP16, literal(-8)))
        CFI (cfiCond192) V14 load(1, XDATA, add(CFA_XSP16, literal(-7)))
        CFI (cfiCond192) R7 load(1, XDATA, add(CFA_XSP16, literal(-6)))
        CFI (cfiCond192) ?RET_LOW load(1, XDATA, add(CFA_XSP16, literal(-5)))
        CFI (cfiCond192) ?RET_HIGH load(1, XDATA, add(CFA_XSP16, literal(-4)))
        CFI (cfiCond192) ?BRET_EXT load(1, XDATA, add(CFA_XSP16, literal(-3)))
        CFI (cfiCond192) DPL0 load(1, XDATA, add(CFA_XSP16, literal(-2)))
        CFI (cfiCond192) DPH0 load(1, XDATA, add(CFA_XSP16, literal(-1)))
        CFI (cfiCond192) CFA_SP SP+0
        CFI (cfiCond192) CFA_XSP16 add(XSP16, 23)
        CFI Block cfiCond193 Using cfiCommon0
        CFI (cfiCond193) NoFunction
        CFI (cfiCond193) Conditional ??CrossCallReturnLabel_112, ??CrossCallReturnLabel_109, ??CrossCallReturnLabel_5
        CFI (cfiCond193) R6 load(1, XDATA, add(CFA_XSP16, literal(-23)))
        CFI (cfiCond193) VB load(1, XDATA, add(CFA_XSP16, literal(-22)))
        CFI (cfiCond193) V0 load(1, XDATA, add(CFA_XSP16, literal(-21)))
        CFI (cfiCond193) V1 load(1, XDATA, add(CFA_XSP16, literal(-20)))
        CFI (cfiCond193) V2 load(1, XDATA, add(CFA_XSP16, literal(-19)))
        CFI (cfiCond193) V3 load(1, XDATA, add(CFA_XSP16, literal(-18)))
        CFI (cfiCond193) V4 load(1, XDATA, add(CFA_XSP16, literal(-17)))
        CFI (cfiCond193) V5 load(1, XDATA, add(CFA_XSP16, literal(-16)))
        CFI (cfiCond193) V6 load(1, XDATA, add(CFA_XSP16, literal(-15)))
        CFI (cfiCond193) V7 load(1, XDATA, add(CFA_XSP16, literal(-14)))
        CFI (cfiCond193) V8 load(1, XDATA, add(CFA_XSP16, literal(-13)))
        CFI (cfiCond193) V9 load(1, XDATA, add(CFA_XSP16, literal(-12)))
        CFI (cfiCond193) V10 load(1, XDATA, add(CFA_XSP16, literal(-11)))
        CFI (cfiCond193) V11 load(1, XDATA, add(CFA_XSP16, literal(-10)))
        CFI (cfiCond193) V12 load(1, XDATA, add(CFA_XSP16, literal(-9)))
        CFI (cfiCond193) V13 load(1, XDATA, add(CFA_XSP16, literal(-8)))
        CFI (cfiCond193) V14 load(1, XDATA, add(CFA_XSP16, literal(-7)))
        CFI (cfiCond193) R7 load(1, XDATA, add(CFA_XSP16, literal(-6)))
        CFI (cfiCond193) ?RET_LOW load(1, XDATA, add(CFA_XSP16, literal(-5)))
        CFI (cfiCond193) ?RET_HIGH load(1, XDATA, add(CFA_XSP16, literal(-4)))
        CFI (cfiCond193) ?BRET_EXT load(1, XDATA, add(CFA_XSP16, literal(-3)))
        CFI (cfiCond193) DPL0 load(1, XDATA, add(CFA_XSP16, literal(-2)))
        CFI (cfiCond193) DPH0 load(1, XDATA, add(CFA_XSP16, literal(-1)))
        CFI (cfiCond193) CFA_SP SP+0
        CFI (cfiCond193) CFA_XSP16 add(XSP16, 23)
        CFI Block cfiCond194 Using cfiCommon0
        CFI (cfiCond194) NoFunction
        CFI (cfiCond194) Conditional ??CrossCallReturnLabel_112, ??CrossCallReturnLabel_109, ??CrossCallReturnLabel_6
        CFI (cfiCond194) R6 load(1, XDATA, add(CFA_XSP16, literal(-23)))
        CFI (cfiCond194) VB load(1, XDATA, add(CFA_XSP16, literal(-22)))
        CFI (cfiCond194) V0 load(1, XDATA, add(CFA_XSP16, literal(-21)))
        CFI (cfiCond194) V1 load(1, XDATA, add(CFA_XSP16, literal(-20)))
        CFI (cfiCond194) V2 load(1, XDATA, add(CFA_XSP16, literal(-19)))
        CFI (cfiCond194) V3 load(1, XDATA, add(CFA_XSP16, literal(-18)))
        CFI (cfiCond194) V4 load(1, XDATA, add(CFA_XSP16, literal(-17)))
        CFI (cfiCond194) V5 load(1, XDATA, add(CFA_XSP16, literal(-16)))
        CFI (cfiCond194) V6 load(1, XDATA, add(CFA_XSP16, literal(-15)))
        CFI (cfiCond194) V7 load(1, XDATA, add(CFA_XSP16, literal(-14)))
        CFI (cfiCond194) V8 load(1, XDATA, add(CFA_XSP16, literal(-13)))
        CFI (cfiCond194) V9 load(1, XDATA, add(CFA_XSP16, literal(-12)))
        CFI (cfiCond194) V10 load(1, XDATA, add(CFA_XSP16, literal(-11)))
        CFI (cfiCond194) V11 load(1, XDATA, add(CFA_XSP16, literal(-10)))
        CFI (cfiCond194) V12 load(1, XDATA, add(CFA_XSP16, literal(-9)))
        CFI (cfiCond194) V13 load(1, XDATA, add(CFA_XSP16, literal(-8)))
        CFI (cfiCond194) V14 load(1, XDATA, add(CFA_XSP16, literal(-7)))
        CFI (cfiCond194) R7 load(1, XDATA, add(CFA_XSP16, literal(-6)))
        CFI (cfiCond194) ?RET_LOW load(1, XDATA, add(CFA_XSP16, literal(-5)))
        CFI (cfiCond194) ?RET_HIGH load(1, XDATA, add(CFA_XSP16, literal(-4)))
        CFI (cfiCond194) ?BRET_EXT load(1, XDATA, add(CFA_XSP16, literal(-3)))
        CFI (cfiCond194) DPL0 load(1, XDATA, add(CFA_XSP16, literal(-2)))
        CFI (cfiCond194) DPH0 load(1, XDATA, add(CFA_XSP16, literal(-1)))
        CFI (cfiCond194) CFA_SP SP+0
        CFI (cfiCond194) CFA_XSP16 add(XSP16, 23)
        CFI Block cfiCond195 Using cfiCommon0
        CFI (cfiCond195) NoFunction
        CFI (cfiCond195) Conditional ??CrossCallReturnLabel_112, ??CrossCallReturnLabel_108, ??CrossCallReturnLabel_0
        CFI (cfiCond195) R6 load(1, XDATA, add(CFA_XSP16, literal(-23)))
        CFI (cfiCond195) VB load(1, XDATA, add(CFA_XSP16, literal(-22)))
        CFI (cfiCond195) V0 load(1, XDATA, add(CFA_XSP16, literal(-21)))
        CFI (cfiCond195) V1 load(1, XDATA, add(CFA_XSP16, literal(-20)))
        CFI (cfiCond195) V2 load(1, XDATA, add(CFA_XSP16, literal(-19)))
        CFI (cfiCond195) V3 load(1, XDATA, add(CFA_XSP16, literal(-18)))
        CFI (cfiCond195) V4 load(1, XDATA, add(CFA_XSP16, literal(-17)))
        CFI (cfiCond195) V5 load(1, XDATA, add(CFA_XSP16, literal(-16)))
        CFI (cfiCond195) V6 load(1, XDATA, add(CFA_XSP16, literal(-15)))
        CFI (cfiCond195) V7 load(1, XDATA, add(CFA_XSP16, literal(-14)))
        CFI (cfiCond195) V8 load(1, XDATA, add(CFA_XSP16, literal(-13)))
        CFI (cfiCond195) V9 load(1, XDATA, add(CFA_XSP16, literal(-12)))
        CFI (cfiCond195) V10 load(1, XDATA, add(CFA_XSP16, literal(-11)))
        CFI (cfiCond195) V11 load(1, XDATA, add(CFA_XSP16, literal(-10)))
        CFI (cfiCond195) V12 load(1, XDATA, add(CFA_XSP16, literal(-9)))
        CFI (cfiCond195) V13 load(1, XDATA, add(CFA_XSP16, literal(-8)))
        CFI (cfiCond195) V14 load(1, XDATA, add(CFA_XSP16, literal(-7)))
        CFI (cfiCond195) R7 load(1, XDATA, add(CFA_XSP16, literal(-6)))
        CFI (cfiCond195) ?RET_LOW load(1, XDATA, add(CFA_XSP16, literal(-5)))
        CFI (cfiCond195) ?RET_HIGH load(1, XDATA, add(CFA_XSP16, literal(-4)))
        CFI (cfiCond195) ?BRET_EXT load(1, XDATA, add(CFA_XSP16, literal(-3)))
        CFI (cfiCond195) DPL0 load(1, XDATA, add(CFA_XSP16, literal(-2)))
        CFI (cfiCond195) DPH0 load(1, XDATA, add(CFA_XSP16, literal(-1)))
        CFI (cfiCond195) CFA_SP SP+0
        CFI (cfiCond195) CFA_XSP16 add(XSP16, 23)
        CFI Block cfiCond196 Using cfiCommon0
        CFI (cfiCond196) NoFunction
        CFI (cfiCond196) Conditional ??CrossCallReturnLabel_112, ??CrossCallReturnLabel_108, ??CrossCallReturnLabel_1
        CFI (cfiCond196) R6 load(1, XDATA, add(CFA_XSP16, literal(-23)))
        CFI (cfiCond196) VB load(1, XDATA, add(CFA_XSP16, literal(-22)))
        CFI (cfiCond196) V0 load(1, XDATA, add(CFA_XSP16, literal(-21)))
        CFI (cfiCond196) V1 load(1, XDATA, add(CFA_XSP16, literal(-20)))
        CFI (cfiCond196) V2 load(1, XDATA, add(CFA_XSP16, literal(-19)))
        CFI (cfiCond196) V3 load(1, XDATA, add(CFA_XSP16, literal(-18)))
        CFI (cfiCond196) V4 load(1, XDATA, add(CFA_XSP16, literal(-17)))
        CFI (cfiCond196) V5 load(1, XDATA, add(CFA_XSP16, literal(-16)))
        CFI (cfiCond196) V6 load(1, XDATA, add(CFA_XSP16, literal(-15)))
        CFI (cfiCond196) V7 load(1, XDATA, add(CFA_XSP16, literal(-14)))
        CFI (cfiCond196) V8 load(1, XDATA, add(CFA_XSP16, literal(-13)))
        CFI (cfiCond196) V9 load(1, XDATA, add(CFA_XSP16, literal(-12)))
        CFI (cfiCond196) V10 load(1, XDATA, add(CFA_XSP16, literal(-11)))
        CFI (cfiCond196) V11 load(1, XDATA, add(CFA_XSP16, literal(-10)))
        CFI (cfiCond196) V12 load(1, XDATA, add(CFA_XSP16, literal(-9)))
        CFI (cfiCond196) V13 load(1, XDATA, add(CFA_XSP16, literal(-8)))
        CFI (cfiCond196) V14 load(1, XDATA, add(CFA_XSP16, literal(-7)))
        CFI (cfiCond196) R7 load(1, XDATA, add(CFA_XSP16, literal(-6)))
        CFI (cfiCond196) ?RET_LOW load(1, XDATA, add(CFA_XSP16, literal(-5)))
        CFI (cfiCond196) ?RET_HIGH load(1, XDATA, add(CFA_XSP16, literal(-4)))
        CFI (cfiCond196) ?BRET_EXT load(1, XDATA, add(CFA_XSP16, literal(-3)))
        CFI (cfiCond196) DPL0 load(1, XDATA, add(CFA_XSP16, literal(-2)))
        CFI (cfiCond196) DPH0 load(1, XDATA, add(CFA_XSP16, literal(-1)))
        CFI (cfiCond196) CFA_SP SP+0
        CFI (cfiCond196) CFA_XSP16 add(XSP16, 23)
        CFI Block cfiCond197 Using cfiCommon0
        CFI (cfiCond197) NoFunction
        CFI (cfiCond197) Conditional ??CrossCallReturnLabel_112, ??CrossCallReturnLabel_110, ??CrossCallReturnLabel_102
        CFI (cfiCond197) R6 load(1, XDATA, add(CFA_XSP16, literal(-23)))
        CFI (cfiCond197) VB load(1, XDATA, add(CFA_XSP16, literal(-22)))
        CFI (cfiCond197) V0 load(1, XDATA, add(CFA_XSP16, literal(-21)))
        CFI (cfiCond197) V1 load(1, XDATA, add(CFA_XSP16, literal(-20)))
        CFI (cfiCond197) V2 load(1, XDATA, add(CFA_XSP16, literal(-19)))
        CFI (cfiCond197) V3 load(1, XDATA, add(CFA_XSP16, literal(-18)))
        CFI (cfiCond197) V4 load(1, XDATA, add(CFA_XSP16, literal(-17)))
        CFI (cfiCond197) V5 load(1, XDATA, add(CFA_XSP16, literal(-16)))
        CFI (cfiCond197) V6 load(1, XDATA, add(CFA_XSP16, literal(-15)))
        CFI (cfiCond197) V7 load(1, XDATA, add(CFA_XSP16, literal(-14)))
        CFI (cfiCond197) V8 load(1, XDATA, add(CFA_XSP16, literal(-13)))
        CFI (cfiCond197) V9 load(1, XDATA, add(CFA_XSP16, literal(-12)))
        CFI (cfiCond197) V10 load(1, XDATA, add(CFA_XSP16, literal(-11)))
        CFI (cfiCond197) V11 load(1, XDATA, add(CFA_XSP16, literal(-10)))
        CFI (cfiCond197) V12 load(1, XDATA, add(CFA_XSP16, literal(-9)))
        CFI (cfiCond197) V13 load(1, XDATA, add(CFA_XSP16, literal(-8)))
        CFI (cfiCond197) V14 load(1, XDATA, add(CFA_XSP16, literal(-7)))
        CFI (cfiCond197) R7 load(1, XDATA, add(CFA_XSP16, literal(-6)))
        CFI (cfiCond197) ?RET_LOW load(1, XDATA, add(CFA_XSP16, literal(-5)))
        CFI (cfiCond197) ?RET_HIGH load(1, XDATA, add(CFA_XSP16, literal(-4)))
        CFI (cfiCond197) ?BRET_EXT load(1, XDATA, add(CFA_XSP16, literal(-3)))
        CFI (cfiCond197) DPL0 load(1, XDATA, add(CFA_XSP16, literal(-2)))
        CFI (cfiCond197) DPH0 load(1, XDATA, add(CFA_XSP16, literal(-1)))
        CFI (cfiCond197) CFA_SP SP+0
        CFI (cfiCond197) CFA_XSP16 add(XSP16, 23)
        CFI Block cfiCond198 Using cfiCommon0
        CFI (cfiCond198) NoFunction
        CFI (cfiCond198) Conditional ??CrossCallReturnLabel_112, ??CrossCallReturnLabel_110, ??CrossCallReturnLabel_103
        CFI (cfiCond198) R6 load(1, XDATA, add(CFA_XSP16, literal(-23)))
        CFI (cfiCond198) VB load(1, XDATA, add(CFA_XSP16, literal(-22)))
        CFI (cfiCond198) V0 load(1, XDATA, add(CFA_XSP16, literal(-21)))
        CFI (cfiCond198) V1 load(1, XDATA, add(CFA_XSP16, literal(-20)))
        CFI (cfiCond198) V2 load(1, XDATA, add(CFA_XSP16, literal(-19)))
        CFI (cfiCond198) V3 load(1, XDATA, add(CFA_XSP16, literal(-18)))
        CFI (cfiCond198) V4 load(1, XDATA, add(CFA_XSP16, literal(-17)))
        CFI (cfiCond198) V5 load(1, XDATA, add(CFA_XSP16, literal(-16)))
        CFI (cfiCond198) V6 load(1, XDATA, add(CFA_XSP16, literal(-15)))
        CFI (cfiCond198) V7 load(1, XDATA, add(CFA_XSP16, literal(-14)))
        CFI (cfiCond198) V8 load(1, XDATA, add(CFA_XSP16, literal(-13)))
        CFI (cfiCond198) V9 load(1, XDATA, add(CFA_XSP16, literal(-12)))
        CFI (cfiCond198) V10 load(1, XDATA, add(CFA_XSP16, literal(-11)))
        CFI (cfiCond198) V11 load(1, XDATA, add(CFA_XSP16, literal(-10)))
        CFI (cfiCond198) V12 load(1, XDATA, add(CFA_XSP16, literal(-9)))
        CFI (cfiCond198) V13 load(1, XDATA, add(CFA_XSP16, literal(-8)))
        CFI (cfiCond198) V14 load(1, XDATA, add(CFA_XSP16, literal(-7)))
        CFI (cfiCond198) R7 load(1, XDATA, add(CFA_XSP16, literal(-6)))
        CFI (cfiCond198) ?RET_LOW load(1, XDATA, add(CFA_XSP16, literal(-5)))
        CFI (cfiCond198) ?RET_HIGH load(1, XDATA, add(CFA_XSP16, literal(-4)))
        CFI (cfiCond198) ?BRET_EXT load(1, XDATA, add(CFA_XSP16, literal(-3)))
        CFI (cfiCond198) DPL0 load(1, XDATA, add(CFA_XSP16, literal(-2)))
        CFI (cfiCond198) DPH0 load(1, XDATA, add(CFA_XSP16, literal(-1)))
        CFI (cfiCond198) CFA_SP SP+0
        CFI (cfiCond198) CFA_XSP16 add(XSP16, 23)
        CFI Block cfiCond199 Using cfiCommon0
        CFI (cfiCond199) NoFunction
        CFI (cfiCond199) Conditional ??CrossCallReturnLabel_112, ??CrossCallReturnLabel_110, ??CrossCallReturnLabel_104
        CFI (cfiCond199) R6 load(1, XDATA, add(CFA_XSP16, literal(-23)))
        CFI (cfiCond199) VB load(1, XDATA, add(CFA_XSP16, literal(-22)))
        CFI (cfiCond199) V0 load(1, XDATA, add(CFA_XSP16, literal(-21)))
        CFI (cfiCond199) V1 load(1, XDATA, add(CFA_XSP16, literal(-20)))
        CFI (cfiCond199) V2 load(1, XDATA, add(CFA_XSP16, literal(-19)))
        CFI (cfiCond199) V3 load(1, XDATA, add(CFA_XSP16, literal(-18)))
        CFI (cfiCond199) V4 load(1, XDATA, add(CFA_XSP16, literal(-17)))
        CFI (cfiCond199) V5 load(1, XDATA, add(CFA_XSP16, literal(-16)))
        CFI (cfiCond199) V6 load(1, XDATA, add(CFA_XSP16, literal(-15)))
        CFI (cfiCond199) V7 load(1, XDATA, add(CFA_XSP16, literal(-14)))
        CFI (cfiCond199) V8 load(1, XDATA, add(CFA_XSP16, literal(-13)))
        CFI (cfiCond199) V9 load(1, XDATA, add(CFA_XSP16, literal(-12)))
        CFI (cfiCond199) V10 load(1, XDATA, add(CFA_XSP16, literal(-11)))
        CFI (cfiCond199) V11 load(1, XDATA, add(CFA_XSP16, literal(-10)))
        CFI (cfiCond199) V12 load(1, XDATA, add(CFA_XSP16, literal(-9)))
        CFI (cfiCond199) V13 load(1, XDATA, add(CFA_XSP16, literal(-8)))
        CFI (cfiCond199) V14 load(1, XDATA, add(CFA_XSP16, literal(-7)))
        CFI (cfiCond199) R7 load(1, XDATA, add(CFA_XSP16, literal(-6)))
        CFI (cfiCond199) ?RET_LOW load(1, XDATA, add(CFA_XSP16, literal(-5)))
        CFI (cfiCond199) ?RET_HIGH load(1, XDATA, add(CFA_XSP16, literal(-4)))
        CFI (cfiCond199) ?BRET_EXT load(1, XDATA, add(CFA_XSP16, literal(-3)))
        CFI (cfiCond199) DPL0 load(1, XDATA, add(CFA_XSP16, literal(-2)))
        CFI (cfiCond199) DPH0 load(1, XDATA, add(CFA_XSP16, literal(-1)))
        CFI (cfiCond199) CFA_SP SP+0
        CFI (cfiCond199) CFA_XSP16 add(XSP16, 23)
        CFI Block cfiCond200 Using cfiCommon0
        CFI (cfiCond200) NoFunction
        CFI (cfiCond200) Conditional ??CrossCallReturnLabel_112, ??CrossCallReturnLabel_110, ??CrossCallReturnLabel_105
        CFI (cfiCond200) R6 load(1, XDATA, add(CFA_XSP16, literal(-23)))
        CFI (cfiCond200) VB load(1, XDATA, add(CFA_XSP16, literal(-22)))
        CFI (cfiCond200) V0 load(1, XDATA, add(CFA_XSP16, literal(-21)))
        CFI (cfiCond200) V1 load(1, XDATA, add(CFA_XSP16, literal(-20)))
        CFI (cfiCond200) V2 load(1, XDATA, add(CFA_XSP16, literal(-19)))
        CFI (cfiCond200) V3 load(1, XDATA, add(CFA_XSP16, literal(-18)))
        CFI (cfiCond200) V4 load(1, XDATA, add(CFA_XSP16, literal(-17)))
        CFI (cfiCond200) V5 load(1, XDATA, add(CFA_XSP16, literal(-16)))
        CFI (cfiCond200) V6 load(1, XDATA, add(CFA_XSP16, literal(-15)))
        CFI (cfiCond200) V7 load(1, XDATA, add(CFA_XSP16, literal(-14)))
        CFI (cfiCond200) V8 load(1, XDATA, add(CFA_XSP16, literal(-13)))
        CFI (cfiCond200) V9 load(1, XDATA, add(CFA_XSP16, literal(-12)))
        CFI (cfiCond200) V10 load(1, XDATA, add(CFA_XSP16, literal(-11)))
        CFI (cfiCond200) V11 load(1, XDATA, add(CFA_XSP16, literal(-10)))
        CFI (cfiCond200) V12 load(1, XDATA, add(CFA_XSP16, literal(-9)))
        CFI (cfiCond200) V13 load(1, XDATA, add(CFA_XSP16, literal(-8)))
        CFI (cfiCond200) V14 load(1, XDATA, add(CFA_XSP16, literal(-7)))
        CFI (cfiCond200) R7 load(1, XDATA, add(CFA_XSP16, literal(-6)))
        CFI (cfiCond200) ?RET_LOW load(1, XDATA, add(CFA_XSP16, literal(-5)))
        CFI (cfiCond200) ?RET_HIGH load(1, XDATA, add(CFA_XSP16, literal(-4)))
        CFI (cfiCond200) ?BRET_EXT load(1, XDATA, add(CFA_XSP16, literal(-3)))
        CFI (cfiCond200) DPL0 load(1, XDATA, add(CFA_XSP16, literal(-2)))
        CFI (cfiCond200) DPH0 load(1, XDATA, add(CFA_XSP16, literal(-1)))
        CFI (cfiCond200) CFA_SP SP+0
        CFI (cfiCond200) CFA_XSP16 add(XSP16, 23)
        CFI Block cfiCond201 Using cfiCommon0
        CFI (cfiCond201) NoFunction
        CFI (cfiCond201) Conditional ??CrossCallReturnLabel_112, ??CrossCallReturnLabel_110, ??CrossCallReturnLabel_106
        CFI (cfiCond201) R6 load(1, XDATA, add(CFA_XSP16, literal(-23)))
        CFI (cfiCond201) VB load(1, XDATA, add(CFA_XSP16, literal(-22)))
        CFI (cfiCond201) V0 load(1, XDATA, add(CFA_XSP16, literal(-21)))
        CFI (cfiCond201) V1 load(1, XDATA, add(CFA_XSP16, literal(-20)))
        CFI (cfiCond201) V2 load(1, XDATA, add(CFA_XSP16, literal(-19)))
        CFI (cfiCond201) V3 load(1, XDATA, add(CFA_XSP16, literal(-18)))
        CFI (cfiCond201) V4 load(1, XDATA, add(CFA_XSP16, literal(-17)))
        CFI (cfiCond201) V5 load(1, XDATA, add(CFA_XSP16, literal(-16)))
        CFI (cfiCond201) V6 load(1, XDATA, add(CFA_XSP16, literal(-15)))
        CFI (cfiCond201) V7 load(1, XDATA, add(CFA_XSP16, literal(-14)))
        CFI (cfiCond201) V8 load(1, XDATA, add(CFA_XSP16, literal(-13)))
        CFI (cfiCond201) V9 load(1, XDATA, add(CFA_XSP16, literal(-12)))
        CFI (cfiCond201) V10 load(1, XDATA, add(CFA_XSP16, literal(-11)))
        CFI (cfiCond201) V11 load(1, XDATA, add(CFA_XSP16, literal(-10)))
        CFI (cfiCond201) V12 load(1, XDATA, add(CFA_XSP16, literal(-9)))
        CFI (cfiCond201) V13 load(1, XDATA, add(CFA_XSP16, literal(-8)))
        CFI (cfiCond201) V14 load(1, XDATA, add(CFA_XSP16, literal(-7)))
        CFI (cfiCond201) R7 load(1, XDATA, add(CFA_XSP16, literal(-6)))
        CFI (cfiCond201) ?RET_LOW load(1, XDATA, add(CFA_XSP16, literal(-5)))
        CFI (cfiCond201) ?RET_HIGH load(1, XDATA, add(CFA_XSP16, literal(-4)))
        CFI (cfiCond201) ?BRET_EXT load(1, XDATA, add(CFA_XSP16, literal(-3)))
        CFI (cfiCond201) DPL0 load(1, XDATA, add(CFA_XSP16, literal(-2)))
        CFI (cfiCond201) DPH0 load(1, XDATA, add(CFA_XSP16, literal(-1)))
        CFI (cfiCond201) CFA_SP SP+0
        CFI (cfiCond201) CFA_XSP16 add(XSP16, 23)
        CFI Block cfiCond202 Using cfiCommon0
        CFI (cfiCond202) NoFunction
        CFI (cfiCond202) Conditional ??CrossCallReturnLabel_112, ??CrossCallReturnLabel_110, ??CrossCallReturnLabel_107
        CFI (cfiCond202) R6 load(1, XDATA, add(CFA_XSP16, literal(-23)))
        CFI (cfiCond202) VB load(1, XDATA, add(CFA_XSP16, literal(-22)))
        CFI (cfiCond202) V0 load(1, XDATA, add(CFA_XSP16, literal(-21)))
        CFI (cfiCond202) V1 load(1, XDATA, add(CFA_XSP16, literal(-20)))
        CFI (cfiCond202) V2 load(1, XDATA, add(CFA_XSP16, literal(-19)))
        CFI (cfiCond202) V3 load(1, XDATA, add(CFA_XSP16, literal(-18)))
        CFI (cfiCond202) V4 load(1, XDATA, add(CFA_XSP16, literal(-17)))
        CFI (cfiCond202) V5 load(1, XDATA, add(CFA_XSP16, literal(-16)))
        CFI (cfiCond202) V6 load(1, XDATA, add(CFA_XSP16, literal(-15)))
        CFI (cfiCond202) V7 load(1, XDATA, add(CFA_XSP16, literal(-14)))
        CFI (cfiCond202) V8 load(1, XDATA, add(CFA_XSP16, literal(-13)))
        CFI (cfiCond202) V9 load(1, XDATA, add(CFA_XSP16, literal(-12)))
        CFI (cfiCond202) V10 load(1, XDATA, add(CFA_XSP16, literal(-11)))
        CFI (cfiCond202) V11 load(1, XDATA, add(CFA_XSP16, literal(-10)))
        CFI (cfiCond202) V12 load(1, XDATA, add(CFA_XSP16, literal(-9)))
        CFI (cfiCond202) V13 load(1, XDATA, add(CFA_XSP16, literal(-8)))
        CFI (cfiCond202) V14 load(1, XDATA, add(CFA_XSP16, literal(-7)))
        CFI (cfiCond202) R7 load(1, XDATA, add(CFA_XSP16, literal(-6)))
        CFI (cfiCond202) ?RET_LOW load(1, XDATA, add(CFA_XSP16, literal(-5)))
        CFI (cfiCond202) ?RET_HIGH load(1, XDATA, add(CFA_XSP16, literal(-4)))
        CFI (cfiCond202) ?BRET_EXT load(1, XDATA, add(CFA_XSP16, literal(-3)))
        CFI (cfiCond202) DPL0 load(1, XDATA, add(CFA_XSP16, literal(-2)))
        CFI (cfiCond202) DPH0 load(1, XDATA, add(CFA_XSP16, literal(-1)))
        CFI (cfiCond202) CFA_SP SP+0
        CFI (cfiCond202) CFA_XSP16 add(XSP16, 23)
        CFI Block cfiPicker203 Using cfiCommon1
        CFI (cfiPicker203) NoFunction
        CFI (cfiPicker203) Picker
        MOVX    @DPTR,A
        INC     DPTR
        MOV     ?V0 + 2,DPL
        MOV     ?V0 + 3,DPH
        RET
        CFI EndBlock cfiCond186
        CFI EndBlock cfiCond187
        CFI EndBlock cfiCond188
        CFI EndBlock cfiCond189
        CFI EndBlock cfiCond190
        CFI EndBlock cfiCond191
        CFI EndBlock cfiCond192
        CFI EndBlock cfiCond193
        CFI EndBlock cfiCond194
        CFI EndBlock cfiCond195
        CFI EndBlock cfiCond196
        CFI EndBlock cfiCond197
        CFI EndBlock cfiCond198
        CFI EndBlock cfiCond199
        CFI EndBlock cfiCond200
        CFI EndBlock cfiCond201
        CFI EndBlock cfiCond202
        CFI EndBlock cfiPicker203

        RSEG BANKED_CODE:CODE:NOROOT(0)
?Subroutine4:
        CFI Block cfiCond204 Using cfiCommon0
        CFI NoFunction
        CFI Conditional ??CrossCallReturnLabel_0
        CFI R6 load(1, XDATA, add(CFA_XSP16, literal(-23)))
        CFI VB load(1, XDATA, add(CFA_XSP16, literal(-22)))
        CFI V0 load(1, XDATA, add(CFA_XSP16, literal(-21)))
        CFI V1 load(1, XDATA, add(CFA_XSP16, literal(-20)))
        CFI V2 load(1, XDATA, add(CFA_XSP16, literal(-19)))
        CFI V3 load(1, XDATA, add(CFA_XSP16, literal(-18)))
        CFI V4 load(1, XDATA, add(CFA_XSP16, literal(-17)))
        CFI V5 load(1, XDATA, add(CFA_XSP16, literal(-16)))
        CFI V6 load(1, XDATA, add(CFA_XSP16, literal(-15)))
        CFI V7 load(1, XDATA, add(CFA_XSP16, literal(-14)))
        CFI V8 load(1, XDATA, add(CFA_XSP16, literal(-13)))
        CFI V9 load(1, XDATA, add(CFA_XSP16, literal(-12)))
        CFI V10 load(1, XDATA, add(CFA_XSP16, literal(-11)))
        CFI V11 load(1, XDATA, add(CFA_XSP16, literal(-10)))
        CFI V12 load(1, XDATA, add(CFA_XSP16, literal(-9)))
        CFI V13 load(1, XDATA, add(CFA_XSP16, literal(-8)))
        CFI V14 load(1, XDATA, add(CFA_XSP16, literal(-7)))
        CFI R7 load(1, XDATA, add(CFA_XSP16, literal(-6)))
        CFI ?RET_LOW load(1, XDATA, add(CFA_XSP16, literal(-5)))
        CFI ?RET_HIGH load(1, XDATA, add(CFA_XSP16, literal(-4)))
        CFI ?BRET_EXT load(1, XDATA, add(CFA_XSP16, literal(-3)))
        CFI DPL0 load(1, XDATA, add(CFA_XSP16, literal(-2)))
        CFI DPH0 load(1, XDATA, add(CFA_XSP16, literal(-1)))
        CFI CFA_SP SP+0
        CFI CFA_XSP16 add(XSP16, 23)
        CFI Block cfiCond205 Using cfiCommon0
        CFI (cfiCond205) NoFunction
        CFI (cfiCond205) Conditional ??CrossCallReturnLabel_1
        CFI (cfiCond205) R6 load(1, XDATA, add(CFA_XSP16, literal(-23)))
        CFI (cfiCond205) VB load(1, XDATA, add(CFA_XSP16, literal(-22)))
        CFI (cfiCond205) V0 load(1, XDATA, add(CFA_XSP16, literal(-21)))
        CFI (cfiCond205) V1 load(1, XDATA, add(CFA_XSP16, literal(-20)))
        CFI (cfiCond205) V2 load(1, XDATA, add(CFA_XSP16, literal(-19)))
        CFI (cfiCond205) V3 load(1, XDATA, add(CFA_XSP16, literal(-18)))
        CFI (cfiCond205) V4 load(1, XDATA, add(CFA_XSP16, literal(-17)))
        CFI (cfiCond205) V5 load(1, XDATA, add(CFA_XSP16, literal(-16)))
        CFI (cfiCond205) V6 load(1, XDATA, add(CFA_XSP16, literal(-15)))
        CFI (cfiCond205) V7 load(1, XDATA, add(CFA_XSP16, literal(-14)))
        CFI (cfiCond205) V8 load(1, XDATA, add(CFA_XSP16, literal(-13)))
        CFI (cfiCond205) V9 load(1, XDATA, add(CFA_XSP16, literal(-12)))
        CFI (cfiCond205) V10 load(1, XDATA, add(CFA_XSP16, literal(-11)))
        CFI (cfiCond205) V11 load(1, XDATA, add(CFA_XSP16, literal(-10)))
        CFI (cfiCond205) V12 load(1, XDATA, add(CFA_XSP16, literal(-9)))
        CFI (cfiCond205) V13 load(1, XDATA, add(CFA_XSP16, literal(-8)))
        CFI (cfiCond205) V14 load(1, XDATA, add(CFA_XSP16, literal(-7)))
        CFI (cfiCond205) R7 load(1, XDATA, add(CFA_XSP16, literal(-6)))
        CFI (cfiCond205) ?RET_LOW load(1, XDATA, add(CFA_XSP16, literal(-5)))
        CFI (cfiCond205) ?RET_HIGH load(1, XDATA, add(CFA_XSP16, literal(-4)))
        CFI (cfiCond205) ?BRET_EXT load(1, XDATA, add(CFA_XSP16, literal(-3)))
        CFI (cfiCond205) DPL0 load(1, XDATA, add(CFA_XSP16, literal(-2)))
        CFI (cfiCond205) DPH0 load(1, XDATA, add(CFA_XSP16, literal(-1)))
        CFI (cfiCond205) CFA_SP SP+0
        CFI (cfiCond205) CFA_XSP16 add(XSP16, 23)
        CFI Block cfiPicker206 Using cfiCommon1
        CFI (cfiPicker206) NoFunction
        CFI (cfiPicker206) Picker
        INC     R0
        INC     R0
        LCALL   ?Subroutine43 & 0xFFFF
??CrossCallReturnLabel_135:
        LCALL   ?Subroutine36 & 0xFFFF
??CrossCallReturnLabel_108:
        MOV     DPL,R0
        MOV     DPH,R1
        INC     DPTR
        RET
        CFI EndBlock cfiCond204
        CFI EndBlock cfiCond205
        CFI EndBlock cfiPicker206

        RSEG BANKED_CODE:CODE:NOROOT(0)
?Subroutine1:
        CFI Block cfiCond207 Using cfiCommon0
        CFI NoFunction
        CFI Conditional ??CrossCallReturnLabel_102
        CFI R6 load(1, XDATA, add(CFA_XSP16, literal(-23)))
        CFI VB load(1, XDATA, add(CFA_XSP16, literal(-22)))
        CFI V0 load(1, XDATA, add(CFA_XSP16, literal(-21)))
        CFI V1 load(1, XDATA, add(CFA_XSP16, literal(-20)))
        CFI V2 load(1, XDATA, add(CFA_XSP16, literal(-19)))
        CFI V3 load(1, XDATA, add(CFA_XSP16, literal(-18)))
        CFI V4 load(1, XDATA, add(CFA_XSP16, literal(-17)))
        CFI V5 load(1, XDATA, add(CFA_XSP16, literal(-16)))
        CFI V6 load(1, XDATA, add(CFA_XSP16, literal(-15)))
        CFI V7 load(1, XDATA, add(CFA_XSP16, literal(-14)))
        CFI V8 load(1, XDATA, add(CFA_XSP16, literal(-13)))
        CFI V9 load(1, XDATA, add(CFA_XSP16, literal(-12)))
        CFI V10 load(1, XDATA, add(CFA_XSP16, literal(-11)))
        CFI V11 load(1, XDATA, add(CFA_XSP16, literal(-10)))
        CFI V12 load(1, XDATA, add(CFA_XSP16, literal(-9)))
        CFI V13 load(1, XDATA, add(CFA_XSP16, literal(-8)))
        CFI V14 load(1, XDATA, add(CFA_XSP16, literal(-7)))
        CFI R7 load(1, XDATA, add(CFA_XSP16, literal(-6)))
        CFI ?RET_LOW load(1, XDATA, add(CFA_XSP16, literal(-5)))
        CFI ?RET_HIGH load(1, XDATA, add(CFA_XSP16, literal(-4)))
        CFI ?BRET_EXT load(1, XDATA, add(CFA_XSP16, literal(-3)))
        CFI DPL0 load(1, XDATA, add(CFA_XSP16, literal(-2)))
        CFI DPH0 load(1, XDATA, add(CFA_XSP16, literal(-1)))
        CFI CFA_SP SP+0
        CFI CFA_XSP16 add(XSP16, 23)
        CFI Block cfiCond208 Using cfiCommon0
        CFI (cfiCond208) NoFunction
        CFI (cfiCond208) Conditional ??CrossCallReturnLabel_103
        CFI (cfiCond208) R6 load(1, XDATA, add(CFA_XSP16, literal(-23)))
        CFI (cfiCond208) VB load(1, XDATA, add(CFA_XSP16, literal(-22)))
        CFI (cfiCond208) V0 load(1, XDATA, add(CFA_XSP16, literal(-21)))
        CFI (cfiCond208) V1 load(1, XDATA, add(CFA_XSP16, literal(-20)))
        CFI (cfiCond208) V2 load(1, XDATA, add(CFA_XSP16, literal(-19)))
        CFI (cfiCond208) V3 load(1, XDATA, add(CFA_XSP16, literal(-18)))
        CFI (cfiCond208) V4 load(1, XDATA, add(CFA_XSP16, literal(-17)))
        CFI (cfiCond208) V5 load(1, XDATA, add(CFA_XSP16, literal(-16)))
        CFI (cfiCond208) V6 load(1, XDATA, add(CFA_XSP16, literal(-15)))
        CFI (cfiCond208) V7 load(1, XDATA, add(CFA_XSP16, literal(-14)))
        CFI (cfiCond208) V8 load(1, XDATA, add(CFA_XSP16, literal(-13)))
        CFI (cfiCond208) V9 load(1, XDATA, add(CFA_XSP16, literal(-12)))
        CFI (cfiCond208) V10 load(1, XDATA, add(CFA_XSP16, literal(-11)))
        CFI (cfiCond208) V11 load(1, XDATA, add(CFA_XSP16, literal(-10)))
        CFI (cfiCond208) V12 load(1, XDATA, add(CFA_XSP16, literal(-9)))
        CFI (cfiCond208) V13 load(1, XDATA, add(CFA_XSP16, literal(-8)))
        CFI (cfiCond208) V14 load(1, XDATA, add(CFA_XSP16, literal(-7)))
        CFI (cfiCond208) R7 load(1, XDATA, add(CFA_XSP16, literal(-6)))
        CFI (cfiCond208) ?RET_LOW load(1, XDATA, add(CFA_XSP16, literal(-5)))
        CFI (cfiCond208) ?RET_HIGH load(1, XDATA, add(CFA_XSP16, literal(-4)))
        CFI (cfiCond208) ?BRET_EXT load(1, XDATA, add(CFA_XSP16, literal(-3)))
        CFI (cfiCond208) DPL0 load(1, XDATA, add(CFA_XSP16, literal(-2)))
        CFI (cfiCond208) DPH0 load(1, XDATA, add(CFA_XSP16, literal(-1)))
        CFI (cfiCond208) CFA_SP SP+0
        CFI (cfiCond208) CFA_XSP16 add(XSP16, 23)
        CFI Block cfiCond209 Using cfiCommon0
        CFI (cfiCond209) NoFunction
        CFI (cfiCond209) Conditional ??CrossCallReturnLabel_104
        CFI (cfiCond209) R6 load(1, XDATA, add(CFA_XSP16, literal(-23)))
        CFI (cfiCond209) VB load(1, XDATA, add(CFA_XSP16, literal(-22)))
        CFI (cfiCond209) V0 load(1, XDATA, add(CFA_XSP16, literal(-21)))
        CFI (cfiCond209) V1 load(1, XDATA, add(CFA_XSP16, literal(-20)))
        CFI (cfiCond209) V2 load(1, XDATA, add(CFA_XSP16, literal(-19)))
        CFI (cfiCond209) V3 load(1, XDATA, add(CFA_XSP16, literal(-18)))
        CFI (cfiCond209) V4 load(1, XDATA, add(CFA_XSP16, literal(-17)))
        CFI (cfiCond209) V5 load(1, XDATA, add(CFA_XSP16, literal(-16)))
        CFI (cfiCond209) V6 load(1, XDATA, add(CFA_XSP16, literal(-15)))
        CFI (cfiCond209) V7 load(1, XDATA, add(CFA_XSP16, literal(-14)))
        CFI (cfiCond209) V8 load(1, XDATA, add(CFA_XSP16, literal(-13)))
        CFI (cfiCond209) V9 load(1, XDATA, add(CFA_XSP16, literal(-12)))
        CFI (cfiCond209) V10 load(1, XDATA, add(CFA_XSP16, literal(-11)))
        CFI (cfiCond209) V11 load(1, XDATA, add(CFA_XSP16, literal(-10)))
        CFI (cfiCond209) V12 load(1, XDATA, add(CFA_XSP16, literal(-9)))
        CFI (cfiCond209) V13 load(1, XDATA, add(CFA_XSP16, literal(-8)))
        CFI (cfiCond209) V14 load(1, XDATA, add(CFA_XSP16, literal(-7)))
        CFI (cfiCond209) R7 load(1, XDATA, add(CFA_XSP16, literal(-6)))
        CFI (cfiCond209) ?RET_LOW load(1, XDATA, add(CFA_XSP16, literal(-5)))
        CFI (cfiCond209) ?RET_HIGH load(1, XDATA, add(CFA_XSP16, literal(-4)))
        CFI (cfiCond209) ?BRET_EXT load(1, XDATA, add(CFA_XSP16, literal(-3)))
        CFI (cfiCond209) DPL0 load(1, XDATA, add(CFA_XSP16, literal(-2)))
        CFI (cfiCond209) DPH0 load(1, XDATA, add(CFA_XSP16, literal(-1)))
        CFI (cfiCond209) CFA_SP SP+0
        CFI (cfiCond209) CFA_XSP16 add(XSP16, 23)
        CFI Block cfiCond210 Using cfiCommon0
        CFI (cfiCond210) NoFunction
        CFI (cfiCond210) Conditional ??CrossCallReturnLabel_105
        CFI (cfiCond210) R6 load(1, XDATA, add(CFA_XSP16, literal(-23)))
        CFI (cfiCond210) VB load(1, XDATA, add(CFA_XSP16, literal(-22)))
        CFI (cfiCond210) V0 load(1, XDATA, add(CFA_XSP16, literal(-21)))
        CFI (cfiCond210) V1 load(1, XDATA, add(CFA_XSP16, literal(-20)))
        CFI (cfiCond210) V2 load(1, XDATA, add(CFA_XSP16, literal(-19)))
        CFI (cfiCond210) V3 load(1, XDATA, add(CFA_XSP16, literal(-18)))
        CFI (cfiCond210) V4 load(1, XDATA, add(CFA_XSP16, literal(-17)))
        CFI (cfiCond210) V5 load(1, XDATA, add(CFA_XSP16, literal(-16)))
        CFI (cfiCond210) V6 load(1, XDATA, add(CFA_XSP16, literal(-15)))
        CFI (cfiCond210) V7 load(1, XDATA, add(CFA_XSP16, literal(-14)))
        CFI (cfiCond210) V8 load(1, XDATA, add(CFA_XSP16, literal(-13)))
        CFI (cfiCond210) V9 load(1, XDATA, add(CFA_XSP16, literal(-12)))
        CFI (cfiCond210) V10 load(1, XDATA, add(CFA_XSP16, literal(-11)))
        CFI (cfiCond210) V11 load(1, XDATA, add(CFA_XSP16, literal(-10)))
        CFI (cfiCond210) V12 load(1, XDATA, add(CFA_XSP16, literal(-9)))
        CFI (cfiCond210) V13 load(1, XDATA, add(CFA_XSP16, literal(-8)))
        CFI (cfiCond210) V14 load(1, XDATA, add(CFA_XSP16, literal(-7)))
        CFI (cfiCond210) R7 load(1, XDATA, add(CFA_XSP16, literal(-6)))
        CFI (cfiCond210) ?RET_LOW load(1, XDATA, add(CFA_XSP16, literal(-5)))
        CFI (cfiCond210) ?RET_HIGH load(1, XDATA, add(CFA_XSP16, literal(-4)))
        CFI (cfiCond210) ?BRET_EXT load(1, XDATA, add(CFA_XSP16, literal(-3)))
        CFI (cfiCond210) DPL0 load(1, XDATA, add(CFA_XSP16, literal(-2)))
        CFI (cfiCond210) DPH0 load(1, XDATA, add(CFA_XSP16, literal(-1)))
        CFI (cfiCond210) CFA_SP SP+0
        CFI (cfiCond210) CFA_XSP16 add(XSP16, 23)
        CFI Block cfiPicker211 Using cfiCommon1
        CFI (cfiPicker211) NoFunction
        CFI (cfiPicker211) Picker
        MOV     DPL,A
        MOV     A,?V0 + 9
        ADDC    A,#0x0
        MOV     DPH,A
        CFI EndBlock cfiCond207
        CFI EndBlock cfiCond208
        CFI EndBlock cfiCond209
        CFI EndBlock cfiCond210
        CFI EndBlock cfiPicker211
        REQUIRE ??Subroutine53_0
        ; // Fall through to label ??Subroutine53_0

        RSEG BANKED_CODE:CODE:NOROOT(0)
??Subroutine53_0:
        CFI Block cfiCond212 Using cfiCommon0
        CFI NoFunction
        CFI Conditional ??CrossCallReturnLabel_106
        CFI R6 load(1, XDATA, add(CFA_XSP16, literal(-23)))
        CFI VB load(1, XDATA, add(CFA_XSP16, literal(-22)))
        CFI V0 load(1, XDATA, add(CFA_XSP16, literal(-21)))
        CFI V1 load(1, XDATA, add(CFA_XSP16, literal(-20)))
        CFI V2 load(1, XDATA, add(CFA_XSP16, literal(-19)))
        CFI V3 load(1, XDATA, add(CFA_XSP16, literal(-18)))
        CFI V4 load(1, XDATA, add(CFA_XSP16, literal(-17)))
        CFI V5 load(1, XDATA, add(CFA_XSP16, literal(-16)))
        CFI V6 load(1, XDATA, add(CFA_XSP16, literal(-15)))
        CFI V7 load(1, XDATA, add(CFA_XSP16, literal(-14)))
        CFI V8 load(1, XDATA, add(CFA_XSP16, literal(-13)))
        CFI V9 load(1, XDATA, add(CFA_XSP16, literal(-12)))
        CFI V10 load(1, XDATA, add(CFA_XSP16, literal(-11)))
        CFI V11 load(1, XDATA, add(CFA_XSP16, literal(-10)))
        CFI V12 load(1, XDATA, add(CFA_XSP16, literal(-9)))
        CFI V13 load(1, XDATA, add(CFA_XSP16, literal(-8)))
        CFI V14 load(1, XDATA, add(CFA_XSP16, literal(-7)))
        CFI R7 load(1, XDATA, add(CFA_XSP16, literal(-6)))
        CFI ?RET_LOW load(1, XDATA, add(CFA_XSP16, literal(-5)))
        CFI ?RET_HIGH load(1, XDATA, add(CFA_XSP16, literal(-4)))
        CFI ?BRET_EXT load(1, XDATA, add(CFA_XSP16, literal(-3)))
        CFI DPL0 load(1, XDATA, add(CFA_XSP16, literal(-2)))
        CFI DPH0 load(1, XDATA, add(CFA_XSP16, literal(-1)))
        CFI CFA_SP SP+0
        CFI CFA_XSP16 add(XSP16, 23)
        CFI Block cfiCond213 Using cfiCommon0
        CFI (cfiCond213) NoFunction
        CFI (cfiCond213) Conditional ??CrossCallReturnLabel_107
        CFI (cfiCond213) R6 load(1, XDATA, add(CFA_XSP16, literal(-23)))
        CFI (cfiCond213) VB load(1, XDATA, add(CFA_XSP16, literal(-22)))
        CFI (cfiCond213) V0 load(1, XDATA, add(CFA_XSP16, literal(-21)))
        CFI (cfiCond213) V1 load(1, XDATA, add(CFA_XSP16, literal(-20)))
        CFI (cfiCond213) V2 load(1, XDATA, add(CFA_XSP16, literal(-19)))
        CFI (cfiCond213) V3 load(1, XDATA, add(CFA_XSP16, literal(-18)))
        CFI (cfiCond213) V4 load(1, XDATA, add(CFA_XSP16, literal(-17)))
        CFI (cfiCond213) V5 load(1, XDATA, add(CFA_XSP16, literal(-16)))
        CFI (cfiCond213) V6 load(1, XDATA, add(CFA_XSP16, literal(-15)))
        CFI (cfiCond213) V7 load(1, XDATA, add(CFA_XSP16, literal(-14)))
        CFI (cfiCond213) V8 load(1, XDATA, add(CFA_XSP16, literal(-13)))
        CFI (cfiCond213) V9 load(1, XDATA, add(CFA_XSP16, literal(-12)))
        CFI (cfiCond213) V10 load(1, XDATA, add(CFA_XSP16, literal(-11)))
        CFI (cfiCond213) V11 load(1, XDATA, add(CFA_XSP16, literal(-10)))
        CFI (cfiCond213) V12 load(1, XDATA, add(CFA_XSP16, literal(-9)))
        CFI (cfiCond213) V13 load(1, XDATA, add(CFA_XSP16, literal(-8)))
        CFI (cfiCond213) V14 load(1, XDATA, add(CFA_XSP16, literal(-7)))
        CFI (cfiCond213) R7 load(1, XDATA, add(CFA_XSP16, literal(-6)))
        CFI (cfiCond213) ?RET_LOW load(1, XDATA, add(CFA_XSP16, literal(-5)))
        CFI (cfiCond213) ?RET_HIGH load(1, XDATA, add(CFA_XSP16, literal(-4)))
        CFI (cfiCond213) ?BRET_EXT load(1, XDATA, add(CFA_XSP16, literal(-3)))
        CFI (cfiCond213) DPL0 load(1, XDATA, add(CFA_XSP16, literal(-2)))
        CFI (cfiCond213) DPH0 load(1, XDATA, add(CFA_XSP16, literal(-1)))
        CFI (cfiCond213) CFA_SP SP+0
        CFI (cfiCond213) CFA_XSP16 add(XSP16, 23)
        CFI Block cfiCond214 Using cfiCommon0
        CFI (cfiCond214) NoFunction
        CFI (cfiCond214) Conditional ??CrossCallReturnLabel_102
        CFI (cfiCond214) R6 load(1, XDATA, add(CFA_XSP16, literal(-23)))
        CFI (cfiCond214) VB load(1, XDATA, add(CFA_XSP16, literal(-22)))
        CFI (cfiCond214) V0 load(1, XDATA, add(CFA_XSP16, literal(-21)))
        CFI (cfiCond214) V1 load(1, XDATA, add(CFA_XSP16, literal(-20)))
        CFI (cfiCond214) V2 load(1, XDATA, add(CFA_XSP16, literal(-19)))
        CFI (cfiCond214) V3 load(1, XDATA, add(CFA_XSP16, literal(-18)))
        CFI (cfiCond214) V4 load(1, XDATA, add(CFA_XSP16, literal(-17)))
        CFI (cfiCond214) V5 load(1, XDATA, add(CFA_XSP16, literal(-16)))
        CFI (cfiCond214) V6 load(1, XDATA, add(CFA_XSP16, literal(-15)))
        CFI (cfiCond214) V7 load(1, XDATA, add(CFA_XSP16, literal(-14)))
        CFI (cfiCond214) V8 load(1, XDATA, add(CFA_XSP16, literal(-13)))
        CFI (cfiCond214) V9 load(1, XDATA, add(CFA_XSP16, literal(-12)))
        CFI (cfiCond214) V10 load(1, XDATA, add(CFA_XSP16, literal(-11)))
        CFI (cfiCond214) V11 load(1, XDATA, add(CFA_XSP16, literal(-10)))
        CFI (cfiCond214) V12 load(1, XDATA, add(CFA_XSP16, literal(-9)))
        CFI (cfiCond214) V13 load(1, XDATA, add(CFA_XSP16, literal(-8)))
        CFI (cfiCond214) V14 load(1, XDATA, add(CFA_XSP16, literal(-7)))
        CFI (cfiCond214) R7 load(1, XDATA, add(CFA_XSP16, literal(-6)))
        CFI (cfiCond214) ?RET_LOW load(1, XDATA, add(CFA_XSP16, literal(-5)))
        CFI (cfiCond214) ?RET_HIGH load(1, XDATA, add(CFA_XSP16, literal(-4)))
        CFI (cfiCond214) ?BRET_EXT load(1, XDATA, add(CFA_XSP16, literal(-3)))
        CFI (cfiCond214) DPL0 load(1, XDATA, add(CFA_XSP16, literal(-2)))
        CFI (cfiCond214) DPH0 load(1, XDATA, add(CFA_XSP16, literal(-1)))
        CFI (cfiCond214) CFA_SP SP+0
        CFI (cfiCond214) CFA_XSP16 add(XSP16, 23)
        CFI Block cfiCond215 Using cfiCommon0
        CFI (cfiCond215) NoFunction
        CFI (cfiCond215) Conditional ??CrossCallReturnLabel_103
        CFI (cfiCond215) R6 load(1, XDATA, add(CFA_XSP16, literal(-23)))
        CFI (cfiCond215) VB load(1, XDATA, add(CFA_XSP16, literal(-22)))
        CFI (cfiCond215) V0 load(1, XDATA, add(CFA_XSP16, literal(-21)))
        CFI (cfiCond215) V1 load(1, XDATA, add(CFA_XSP16, literal(-20)))
        CFI (cfiCond215) V2 load(1, XDATA, add(CFA_XSP16, literal(-19)))
        CFI (cfiCond215) V3 load(1, XDATA, add(CFA_XSP16, literal(-18)))
        CFI (cfiCond215) V4 load(1, XDATA, add(CFA_XSP16, literal(-17)))
        CFI (cfiCond215) V5 load(1, XDATA, add(CFA_XSP16, literal(-16)))
        CFI (cfiCond215) V6 load(1, XDATA, add(CFA_XSP16, literal(-15)))
        CFI (cfiCond215) V7 load(1, XDATA, add(CFA_XSP16, literal(-14)))
        CFI (cfiCond215) V8 load(1, XDATA, add(CFA_XSP16, literal(-13)))
        CFI (cfiCond215) V9 load(1, XDATA, add(CFA_XSP16, literal(-12)))
        CFI (cfiCond215) V10 load(1, XDATA, add(CFA_XSP16, literal(-11)))
        CFI (cfiCond215) V11 load(1, XDATA, add(CFA_XSP16, literal(-10)))
        CFI (cfiCond215) V12 load(1, XDATA, add(CFA_XSP16, literal(-9)))
        CFI (cfiCond215) V13 load(1, XDATA, add(CFA_XSP16, literal(-8)))
        CFI (cfiCond215) V14 load(1, XDATA, add(CFA_XSP16, literal(-7)))
        CFI (cfiCond215) R7 load(1, XDATA, add(CFA_XSP16, literal(-6)))
        CFI (cfiCond215) ?RET_LOW load(1, XDATA, add(CFA_XSP16, literal(-5)))
        CFI (cfiCond215) ?RET_HIGH load(1, XDATA, add(CFA_XSP16, literal(-4)))
        CFI (cfiCond215) ?BRET_EXT load(1, XDATA, add(CFA_XSP16, literal(-3)))
        CFI (cfiCond215) DPL0 load(1, XDATA, add(CFA_XSP16, literal(-2)))
        CFI (cfiCond215) DPH0 load(1, XDATA, add(CFA_XSP16, literal(-1)))
        CFI (cfiCond215) CFA_SP SP+0
        CFI (cfiCond215) CFA_XSP16 add(XSP16, 23)
        CFI Block cfiCond216 Using cfiCommon0
        CFI (cfiCond216) NoFunction
        CFI (cfiCond216) Conditional ??CrossCallReturnLabel_104
        CFI (cfiCond216) R6 load(1, XDATA, add(CFA_XSP16, literal(-23)))
        CFI (cfiCond216) VB load(1, XDATA, add(CFA_XSP16, literal(-22)))
        CFI (cfiCond216) V0 load(1, XDATA, add(CFA_XSP16, literal(-21)))
        CFI (cfiCond216) V1 load(1, XDATA, add(CFA_XSP16, literal(-20)))
        CFI (cfiCond216) V2 load(1, XDATA, add(CFA_XSP16, literal(-19)))
        CFI (cfiCond216) V3 load(1, XDATA, add(CFA_XSP16, literal(-18)))
        CFI (cfiCond216) V4 load(1, XDATA, add(CFA_XSP16, literal(-17)))
        CFI (cfiCond216) V5 load(1, XDATA, add(CFA_XSP16, literal(-16)))
        CFI (cfiCond216) V6 load(1, XDATA, add(CFA_XSP16, literal(-15)))
        CFI (cfiCond216) V7 load(1, XDATA, add(CFA_XSP16, literal(-14)))
        CFI (cfiCond216) V8 load(1, XDATA, add(CFA_XSP16, literal(-13)))
        CFI (cfiCond216) V9 load(1, XDATA, add(CFA_XSP16, literal(-12)))
        CFI (cfiCond216) V10 load(1, XDATA, add(CFA_XSP16, literal(-11)))
        CFI (cfiCond216) V11 load(1, XDATA, add(CFA_XSP16, literal(-10)))
        CFI (cfiCond216) V12 load(1, XDATA, add(CFA_XSP16, literal(-9)))
        CFI (cfiCond216) V13 load(1, XDATA, add(CFA_XSP16, literal(-8)))
        CFI (cfiCond216) V14 load(1, XDATA, add(CFA_XSP16, literal(-7)))
        CFI (cfiCond216) R7 load(1, XDATA, add(CFA_XSP16, literal(-6)))
        CFI (cfiCond216) ?RET_LOW load(1, XDATA, add(CFA_XSP16, literal(-5)))
        CFI (cfiCond216) ?RET_HIGH load(1, XDATA, add(CFA_XSP16, literal(-4)))
        CFI (cfiCond216) ?BRET_EXT load(1, XDATA, add(CFA_XSP16, literal(-3)))
        CFI (cfiCond216) DPL0 load(1, XDATA, add(CFA_XSP16, literal(-2)))
        CFI (cfiCond216) DPH0 load(1, XDATA, add(CFA_XSP16, literal(-1)))
        CFI (cfiCond216) CFA_SP SP+0
        CFI (cfiCond216) CFA_XSP16 add(XSP16, 23)
        CFI Block cfiCond217 Using cfiCommon0
        CFI (cfiCond217) NoFunction
        CFI (cfiCond217) Conditional ??CrossCallReturnLabel_105
        CFI (cfiCond217) R6 load(1, XDATA, add(CFA_XSP16, literal(-23)))
        CFI (cfiCond217) VB load(1, XDATA, add(CFA_XSP16, literal(-22)))
        CFI (cfiCond217) V0 load(1, XDATA, add(CFA_XSP16, literal(-21)))
        CFI (cfiCond217) V1 load(1, XDATA, add(CFA_XSP16, literal(-20)))
        CFI (cfiCond217) V2 load(1, XDATA, add(CFA_XSP16, literal(-19)))
        CFI (cfiCond217) V3 load(1, XDATA, add(CFA_XSP16, literal(-18)))
        CFI (cfiCond217) V4 load(1, XDATA, add(CFA_XSP16, literal(-17)))
        CFI (cfiCond217) V5 load(1, XDATA, add(CFA_XSP16, literal(-16)))
        CFI (cfiCond217) V6 load(1, XDATA, add(CFA_XSP16, literal(-15)))
        CFI (cfiCond217) V7 load(1, XDATA, add(CFA_XSP16, literal(-14)))
        CFI (cfiCond217) V8 load(1, XDATA, add(CFA_XSP16, literal(-13)))
        CFI (cfiCond217) V9 load(1, XDATA, add(CFA_XSP16, literal(-12)))
        CFI (cfiCond217) V10 load(1, XDATA, add(CFA_XSP16, literal(-11)))
        CFI (cfiCond217) V11 load(1, XDATA, add(CFA_XSP16, literal(-10)))
        CFI (cfiCond217) V12 load(1, XDATA, add(CFA_XSP16, literal(-9)))
        CFI (cfiCond217) V13 load(1, XDATA, add(CFA_XSP16, literal(-8)))
        CFI (cfiCond217) V14 load(1, XDATA, add(CFA_XSP16, literal(-7)))
        CFI (cfiCond217) R7 load(1, XDATA, add(CFA_XSP16, literal(-6)))
        CFI (cfiCond217) ?RET_LOW load(1, XDATA, add(CFA_XSP16, literal(-5)))
        CFI (cfiCond217) ?RET_HIGH load(1, XDATA, add(CFA_XSP16, literal(-4)))
        CFI (cfiCond217) ?BRET_EXT load(1, XDATA, add(CFA_XSP16, literal(-3)))
        CFI (cfiCond217) DPL0 load(1, XDATA, add(CFA_XSP16, literal(-2)))
        CFI (cfiCond217) DPH0 load(1, XDATA, add(CFA_XSP16, literal(-1)))
        CFI (cfiCond217) CFA_SP SP+0
        CFI (cfiCond217) CFA_XSP16 add(XSP16, 23)
        CFI Block cfiPicker218 Using cfiCommon1
        CFI (cfiPicker218) NoFunction
        CFI (cfiPicker218) Picker
        LCALL   ?Subroutine36 & 0xFFFF
??CrossCallReturnLabel_110:
        MOV     A,?V0 + 8
        RET
        CFI EndBlock cfiCond212
        CFI EndBlock cfiCond213
        CFI EndBlock cfiCond214
        CFI EndBlock cfiCond215
        CFI EndBlock cfiCond216
        CFI EndBlock cfiCond217
        CFI EndBlock cfiPicker218
//  774 
//  775 /**************************************************************************************************
//  776  * @fn          MT_AfDataRetrieve
//  777  *
//  778  * @brief   Process AF Data Retrieve command to incrementally read out a very large
//  779  *          incoming AF message.
//  780  *
//  781  * input parameters
//  782  *
//  783  * @param pBuf - pointer to the received buffer
//  784  *
//  785  * output parameters
//  786  *
//  787  * @param rtrn - AF-Status of the operation.
//  788  *
//  789  * @return      None.
//  790  **************************************************************************************************
//  791  */

        RSEG BANKED_CODE:CODE:NOROOT(0)
//  792 void MT_AfDataRetrieve(uint8 *pBuf)
MT_AfDataRetrieve:
        CFI Block cfiBlock219 Using cfiCommon0
        CFI Function MT_AfDataRetrieve
//  793 {
        FUNCALL MT_AfDataRetrieve, osal_mem_free
        LOCFRAME ISTACK, 0, STACK
        LOCFRAME PSTACK, 0, STACK
        LOCFRAME XSTACK, 21, STACK
        LOCFRAME IOVERLAY, 0, STATIC
        LOCFRAME DOVERLAY, 0, STATIC
        ARGFRAME ISTACK, 0, STACK
        ARGFRAME PSTACK, 0, STACK
        ARGFRAME XSTACK, 21, STACK
        ARGFRAME IOVERLAY, 0, STATIC
        ARGFRAME DOVERLAY, 0, STATIC
        FUNCALL MT_AfDataRetrieve, MT_BuildAndSendZToolResponse
        LOCFRAME ISTACK, 0, STACK
        LOCFRAME PSTACK, 0, STACK
        LOCFRAME XSTACK, 21, STACK
        LOCFRAME IOVERLAY, 0, STATIC
        LOCFRAME DOVERLAY, 0, STATIC
        ARGFRAME ISTACK, 0, STACK
        ARGFRAME PSTACK, 0, STACK
        ARGFRAME XSTACK, 21, STACK
        ARGFRAME IOVERLAY, 0, STATIC
        ARGFRAME DOVERLAY, 0, STATIC
        FUNCALL MT_AfDataRetrieve, osal_mem_alloc
        LOCFRAME ISTACK, 0, STACK
        LOCFRAME PSTACK, 0, STACK
        LOCFRAME XSTACK, 21, STACK
        LOCFRAME IOVERLAY, 0, STATIC
        LOCFRAME DOVERLAY, 0, STATIC
        ARGFRAME ISTACK, 0, STACK
        ARGFRAME PSTACK, 0, STACK
        ARGFRAME XSTACK, 21, STACK
        ARGFRAME IOVERLAY, 0, STATIC
        ARGFRAME DOVERLAY, 0, STATIC
        FUNCALL MT_AfDataRetrieve, osal_memcpy
        LOCFRAME ISTACK, 0, STACK
        LOCFRAME PSTACK, 0, STACK
        LOCFRAME XSTACK, 24, STACK
        LOCFRAME IOVERLAY, 0, STATIC
        LOCFRAME DOVERLAY, 0, STATIC
        ARGFRAME ISTACK, 0, STACK
        ARGFRAME PSTACK, 0, STACK
        ARGFRAME XSTACK, 24, STACK
        ARGFRAME IOVERLAY, 0, STATIC
        ARGFRAME DOVERLAY, 0, STATIC
        FUNCALL MT_AfDataRetrieve, MT_BuildAndSendZToolResponse
        LOCFRAME ISTACK, 0, STACK
        LOCFRAME PSTACK, 0, STACK
        LOCFRAME XSTACK, 21, STACK
        LOCFRAME IOVERLAY, 0, STATIC
        LOCFRAME DOVERLAY, 0, STATIC
        ARGFRAME ISTACK, 0, STACK
        ARGFRAME PSTACK, 0, STACK
        ARGFRAME XSTACK, 21, STACK
        ARGFRAME IOVERLAY, 0, STATIC
        ARGFRAME DOVERLAY, 0, STATIC
        FUNCALL MT_AfDataRetrieve, osal_mem_free
        LOCFRAME ISTACK, 0, STACK
        LOCFRAME PSTACK, 0, STACK
        LOCFRAME XSTACK, 21, STACK
        LOCFRAME IOVERLAY, 0, STATIC
        LOCFRAME DOVERLAY, 0, STATIC
        ARGFRAME ISTACK, 0, STACK
        ARGFRAME PSTACK, 0, STACK
        ARGFRAME XSTACK, 21, STACK
        ARGFRAME IOVERLAY, 0, STATIC
        ARGFRAME DOVERLAY, 0, STATIC
        MOV     A,#-0x15
        LCALL   ?BANKED_ENTER_XDATA
        CFI DPH0 load(1, XDATA, add(CFA_XSP16, literal(-1)))
        CFI DPL0 load(1, XDATA, add(CFA_XSP16, literal(-2)))
        CFI ?BRET_EXT load(1, XDATA, add(CFA_XSP16, literal(-3)))
        CFI ?RET_HIGH load(1, XDATA, add(CFA_XSP16, literal(-4)))
        CFI ?RET_LOW load(1, XDATA, add(CFA_XSP16, literal(-5)))
        CFI R7 load(1, XDATA, add(CFA_XSP16, literal(-6)))
        CFI V12 load(1, XDATA, add(CFA_XSP16, literal(-7)))
        CFI V11 load(1, XDATA, add(CFA_XSP16, literal(-8)))
        CFI V10 load(1, XDATA, add(CFA_XSP16, literal(-9)))
        CFI V9 load(1, XDATA, add(CFA_XSP16, literal(-10)))
        CFI V8 load(1, XDATA, add(CFA_XSP16, literal(-11)))
        CFI V7 load(1, XDATA, add(CFA_XSP16, literal(-12)))
        CFI V6 load(1, XDATA, add(CFA_XSP16, literal(-13)))
        CFI V5 load(1, XDATA, add(CFA_XSP16, literal(-14)))
        CFI V4 load(1, XDATA, add(CFA_XSP16, literal(-15)))
        CFI V3 load(1, XDATA, add(CFA_XSP16, literal(-16)))
        CFI V2 load(1, XDATA, add(CFA_XSP16, literal(-17)))
        CFI V1 load(1, XDATA, add(CFA_XSP16, literal(-18)))
        CFI V0 load(1, XDATA, add(CFA_XSP16, literal(-19)))
        CFI VB load(1, XDATA, add(CFA_XSP16, literal(-20)))
        CFI R6 load(1, XDATA, add(CFA_XSP16, literal(-21)))
        CFI CFA_SP SP+0
        CFI CFA_XSP16 add(XSP16, 21)
        ; Saved register size: 21
        ; Auto size: 0
        MOV     ?V0 + 0,R2
//  794   #define MT_AF_RTV_HDR_SZ  2
//  795 
//  796   uint32 timestamp;
//  797   mtAfInMsgList_t *pPrev, *pItem = pMtAfInMsgList;
        MOV     DPTR,#pMtAfInMsgList
        LCALL   ?Subroutine10 & 0xFFFF
//  798   uint8 rtrn = afStatus_FAILED;
??CrossCallReturnLabel_13:
        MOV     R2,#0x1
//  799   uint8 len = 0;
        MOV     ?V0 + 12,#0x0
//  800 
//  801   pBuf += MT_RPC_FRAME_HDR_SZ;
        MOV     A,?V0 + 0
        ADD     A,#0x3
        MOV     ?V0 + 0,A
        MOV     A,R3
        LCALL   ?Subroutine22 & 0xFFFF
//  802   timestamp = BUILD_UINT32(pBuf[0], pBuf[1], pBuf[2], pBuf[3]);
??CrossCallReturnLabel_34:
        MOVX    A,@DPTR
        MOV     ?V0 + 4,A
        MOV     ?V0 + 5,#0x0
        MOV     ?V0 + 6,#0x0
        MOV     ?V0 + 7,#0x0
        INC     DPTR
        MOVX    A,@DPTR
        MOV     ?V0 + 8,A
        MOV     ?V0 + 9,#0x0
        MOV     ?V0 + 10,#0x0
        MOV     ?V0 + 11,#0x0
        MOV     A,#0x8
        MOV     R0,#?V0 + 8
        LCALL   ?L_SHL
        MOV     R0,#?V0 + 4
        MOV     R1,#?V0 + 8
        LCALL   ?L_ADD
        MOV     DPL,?V0 + 0
        MOV     DPH,?V0 + 1
        INC     DPTR
        INC     DPTR
        MOVX    A,@DPTR
        MOV     ?V0 + 8,A
        MOV     ?V0 + 9,#0x0
        MOV     A,#0x10
        MOV     R0,#?V0 + 8
        LCALL   ?L_SHL
        MOV     R0,#?V0 + 4
        MOV     R1,#?V0 + 8
        LCALL   ?L_ADD
        MOV     DPL,?V0 + 0
        MOV     DPH,?V0 + 1
        INC     DPTR
        INC     DPTR
        INC     DPTR
        MOVX    A,@DPTR
        MOV     ?V0 + 8,A
        MOV     ?V0 + 10,#0x0
        MOV     A,#0x18
        MOV     R0,#?V0 + 8
        LCALL   ?L_SHL
        MOV     R0,#?V0 + 4
        MOV     R1,#?V0 + 8
        LCALL   ?L_ADD
        SJMP    ??CrossCallReturnLabel_14
//  803 
//  804   while (pItem != NULL)
//  805   {
//  806     pPrev = pItem;
//  807     if (pItem->timestamp == timestamp)
//  808     {
//  809       break;
//  810     }
//  811     pItem = pItem->next;
??MT_AfDataRetrieve_0:
        MOV     DPL,R4
        MOV     DPH,R5
        LCALL   ?Subroutine10 & 0xFFFF
??CrossCallReturnLabel_14:
        MOV     A,?V0 + 2
        JNZ     ??MT_AfDataRetrieve_1
        MOV     A,?V0 + 3
??MT_AfDataRetrieve_1:
        JZ      ??MT_AfDataRetrieve_2
        MOV     R4,?V0 + 2
        MOV     R5,?V0 + 3
        MOV     DPL,R4
        MOV     DPH,R5
        INC     DPTR
        INC     DPTR
        INC     DPTR
        INC     DPTR
        MOV     R0,#?V0 + 4
        LCALL   ?L_EQ_X
        JNZ     ??MT_AfDataRetrieve_0
//  812   }
//  813 
//  814   if (pItem != NULL)
//  815   {
//  816     uint16 idx;
//  817     uint8 *pRsp;
//  818 
//  819     pBuf += 4;
        MOV     A,?V0 + 0
        ADD     A,#0x4
        MOV     ?V0 + 0,A
        MOV     A,?V0 + 1
        LCALL   ?Subroutine22 & 0xFFFF
//  820     idx = BUILD_UINT16(pBuf[0], pBuf[1]);
??CrossCallReturnLabel_35:
        LCALL   ??Subroutine50_0 & 0xFFFF
??CrossCallReturnLabel_96:
        MOV     ?V0 + 4,A
        MOV     A,R1
        MOV     ?V0 + 5,A
//  821     len = pBuf[2];
        MOV     DPL,?V0 + 0
        MOV     DPH,?V0 + 1
        INC     DPTR
        INC     DPTR
        MOVX    A,@DPTR
        MOV     ?V0 + 12,A
//  822 
//  823     if (len == 0)  // Indication to delete the afIncomingMSGPacket.
        JNZ     ??MT_AfDataRetrieve_3
//  824     {
//  825       if (pMtAfInMsgList == pItem)
        LCALL   ?Subroutine16 & 0xFFFF
??CrossCallReturnLabel_123:
        MOV     A,R4
        XRL     A,R0
        JNZ     ??MT_AfDataRetrieve_4
        MOV     A,R5
        XRL     A,R1
??MT_AfDataRetrieve_4:
        MOV     DPL,R4
        MOV     DPH,R5
        JNZ     ??MT_AfDataRetrieve_5
//  826       {
//  827         pMtAfInMsgList = pItem->next;
        LCALL   ?Subroutine15 & 0xFFFF
//  828       }
??CrossCallReturnLabel_23:
        SJMP    ??MT_AfDataRetrieve_6
//  829       else
//  830       {
//  831         pPrev->next = pItem->next;
??MT_AfDataRetrieve_5:
        LCALL   ??Subroutine55_0 & 0xFFFF
//  832       }
??CrossCallReturnLabel_120:
        MOV     DPL,R4
        MOV     DPH,R5
??MT_AfDataRetrieve_6:
        LCALL   ?Subroutine31 & 0xFFFF
//  833       (void)osal_mem_free(pItem);
??CrossCallReturnLabel_63:
        ; Setup parameters for call to function osal_mem_free
        MOV     R2,?V0 + 2
        MOV     R3,?V0 + 3
        LCALL   ??osal_mem_free?relay
//  834       rtrn = afStatus_SUCCESS;
        MOV     R2,#0x0
//  835     }
//  836     else if ((pRsp = osal_mem_alloc(len + MT_AF_RTV_HDR_SZ)) == NULL)
//  837     {
//  838       rtrn = afStatus_MEM_FAIL;
//  839       len = 0;
//  840     }
//  841     else
//  842     {
//  843       pRsp[0] = ZSuccess;
//  844       pRsp[1] = len;
//  845       (void)osal_memcpy(pRsp + MT_AF_RTV_HDR_SZ, pItem->data+idx, len);
//  846       MT_BuildAndSendZToolResponse(((uint8)MT_RPC_CMD_SRSP | (uint8)MT_RPC_SYS_AF), 
//  847                                            MT_AF_DATA_RETRIEVE, len + MT_AF_RTV_HDR_SZ, pRsp);
//  848       (void)osal_mem_free(pRsp);
//  849       return;
//  850     }
//  851   }
//  852 
//  853   pBuf[0] = rtrn;
??MT_AfDataRetrieve_2:
        MOV     A,R2
        MOV     DPL,?V0 + 0
        MOV     DPH,?V0 + 1
        MOVX    @DPTR,A
//  854   pBuf[1] = len;
        INC     DPTR
        MOV     A,?V0 + 12
        MOVX    @DPTR,A
//  855   MT_BuildAndSendZToolResponse(((uint8)MT_RPC_CMD_SRSP | (uint8)MT_RPC_SYS_AF), 
//  856                                        MT_AF_DATA_RETRIEVE, MT_AF_RTV_HDR_SZ, pBuf);
        ; Setup parameters for call to function MT_BuildAndSendZToolResponse
        MOV     R4,?V0 + 0
        MOV     R5,?V0 + 1
        MOV     R3,#0x2
        MOV     R2,#0x12
        MOV     R1,#0x64
        LCALL   ??MT_BuildAndSendZToolResponse?relay
//  857 }
??MT_AfDataRetrieve_7:
        MOV     R7,#0xd
        LJMP    ?BANKED_LEAVE_XDATA
??MT_AfDataRetrieve_3:
        ; Setup parameters for call to function osal_mem_alloc
        MOV     ?V0 + 6,A
        MOV     A,#0x2
        ADD     A,?V0 + 6
        MOV     R2,A
        CLR     A
        ADDC    A,#0x0
        MOV     R3,A
        LCALL   ??osal_mem_alloc?relay
        MOV     ?V0 + 6,R2
        MOV     ?V0 + 7,R3
        MOV     R6,?V0 + 6
        MOV     R7,?V0 + 7
        MOV     A,R6
        JNZ     ??MT_AfDataRetrieve_8
        MOV     A,R7
??MT_AfDataRetrieve_8:
        JNZ     ??MT_AfDataRetrieve_9
        MOV     R2,#0x10
        MOV     ?V0 + 12,#0x0
        SJMP    ??MT_AfDataRetrieve_2
??MT_AfDataRetrieve_9:
        CLR     A
        MOV     DPL,R6
        MOV     DPH,R7
        MOVX    @DPTR,A
        INC     DPTR
        MOV     A,?V0 + 12
        MOVX    @DPTR,A
        ; Setup parameters for call to function osal_memcpy
        MOV     DPL,?V0 + 2
        MOV     DPH,?V0 + 3
        INC     DPTR
        INC     DPTR
        MOVX    A,@DPTR
        ADD     A,?V0 + 4
        MOV     ?V0 + 0,A
        INC     DPTR
        MOVX    A,@DPTR
        ADDC    A,?V0 + 5
        MOV     ?V0 + 1,A
        MOV     ?V0 + 2,#0x0
        MOV     R0,#?V0 + 0
        LCALL   ?PUSH_XSTACK_I_THREE
        CFI CFA_XSP16 add(XSP16, 24)
        MOV     R4,?V0 + 12
        MOV     R5,#0x0
        MOV     A,R6
        ADD     A,#0x2
        INC     R2
        INC     R2
        MOV     A,R7
        ADDC    A,#0x0
        LCALL   ?Subroutine33 & 0xFFFF
??CrossCallReturnLabel_113:
        LCALL   ?DEALLOC_XSTACK8
        CFI CFA_XSP16 add(XSP16, 21)
        ; Setup parameters for call to function MT_BuildAndSendZToolResponse
        MOV     A,R6
        MOV     R4,A
        MOV     A,R7
        MOV     R5,A
        MOV     A,#0x2
        ADD     A,?V0 + 12
        MOV     R3,A
        MOV     R2,#0x12
        MOV     R1,#0x64
        LCALL   ??MT_BuildAndSendZToolResponse?relay
        ; Setup parameters for call to function osal_mem_free
        MOV     A,R6
        MOV     R2,A
        MOV     A,R7
        MOV     R3,A
        LCALL   ??osal_mem_free?relay
        SJMP    ??MT_AfDataRetrieve_7
        CFI EndBlock cfiBlock219

        RSEG BANKED_CODE:CODE:NOROOT(0)
?Subroutine33:
        CFI Block cfiCond220 Using cfiCommon0
        CFI NoFunction
        CFI Conditional ??CrossCallReturnLabel_113
        CFI R6 load(1, XDATA, add(CFA_XSP16, literal(-21)))
        CFI VB load(1, XDATA, add(CFA_XSP16, literal(-20)))
        CFI V0 load(1, XDATA, add(CFA_XSP16, literal(-19)))
        CFI V1 load(1, XDATA, add(CFA_XSP16, literal(-18)))
        CFI V2 load(1, XDATA, add(CFA_XSP16, literal(-17)))
        CFI V3 load(1, XDATA, add(CFA_XSP16, literal(-16)))
        CFI V4 load(1, XDATA, add(CFA_XSP16, literal(-15)))
        CFI V5 load(1, XDATA, add(CFA_XSP16, literal(-14)))
        CFI V6 load(1, XDATA, add(CFA_XSP16, literal(-13)))
        CFI V7 load(1, XDATA, add(CFA_XSP16, literal(-12)))
        CFI V8 load(1, XDATA, add(CFA_XSP16, literal(-11)))
        CFI V9 load(1, XDATA, add(CFA_XSP16, literal(-10)))
        CFI V10 load(1, XDATA, add(CFA_XSP16, literal(-9)))
        CFI V11 load(1, XDATA, add(CFA_XSP16, literal(-8)))
        CFI V12 load(1, XDATA, add(CFA_XSP16, literal(-7)))
        CFI R7 load(1, XDATA, add(CFA_XSP16, literal(-6)))
        CFI ?RET_LOW load(1, XDATA, add(CFA_XSP16, literal(-5)))
        CFI ?RET_HIGH load(1, XDATA, add(CFA_XSP16, literal(-4)))
        CFI ?BRET_EXT load(1, XDATA, add(CFA_XSP16, literal(-3)))
        CFI DPL0 load(1, XDATA, add(CFA_XSP16, literal(-2)))
        CFI DPH0 load(1, XDATA, add(CFA_XSP16, literal(-1)))
        CFI CFA_SP SP+0
        CFI CFA_XSP16 add(XSP16, 24)
        CFI Block cfiCond221 Using cfiCommon0
        CFI (cfiCond221) NoFunction
        CFI (cfiCond221) Conditional ??CrossCallReturnLabel_114
        CFI (cfiCond221) R6 load(1, XDATA, add(CFA_XSP16, literal(-11)))
        CFI (cfiCond221) VB load(1, XDATA, add(CFA_XSP16, literal(-10)))
        CFI (cfiCond221) V0 load(1, XDATA, add(CFA_XSP16, literal(-9)))
        CFI (cfiCond221) V1 load(1, XDATA, add(CFA_XSP16, literal(-8)))
        CFI (cfiCond221) V2 load(1, XDATA, add(CFA_XSP16, literal(-7)))
        CFI (cfiCond221) R7 load(1, XDATA, add(CFA_XSP16, literal(-6)))
        CFI (cfiCond221) ?RET_LOW load(1, XDATA, add(CFA_XSP16, literal(-5)))
        CFI (cfiCond221) ?RET_HIGH load(1, XDATA, add(CFA_XSP16, literal(-4)))
        CFI (cfiCond221) ?BRET_EXT load(1, XDATA, add(CFA_XSP16, literal(-3)))
        CFI (cfiCond221) DPL0 load(1, XDATA, add(CFA_XSP16, literal(-2)))
        CFI (cfiCond221) DPH0 load(1, XDATA, add(CFA_XSP16, literal(-1)))
        CFI (cfiCond221) CFA_SP SP+0
        CFI (cfiCond221) CFA_XSP16 add(XSP16, 15)
        CFI Block cfiPicker222 Using cfiCommon1
        CFI (cfiPicker222) NoFunction
        CFI (cfiPicker222) Picker
        MOV     R3,A
        CFI EndBlock cfiCond220
        CFI EndBlock cfiCond221
        CFI EndBlock cfiPicker222
        REQUIRE ??Subroutine54_0
        ; // Fall through to label ??Subroutine54_0

        RSEG BANKED_CODE:CODE:NOROOT(0)
??Subroutine54_0:
        CFI Block cfiCond223 Using cfiCommon0
        CFI NoFunction
        CFI Conditional ??CrossCallReturnLabel_115
        CFI R6 load(1, XDATA, add(CFA_XSP16, literal(-22)))
        CFI VB load(1, XDATA, add(CFA_XSP16, literal(-21)))
        CFI V0 load(1, XDATA, add(CFA_XSP16, literal(-20)))
        CFI V1 load(1, XDATA, add(CFA_XSP16, literal(-19)))
        CFI V2 load(1, XDATA, add(CFA_XSP16, literal(-18)))
        CFI V3 load(1, XDATA, add(CFA_XSP16, literal(-17)))
        CFI V4 load(1, XDATA, add(CFA_XSP16, literal(-16)))
        CFI V5 load(1, XDATA, add(CFA_XSP16, literal(-15)))
        CFI V6 load(1, XDATA, add(CFA_XSP16, literal(-14)))
        CFI V7 load(1, XDATA, add(CFA_XSP16, literal(-13)))
        CFI V8 load(1, XDATA, add(CFA_XSP16, literal(-12)))
        CFI V9 load(1, XDATA, add(CFA_XSP16, literal(-11)))
        CFI V10 load(1, XDATA, add(CFA_XSP16, literal(-10)))
        CFI V11 load(1, XDATA, add(CFA_XSP16, literal(-9)))
        CFI V12 load(1, XDATA, add(CFA_XSP16, literal(-8)))
        CFI V13 load(1, XDATA, add(CFA_XSP16, literal(-7)))
        CFI R7 load(1, XDATA, add(CFA_XSP16, literal(-6)))
        CFI ?RET_LOW load(1, XDATA, add(CFA_XSP16, literal(-5)))
        CFI ?RET_HIGH load(1, XDATA, add(CFA_XSP16, literal(-4)))
        CFI ?BRET_EXT load(1, XDATA, add(CFA_XSP16, literal(-3)))
        CFI DPL0 load(1, XDATA, add(CFA_XSP16, literal(-2)))
        CFI DPH0 load(1, XDATA, add(CFA_XSP16, literal(-1)))
        CFI CFA_SP SP+0
        CFI CFA_XSP16 add(XSP16, 39)
        CFI Block cfiCond224 Using cfiCommon0
        CFI (cfiCond224) NoFunction
        CFI (cfiCond224) Conditional ??CrossCallReturnLabel_116
        CFI (cfiCond224) R6 load(1, XDATA, add(CFA_XSP16, literal(-22)))
        CFI (cfiCond224) VB load(1, XDATA, add(CFA_XSP16, literal(-21)))
        CFI (cfiCond224) V0 load(1, XDATA, add(CFA_XSP16, literal(-20)))
        CFI (cfiCond224) V1 load(1, XDATA, add(CFA_XSP16, literal(-19)))
        CFI (cfiCond224) V2 load(1, XDATA, add(CFA_XSP16, literal(-18)))
        CFI (cfiCond224) V3 load(1, XDATA, add(CFA_XSP16, literal(-17)))
        CFI (cfiCond224) V4 load(1, XDATA, add(CFA_XSP16, literal(-16)))
        CFI (cfiCond224) V5 load(1, XDATA, add(CFA_XSP16, literal(-15)))
        CFI (cfiCond224) V6 load(1, XDATA, add(CFA_XSP16, literal(-14)))
        CFI (cfiCond224) V7 load(1, XDATA, add(CFA_XSP16, literal(-13)))
        CFI (cfiCond224) V8 load(1, XDATA, add(CFA_XSP16, literal(-12)))
        CFI (cfiCond224) V9 load(1, XDATA, add(CFA_XSP16, literal(-11)))
        CFI (cfiCond224) V10 load(1, XDATA, add(CFA_XSP16, literal(-10)))
        CFI (cfiCond224) V11 load(1, XDATA, add(CFA_XSP16, literal(-9)))
        CFI (cfiCond224) V12 load(1, XDATA, add(CFA_XSP16, literal(-8)))
        CFI (cfiCond224) V13 load(1, XDATA, add(CFA_XSP16, literal(-7)))
        CFI (cfiCond224) R7 load(1, XDATA, add(CFA_XSP16, literal(-6)))
        CFI (cfiCond224) ?RET_LOW load(1, XDATA, add(CFA_XSP16, literal(-5)))
        CFI (cfiCond224) ?RET_HIGH load(1, XDATA, add(CFA_XSP16, literal(-4)))
        CFI (cfiCond224) ?BRET_EXT load(1, XDATA, add(CFA_XSP16, literal(-3)))
        CFI (cfiCond224) DPL0 load(1, XDATA, add(CFA_XSP16, literal(-2)))
        CFI (cfiCond224) DPH0 load(1, XDATA, add(CFA_XSP16, literal(-1)))
        CFI (cfiCond224) CFA_SP SP+0
        CFI (cfiCond224) CFA_XSP16 add(XSP16, 39)
        CFI Block cfiCond225 Using cfiCommon0
        CFI (cfiCond225) NoFunction
        CFI (cfiCond225) Conditional ??CrossCallReturnLabel_117
        CFI (cfiCond225) R6 load(1, XDATA, add(CFA_XSP16, literal(-23)))
        CFI (cfiCond225) VB load(1, XDATA, add(CFA_XSP16, literal(-22)))
        CFI (cfiCond225) V0 load(1, XDATA, add(CFA_XSP16, literal(-21)))
        CFI (cfiCond225) V1 load(1, XDATA, add(CFA_XSP16, literal(-20)))
        CFI (cfiCond225) V2 load(1, XDATA, add(CFA_XSP16, literal(-19)))
        CFI (cfiCond225) V3 load(1, XDATA, add(CFA_XSP16, literal(-18)))
        CFI (cfiCond225) V4 load(1, XDATA, add(CFA_XSP16, literal(-17)))
        CFI (cfiCond225) V5 load(1, XDATA, add(CFA_XSP16, literal(-16)))
        CFI (cfiCond225) V6 load(1, XDATA, add(CFA_XSP16, literal(-15)))
        CFI (cfiCond225) V7 load(1, XDATA, add(CFA_XSP16, literal(-14)))
        CFI (cfiCond225) V8 load(1, XDATA, add(CFA_XSP16, literal(-13)))
        CFI (cfiCond225) V9 load(1, XDATA, add(CFA_XSP16, literal(-12)))
        CFI (cfiCond225) V10 load(1, XDATA, add(CFA_XSP16, literal(-11)))
        CFI (cfiCond225) V11 load(1, XDATA, add(CFA_XSP16, literal(-10)))
        CFI (cfiCond225) V12 load(1, XDATA, add(CFA_XSP16, literal(-9)))
        CFI (cfiCond225) V13 load(1, XDATA, add(CFA_XSP16, literal(-8)))
        CFI (cfiCond225) V14 load(1, XDATA, add(CFA_XSP16, literal(-7)))
        CFI (cfiCond225) R7 load(1, XDATA, add(CFA_XSP16, literal(-6)))
        CFI (cfiCond225) ?RET_LOW load(1, XDATA, add(CFA_XSP16, literal(-5)))
        CFI (cfiCond225) ?RET_HIGH load(1, XDATA, add(CFA_XSP16, literal(-4)))
        CFI (cfiCond225) ?BRET_EXT load(1, XDATA, add(CFA_XSP16, literal(-3)))
        CFI (cfiCond225) DPL0 load(1, XDATA, add(CFA_XSP16, literal(-2)))
        CFI (cfiCond225) DPH0 load(1, XDATA, add(CFA_XSP16, literal(-1)))
        CFI (cfiCond225) CFA_SP SP+0
        CFI (cfiCond225) CFA_XSP16 add(XSP16, 26)
        CFI Block cfiCond226 Using cfiCommon0
        CFI (cfiCond226) NoFunction
        CFI (cfiCond226) Conditional ??CrossCallReturnLabel_118
        CFI (cfiCond226) R6 load(1, XDATA, add(CFA_XSP16, literal(-23)))
        CFI (cfiCond226) VB load(1, XDATA, add(CFA_XSP16, literal(-22)))
        CFI (cfiCond226) V0 load(1, XDATA, add(CFA_XSP16, literal(-21)))
        CFI (cfiCond226) V1 load(1, XDATA, add(CFA_XSP16, literal(-20)))
        CFI (cfiCond226) V2 load(1, XDATA, add(CFA_XSP16, literal(-19)))
        CFI (cfiCond226) V3 load(1, XDATA, add(CFA_XSP16, literal(-18)))
        CFI (cfiCond226) V4 load(1, XDATA, add(CFA_XSP16, literal(-17)))
        CFI (cfiCond226) V5 load(1, XDATA, add(CFA_XSP16, literal(-16)))
        CFI (cfiCond226) V6 load(1, XDATA, add(CFA_XSP16, literal(-15)))
        CFI (cfiCond226) V7 load(1, XDATA, add(CFA_XSP16, literal(-14)))
        CFI (cfiCond226) V8 load(1, XDATA, add(CFA_XSP16, literal(-13)))
        CFI (cfiCond226) V9 load(1, XDATA, add(CFA_XSP16, literal(-12)))
        CFI (cfiCond226) V10 load(1, XDATA, add(CFA_XSP16, literal(-11)))
        CFI (cfiCond226) V11 load(1, XDATA, add(CFA_XSP16, literal(-10)))
        CFI (cfiCond226) V12 load(1, XDATA, add(CFA_XSP16, literal(-9)))
        CFI (cfiCond226) V13 load(1, XDATA, add(CFA_XSP16, literal(-8)))
        CFI (cfiCond226) V14 load(1, XDATA, add(CFA_XSP16, literal(-7)))
        CFI (cfiCond226) R7 load(1, XDATA, add(CFA_XSP16, literal(-6)))
        CFI (cfiCond226) ?RET_LOW load(1, XDATA, add(CFA_XSP16, literal(-5)))
        CFI (cfiCond226) ?RET_HIGH load(1, XDATA, add(CFA_XSP16, literal(-4)))
        CFI (cfiCond226) ?BRET_EXT load(1, XDATA, add(CFA_XSP16, literal(-3)))
        CFI (cfiCond226) DPL0 load(1, XDATA, add(CFA_XSP16, literal(-2)))
        CFI (cfiCond226) DPH0 load(1, XDATA, add(CFA_XSP16, literal(-1)))
        CFI (cfiCond226) CFA_SP SP+0
        CFI (cfiCond226) CFA_XSP16 add(XSP16, 26)
        CFI Block cfiCond227 Using cfiCommon0
        CFI (cfiCond227) NoFunction
        CFI (cfiCond227) Conditional ??CrossCallReturnLabel_113
        CFI (cfiCond227) R6 load(1, XDATA, add(CFA_XSP16, literal(-21)))
        CFI (cfiCond227) VB load(1, XDATA, add(CFA_XSP16, literal(-20)))
        CFI (cfiCond227) V0 load(1, XDATA, add(CFA_XSP16, literal(-19)))
        CFI (cfiCond227) V1 load(1, XDATA, add(CFA_XSP16, literal(-18)))
        CFI (cfiCond227) V2 load(1, XDATA, add(CFA_XSP16, literal(-17)))
        CFI (cfiCond227) V3 load(1, XDATA, add(CFA_XSP16, literal(-16)))
        CFI (cfiCond227) V4 load(1, XDATA, add(CFA_XSP16, literal(-15)))
        CFI (cfiCond227) V5 load(1, XDATA, add(CFA_XSP16, literal(-14)))
        CFI (cfiCond227) V6 load(1, XDATA, add(CFA_XSP16, literal(-13)))
        CFI (cfiCond227) V7 load(1, XDATA, add(CFA_XSP16, literal(-12)))
        CFI (cfiCond227) V8 load(1, XDATA, add(CFA_XSP16, literal(-11)))
        CFI (cfiCond227) V9 load(1, XDATA, add(CFA_XSP16, literal(-10)))
        CFI (cfiCond227) V10 load(1, XDATA, add(CFA_XSP16, literal(-9)))
        CFI (cfiCond227) V11 load(1, XDATA, add(CFA_XSP16, literal(-8)))
        CFI (cfiCond227) V12 load(1, XDATA, add(CFA_XSP16, literal(-7)))
        CFI (cfiCond227) R7 load(1, XDATA, add(CFA_XSP16, literal(-6)))
        CFI (cfiCond227) ?RET_LOW load(1, XDATA, add(CFA_XSP16, literal(-5)))
        CFI (cfiCond227) ?RET_HIGH load(1, XDATA, add(CFA_XSP16, literal(-4)))
        CFI (cfiCond227) ?BRET_EXT load(1, XDATA, add(CFA_XSP16, literal(-3)))
        CFI (cfiCond227) DPL0 load(1, XDATA, add(CFA_XSP16, literal(-2)))
        CFI (cfiCond227) DPH0 load(1, XDATA, add(CFA_XSP16, literal(-1)))
        CFI (cfiCond227) CFA_SP SP+0
        CFI (cfiCond227) CFA_XSP16 add(XSP16, 24)
        CFI Block cfiCond228 Using cfiCommon0
        CFI (cfiCond228) NoFunction
        CFI (cfiCond228) Conditional ??CrossCallReturnLabel_114
        CFI (cfiCond228) R6 load(1, XDATA, add(CFA_XSP16, literal(-11)))
        CFI (cfiCond228) VB load(1, XDATA, add(CFA_XSP16, literal(-10)))
        CFI (cfiCond228) V0 load(1, XDATA, add(CFA_XSP16, literal(-9)))
        CFI (cfiCond228) V1 load(1, XDATA, add(CFA_XSP16, literal(-8)))
        CFI (cfiCond228) V2 load(1, XDATA, add(CFA_XSP16, literal(-7)))
        CFI (cfiCond228) R7 load(1, XDATA, add(CFA_XSP16, literal(-6)))
        CFI (cfiCond228) ?RET_LOW load(1, XDATA, add(CFA_XSP16, literal(-5)))
        CFI (cfiCond228) ?RET_HIGH load(1, XDATA, add(CFA_XSP16, literal(-4)))
        CFI (cfiCond228) ?BRET_EXT load(1, XDATA, add(CFA_XSP16, literal(-3)))
        CFI (cfiCond228) DPL0 load(1, XDATA, add(CFA_XSP16, literal(-2)))
        CFI (cfiCond228) DPH0 load(1, XDATA, add(CFA_XSP16, literal(-1)))
        CFI (cfiCond228) CFA_SP SP+0
        CFI (cfiCond228) CFA_XSP16 add(XSP16, 15)
        CFI Block cfiPicker229 Using cfiCommon1
        CFI (cfiPicker229) NoFunction
        CFI (cfiPicker229) Picker
        LCALL   ??osal_memcpy?relay
        MOV     A,#0x3
        RET
        CFI EndBlock cfiCond223
        CFI EndBlock cfiCond224
        CFI EndBlock cfiCond225
        CFI EndBlock cfiCond226
        CFI EndBlock cfiCond227
        CFI EndBlock cfiCond228
        CFI EndBlock cfiPicker229

        RSEG BANKED_CODE:CODE:NOROOT(0)
?Subroutine22:
        CFI Block cfiCond230 Using cfiCommon0
        CFI NoFunction
        CFI Conditional ??CrossCallReturnLabel_34
        CFI R6 load(1, XDATA, add(CFA_XSP16, literal(-21)))
        CFI VB load(1, XDATA, add(CFA_XSP16, literal(-20)))
        CFI V0 load(1, XDATA, add(CFA_XSP16, literal(-19)))
        CFI V1 load(1, XDATA, add(CFA_XSP16, literal(-18)))
        CFI V2 load(1, XDATA, add(CFA_XSP16, literal(-17)))
        CFI V3 load(1, XDATA, add(CFA_XSP16, literal(-16)))
        CFI V4 load(1, XDATA, add(CFA_XSP16, literal(-15)))
        CFI V5 load(1, XDATA, add(CFA_XSP16, literal(-14)))
        CFI V6 load(1, XDATA, add(CFA_XSP16, literal(-13)))
        CFI V7 load(1, XDATA, add(CFA_XSP16, literal(-12)))
        CFI V8 load(1, XDATA, add(CFA_XSP16, literal(-11)))
        CFI V9 load(1, XDATA, add(CFA_XSP16, literal(-10)))
        CFI V10 load(1, XDATA, add(CFA_XSP16, literal(-9)))
        CFI V11 load(1, XDATA, add(CFA_XSP16, literal(-8)))
        CFI V12 load(1, XDATA, add(CFA_XSP16, literal(-7)))
        CFI R7 load(1, XDATA, add(CFA_XSP16, literal(-6)))
        CFI ?RET_LOW load(1, XDATA, add(CFA_XSP16, literal(-5)))
        CFI ?RET_HIGH load(1, XDATA, add(CFA_XSP16, literal(-4)))
        CFI ?BRET_EXT load(1, XDATA, add(CFA_XSP16, literal(-3)))
        CFI DPL0 load(1, XDATA, add(CFA_XSP16, literal(-2)))
        CFI DPH0 load(1, XDATA, add(CFA_XSP16, literal(-1)))
        CFI CFA_SP SP+0
        CFI CFA_XSP16 add(XSP16, 21)
        CFI Block cfiCond231 Using cfiCommon0
        CFI (cfiCond231) NoFunction
        CFI (cfiCond231) Conditional ??CrossCallReturnLabel_35
        CFI (cfiCond231) R6 load(1, XDATA, add(CFA_XSP16, literal(-21)))
        CFI (cfiCond231) VB load(1, XDATA, add(CFA_XSP16, literal(-20)))
        CFI (cfiCond231) V0 load(1, XDATA, add(CFA_XSP16, literal(-19)))
        CFI (cfiCond231) V1 load(1, XDATA, add(CFA_XSP16, literal(-18)))
        CFI (cfiCond231) V2 load(1, XDATA, add(CFA_XSP16, literal(-17)))
        CFI (cfiCond231) V3 load(1, XDATA, add(CFA_XSP16, literal(-16)))
        CFI (cfiCond231) V4 load(1, XDATA, add(CFA_XSP16, literal(-15)))
        CFI (cfiCond231) V5 load(1, XDATA, add(CFA_XSP16, literal(-14)))
        CFI (cfiCond231) V6 load(1, XDATA, add(CFA_XSP16, literal(-13)))
        CFI (cfiCond231) V7 load(1, XDATA, add(CFA_XSP16, literal(-12)))
        CFI (cfiCond231) V8 load(1, XDATA, add(CFA_XSP16, literal(-11)))
        CFI (cfiCond231) V9 load(1, XDATA, add(CFA_XSP16, literal(-10)))
        CFI (cfiCond231) V10 load(1, XDATA, add(CFA_XSP16, literal(-9)))
        CFI (cfiCond231) V11 load(1, XDATA, add(CFA_XSP16, literal(-8)))
        CFI (cfiCond231) V12 load(1, XDATA, add(CFA_XSP16, literal(-7)))
        CFI (cfiCond231) R7 load(1, XDATA, add(CFA_XSP16, literal(-6)))
        CFI (cfiCond231) ?RET_LOW load(1, XDATA, add(CFA_XSP16, literal(-5)))
        CFI (cfiCond231) ?RET_HIGH load(1, XDATA, add(CFA_XSP16, literal(-4)))
        CFI (cfiCond231) ?BRET_EXT load(1, XDATA, add(CFA_XSP16, literal(-3)))
        CFI (cfiCond231) DPL0 load(1, XDATA, add(CFA_XSP16, literal(-2)))
        CFI (cfiCond231) DPH0 load(1, XDATA, add(CFA_XSP16, literal(-1)))
        CFI (cfiCond231) CFA_SP SP+0
        CFI (cfiCond231) CFA_XSP16 add(XSP16, 21)
        CFI Block cfiPicker232 Using cfiCommon1
        CFI (cfiPicker232) NoFunction
        CFI (cfiPicker232) Picker
        ADDC    A,#0x0
        MOV     ?V0 + 1,A
        MOV     DPL,?V0 + 0
        MOV     DPH,A
        RET
        CFI EndBlock cfiCond230
        CFI EndBlock cfiCond231
        CFI EndBlock cfiPicker232

        RSEG BANKED_CODE:CODE:NOROOT(0)
?Subroutine16:
        CFI Block cfiCond233 Using cfiCommon0
        CFI NoFunction
        CFI Conditional ??CrossCallReturnLabel_121
        CFI R6 load(1, XDATA, add(CFA_XSP16, literal(-9)))
        CFI VB load(1, XDATA, add(CFA_XSP16, literal(-8)))
        CFI V0 load(1, XDATA, add(CFA_XSP16, literal(-7)))
        CFI R7 load(1, XDATA, add(CFA_XSP16, literal(-6)))
        CFI ?RET_LOW load(1, XDATA, add(CFA_XSP16, literal(-5)))
        CFI ?RET_HIGH load(1, XDATA, add(CFA_XSP16, literal(-4)))
        CFI ?BRET_EXT load(1, XDATA, add(CFA_XSP16, literal(-3)))
        CFI DPL0 load(1, XDATA, add(CFA_XSP16, literal(-2)))
        CFI DPH0 load(1, XDATA, add(CFA_XSP16, literal(-1)))
        CFI CFA_SP SP+0
        CFI CFA_XSP16 add(XSP16, 9)
        CFI Block cfiCond234 Using cfiCommon0
        CFI (cfiCond234) NoFunction
        CFI (cfiCond234) Conditional ??CrossCallReturnLabel_122
        CFI (cfiCond234) R6 load(1, XDATA, add(CFA_XSP16, literal(-23)))
        CFI (cfiCond234) VB load(1, XDATA, add(CFA_XSP16, literal(-22)))
        CFI (cfiCond234) V0 load(1, XDATA, add(CFA_XSP16, literal(-21)))
        CFI (cfiCond234) V1 load(1, XDATA, add(CFA_XSP16, literal(-20)))
        CFI (cfiCond234) V2 load(1, XDATA, add(CFA_XSP16, literal(-19)))
        CFI (cfiCond234) V3 load(1, XDATA, add(CFA_XSP16, literal(-18)))
        CFI (cfiCond234) V4 load(1, XDATA, add(CFA_XSP16, literal(-17)))
        CFI (cfiCond234) V5 load(1, XDATA, add(CFA_XSP16, literal(-16)))
        CFI (cfiCond234) V6 load(1, XDATA, add(CFA_XSP16, literal(-15)))
        CFI (cfiCond234) V7 load(1, XDATA, add(CFA_XSP16, literal(-14)))
        CFI (cfiCond234) V8 load(1, XDATA, add(CFA_XSP16, literal(-13)))
        CFI (cfiCond234) V9 load(1, XDATA, add(CFA_XSP16, literal(-12)))
        CFI (cfiCond234) V10 load(1, XDATA, add(CFA_XSP16, literal(-11)))
        CFI (cfiCond234) V11 load(1, XDATA, add(CFA_XSP16, literal(-10)))
        CFI (cfiCond234) V12 load(1, XDATA, add(CFA_XSP16, literal(-9)))
        CFI (cfiCond234) V13 load(1, XDATA, add(CFA_XSP16, literal(-8)))
        CFI (cfiCond234) V14 load(1, XDATA, add(CFA_XSP16, literal(-7)))
        CFI (cfiCond234) R7 load(1, XDATA, add(CFA_XSP16, literal(-6)))
        CFI (cfiCond234) ?RET_LOW load(1, XDATA, add(CFA_XSP16, literal(-5)))
        CFI (cfiCond234) ?RET_HIGH load(1, XDATA, add(CFA_XSP16, literal(-4)))
        CFI (cfiCond234) ?BRET_EXT load(1, XDATA, add(CFA_XSP16, literal(-3)))
        CFI (cfiCond234) DPL0 load(1, XDATA, add(CFA_XSP16, literal(-2)))
        CFI (cfiCond234) DPH0 load(1, XDATA, add(CFA_XSP16, literal(-1)))
        CFI (cfiCond234) CFA_SP SP+0
        CFI (cfiCond234) CFA_XSP16 add(XSP16, 23)
        CFI Block cfiCond235 Using cfiCommon0
        CFI (cfiCond235) NoFunction
        CFI (cfiCond235) Conditional ??CrossCallReturnLabel_123
        CFI (cfiCond235) R6 load(1, XDATA, add(CFA_XSP16, literal(-21)))
        CFI (cfiCond235) VB load(1, XDATA, add(CFA_XSP16, literal(-20)))
        CFI (cfiCond235) V0 load(1, XDATA, add(CFA_XSP16, literal(-19)))
        CFI (cfiCond235) V1 load(1, XDATA, add(CFA_XSP16, literal(-18)))
        CFI (cfiCond235) V2 load(1, XDATA, add(CFA_XSP16, literal(-17)))
        CFI (cfiCond235) V3 load(1, XDATA, add(CFA_XSP16, literal(-16)))
        CFI (cfiCond235) V4 load(1, XDATA, add(CFA_XSP16, literal(-15)))
        CFI (cfiCond235) V5 load(1, XDATA, add(CFA_XSP16, literal(-14)))
        CFI (cfiCond235) V6 load(1, XDATA, add(CFA_XSP16, literal(-13)))
        CFI (cfiCond235) V7 load(1, XDATA, add(CFA_XSP16, literal(-12)))
        CFI (cfiCond235) V8 load(1, XDATA, add(CFA_XSP16, literal(-11)))
        CFI (cfiCond235) V9 load(1, XDATA, add(CFA_XSP16, literal(-10)))
        CFI (cfiCond235) V10 load(1, XDATA, add(CFA_XSP16, literal(-9)))
        CFI (cfiCond235) V11 load(1, XDATA, add(CFA_XSP16, literal(-8)))
        CFI (cfiCond235) V12 load(1, XDATA, add(CFA_XSP16, literal(-7)))
        CFI (cfiCond235) R7 load(1, XDATA, add(CFA_XSP16, literal(-6)))
        CFI (cfiCond235) ?RET_LOW load(1, XDATA, add(CFA_XSP16, literal(-5)))
        CFI (cfiCond235) ?RET_HIGH load(1, XDATA, add(CFA_XSP16, literal(-4)))
        CFI (cfiCond235) ?BRET_EXT load(1, XDATA, add(CFA_XSP16, literal(-3)))
        CFI (cfiCond235) DPL0 load(1, XDATA, add(CFA_XSP16, literal(-2)))
        CFI (cfiCond235) DPH0 load(1, XDATA, add(CFA_XSP16, literal(-1)))
        CFI (cfiCond235) CFA_SP SP+0
        CFI (cfiCond235) CFA_XSP16 add(XSP16, 21)
        CFI Block cfiPicker236 Using cfiCommon1
        CFI (cfiPicker236) NoFunction
        CFI (cfiPicker236) Picker
        MOV     DPTR,#pMtAfInMsgList
        CFI EndBlock cfiCond233
        CFI EndBlock cfiCond234
        CFI EndBlock cfiCond235
        CFI EndBlock cfiPicker236
        REQUIRE ??Subroutine55_0
        ; // Fall through to label ??Subroutine55_0

        RSEG BANKED_CODE:CODE:NOROOT(0)
??Subroutine55_0:
        CFI Block cfiCond237 Using cfiCommon0
        CFI NoFunction
        CFI Conditional ??CrossCallReturnLabel_119
        CFI R6 load(1, XDATA, add(CFA_XSP16, literal(-9)))
        CFI VB load(1, XDATA, add(CFA_XSP16, literal(-8)))
        CFI V0 load(1, XDATA, add(CFA_XSP16, literal(-7)))
        CFI R7 load(1, XDATA, add(CFA_XSP16, literal(-6)))
        CFI ?RET_LOW load(1, XDATA, add(CFA_XSP16, literal(-5)))
        CFI ?RET_HIGH load(1, XDATA, add(CFA_XSP16, literal(-4)))
        CFI ?BRET_EXT load(1, XDATA, add(CFA_XSP16, literal(-3)))
        CFI DPL0 load(1, XDATA, add(CFA_XSP16, literal(-2)))
        CFI DPH0 load(1, XDATA, add(CFA_XSP16, literal(-1)))
        CFI CFA_SP SP+0
        CFI CFA_XSP16 add(XSP16, 9)
        CFI Block cfiCond238 Using cfiCommon0
        CFI (cfiCond238) NoFunction
        CFI (cfiCond238) Conditional ??CrossCallReturnLabel_120
        CFI (cfiCond238) R6 load(1, XDATA, add(CFA_XSP16, literal(-21)))
        CFI (cfiCond238) VB load(1, XDATA, add(CFA_XSP16, literal(-20)))
        CFI (cfiCond238) V0 load(1, XDATA, add(CFA_XSP16, literal(-19)))
        CFI (cfiCond238) V1 load(1, XDATA, add(CFA_XSP16, literal(-18)))
        CFI (cfiCond238) V2 load(1, XDATA, add(CFA_XSP16, literal(-17)))
        CFI (cfiCond238) V3 load(1, XDATA, add(CFA_XSP16, literal(-16)))
        CFI (cfiCond238) V4 load(1, XDATA, add(CFA_XSP16, literal(-15)))
        CFI (cfiCond238) V5 load(1, XDATA, add(CFA_XSP16, literal(-14)))
        CFI (cfiCond238) V6 load(1, XDATA, add(CFA_XSP16, literal(-13)))
        CFI (cfiCond238) V7 load(1, XDATA, add(CFA_XSP16, literal(-12)))
        CFI (cfiCond238) V8 load(1, XDATA, add(CFA_XSP16, literal(-11)))
        CFI (cfiCond238) V9 load(1, XDATA, add(CFA_XSP16, literal(-10)))
        CFI (cfiCond238) V10 load(1, XDATA, add(CFA_XSP16, literal(-9)))
        CFI (cfiCond238) V11 load(1, XDATA, add(CFA_XSP16, literal(-8)))
        CFI (cfiCond238) V12 load(1, XDATA, add(CFA_XSP16, literal(-7)))
        CFI (cfiCond238) R7 load(1, XDATA, add(CFA_XSP16, literal(-6)))
        CFI (cfiCond238) ?RET_LOW load(1, XDATA, add(CFA_XSP16, literal(-5)))
        CFI (cfiCond238) ?RET_HIGH load(1, XDATA, add(CFA_XSP16, literal(-4)))
        CFI (cfiCond238) ?BRET_EXT load(1, XDATA, add(CFA_XSP16, literal(-3)))
        CFI (cfiCond238) DPL0 load(1, XDATA, add(CFA_XSP16, literal(-2)))
        CFI (cfiCond238) DPH0 load(1, XDATA, add(CFA_XSP16, literal(-1)))
        CFI (cfiCond238) CFA_SP SP+0
        CFI (cfiCond238) CFA_XSP16 add(XSP16, 21)
        CFI Block cfiCond239 Using cfiCommon0
        CFI (cfiCond239) NoFunction
        CFI (cfiCond239) Conditional ??CrossCallReturnLabel_121
        CFI (cfiCond239) R6 load(1, XDATA, add(CFA_XSP16, literal(-9)))
        CFI (cfiCond239) VB load(1, XDATA, add(CFA_XSP16, literal(-8)))
        CFI (cfiCond239) V0 load(1, XDATA, add(CFA_XSP16, literal(-7)))
        CFI (cfiCond239) R7 load(1, XDATA, add(CFA_XSP16, literal(-6)))
        CFI (cfiCond239) ?RET_LOW load(1, XDATA, add(CFA_XSP16, literal(-5)))
        CFI (cfiCond239) ?RET_HIGH load(1, XDATA, add(CFA_XSP16, literal(-4)))
        CFI (cfiCond239) ?BRET_EXT load(1, XDATA, add(CFA_XSP16, literal(-3)))
        CFI (cfiCond239) DPL0 load(1, XDATA, add(CFA_XSP16, literal(-2)))
        CFI (cfiCond239) DPH0 load(1, XDATA, add(CFA_XSP16, literal(-1)))
        CFI (cfiCond239) CFA_SP SP+0
        CFI (cfiCond239) CFA_XSP16 add(XSP16, 9)
        CFI Block cfiCond240 Using cfiCommon0
        CFI (cfiCond240) NoFunction
        CFI (cfiCond240) Conditional ??CrossCallReturnLabel_122
        CFI (cfiCond240) R6 load(1, XDATA, add(CFA_XSP16, literal(-23)))
        CFI (cfiCond240) VB load(1, XDATA, add(CFA_XSP16, literal(-22)))
        CFI (cfiCond240) V0 load(1, XDATA, add(CFA_XSP16, literal(-21)))
        CFI (cfiCond240) V1 load(1, XDATA, add(CFA_XSP16, literal(-20)))
        CFI (cfiCond240) V2 load(1, XDATA, add(CFA_XSP16, literal(-19)))
        CFI (cfiCond240) V3 load(1, XDATA, add(CFA_XSP16, literal(-18)))
        CFI (cfiCond240) V4 load(1, XDATA, add(CFA_XSP16, literal(-17)))
        CFI (cfiCond240) V5 load(1, XDATA, add(CFA_XSP16, literal(-16)))
        CFI (cfiCond240) V6 load(1, XDATA, add(CFA_XSP16, literal(-15)))
        CFI (cfiCond240) V7 load(1, XDATA, add(CFA_XSP16, literal(-14)))
        CFI (cfiCond240) V8 load(1, XDATA, add(CFA_XSP16, literal(-13)))
        CFI (cfiCond240) V9 load(1, XDATA, add(CFA_XSP16, literal(-12)))
        CFI (cfiCond240) V10 load(1, XDATA, add(CFA_XSP16, literal(-11)))
        CFI (cfiCond240) V11 load(1, XDATA, add(CFA_XSP16, literal(-10)))
        CFI (cfiCond240) V12 load(1, XDATA, add(CFA_XSP16, literal(-9)))
        CFI (cfiCond240) V13 load(1, XDATA, add(CFA_XSP16, literal(-8)))
        CFI (cfiCond240) V14 load(1, XDATA, add(CFA_XSP16, literal(-7)))
        CFI (cfiCond240) R7 load(1, XDATA, add(CFA_XSP16, literal(-6)))
        CFI (cfiCond240) ?RET_LOW load(1, XDATA, add(CFA_XSP16, literal(-5)))
        CFI (cfiCond240) ?RET_HIGH load(1, XDATA, add(CFA_XSP16, literal(-4)))
        CFI (cfiCond240) ?BRET_EXT load(1, XDATA, add(CFA_XSP16, literal(-3)))
        CFI (cfiCond240) DPL0 load(1, XDATA, add(CFA_XSP16, literal(-2)))
        CFI (cfiCond240) DPH0 load(1, XDATA, add(CFA_XSP16, literal(-1)))
        CFI (cfiCond240) CFA_SP SP+0
        CFI (cfiCond240) CFA_XSP16 add(XSP16, 23)
        CFI Block cfiCond241 Using cfiCommon0
        CFI (cfiCond241) NoFunction
        CFI (cfiCond241) Conditional ??CrossCallReturnLabel_123
        CFI (cfiCond241) R6 load(1, XDATA, add(CFA_XSP16, literal(-21)))
        CFI (cfiCond241) VB load(1, XDATA, add(CFA_XSP16, literal(-20)))
        CFI (cfiCond241) V0 load(1, XDATA, add(CFA_XSP16, literal(-19)))
        CFI (cfiCond241) V1 load(1, XDATA, add(CFA_XSP16, literal(-18)))
        CFI (cfiCond241) V2 load(1, XDATA, add(CFA_XSP16, literal(-17)))
        CFI (cfiCond241) V3 load(1, XDATA, add(CFA_XSP16, literal(-16)))
        CFI (cfiCond241) V4 load(1, XDATA, add(CFA_XSP16, literal(-15)))
        CFI (cfiCond241) V5 load(1, XDATA, add(CFA_XSP16, literal(-14)))
        CFI (cfiCond241) V6 load(1, XDATA, add(CFA_XSP16, literal(-13)))
        CFI (cfiCond241) V7 load(1, XDATA, add(CFA_XSP16, literal(-12)))
        CFI (cfiCond241) V8 load(1, XDATA, add(CFA_XSP16, literal(-11)))
        CFI (cfiCond241) V9 load(1, XDATA, add(CFA_XSP16, literal(-10)))
        CFI (cfiCond241) V10 load(1, XDATA, add(CFA_XSP16, literal(-9)))
        CFI (cfiCond241) V11 load(1, XDATA, add(CFA_XSP16, literal(-8)))
        CFI (cfiCond241) V12 load(1, XDATA, add(CFA_XSP16, literal(-7)))
        CFI (cfiCond241) R7 load(1, XDATA, add(CFA_XSP16, literal(-6)))
        CFI (cfiCond241) ?RET_LOW load(1, XDATA, add(CFA_XSP16, literal(-5)))
        CFI (cfiCond241) ?RET_HIGH load(1, XDATA, add(CFA_XSP16, literal(-4)))
        CFI (cfiCond241) ?BRET_EXT load(1, XDATA, add(CFA_XSP16, literal(-3)))
        CFI (cfiCond241) DPL0 load(1, XDATA, add(CFA_XSP16, literal(-2)))
        CFI (cfiCond241) DPH0 load(1, XDATA, add(CFA_XSP16, literal(-1)))
        CFI (cfiCond241) CFA_SP SP+0
        CFI (cfiCond241) CFA_XSP16 add(XSP16, 21)
        CFI Block cfiPicker242 Using cfiCommon1
        CFI (cfiPicker242) NoFunction
        CFI (cfiPicker242) Picker
        MOVX    A,@DPTR
        MOV     R0,A
        INC     DPTR
        MOVX    A,@DPTR
        MOV     R1,A
        RET
        CFI EndBlock cfiCond237
        CFI EndBlock cfiCond238
        CFI EndBlock cfiCond239
        CFI EndBlock cfiCond240
        CFI EndBlock cfiCond241
        CFI EndBlock cfiPicker242

        RSEG BANKED_CODE:CODE:NOROOT(0)
?Subroutine15:
        CFI Block cfiCond243 Using cfiCommon0
        CFI NoFunction
        CFI Conditional ??CrossCallReturnLabel_22
        CFI R6 load(1, XDATA, add(CFA_XSP16, literal(-9)))
        CFI VB load(1, XDATA, add(CFA_XSP16, literal(-8)))
        CFI V0 load(1, XDATA, add(CFA_XSP16, literal(-7)))
        CFI R7 load(1, XDATA, add(CFA_XSP16, literal(-6)))
        CFI ?RET_LOW load(1, XDATA, add(CFA_XSP16, literal(-5)))
        CFI ?RET_HIGH load(1, XDATA, add(CFA_XSP16, literal(-4)))
        CFI ?BRET_EXT load(1, XDATA, add(CFA_XSP16, literal(-3)))
        CFI DPL0 load(1, XDATA, add(CFA_XSP16, literal(-2)))
        CFI DPH0 load(1, XDATA, add(CFA_XSP16, literal(-1)))
        CFI CFA_SP SP+0
        CFI CFA_XSP16 add(XSP16, 9)
        CFI Block cfiCond244 Using cfiCommon0
        CFI (cfiCond244) NoFunction
        CFI (cfiCond244) Conditional ??CrossCallReturnLabel_23
        CFI (cfiCond244) R6 load(1, XDATA, add(CFA_XSP16, literal(-21)))
        CFI (cfiCond244) VB load(1, XDATA, add(CFA_XSP16, literal(-20)))
        CFI (cfiCond244) V0 load(1, XDATA, add(CFA_XSP16, literal(-19)))
        CFI (cfiCond244) V1 load(1, XDATA, add(CFA_XSP16, literal(-18)))
        CFI (cfiCond244) V2 load(1, XDATA, add(CFA_XSP16, literal(-17)))
        CFI (cfiCond244) V3 load(1, XDATA, add(CFA_XSP16, literal(-16)))
        CFI (cfiCond244) V4 load(1, XDATA, add(CFA_XSP16, literal(-15)))
        CFI (cfiCond244) V5 load(1, XDATA, add(CFA_XSP16, literal(-14)))
        CFI (cfiCond244) V6 load(1, XDATA, add(CFA_XSP16, literal(-13)))
        CFI (cfiCond244) V7 load(1, XDATA, add(CFA_XSP16, literal(-12)))
        CFI (cfiCond244) V8 load(1, XDATA, add(CFA_XSP16, literal(-11)))
        CFI (cfiCond244) V9 load(1, XDATA, add(CFA_XSP16, literal(-10)))
        CFI (cfiCond244) V10 load(1, XDATA, add(CFA_XSP16, literal(-9)))
        CFI (cfiCond244) V11 load(1, XDATA, add(CFA_XSP16, literal(-8)))
        CFI (cfiCond244) V12 load(1, XDATA, add(CFA_XSP16, literal(-7)))
        CFI (cfiCond244) R7 load(1, XDATA, add(CFA_XSP16, literal(-6)))
        CFI (cfiCond244) ?RET_LOW load(1, XDATA, add(CFA_XSP16, literal(-5)))
        CFI (cfiCond244) ?RET_HIGH load(1, XDATA, add(CFA_XSP16, literal(-4)))
        CFI (cfiCond244) ?BRET_EXT load(1, XDATA, add(CFA_XSP16, literal(-3)))
        CFI (cfiCond244) DPL0 load(1, XDATA, add(CFA_XSP16, literal(-2)))
        CFI (cfiCond244) DPH0 load(1, XDATA, add(CFA_XSP16, literal(-1)))
        CFI (cfiCond244) CFA_SP SP+0
        CFI (cfiCond244) CFA_XSP16 add(XSP16, 21)
        CFI Block cfiPicker245 Using cfiCommon1
        CFI (cfiPicker245) NoFunction
        CFI (cfiPicker245) Picker
        MOVX    A,@DPTR
        MOV     R0,A
        INC     DPTR
        MOVX    A,@DPTR
        MOV     R1,A
        MOV     DPTR,#pMtAfInMsgList
        RET
        CFI EndBlock cfiCond243
        CFI EndBlock cfiCond244
        CFI EndBlock cfiPicker245

        RSEG BANKED_CODE:CODE:NOROOT(0)
?Subroutine10:
        CFI Block cfiCond246 Using cfiCommon0
        CFI NoFunction
        CFI Conditional ??CrossCallReturnLabel_12
        CFI R6 load(1, XDATA, add(CFA_XSP16, literal(-22)))
        CFI VB load(1, XDATA, add(CFA_XSP16, literal(-21)))
        CFI V0 load(1, XDATA, add(CFA_XSP16, literal(-20)))
        CFI V1 load(1, XDATA, add(CFA_XSP16, literal(-19)))
        CFI V2 load(1, XDATA, add(CFA_XSP16, literal(-18)))
        CFI V3 load(1, XDATA, add(CFA_XSP16, literal(-17)))
        CFI V4 load(1, XDATA, add(CFA_XSP16, literal(-16)))
        CFI V5 load(1, XDATA, add(CFA_XSP16, literal(-15)))
        CFI V6 load(1, XDATA, add(CFA_XSP16, literal(-14)))
        CFI V7 load(1, XDATA, add(CFA_XSP16, literal(-13)))
        CFI V8 load(1, XDATA, add(CFA_XSP16, literal(-12)))
        CFI V9 load(1, XDATA, add(CFA_XSP16, literal(-11)))
        CFI V10 load(1, XDATA, add(CFA_XSP16, literal(-10)))
        CFI V11 load(1, XDATA, add(CFA_XSP16, literal(-9)))
        CFI V12 load(1, XDATA, add(CFA_XSP16, literal(-8)))
        CFI V13 load(1, XDATA, add(CFA_XSP16, literal(-7)))
        CFI R7 load(1, XDATA, add(CFA_XSP16, literal(-6)))
        CFI ?RET_LOW load(1, XDATA, add(CFA_XSP16, literal(-5)))
        CFI ?RET_HIGH load(1, XDATA, add(CFA_XSP16, literal(-4)))
        CFI ?BRET_EXT load(1, XDATA, add(CFA_XSP16, literal(-3)))
        CFI DPL0 load(1, XDATA, add(CFA_XSP16, literal(-2)))
        CFI DPH0 load(1, XDATA, add(CFA_XSP16, literal(-1)))
        CFI CFA_SP SP+0
        CFI CFA_XSP16 add(XSP16, 36)
        CFI Block cfiCond247 Using cfiCommon0
        CFI (cfiCond247) NoFunction
        CFI (cfiCond247) Conditional ??CrossCallReturnLabel_13
        CFI (cfiCond247) R6 load(1, XDATA, add(CFA_XSP16, literal(-21)))
        CFI (cfiCond247) VB load(1, XDATA, add(CFA_XSP16, literal(-20)))
        CFI (cfiCond247) V0 load(1, XDATA, add(CFA_XSP16, literal(-19)))
        CFI (cfiCond247) V1 load(1, XDATA, add(CFA_XSP16, literal(-18)))
        CFI (cfiCond247) V2 load(1, XDATA, add(CFA_XSP16, literal(-17)))
        CFI (cfiCond247) V3 load(1, XDATA, add(CFA_XSP16, literal(-16)))
        CFI (cfiCond247) V4 load(1, XDATA, add(CFA_XSP16, literal(-15)))
        CFI (cfiCond247) V5 load(1, XDATA, add(CFA_XSP16, literal(-14)))
        CFI (cfiCond247) V6 load(1, XDATA, add(CFA_XSP16, literal(-13)))
        CFI (cfiCond247) V7 load(1, XDATA, add(CFA_XSP16, literal(-12)))
        CFI (cfiCond247) V8 load(1, XDATA, add(CFA_XSP16, literal(-11)))
        CFI (cfiCond247) V9 load(1, XDATA, add(CFA_XSP16, literal(-10)))
        CFI (cfiCond247) V10 load(1, XDATA, add(CFA_XSP16, literal(-9)))
        CFI (cfiCond247) V11 load(1, XDATA, add(CFA_XSP16, literal(-8)))
        CFI (cfiCond247) V12 load(1, XDATA, add(CFA_XSP16, literal(-7)))
        CFI (cfiCond247) R7 load(1, XDATA, add(CFA_XSP16, literal(-6)))
        CFI (cfiCond247) ?RET_LOW load(1, XDATA, add(CFA_XSP16, literal(-5)))
        CFI (cfiCond247) ?RET_HIGH load(1, XDATA, add(CFA_XSP16, literal(-4)))
        CFI (cfiCond247) ?BRET_EXT load(1, XDATA, add(CFA_XSP16, literal(-3)))
        CFI (cfiCond247) DPL0 load(1, XDATA, add(CFA_XSP16, literal(-2)))
        CFI (cfiCond247) DPH0 load(1, XDATA, add(CFA_XSP16, literal(-1)))
        CFI (cfiCond247) CFA_SP SP+0
        CFI (cfiCond247) CFA_XSP16 add(XSP16, 21)
        CFI Block cfiCond248 Using cfiCommon0
        CFI (cfiCond248) NoFunction
        CFI (cfiCond248) Conditional ??CrossCallReturnLabel_14
        CFI (cfiCond248) R6 load(1, XDATA, add(CFA_XSP16, literal(-21)))
        CFI (cfiCond248) VB load(1, XDATA, add(CFA_XSP16, literal(-20)))
        CFI (cfiCond248) V0 load(1, XDATA, add(CFA_XSP16, literal(-19)))
        CFI (cfiCond248) V1 load(1, XDATA, add(CFA_XSP16, literal(-18)))
        CFI (cfiCond248) V2 load(1, XDATA, add(CFA_XSP16, literal(-17)))
        CFI (cfiCond248) V3 load(1, XDATA, add(CFA_XSP16, literal(-16)))
        CFI (cfiCond248) V4 load(1, XDATA, add(CFA_XSP16, literal(-15)))
        CFI (cfiCond248) V5 load(1, XDATA, add(CFA_XSP16, literal(-14)))
        CFI (cfiCond248) V6 load(1, XDATA, add(CFA_XSP16, literal(-13)))
        CFI (cfiCond248) V7 load(1, XDATA, add(CFA_XSP16, literal(-12)))
        CFI (cfiCond248) V8 load(1, XDATA, add(CFA_XSP16, literal(-11)))
        CFI (cfiCond248) V9 load(1, XDATA, add(CFA_XSP16, literal(-10)))
        CFI (cfiCond248) V10 load(1, XDATA, add(CFA_XSP16, literal(-9)))
        CFI (cfiCond248) V11 load(1, XDATA, add(CFA_XSP16, literal(-8)))
        CFI (cfiCond248) V12 load(1, XDATA, add(CFA_XSP16, literal(-7)))
        CFI (cfiCond248) R7 load(1, XDATA, add(CFA_XSP16, literal(-6)))
        CFI (cfiCond248) ?RET_LOW load(1, XDATA, add(CFA_XSP16, literal(-5)))
        CFI (cfiCond248) ?RET_HIGH load(1, XDATA, add(CFA_XSP16, literal(-4)))
        CFI (cfiCond248) ?BRET_EXT load(1, XDATA, add(CFA_XSP16, literal(-3)))
        CFI (cfiCond248) DPL0 load(1, XDATA, add(CFA_XSP16, literal(-2)))
        CFI (cfiCond248) DPH0 load(1, XDATA, add(CFA_XSP16, literal(-1)))
        CFI (cfiCond248) CFA_SP SP+0
        CFI (cfiCond248) CFA_XSP16 add(XSP16, 21)
        CFI Block cfiPicker249 Using cfiCommon1
        CFI (cfiPicker249) NoFunction
        CFI (cfiPicker249) Picker
        MOVX    A,@DPTR
        MOV     ?V0 + 2,A
        INC     DPTR
        MOVX    A,@DPTR
        MOV     ?V0 + 3,A
        RET
        CFI EndBlock cfiCond246
        CFI EndBlock cfiCond247
        CFI EndBlock cfiCond248
        CFI EndBlock cfiPicker249
//  858 
//  859 /**************************************************************************************************
//  860  * @fn          MT_AfDataStore
//  861  *
//  862  * @brief   Process AF Data Store command to incrementally store the data buffer for very large
//  863  *          outgoing AF message.
//  864  *
//  865  * input parameters
//  866  *
//  867  * @param pBuf - pointer to the received buffer
//  868  *
//  869  * output parameters
//  870  *
//  871  * @param rtrn - AF-Status of the operation.
//  872  *
//  873  * @return      None.
//  874  **************************************************************************************************
//  875  */

        RSEG BANKED_CODE:CODE:NOROOT(0)
//  876 void MT_AfDataStore(uint8 *pBuf)
MT_AfDataStore:
        CFI Block cfiBlock250 Using cfiCommon0
        CFI Function MT_AfDataStore
//  877 {
        FUNCALL MT_AfDataStore, AF_DataRequest
        LOCFRAME ISTACK, 0, STACK
        LOCFRAME PSTACK, 0, STACK
        LOCFRAME XSTACK, 21, STACK
        LOCFRAME IOVERLAY, 0, STATIC
        LOCFRAME DOVERLAY, 0, STATIC
        ARGFRAME ISTACK, 0, STACK
        ARGFRAME PSTACK, 0, STACK
        ARGFRAME XSTACK, 21, STACK
        ARGFRAME IOVERLAY, 0, STATIC
        ARGFRAME DOVERLAY, 0, STATIC
        FUNCALL MT_AfDataStore, osal_mem_free
        LOCFRAME ISTACK, 0, STACK
        LOCFRAME PSTACK, 0, STACK
        LOCFRAME XSTACK, 12, STACK
        LOCFRAME IOVERLAY, 0, STATIC
        LOCFRAME DOVERLAY, 0, STATIC
        ARGFRAME ISTACK, 0, STACK
        ARGFRAME PSTACK, 0, STACK
        ARGFRAME XSTACK, 12, STACK
        ARGFRAME IOVERLAY, 0, STATIC
        ARGFRAME DOVERLAY, 0, STATIC
        FUNCALL MT_AfDataStore, osal_memcpy
        LOCFRAME ISTACK, 0, STACK
        LOCFRAME PSTACK, 0, STACK
        LOCFRAME XSTACK, 15, STACK
        LOCFRAME IOVERLAY, 0, STATIC
        LOCFRAME DOVERLAY, 0, STATIC
        ARGFRAME ISTACK, 0, STACK
        ARGFRAME PSTACK, 0, STACK
        ARGFRAME XSTACK, 15, STACK
        ARGFRAME IOVERLAY, 0, STATIC
        ARGFRAME DOVERLAY, 0, STATIC
        FUNCALL MT_AfDataStore, MT_BuildAndSendZToolResponse
        LOCFRAME ISTACK, 0, STACK
        LOCFRAME PSTACK, 0, STACK
        LOCFRAME XSTACK, 12, STACK
        LOCFRAME IOVERLAY, 0, STATIC
        LOCFRAME DOVERLAY, 0, STATIC
        ARGFRAME ISTACK, 0, STACK
        ARGFRAME PSTACK, 0, STACK
        ARGFRAME XSTACK, 12, STACK
        ARGFRAME IOVERLAY, 0, STATIC
        ARGFRAME DOVERLAY, 0, STATIC
        MOV     A,#-0xb
        LCALL   ?BANKED_ENTER_XDATA
        CFI DPH0 load(1, XDATA, add(CFA_XSP16, literal(-1)))
        CFI DPL0 load(1, XDATA, add(CFA_XSP16, literal(-2)))
        CFI ?BRET_EXT load(1, XDATA, add(CFA_XSP16, literal(-3)))
        CFI ?RET_HIGH load(1, XDATA, add(CFA_XSP16, literal(-4)))
        CFI ?RET_LOW load(1, XDATA, add(CFA_XSP16, literal(-5)))
        CFI R7 load(1, XDATA, add(CFA_XSP16, literal(-6)))
        CFI V2 load(1, XDATA, add(CFA_XSP16, literal(-7)))
        CFI V1 load(1, XDATA, add(CFA_XSP16, literal(-8)))
        CFI V0 load(1, XDATA, add(CFA_XSP16, literal(-9)))
        CFI VB load(1, XDATA, add(CFA_XSP16, literal(-10)))
        CFI R6 load(1, XDATA, add(CFA_XSP16, literal(-11)))
        CFI CFA_SP SP+0
        CFI CFA_XSP16 add(XSP16, 11)
        ; Saved register size: 11
        ; Auto size: 1
        MOV     A,#-0x1
        LCALL   ?ALLOC_XSTACK8
        CFI CFA_XSP16 add(XSP16, 12)
//  878   uint16 idx;
//  879   uint8 len, rtrn = afStatus_FAILED;
        MOV     A,#0x1
        MOV     DPL,?XSP + 0
        MOV     DPH,?XSP + 1
        MOVX    @DPTR,A
//  880 
//  881   pBuf += MT_RPC_FRAME_HDR_SZ;
        MOV     A,R2
        ADD     A,#0x3
        INC     R2
        INC     R2
        INC     R2
        MOV     A,R3
        LCALL   ?Subroutine20 & 0xFFFF
//  882   idx = BUILD_UINT16(pBuf[0], pBuf[1]);
??CrossCallReturnLabel_29:
        MOV     R0,A
        CLR     A
        XCH     A,R0
        MOV     R1,A
        MOV     A,R4
        MOV     R6,A
        MOV     A,R1
        MOV     R7,A
//  883   len = pBuf[2];
        MOV     DPL,R2
        MOV     DPH,R3
        INC     DPTR
        INC     DPTR
        MOVX    A,@DPTR
        MOV     R4,A
//  884   pBuf += 3;
        MOV     A,R2
        ADD     A,#0x3
        INC     R2
        INC     R2
        INC     R2
        MOV     A,R3
        ADDC    A,#0x0
        MOV     R3,A
//  885 
//  886   if (pMtAfDataReq == NULL)
        MOV     DPTR,#pMtAfDataReq
        MOVX    A,@DPTR
        JNZ     ??MT_AfDataStore_0
        INC     DPTR
        MOVX    A,@DPTR
??MT_AfDataStore_0:
        JNZ     ??MT_AfDataStore_1
//  887   {
//  888     rtrn = afStatus_MEM_FAIL;
        MOV     A,#0x10
        LJMP    ??MT_AfDataStore_2 & 0xFFFF
//  889   }
//  890   else if (len == 0)  // Indication to send the message.
??MT_AfDataStore_1:
        MOV     A,R4
        JNZ     ??MT_AfDataStore_3
//  891   {
//  892     rtrn = AF_DataRequest(&(pMtAfDataReq->dstAddr), pMtAfDataReq->epDesc, pMtAfDataReq->cId, 
//  893                             pMtAfDataReq->dataLen,  pMtAfDataReq->data, 
//  894                           &(pMtAfDataReq->transId), pMtAfDataReq->txOpts, pMtAfDataReq->radius);
        ; Setup parameters for call to function AF_DataRequest
        MOV     DPTR,#pMtAfDataReq
        MOVX    A,@DPTR
        ADD     A,#0x16
        LCALL   ??Subroutine46_0 & 0xFFFF
??CrossCallReturnLabel_79:
        MOV     ?V0 + 0,A
        MOV     R0,#?V0 + 0
        LCALL   ?PUSH_XSTACK_I_ONE
        CFI CFA_XSP16 add(XSP16, 13)
        MOV     DPTR,#pMtAfDataReq
        MOVX    A,@DPTR
        ADD     A,#0x14
        MOV     ?V0 + 0,A
        INC     DPTR
        MOVX    A,@DPTR
        ADDC    A,#0x0
        MOV     ?V0 + 1,A
        MOV     R0,#?V0 + 0
        LCALL   ?PUSH_XSTACK_I_TWO
        CFI CFA_XSP16 add(XSP16, 15)
        LCALL   ?Subroutine9 & 0xFFFF
??CrossCallReturnLabel_10:
        LCALL   ?PUSH_XSTACK8_X_TWO
        CFI CFA_XSP16 add(XSP16, 17)
        MOV     DPTR,#pMtAfDataReq
        MOVX    A,@DPTR
        ADD     A,#0x12
        LCALL   ??Subroutine56_0 & 0xFFFF
??CrossCallReturnLabel_130:
        LCALL   ?PUSH_XSTACK8_X_TWO
        CFI CFA_XSP16 add(XSP16, 19)
        LCALL   ?Subroutine3 & 0xFFFF
??CrossCallReturnLabel_132:
        LCALL   ?PUSH_XSTACK8_X_TWO
        CFI CFA_XSP16 add(XSP16, 21)
        MOV     DPTR,#pMtAfDataReq
        MOVX    A,@DPTR
        ADD     A,#0x15
        LCALL   ??Subroutine46_0 & 0xFFFF
??CrossCallReturnLabel_80:
        MOV     R1,A
        MOV     DPTR,#pMtAfDataReq
        MOVX    A,@DPTR
        ADD     A,#0xe
        MOV     R2,A
        INC     DPTR
        MOVX    A,@DPTR
        LCALL   ?Subroutine20 & 0xFFFF
??CrossCallReturnLabel_30:
        MOV     R5,A
        LCALL   ?Subroutine12 & 0xFFFF
??CrossCallReturnLabel_16:
        LCALL   ??AF_DataRequest?relay
        MOV     A,#0x9
        LCALL   ?DEALLOC_XSTACK8
        CFI CFA_XSP16 add(XSP16, 12)
        MOV     A,R1
        MOV     DPL,?XSP + 0
        MOV     DPH,?XSP + 1
        MOVX    @DPTR,A
//  895     (void)osal_mem_free(pMtAfDataReq);
        ; Setup parameters for call to function osal_mem_free
        LCALL   ?Subroutine8 & 0xFFFF
//  896     pMtAfDataReq = NULL;
//  897   }
??CrossCallReturnLabel_8:
        SJMP    ??MT_AfDataStore_4
//  898   else
//  899   {
//  900     (void)osal_memcpy(pMtAfDataReq->data+idx, pBuf, len);
??MT_AfDataStore_3:
        ; Setup parameters for call to function osal_memcpy
        MOV     ?V0 + 0,R2
        MOV     ?V0 + 1,R3
        MOV     ?V0 + 2,R0
        MOV     R0,#?V0 + 0
        LCALL   ?PUSH_XSTACK_I_THREE
        CFI CFA_XSP16 add(XSP16, 15)
        MOV     R5,#0x0
        LCALL   ?Subroutine9 & 0xFFFF
??CrossCallReturnLabel_11:
        MOVX    A,@DPTR
        ADD     A,R6
        MOV     R2,A
        INC     DPTR
        MOVX    A,@DPTR
        ADDC    A,R7
        LCALL   ?Subroutine33 & 0xFFFF
??CrossCallReturnLabel_114:
        LCALL   ?DEALLOC_XSTACK8
        CFI CFA_XSP16 add(XSP16, 12)
//  901     rtrn = afStatus_SUCCESS;
        CLR     A
??MT_AfDataStore_2:
        MOV     DPL,?XSP + 0
        MOV     DPH,?XSP + 1
//  902   }
??MT_AfDataStore_4:
        LCALL   ?Subroutine28 & 0xFFFF
//  903 
//  904   MT_BuildAndSendZToolResponse(((uint8)MT_RPC_CMD_SRSP | (uint8)MT_RPC_SYS_AF), 
//  905                                                                 MT_AF_DATA_STORE, 1, &rtrn);
??CrossCallReturnLabel_51:
        MOV     R3,#0x1
        MOV     R2,#0x11
        MOV     R1,#0x64
        LCALL   ??MT_BuildAndSendZToolResponse?relay
//  906 }
        MOV     A,#0x1
        LCALL   ?DEALLOC_XSTACK8
        CFI CFA_XSP16 add(XSP16, 11)
        MOV     R7,#0x3
        LJMP    ?BANKED_LEAVE_XDATA
        CFI EndBlock cfiBlock250

        RSEG BANKED_CODE:CODE:NOROOT(0)
?Subroutine28:
        CFI Block cfiCond251 Using cfiCommon0
        CFI NoFunction
        CFI Conditional ??CrossCallReturnLabel_50
        CFI DPL0 Frame(CFA_SP, 4)
        CFI DPH0 Frame(CFA_SP, 5)
        CFI CFA_SP SP+-5
        CFI CFA_XSP16 add(XSP16, 3)
        CFI Block cfiCond252 Using cfiCommon0
        CFI (cfiCond252) NoFunction
        CFI (cfiCond252) Conditional ??CrossCallReturnLabel_51
        CFI (cfiCond252) R6 load(1, XDATA, add(CFA_XSP16, literal(-11)))
        CFI (cfiCond252) VB load(1, XDATA, add(CFA_XSP16, literal(-10)))
        CFI (cfiCond252) V0 load(1, XDATA, add(CFA_XSP16, literal(-9)))
        CFI (cfiCond252) V1 load(1, XDATA, add(CFA_XSP16, literal(-8)))
        CFI (cfiCond252) V2 load(1, XDATA, add(CFA_XSP16, literal(-7)))
        CFI (cfiCond252) R7 load(1, XDATA, add(CFA_XSP16, literal(-6)))
        CFI (cfiCond252) ?RET_LOW load(1, XDATA, add(CFA_XSP16, literal(-5)))
        CFI (cfiCond252) ?RET_HIGH load(1, XDATA, add(CFA_XSP16, literal(-4)))
        CFI (cfiCond252) ?BRET_EXT load(1, XDATA, add(CFA_XSP16, literal(-3)))
        CFI (cfiCond252) DPL0 load(1, XDATA, add(CFA_XSP16, literal(-2)))
        CFI (cfiCond252) DPH0 load(1, XDATA, add(CFA_XSP16, literal(-1)))
        CFI (cfiCond252) CFA_SP SP+0
        CFI (cfiCond252) CFA_XSP16 add(XSP16, 12)
        CFI Block cfiPicker253 Using cfiCommon1
        CFI (cfiPicker253) NoFunction
        CFI (cfiPicker253) Picker
        MOVX    @DPTR,A
        ; Setup parameters for call to function MT_BuildAndSendZToolResponse
        ; Setup parameters for call to function MT_BuildAndSendZToolResponse
        MOV     DPL,?XSP + 0
        MOV     DPH,?XSP + 1
        MOV     R4,DPL
        MOV     R5,DPH
        RET
        CFI EndBlock cfiCond251
        CFI EndBlock cfiCond252
        CFI EndBlock cfiPicker253

        RSEG BANKED_CODE:CODE:NOROOT(0)
?Subroutine20:
        CFI Block cfiCond254 Using cfiCommon0
        CFI NoFunction
        CFI Conditional ??CrossCallReturnLabel_29
        CFI R6 load(1, XDATA, add(CFA_XSP16, literal(-11)))
        CFI VB load(1, XDATA, add(CFA_XSP16, literal(-10)))
        CFI V0 load(1, XDATA, add(CFA_XSP16, literal(-9)))
        CFI V1 load(1, XDATA, add(CFA_XSP16, literal(-8)))
        CFI V2 load(1, XDATA, add(CFA_XSP16, literal(-7)))
        CFI R7 load(1, XDATA, add(CFA_XSP16, literal(-6)))
        CFI ?RET_LOW load(1, XDATA, add(CFA_XSP16, literal(-5)))
        CFI ?RET_HIGH load(1, XDATA, add(CFA_XSP16, literal(-4)))
        CFI ?BRET_EXT load(1, XDATA, add(CFA_XSP16, literal(-3)))
        CFI DPL0 load(1, XDATA, add(CFA_XSP16, literal(-2)))
        CFI DPH0 load(1, XDATA, add(CFA_XSP16, literal(-1)))
        CFI CFA_SP SP+0
        CFI CFA_XSP16 add(XSP16, 12)
        CFI Block cfiCond255 Using cfiCommon0
        CFI (cfiCond255) NoFunction
        CFI (cfiCond255) Conditional ??CrossCallReturnLabel_30
        CFI (cfiCond255) R6 load(1, XDATA, add(CFA_XSP16, literal(-11)))
        CFI (cfiCond255) VB load(1, XDATA, add(CFA_XSP16, literal(-10)))
        CFI (cfiCond255) V0 load(1, XDATA, add(CFA_XSP16, literal(-9)))
        CFI (cfiCond255) V1 load(1, XDATA, add(CFA_XSP16, literal(-8)))
        CFI (cfiCond255) V2 load(1, XDATA, add(CFA_XSP16, literal(-7)))
        CFI (cfiCond255) R7 load(1, XDATA, add(CFA_XSP16, literal(-6)))
        CFI (cfiCond255) ?RET_LOW load(1, XDATA, add(CFA_XSP16, literal(-5)))
        CFI (cfiCond255) ?RET_HIGH load(1, XDATA, add(CFA_XSP16, literal(-4)))
        CFI (cfiCond255) ?BRET_EXT load(1, XDATA, add(CFA_XSP16, literal(-3)))
        CFI (cfiCond255) DPL0 load(1, XDATA, add(CFA_XSP16, literal(-2)))
        CFI (cfiCond255) DPH0 load(1, XDATA, add(CFA_XSP16, literal(-1)))
        CFI (cfiCond255) CFA_SP SP+0
        CFI (cfiCond255) CFA_XSP16 add(XSP16, 21)
        CFI Block cfiPicker256 Using cfiCommon1
        CFI (cfiPicker256) NoFunction
        CFI (cfiPicker256) Picker
        ADDC    A,#0x0
        MOV     R3,A
        MOV     DPL,R2
        MOV     DPH,R3
        MOVX    A,@DPTR
        MOV     R4,A
        INC     DPTR
        MOVX    A,@DPTR
        RET
        CFI EndBlock cfiCond254
        CFI EndBlock cfiCond255
        CFI EndBlock cfiPicker256

        RSEG BANKED_CODE:CODE:NOROOT(0)
?Subroutine12:
        CFI Block cfiCond257 Using cfiCommon0
        CFI NoFunction
        CFI Conditional ??CrossCallReturnLabel_15
        CFI R6 load(1, XDATA, add(CFA_XSP16, literal(-22)))
        CFI VB load(1, XDATA, add(CFA_XSP16, literal(-21)))
        CFI V0 load(1, XDATA, add(CFA_XSP16, literal(-20)))
        CFI V1 load(1, XDATA, add(CFA_XSP16, literal(-19)))
        CFI V2 load(1, XDATA, add(CFA_XSP16, literal(-18)))
        CFI V3 load(1, XDATA, add(CFA_XSP16, literal(-17)))
        CFI V4 load(1, XDATA, add(CFA_XSP16, literal(-16)))
        CFI V5 load(1, XDATA, add(CFA_XSP16, literal(-15)))
        CFI V6 load(1, XDATA, add(CFA_XSP16, literal(-14)))
        CFI V7 load(1, XDATA, add(CFA_XSP16, literal(-13)))
        CFI V8 load(1, XDATA, add(CFA_XSP16, literal(-12)))
        CFI V9 load(1, XDATA, add(CFA_XSP16, literal(-11)))
        CFI V10 load(1, XDATA, add(CFA_XSP16, literal(-10)))
        CFI V11 load(1, XDATA, add(CFA_XSP16, literal(-9)))
        CFI V12 load(1, XDATA, add(CFA_XSP16, literal(-8)))
        CFI V13 load(1, XDATA, add(CFA_XSP16, literal(-7)))
        CFI R7 load(1, XDATA, add(CFA_XSP16, literal(-6)))
        CFI ?RET_LOW load(1, XDATA, add(CFA_XSP16, literal(-5)))
        CFI ?RET_HIGH load(1, XDATA, add(CFA_XSP16, literal(-4)))
        CFI ?BRET_EXT load(1, XDATA, add(CFA_XSP16, literal(-3)))
        CFI DPL0 load(1, XDATA, add(CFA_XSP16, literal(-2)))
        CFI DPH0 load(1, XDATA, add(CFA_XSP16, literal(-1)))
        CFI CFA_SP SP+0
        CFI CFA_XSP16 add(XSP16, 39)
        CFI Block cfiCond258 Using cfiCommon0
        CFI (cfiCond258) NoFunction
        CFI (cfiCond258) Conditional ??CrossCallReturnLabel_16
        CFI (cfiCond258) R6 load(1, XDATA, add(CFA_XSP16, literal(-11)))
        CFI (cfiCond258) VB load(1, XDATA, add(CFA_XSP16, literal(-10)))
        CFI (cfiCond258) V0 load(1, XDATA, add(CFA_XSP16, literal(-9)))
        CFI (cfiCond258) V1 load(1, XDATA, add(CFA_XSP16, literal(-8)))
        CFI (cfiCond258) V2 load(1, XDATA, add(CFA_XSP16, literal(-7)))
        CFI (cfiCond258) R7 load(1, XDATA, add(CFA_XSP16, literal(-6)))
        CFI (cfiCond258) ?RET_LOW load(1, XDATA, add(CFA_XSP16, literal(-5)))
        CFI (cfiCond258) ?RET_HIGH load(1, XDATA, add(CFA_XSP16, literal(-4)))
        CFI (cfiCond258) ?BRET_EXT load(1, XDATA, add(CFA_XSP16, literal(-3)))
        CFI (cfiCond258) DPL0 load(1, XDATA, add(CFA_XSP16, literal(-2)))
        CFI (cfiCond258) DPH0 load(1, XDATA, add(CFA_XSP16, literal(-1)))
        CFI (cfiCond258) CFA_SP SP+0
        CFI (cfiCond258) CFA_XSP16 add(XSP16, 21)
        CFI Block cfiPicker259 Using cfiCommon1
        CFI (cfiPicker259) NoFunction
        CFI (cfiPicker259) Picker
        MOV     DPTR,#pMtAfDataReq
        MOVX    A,@DPTR
        ADD     A,#0x2
        MOV     R2,A
        INC     DPTR
        MOVX    A,@DPTR
        ADDC    A,#0x0
        MOV     R3,A
        RET
        CFI EndBlock cfiCond257
        CFI EndBlock cfiCond258
        CFI EndBlock cfiPicker259

        RSEG BANKED_CODE:CODE:NOROOT(0)
?Subroutine9:
        CFI Block cfiCond260 Using cfiCommon0
        CFI NoFunction
        CFI Conditional ??CrossCallReturnLabel_9
        CFI R6 load(1, XDATA, add(CFA_XSP16, literal(-22)))
        CFI VB load(1, XDATA, add(CFA_XSP16, literal(-21)))
        CFI V0 load(1, XDATA, add(CFA_XSP16, literal(-20)))
        CFI V1 load(1, XDATA, add(CFA_XSP16, literal(-19)))
        CFI V2 load(1, XDATA, add(CFA_XSP16, literal(-18)))
        CFI V3 load(1, XDATA, add(CFA_XSP16, literal(-17)))
        CFI V4 load(1, XDATA, add(CFA_XSP16, literal(-16)))
        CFI V5 load(1, XDATA, add(CFA_XSP16, literal(-15)))
        CFI V6 load(1, XDATA, add(CFA_XSP16, literal(-14)))
        CFI V7 load(1, XDATA, add(CFA_XSP16, literal(-13)))
        CFI V8 load(1, XDATA, add(CFA_XSP16, literal(-12)))
        CFI V9 load(1, XDATA, add(CFA_XSP16, literal(-11)))
        CFI V10 load(1, XDATA, add(CFA_XSP16, literal(-10)))
        CFI V11 load(1, XDATA, add(CFA_XSP16, literal(-9)))
        CFI V12 load(1, XDATA, add(CFA_XSP16, literal(-8)))
        CFI V13 load(1, XDATA, add(CFA_XSP16, literal(-7)))
        CFI R7 load(1, XDATA, add(CFA_XSP16, literal(-6)))
        CFI ?RET_LOW load(1, XDATA, add(CFA_XSP16, literal(-5)))
        CFI ?RET_HIGH load(1, XDATA, add(CFA_XSP16, literal(-4)))
        CFI ?BRET_EXT load(1, XDATA, add(CFA_XSP16, literal(-3)))
        CFI DPL0 load(1, XDATA, add(CFA_XSP16, literal(-2)))
        CFI DPH0 load(1, XDATA, add(CFA_XSP16, literal(-1)))
        CFI CFA_SP SP+0
        CFI CFA_XSP16 add(XSP16, 36)
        CFI Block cfiCond261 Using cfiCommon0
        CFI (cfiCond261) NoFunction
        CFI (cfiCond261) Conditional ??CrossCallReturnLabel_10
        CFI (cfiCond261) R6 load(1, XDATA, add(CFA_XSP16, literal(-11)))
        CFI (cfiCond261) VB load(1, XDATA, add(CFA_XSP16, literal(-10)))
        CFI (cfiCond261) V0 load(1, XDATA, add(CFA_XSP16, literal(-9)))
        CFI (cfiCond261) V1 load(1, XDATA, add(CFA_XSP16, literal(-8)))
        CFI (cfiCond261) V2 load(1, XDATA, add(CFA_XSP16, literal(-7)))
        CFI (cfiCond261) R7 load(1, XDATA, add(CFA_XSP16, literal(-6)))
        CFI (cfiCond261) ?RET_LOW load(1, XDATA, add(CFA_XSP16, literal(-5)))
        CFI (cfiCond261) ?RET_HIGH load(1, XDATA, add(CFA_XSP16, literal(-4)))
        CFI (cfiCond261) ?BRET_EXT load(1, XDATA, add(CFA_XSP16, literal(-3)))
        CFI (cfiCond261) DPL0 load(1, XDATA, add(CFA_XSP16, literal(-2)))
        CFI (cfiCond261) DPH0 load(1, XDATA, add(CFA_XSP16, literal(-1)))
        CFI (cfiCond261) CFA_SP SP+0
        CFI (cfiCond261) CFA_XSP16 add(XSP16, 15)
        CFI Block cfiCond262 Using cfiCommon0
        CFI (cfiCond262) NoFunction
        CFI (cfiCond262) Conditional ??CrossCallReturnLabel_11
        CFI (cfiCond262) R6 load(1, XDATA, add(CFA_XSP16, literal(-11)))
        CFI (cfiCond262) VB load(1, XDATA, add(CFA_XSP16, literal(-10)))
        CFI (cfiCond262) V0 load(1, XDATA, add(CFA_XSP16, literal(-9)))
        CFI (cfiCond262) V1 load(1, XDATA, add(CFA_XSP16, literal(-8)))
        CFI (cfiCond262) V2 load(1, XDATA, add(CFA_XSP16, literal(-7)))
        CFI (cfiCond262) R7 load(1, XDATA, add(CFA_XSP16, literal(-6)))
        CFI (cfiCond262) ?RET_LOW load(1, XDATA, add(CFA_XSP16, literal(-5)))
        CFI (cfiCond262) ?RET_HIGH load(1, XDATA, add(CFA_XSP16, literal(-4)))
        CFI (cfiCond262) ?BRET_EXT load(1, XDATA, add(CFA_XSP16, literal(-3)))
        CFI (cfiCond262) DPL0 load(1, XDATA, add(CFA_XSP16, literal(-2)))
        CFI (cfiCond262) DPH0 load(1, XDATA, add(CFA_XSP16, literal(-1)))
        CFI (cfiCond262) CFA_SP SP+0
        CFI (cfiCond262) CFA_XSP16 add(XSP16, 15)
        CFI Block cfiPicker263 Using cfiCommon1
        CFI (cfiPicker263) NoFunction
        CFI (cfiPicker263) Picker
        MOV     DPTR,#pMtAfDataReq
        MOVX    A,@DPTR
        MOV     R0,A
        INC     DPTR
        MOVX    A,@DPTR
        MOV     DPH,A
        MOV     DPL,R0
        RET
        CFI EndBlock cfiCond260
        CFI EndBlock cfiCond261
        CFI EndBlock cfiCond262
        CFI EndBlock cfiPicker263

        RSEG BANKED_CODE:CODE:NOROOT(0)
?Subroutine8:
        CFI Block cfiCond264 Using cfiCommon0
        CFI NoFunction
        CFI Conditional ??CrossCallReturnLabel_7
        CFI R6 load(1, XDATA, add(CFA_XSP16, literal(-9)))
        CFI VB load(1, XDATA, add(CFA_XSP16, literal(-8)))
        CFI V0 load(1, XDATA, add(CFA_XSP16, literal(-7)))
        CFI R7 load(1, XDATA, add(CFA_XSP16, literal(-6)))
        CFI ?RET_LOW load(1, XDATA, add(CFA_XSP16, literal(-5)))
        CFI ?RET_HIGH load(1, XDATA, add(CFA_XSP16, literal(-4)))
        CFI ?BRET_EXT load(1, XDATA, add(CFA_XSP16, literal(-3)))
        CFI DPL0 load(1, XDATA, add(CFA_XSP16, literal(-2)))
        CFI DPH0 load(1, XDATA, add(CFA_XSP16, literal(-1)))
        CFI CFA_SP SP+0
        CFI CFA_XSP16 add(XSP16, 9)
        CFI Block cfiCond265 Using cfiCommon0
        CFI (cfiCond265) NoFunction
        CFI (cfiCond265) Conditional ??CrossCallReturnLabel_8
        CFI (cfiCond265) R6 load(1, XDATA, add(CFA_XSP16, literal(-11)))
        CFI (cfiCond265) VB load(1, XDATA, add(CFA_XSP16, literal(-10)))
        CFI (cfiCond265) V0 load(1, XDATA, add(CFA_XSP16, literal(-9)))
        CFI (cfiCond265) V1 load(1, XDATA, add(CFA_XSP16, literal(-8)))
        CFI (cfiCond265) V2 load(1, XDATA, add(CFA_XSP16, literal(-7)))
        CFI (cfiCond265) R7 load(1, XDATA, add(CFA_XSP16, literal(-6)))
        CFI (cfiCond265) ?RET_LOW load(1, XDATA, add(CFA_XSP16, literal(-5)))
        CFI (cfiCond265) ?RET_HIGH load(1, XDATA, add(CFA_XSP16, literal(-4)))
        CFI (cfiCond265) ?BRET_EXT load(1, XDATA, add(CFA_XSP16, literal(-3)))
        CFI (cfiCond265) DPL0 load(1, XDATA, add(CFA_XSP16, literal(-2)))
        CFI (cfiCond265) DPH0 load(1, XDATA, add(CFA_XSP16, literal(-1)))
        CFI (cfiCond265) CFA_SP SP+0
        CFI (cfiCond265) CFA_XSP16 add(XSP16, 12)
        CFI Block cfiPicker266 Using cfiCommon1
        CFI (cfiPicker266) NoFunction
        CFI (cfiPicker266) Picker
        MOV     DPTR,#pMtAfDataReq
        MOVX    A,@DPTR
        MOV     R2,A
        INC     DPTR
        MOVX    A,@DPTR
        MOV     R3,A
        LCALL   ??osal_mem_free?relay
        MOV     DPTR,#pMtAfDataReq
        CLR     A
        MOVX    @DPTR,A
        INC     DPTR
        RET
        CFI EndBlock cfiCond264
        CFI EndBlock cfiCond265
        CFI EndBlock cfiPicker266

        RSEG BANKED_CODE:CODE:NOROOT(0)
?Subroutine3:
        CFI Block cfiCond267 Using cfiCommon0
        CFI NoFunction
        CFI Conditional ??CrossCallReturnLabel_131
        CFI R6 load(1, XDATA, add(CFA_XSP16, literal(-22)))
        CFI VB load(1, XDATA, add(CFA_XSP16, literal(-21)))
        CFI V0 load(1, XDATA, add(CFA_XSP16, literal(-20)))
        CFI V1 load(1, XDATA, add(CFA_XSP16, literal(-19)))
        CFI V2 load(1, XDATA, add(CFA_XSP16, literal(-18)))
        CFI V3 load(1, XDATA, add(CFA_XSP16, literal(-17)))
        CFI V4 load(1, XDATA, add(CFA_XSP16, literal(-16)))
        CFI V5 load(1, XDATA, add(CFA_XSP16, literal(-15)))
        CFI V6 load(1, XDATA, add(CFA_XSP16, literal(-14)))
        CFI V7 load(1, XDATA, add(CFA_XSP16, literal(-13)))
        CFI V8 load(1, XDATA, add(CFA_XSP16, literal(-12)))
        CFI V9 load(1, XDATA, add(CFA_XSP16, literal(-11)))
        CFI V10 load(1, XDATA, add(CFA_XSP16, literal(-10)))
        CFI V11 load(1, XDATA, add(CFA_XSP16, literal(-9)))
        CFI V12 load(1, XDATA, add(CFA_XSP16, literal(-8)))
        CFI V13 load(1, XDATA, add(CFA_XSP16, literal(-7)))
        CFI R7 load(1, XDATA, add(CFA_XSP16, literal(-6)))
        CFI ?RET_LOW load(1, XDATA, add(CFA_XSP16, literal(-5)))
        CFI ?RET_HIGH load(1, XDATA, add(CFA_XSP16, literal(-4)))
        CFI ?BRET_EXT load(1, XDATA, add(CFA_XSP16, literal(-3)))
        CFI DPL0 load(1, XDATA, add(CFA_XSP16, literal(-2)))
        CFI DPH0 load(1, XDATA, add(CFA_XSP16, literal(-1)))
        CFI CFA_SP SP+0
        CFI CFA_XSP16 add(XSP16, 36)
        CFI Block cfiCond268 Using cfiCommon0
        CFI (cfiCond268) NoFunction
        CFI (cfiCond268) Conditional ??CrossCallReturnLabel_132
        CFI (cfiCond268) R6 load(1, XDATA, add(CFA_XSP16, literal(-11)))
        CFI (cfiCond268) VB load(1, XDATA, add(CFA_XSP16, literal(-10)))
        CFI (cfiCond268) V0 load(1, XDATA, add(CFA_XSP16, literal(-9)))
        CFI (cfiCond268) V1 load(1, XDATA, add(CFA_XSP16, literal(-8)))
        CFI (cfiCond268) V2 load(1, XDATA, add(CFA_XSP16, literal(-7)))
        CFI (cfiCond268) R7 load(1, XDATA, add(CFA_XSP16, literal(-6)))
        CFI (cfiCond268) ?RET_LOW load(1, XDATA, add(CFA_XSP16, literal(-5)))
        CFI (cfiCond268) ?RET_HIGH load(1, XDATA, add(CFA_XSP16, literal(-4)))
        CFI (cfiCond268) ?BRET_EXT load(1, XDATA, add(CFA_XSP16, literal(-3)))
        CFI (cfiCond268) DPL0 load(1, XDATA, add(CFA_XSP16, literal(-2)))
        CFI (cfiCond268) DPH0 load(1, XDATA, add(CFA_XSP16, literal(-1)))
        CFI (cfiCond268) CFA_SP SP+0
        CFI (cfiCond268) CFA_XSP16 add(XSP16, 19)
        CFI Block cfiPicker269 Using cfiCommon1
        CFI (cfiPicker269) NoFunction
        CFI (cfiPicker269) Picker
        MOV     DPTR,#pMtAfDataReq
        MOVX    A,@DPTR
        ADD     A,#0x10
        CFI EndBlock cfiCond267
        CFI EndBlock cfiCond268
        CFI EndBlock cfiPicker269
        REQUIRE ??Subroutine56_0
        ; // Fall through to label ??Subroutine56_0

        RSEG BANKED_CODE:CODE:NOROOT(0)
??Subroutine56_0:
        CFI Block cfiCond270 Using cfiCommon0
        CFI NoFunction
        CFI Conditional ??CrossCallReturnLabel_124
        CFI R6 load(1, XDATA, add(CFA_XSP16, literal(-22)))
        CFI VB load(1, XDATA, add(CFA_XSP16, literal(-21)))
        CFI V0 load(1, XDATA, add(CFA_XSP16, literal(-20)))
        CFI V1 load(1, XDATA, add(CFA_XSP16, literal(-19)))
        CFI V2 load(1, XDATA, add(CFA_XSP16, literal(-18)))
        CFI V3 load(1, XDATA, add(CFA_XSP16, literal(-17)))
        CFI V4 load(1, XDATA, add(CFA_XSP16, literal(-16)))
        CFI V5 load(1, XDATA, add(CFA_XSP16, literal(-15)))
        CFI V6 load(1, XDATA, add(CFA_XSP16, literal(-14)))
        CFI V7 load(1, XDATA, add(CFA_XSP16, literal(-13)))
        CFI V8 load(1, XDATA, add(CFA_XSP16, literal(-12)))
        CFI V9 load(1, XDATA, add(CFA_XSP16, literal(-11)))
        CFI V10 load(1, XDATA, add(CFA_XSP16, literal(-10)))
        CFI V11 load(1, XDATA, add(CFA_XSP16, literal(-9)))
        CFI V12 load(1, XDATA, add(CFA_XSP16, literal(-8)))
        CFI V13 load(1, XDATA, add(CFA_XSP16, literal(-7)))
        CFI R7 load(1, XDATA, add(CFA_XSP16, literal(-6)))
        CFI ?RET_LOW load(1, XDATA, add(CFA_XSP16, literal(-5)))
        CFI ?RET_HIGH load(1, XDATA, add(CFA_XSP16, literal(-4)))
        CFI ?BRET_EXT load(1, XDATA, add(CFA_XSP16, literal(-3)))
        CFI DPL0 load(1, XDATA, add(CFA_XSP16, literal(-2)))
        CFI DPH0 load(1, XDATA, add(CFA_XSP16, literal(-1)))
        CFI CFA_SP SP+0
        CFI CFA_XSP16 add(XSP16, 36)
        CFI Block cfiCond271 Using cfiCommon0
        CFI (cfiCond271) NoFunction
        CFI (cfiCond271) Conditional ??CrossCallReturnLabel_125
        CFI (cfiCond271) R6 load(1, XDATA, add(CFA_XSP16, literal(-22)))
        CFI (cfiCond271) VB load(1, XDATA, add(CFA_XSP16, literal(-21)))
        CFI (cfiCond271) V0 load(1, XDATA, add(CFA_XSP16, literal(-20)))
        CFI (cfiCond271) V1 load(1, XDATA, add(CFA_XSP16, literal(-19)))
        CFI (cfiCond271) V2 load(1, XDATA, add(CFA_XSP16, literal(-18)))
        CFI (cfiCond271) V3 load(1, XDATA, add(CFA_XSP16, literal(-17)))
        CFI (cfiCond271) V4 load(1, XDATA, add(CFA_XSP16, literal(-16)))
        CFI (cfiCond271) V5 load(1, XDATA, add(CFA_XSP16, literal(-15)))
        CFI (cfiCond271) V6 load(1, XDATA, add(CFA_XSP16, literal(-14)))
        CFI (cfiCond271) V7 load(1, XDATA, add(CFA_XSP16, literal(-13)))
        CFI (cfiCond271) V8 load(1, XDATA, add(CFA_XSP16, literal(-12)))
        CFI (cfiCond271) V9 load(1, XDATA, add(CFA_XSP16, literal(-11)))
        CFI (cfiCond271) V10 load(1, XDATA, add(CFA_XSP16, literal(-10)))
        CFI (cfiCond271) V11 load(1, XDATA, add(CFA_XSP16, literal(-9)))
        CFI (cfiCond271) V12 load(1, XDATA, add(CFA_XSP16, literal(-8)))
        CFI (cfiCond271) V13 load(1, XDATA, add(CFA_XSP16, literal(-7)))
        CFI (cfiCond271) R7 load(1, XDATA, add(CFA_XSP16, literal(-6)))
        CFI (cfiCond271) ?RET_LOW load(1, XDATA, add(CFA_XSP16, literal(-5)))
        CFI (cfiCond271) ?RET_HIGH load(1, XDATA, add(CFA_XSP16, literal(-4)))
        CFI (cfiCond271) ?BRET_EXT load(1, XDATA, add(CFA_XSP16, literal(-3)))
        CFI (cfiCond271) DPL0 load(1, XDATA, add(CFA_XSP16, literal(-2)))
        CFI (cfiCond271) DPH0 load(1, XDATA, add(CFA_XSP16, literal(-1)))
        CFI (cfiCond271) CFA_SP SP+0
        CFI (cfiCond271) CFA_XSP16 add(XSP16, 36)
        CFI Block cfiCond272 Using cfiCommon0
        CFI (cfiCond272) NoFunction
        CFI (cfiCond272) Conditional ??CrossCallReturnLabel_126
        CFI (cfiCond272) R6 load(1, XDATA, add(CFA_XSP16, literal(-22)))
        CFI (cfiCond272) VB load(1, XDATA, add(CFA_XSP16, literal(-21)))
        CFI (cfiCond272) V0 load(1, XDATA, add(CFA_XSP16, literal(-20)))
        CFI (cfiCond272) V1 load(1, XDATA, add(CFA_XSP16, literal(-19)))
        CFI (cfiCond272) V2 load(1, XDATA, add(CFA_XSP16, literal(-18)))
        CFI (cfiCond272) V3 load(1, XDATA, add(CFA_XSP16, literal(-17)))
        CFI (cfiCond272) V4 load(1, XDATA, add(CFA_XSP16, literal(-16)))
        CFI (cfiCond272) V5 load(1, XDATA, add(CFA_XSP16, literal(-15)))
        CFI (cfiCond272) V6 load(1, XDATA, add(CFA_XSP16, literal(-14)))
        CFI (cfiCond272) V7 load(1, XDATA, add(CFA_XSP16, literal(-13)))
        CFI (cfiCond272) V8 load(1, XDATA, add(CFA_XSP16, literal(-12)))
        CFI (cfiCond272) V9 load(1, XDATA, add(CFA_XSP16, literal(-11)))
        CFI (cfiCond272) V10 load(1, XDATA, add(CFA_XSP16, literal(-10)))
        CFI (cfiCond272) V11 load(1, XDATA, add(CFA_XSP16, literal(-9)))
        CFI (cfiCond272) V12 load(1, XDATA, add(CFA_XSP16, literal(-8)))
        CFI (cfiCond272) V13 load(1, XDATA, add(CFA_XSP16, literal(-7)))
        CFI (cfiCond272) R7 load(1, XDATA, add(CFA_XSP16, literal(-6)))
        CFI (cfiCond272) ?RET_LOW load(1, XDATA, add(CFA_XSP16, literal(-5)))
        CFI (cfiCond272) ?RET_HIGH load(1, XDATA, add(CFA_XSP16, literal(-4)))
        CFI (cfiCond272) ?BRET_EXT load(1, XDATA, add(CFA_XSP16, literal(-3)))
        CFI (cfiCond272) DPL0 load(1, XDATA, add(CFA_XSP16, literal(-2)))
        CFI (cfiCond272) DPH0 load(1, XDATA, add(CFA_XSP16, literal(-1)))
        CFI (cfiCond272) CFA_SP SP+-1
        CFI (cfiCond272) CFA_XSP16 add(XSP16, 36)
        CFI Block cfiCond273 Using cfiCommon0
        CFI (cfiCond273) NoFunction
        CFI (cfiCond273) Conditional ??CrossCallReturnLabel_127
        CFI (cfiCond273) R6 load(1, XDATA, add(CFA_XSP16, literal(-22)))
        CFI (cfiCond273) VB load(1, XDATA, add(CFA_XSP16, literal(-21)))
        CFI (cfiCond273) V0 load(1, XDATA, add(CFA_XSP16, literal(-20)))
        CFI (cfiCond273) V1 load(1, XDATA, add(CFA_XSP16, literal(-19)))
        CFI (cfiCond273) V2 load(1, XDATA, add(CFA_XSP16, literal(-18)))
        CFI (cfiCond273) V3 load(1, XDATA, add(CFA_XSP16, literal(-17)))
        CFI (cfiCond273) V4 load(1, XDATA, add(CFA_XSP16, literal(-16)))
        CFI (cfiCond273) V5 load(1, XDATA, add(CFA_XSP16, literal(-15)))
        CFI (cfiCond273) V6 load(1, XDATA, add(CFA_XSP16, literal(-14)))
        CFI (cfiCond273) V7 load(1, XDATA, add(CFA_XSP16, literal(-13)))
        CFI (cfiCond273) V8 load(1, XDATA, add(CFA_XSP16, literal(-12)))
        CFI (cfiCond273) V9 load(1, XDATA, add(CFA_XSP16, literal(-11)))
        CFI (cfiCond273) V10 load(1, XDATA, add(CFA_XSP16, literal(-10)))
        CFI (cfiCond273) V11 load(1, XDATA, add(CFA_XSP16, literal(-9)))
        CFI (cfiCond273) V12 load(1, XDATA, add(CFA_XSP16, literal(-8)))
        CFI (cfiCond273) V13 load(1, XDATA, add(CFA_XSP16, literal(-7)))
        CFI (cfiCond273) R7 load(1, XDATA, add(CFA_XSP16, literal(-6)))
        CFI (cfiCond273) ?RET_LOW load(1, XDATA, add(CFA_XSP16, literal(-5)))
        CFI (cfiCond273) ?RET_HIGH load(1, XDATA, add(CFA_XSP16, literal(-4)))
        CFI (cfiCond273) ?BRET_EXT load(1, XDATA, add(CFA_XSP16, literal(-3)))
        CFI (cfiCond273) DPL0 load(1, XDATA, add(CFA_XSP16, literal(-2)))
        CFI (cfiCond273) DPH0 load(1, XDATA, add(CFA_XSP16, literal(-1)))
        CFI (cfiCond273) CFA_SP SP+0
        CFI (cfiCond273) CFA_XSP16 add(XSP16, 36)
        CFI Block cfiCond274 Using cfiCommon0
        CFI (cfiCond274) NoFunction
        CFI (cfiCond274) Conditional ??CrossCallReturnLabel_128
        CFI (cfiCond274) R6 load(1, XDATA, add(CFA_XSP16, literal(-22)))
        CFI (cfiCond274) VB load(1, XDATA, add(CFA_XSP16, literal(-21)))
        CFI (cfiCond274) V0 load(1, XDATA, add(CFA_XSP16, literal(-20)))
        CFI (cfiCond274) V1 load(1, XDATA, add(CFA_XSP16, literal(-19)))
        CFI (cfiCond274) V2 load(1, XDATA, add(CFA_XSP16, literal(-18)))
        CFI (cfiCond274) V3 load(1, XDATA, add(CFA_XSP16, literal(-17)))
        CFI (cfiCond274) V4 load(1, XDATA, add(CFA_XSP16, literal(-16)))
        CFI (cfiCond274) V5 load(1, XDATA, add(CFA_XSP16, literal(-15)))
        CFI (cfiCond274) V6 load(1, XDATA, add(CFA_XSP16, literal(-14)))
        CFI (cfiCond274) V7 load(1, XDATA, add(CFA_XSP16, literal(-13)))
        CFI (cfiCond274) V8 load(1, XDATA, add(CFA_XSP16, literal(-12)))
        CFI (cfiCond274) V9 load(1, XDATA, add(CFA_XSP16, literal(-11)))
        CFI (cfiCond274) V10 load(1, XDATA, add(CFA_XSP16, literal(-10)))
        CFI (cfiCond274) V11 load(1, XDATA, add(CFA_XSP16, literal(-9)))
        CFI (cfiCond274) V12 load(1, XDATA, add(CFA_XSP16, literal(-8)))
        CFI (cfiCond274) V13 load(1, XDATA, add(CFA_XSP16, literal(-7)))
        CFI (cfiCond274) R7 load(1, XDATA, add(CFA_XSP16, literal(-6)))
        CFI (cfiCond274) ?RET_LOW load(1, XDATA, add(CFA_XSP16, literal(-5)))
        CFI (cfiCond274) ?RET_HIGH load(1, XDATA, add(CFA_XSP16, literal(-4)))
        CFI (cfiCond274) ?BRET_EXT load(1, XDATA, add(CFA_XSP16, literal(-3)))
        CFI (cfiCond274) DPL0 load(1, XDATA, add(CFA_XSP16, literal(-2)))
        CFI (cfiCond274) DPH0 load(1, XDATA, add(CFA_XSP16, literal(-1)))
        CFI (cfiCond274) CFA_SP SP+0
        CFI (cfiCond274) CFA_XSP16 add(XSP16, 36)
        CFI Block cfiCond275 Using cfiCommon0
        CFI (cfiCond275) NoFunction
        CFI (cfiCond275) Conditional ??CrossCallReturnLabel_129
        CFI (cfiCond275) R6 load(1, XDATA, add(CFA_XSP16, literal(-22)))
        CFI (cfiCond275) VB load(1, XDATA, add(CFA_XSP16, literal(-21)))
        CFI (cfiCond275) V0 load(1, XDATA, add(CFA_XSP16, literal(-20)))
        CFI (cfiCond275) V1 load(1, XDATA, add(CFA_XSP16, literal(-19)))
        CFI (cfiCond275) V2 load(1, XDATA, add(CFA_XSP16, literal(-18)))
        CFI (cfiCond275) V3 load(1, XDATA, add(CFA_XSP16, literal(-17)))
        CFI (cfiCond275) V4 load(1, XDATA, add(CFA_XSP16, literal(-16)))
        CFI (cfiCond275) V5 load(1, XDATA, add(CFA_XSP16, literal(-15)))
        CFI (cfiCond275) V6 load(1, XDATA, add(CFA_XSP16, literal(-14)))
        CFI (cfiCond275) V7 load(1, XDATA, add(CFA_XSP16, literal(-13)))
        CFI (cfiCond275) V8 load(1, XDATA, add(CFA_XSP16, literal(-12)))
        CFI (cfiCond275) V9 load(1, XDATA, add(CFA_XSP16, literal(-11)))
        CFI (cfiCond275) V10 load(1, XDATA, add(CFA_XSP16, literal(-10)))
        CFI (cfiCond275) V11 load(1, XDATA, add(CFA_XSP16, literal(-9)))
        CFI (cfiCond275) V12 load(1, XDATA, add(CFA_XSP16, literal(-8)))
        CFI (cfiCond275) V13 load(1, XDATA, add(CFA_XSP16, literal(-7)))
        CFI (cfiCond275) R7 load(1, XDATA, add(CFA_XSP16, literal(-6)))
        CFI (cfiCond275) ?RET_LOW load(1, XDATA, add(CFA_XSP16, literal(-5)))
        CFI (cfiCond275) ?RET_HIGH load(1, XDATA, add(CFA_XSP16, literal(-4)))
        CFI (cfiCond275) ?BRET_EXT load(1, XDATA, add(CFA_XSP16, literal(-3)))
        CFI (cfiCond275) DPL0 load(1, XDATA, add(CFA_XSP16, literal(-2)))
        CFI (cfiCond275) DPH0 load(1, XDATA, add(CFA_XSP16, literal(-1)))
        CFI (cfiCond275) CFA_SP SP+0
        CFI (cfiCond275) CFA_XSP16 add(XSP16, 36)
        CFI Block cfiCond276 Using cfiCommon0
        CFI (cfiCond276) NoFunction
        CFI (cfiCond276) Conditional ??CrossCallReturnLabel_130
        CFI (cfiCond276) R6 load(1, XDATA, add(CFA_XSP16, literal(-11)))
        CFI (cfiCond276) VB load(1, XDATA, add(CFA_XSP16, literal(-10)))
        CFI (cfiCond276) V0 load(1, XDATA, add(CFA_XSP16, literal(-9)))
        CFI (cfiCond276) V1 load(1, XDATA, add(CFA_XSP16, literal(-8)))
        CFI (cfiCond276) V2 load(1, XDATA, add(CFA_XSP16, literal(-7)))
        CFI (cfiCond276) R7 load(1, XDATA, add(CFA_XSP16, literal(-6)))
        CFI (cfiCond276) ?RET_LOW load(1, XDATA, add(CFA_XSP16, literal(-5)))
        CFI (cfiCond276) ?RET_HIGH load(1, XDATA, add(CFA_XSP16, literal(-4)))
        CFI (cfiCond276) ?BRET_EXT load(1, XDATA, add(CFA_XSP16, literal(-3)))
        CFI (cfiCond276) DPL0 load(1, XDATA, add(CFA_XSP16, literal(-2)))
        CFI (cfiCond276) DPH0 load(1, XDATA, add(CFA_XSP16, literal(-1)))
        CFI (cfiCond276) CFA_SP SP+0
        CFI (cfiCond276) CFA_XSP16 add(XSP16, 17)
        CFI Block cfiCond277 Using cfiCommon0
        CFI (cfiCond277) NoFunction
        CFI (cfiCond277) Conditional ??CrossCallReturnLabel_131
        CFI (cfiCond277) R6 load(1, XDATA, add(CFA_XSP16, literal(-22)))
        CFI (cfiCond277) VB load(1, XDATA, add(CFA_XSP16, literal(-21)))
        CFI (cfiCond277) V0 load(1, XDATA, add(CFA_XSP16, literal(-20)))
        CFI (cfiCond277) V1 load(1, XDATA, add(CFA_XSP16, literal(-19)))
        CFI (cfiCond277) V2 load(1, XDATA, add(CFA_XSP16, literal(-18)))
        CFI (cfiCond277) V3 load(1, XDATA, add(CFA_XSP16, literal(-17)))
        CFI (cfiCond277) V4 load(1, XDATA, add(CFA_XSP16, literal(-16)))
        CFI (cfiCond277) V5 load(1, XDATA, add(CFA_XSP16, literal(-15)))
        CFI (cfiCond277) V6 load(1, XDATA, add(CFA_XSP16, literal(-14)))
        CFI (cfiCond277) V7 load(1, XDATA, add(CFA_XSP16, literal(-13)))
        CFI (cfiCond277) V8 load(1, XDATA, add(CFA_XSP16, literal(-12)))
        CFI (cfiCond277) V9 load(1, XDATA, add(CFA_XSP16, literal(-11)))
        CFI (cfiCond277) V10 load(1, XDATA, add(CFA_XSP16, literal(-10)))
        CFI (cfiCond277) V11 load(1, XDATA, add(CFA_XSP16, literal(-9)))
        CFI (cfiCond277) V12 load(1, XDATA, add(CFA_XSP16, literal(-8)))
        CFI (cfiCond277) V13 load(1, XDATA, add(CFA_XSP16, literal(-7)))
        CFI (cfiCond277) R7 load(1, XDATA, add(CFA_XSP16, literal(-6)))
        CFI (cfiCond277) ?RET_LOW load(1, XDATA, add(CFA_XSP16, literal(-5)))
        CFI (cfiCond277) ?RET_HIGH load(1, XDATA, add(CFA_XSP16, literal(-4)))
        CFI (cfiCond277) ?BRET_EXT load(1, XDATA, add(CFA_XSP16, literal(-3)))
        CFI (cfiCond277) DPL0 load(1, XDATA, add(CFA_XSP16, literal(-2)))
        CFI (cfiCond277) DPH0 load(1, XDATA, add(CFA_XSP16, literal(-1)))
        CFI (cfiCond277) CFA_SP SP+0
        CFI (cfiCond277) CFA_XSP16 add(XSP16, 36)
        CFI Block cfiCond278 Using cfiCommon0
        CFI (cfiCond278) NoFunction
        CFI (cfiCond278) Conditional ??CrossCallReturnLabel_132
        CFI (cfiCond278) R6 load(1, XDATA, add(CFA_XSP16, literal(-11)))
        CFI (cfiCond278) VB load(1, XDATA, add(CFA_XSP16, literal(-10)))
        CFI (cfiCond278) V0 load(1, XDATA, add(CFA_XSP16, literal(-9)))
        CFI (cfiCond278) V1 load(1, XDATA, add(CFA_XSP16, literal(-8)))
        CFI (cfiCond278) V2 load(1, XDATA, add(CFA_XSP16, literal(-7)))
        CFI (cfiCond278) R7 load(1, XDATA, add(CFA_XSP16, literal(-6)))
        CFI (cfiCond278) ?RET_LOW load(1, XDATA, add(CFA_XSP16, literal(-5)))
        CFI (cfiCond278) ?RET_HIGH load(1, XDATA, add(CFA_XSP16, literal(-4)))
        CFI (cfiCond278) ?BRET_EXT load(1, XDATA, add(CFA_XSP16, literal(-3)))
        CFI (cfiCond278) DPL0 load(1, XDATA, add(CFA_XSP16, literal(-2)))
        CFI (cfiCond278) DPH0 load(1, XDATA, add(CFA_XSP16, literal(-1)))
        CFI (cfiCond278) CFA_SP SP+0
        CFI (cfiCond278) CFA_XSP16 add(XSP16, 19)
        CFI Block cfiPicker279 Using cfiCommon1
        CFI (cfiPicker279) NoFunction
        CFI (cfiPicker279) Picker
        LCALL   ?Subroutine37 & 0xFFFF
??CrossCallReturnLabel_134:
        RET
        CFI EndBlock cfiCond270
        CFI EndBlock cfiCond271
        CFI EndBlock cfiCond272
        CFI EndBlock cfiCond273
        CFI EndBlock cfiCond274
        CFI EndBlock cfiCond275
        CFI EndBlock cfiCond276
        CFI EndBlock cfiCond277
        CFI EndBlock cfiCond278
        CFI EndBlock cfiPicker279

        RSEG BANKED_CODE:CODE:NOROOT(0)
?Subroutine37:
        CFI Block cfiCond280 Using cfiCommon0
        CFI NoFunction
        CFI Conditional ??CrossCallReturnLabel_133, ??CrossCallReturnLabel_81
        CFI R6 load(1, XDATA, add(CFA_XSP16, literal(-9)))
        CFI VB load(1, XDATA, add(CFA_XSP16, literal(-8)))
        CFI V0 load(1, XDATA, add(CFA_XSP16, literal(-7)))
        CFI R7 load(1, XDATA, add(CFA_XSP16, literal(-6)))
        CFI ?RET_LOW load(1, XDATA, add(CFA_XSP16, literal(-5)))
        CFI ?RET_HIGH load(1, XDATA, add(CFA_XSP16, literal(-4)))
        CFI ?BRET_EXT load(1, XDATA, add(CFA_XSP16, literal(-3)))
        CFI DPL0 load(1, XDATA, add(CFA_XSP16, literal(-2)))
        CFI DPH0 load(1, XDATA, add(CFA_XSP16, literal(-1)))
        CFI CFA_SP SP+0
        CFI CFA_XSP16 add(XSP16, 9)
        CFI Block cfiCond281 Using cfiCommon0
        CFI (cfiCond281) NoFunction
        CFI (cfiCond281) Conditional ??CrossCallReturnLabel_133, ??CrossCallReturnLabel_82
        CFI (cfiCond281) R6 load(1, XDATA, add(CFA_XSP16, literal(-9)))
        CFI (cfiCond281) VB load(1, XDATA, add(CFA_XSP16, literal(-8)))
        CFI (cfiCond281) V0 load(1, XDATA, add(CFA_XSP16, literal(-7)))
        CFI (cfiCond281) R7 load(1, XDATA, add(CFA_XSP16, literal(-6)))
        CFI (cfiCond281) ?RET_LOW load(1, XDATA, add(CFA_XSP16, literal(-5)))
        CFI (cfiCond281) ?RET_HIGH load(1, XDATA, add(CFA_XSP16, literal(-4)))
        CFI (cfiCond281) ?BRET_EXT load(1, XDATA, add(CFA_XSP16, literal(-3)))
        CFI (cfiCond281) DPL0 load(1, XDATA, add(CFA_XSP16, literal(-2)))
        CFI (cfiCond281) DPH0 load(1, XDATA, add(CFA_XSP16, literal(-1)))
        CFI (cfiCond281) CFA_SP SP+0
        CFI (cfiCond281) CFA_XSP16 add(XSP16, 9)
        CFI Block cfiCond282 Using cfiCommon0
        CFI (cfiCond282) NoFunction
        CFI (cfiCond282) Conditional ??CrossCallReturnLabel_133, ??CrossCallReturnLabel_79
        CFI (cfiCond282) R6 load(1, XDATA, add(CFA_XSP16, literal(-11)))
        CFI (cfiCond282) VB load(1, XDATA, add(CFA_XSP16, literal(-10)))
        CFI (cfiCond282) V0 load(1, XDATA, add(CFA_XSP16, literal(-9)))
        CFI (cfiCond282) V1 load(1, XDATA, add(CFA_XSP16, literal(-8)))
        CFI (cfiCond282) V2 load(1, XDATA, add(CFA_XSP16, literal(-7)))
        CFI (cfiCond282) R7 load(1, XDATA, add(CFA_XSP16, literal(-6)))
        CFI (cfiCond282) ?RET_LOW load(1, XDATA, add(CFA_XSP16, literal(-5)))
        CFI (cfiCond282) ?RET_HIGH load(1, XDATA, add(CFA_XSP16, literal(-4)))
        CFI (cfiCond282) ?BRET_EXT load(1, XDATA, add(CFA_XSP16, literal(-3)))
        CFI (cfiCond282) DPL0 load(1, XDATA, add(CFA_XSP16, literal(-2)))
        CFI (cfiCond282) DPH0 load(1, XDATA, add(CFA_XSP16, literal(-1)))
        CFI (cfiCond282) CFA_SP SP+0
        CFI (cfiCond282) CFA_XSP16 add(XSP16, 12)
        CFI Block cfiCond283 Using cfiCommon0
        CFI (cfiCond283) NoFunction
        CFI (cfiCond283) Conditional ??CrossCallReturnLabel_133, ??CrossCallReturnLabel_80
        CFI (cfiCond283) R6 load(1, XDATA, add(CFA_XSP16, literal(-11)))
        CFI (cfiCond283) VB load(1, XDATA, add(CFA_XSP16, literal(-10)))
        CFI (cfiCond283) V0 load(1, XDATA, add(CFA_XSP16, literal(-9)))
        CFI (cfiCond283) V1 load(1, XDATA, add(CFA_XSP16, literal(-8)))
        CFI (cfiCond283) V2 load(1, XDATA, add(CFA_XSP16, literal(-7)))
        CFI (cfiCond283) R7 load(1, XDATA, add(CFA_XSP16, literal(-6)))
        CFI (cfiCond283) ?RET_LOW load(1, XDATA, add(CFA_XSP16, literal(-5)))
        CFI (cfiCond283) ?RET_HIGH load(1, XDATA, add(CFA_XSP16, literal(-4)))
        CFI (cfiCond283) ?BRET_EXT load(1, XDATA, add(CFA_XSP16, literal(-3)))
        CFI (cfiCond283) DPL0 load(1, XDATA, add(CFA_XSP16, literal(-2)))
        CFI (cfiCond283) DPH0 load(1, XDATA, add(CFA_XSP16, literal(-1)))
        CFI (cfiCond283) CFA_SP SP+0
        CFI (cfiCond283) CFA_XSP16 add(XSP16, 21)
        CFI Block cfiCond284 Using cfiCommon0
        CFI (cfiCond284) NoFunction
        CFI (cfiCond284) Conditional ??CrossCallReturnLabel_134, ??CrossCallReturnLabel_131
        CFI (cfiCond284) R6 load(1, XDATA, add(CFA_XSP16, literal(-22)))
        CFI (cfiCond284) VB load(1, XDATA, add(CFA_XSP16, literal(-21)))
        CFI (cfiCond284) V0 load(1, XDATA, add(CFA_XSP16, literal(-20)))
        CFI (cfiCond284) V1 load(1, XDATA, add(CFA_XSP16, literal(-19)))
        CFI (cfiCond284) V2 load(1, XDATA, add(CFA_XSP16, literal(-18)))
        CFI (cfiCond284) V3 load(1, XDATA, add(CFA_XSP16, literal(-17)))
        CFI (cfiCond284) V4 load(1, XDATA, add(CFA_XSP16, literal(-16)))
        CFI (cfiCond284) V5 load(1, XDATA, add(CFA_XSP16, literal(-15)))
        CFI (cfiCond284) V6 load(1, XDATA, add(CFA_XSP16, literal(-14)))
        CFI (cfiCond284) V7 load(1, XDATA, add(CFA_XSP16, literal(-13)))
        CFI (cfiCond284) V8 load(1, XDATA, add(CFA_XSP16, literal(-12)))
        CFI (cfiCond284) V9 load(1, XDATA, add(CFA_XSP16, literal(-11)))
        CFI (cfiCond284) V10 load(1, XDATA, add(CFA_XSP16, literal(-10)))
        CFI (cfiCond284) V11 load(1, XDATA, add(CFA_XSP16, literal(-9)))
        CFI (cfiCond284) V12 load(1, XDATA, add(CFA_XSP16, literal(-8)))
        CFI (cfiCond284) V13 load(1, XDATA, add(CFA_XSP16, literal(-7)))
        CFI (cfiCond284) R7 load(1, XDATA, add(CFA_XSP16, literal(-6)))
        CFI (cfiCond284) ?RET_LOW load(1, XDATA, add(CFA_XSP16, literal(-5)))
        CFI (cfiCond284) ?RET_HIGH load(1, XDATA, add(CFA_XSP16, literal(-4)))
        CFI (cfiCond284) ?BRET_EXT load(1, XDATA, add(CFA_XSP16, literal(-3)))
        CFI (cfiCond284) DPL0 load(1, XDATA, add(CFA_XSP16, literal(-2)))
        CFI (cfiCond284) DPH0 load(1, XDATA, add(CFA_XSP16, literal(-1)))
        CFI (cfiCond284) CFA_SP SP+0
        CFI (cfiCond284) CFA_XSP16 add(XSP16, 36)
        CFI Block cfiCond285 Using cfiCommon0
        CFI (cfiCond285) NoFunction
        CFI (cfiCond285) Conditional ??CrossCallReturnLabel_134, ??CrossCallReturnLabel_132
        CFI (cfiCond285) R6 load(1, XDATA, add(CFA_XSP16, literal(-11)))
        CFI (cfiCond285) VB load(1, XDATA, add(CFA_XSP16, literal(-10)))
        CFI (cfiCond285) V0 load(1, XDATA, add(CFA_XSP16, literal(-9)))
        CFI (cfiCond285) V1 load(1, XDATA, add(CFA_XSP16, literal(-8)))
        CFI (cfiCond285) V2 load(1, XDATA, add(CFA_XSP16, literal(-7)))
        CFI (cfiCond285) R7 load(1, XDATA, add(CFA_XSP16, literal(-6)))
        CFI (cfiCond285) ?RET_LOW load(1, XDATA, add(CFA_XSP16, literal(-5)))
        CFI (cfiCond285) ?RET_HIGH load(1, XDATA, add(CFA_XSP16, literal(-4)))
        CFI (cfiCond285) ?BRET_EXT load(1, XDATA, add(CFA_XSP16, literal(-3)))
        CFI (cfiCond285) DPL0 load(1, XDATA, add(CFA_XSP16, literal(-2)))
        CFI (cfiCond285) DPH0 load(1, XDATA, add(CFA_XSP16, literal(-1)))
        CFI (cfiCond285) CFA_SP SP+0
        CFI (cfiCond285) CFA_XSP16 add(XSP16, 19)
        CFI Block cfiCond286 Using cfiCommon0
        CFI (cfiCond286) NoFunction
        CFI (cfiCond286) Conditional ??CrossCallReturnLabel_134, ??CrossCallReturnLabel_124
        CFI (cfiCond286) R6 load(1, XDATA, add(CFA_XSP16, literal(-22)))
        CFI (cfiCond286) VB load(1, XDATA, add(CFA_XSP16, literal(-21)))
        CFI (cfiCond286) V0 load(1, XDATA, add(CFA_XSP16, literal(-20)))
        CFI (cfiCond286) V1 load(1, XDATA, add(CFA_XSP16, literal(-19)))
        CFI (cfiCond286) V2 load(1, XDATA, add(CFA_XSP16, literal(-18)))
        CFI (cfiCond286) V3 load(1, XDATA, add(CFA_XSP16, literal(-17)))
        CFI (cfiCond286) V4 load(1, XDATA, add(CFA_XSP16, literal(-16)))
        CFI (cfiCond286) V5 load(1, XDATA, add(CFA_XSP16, literal(-15)))
        CFI (cfiCond286) V6 load(1, XDATA, add(CFA_XSP16, literal(-14)))
        CFI (cfiCond286) V7 load(1, XDATA, add(CFA_XSP16, literal(-13)))
        CFI (cfiCond286) V8 load(1, XDATA, add(CFA_XSP16, literal(-12)))
        CFI (cfiCond286) V9 load(1, XDATA, add(CFA_XSP16, literal(-11)))
        CFI (cfiCond286) V10 load(1, XDATA, add(CFA_XSP16, literal(-10)))
        CFI (cfiCond286) V11 load(1, XDATA, add(CFA_XSP16, literal(-9)))
        CFI (cfiCond286) V12 load(1, XDATA, add(CFA_XSP16, literal(-8)))
        CFI (cfiCond286) V13 load(1, XDATA, add(CFA_XSP16, literal(-7)))
        CFI (cfiCond286) R7 load(1, XDATA, add(CFA_XSP16, literal(-6)))
        CFI (cfiCond286) ?RET_LOW load(1, XDATA, add(CFA_XSP16, literal(-5)))
        CFI (cfiCond286) ?RET_HIGH load(1, XDATA, add(CFA_XSP16, literal(-4)))
        CFI (cfiCond286) ?BRET_EXT load(1, XDATA, add(CFA_XSP16, literal(-3)))
        CFI (cfiCond286) DPL0 load(1, XDATA, add(CFA_XSP16, literal(-2)))
        CFI (cfiCond286) DPH0 load(1, XDATA, add(CFA_XSP16, literal(-1)))
        CFI (cfiCond286) CFA_SP SP+0
        CFI (cfiCond286) CFA_XSP16 add(XSP16, 36)
        CFI Block cfiCond287 Using cfiCommon0
        CFI (cfiCond287) NoFunction
        CFI (cfiCond287) Conditional ??CrossCallReturnLabel_134, ??CrossCallReturnLabel_125
        CFI (cfiCond287) R6 load(1, XDATA, add(CFA_XSP16, literal(-22)))
        CFI (cfiCond287) VB load(1, XDATA, add(CFA_XSP16, literal(-21)))
        CFI (cfiCond287) V0 load(1, XDATA, add(CFA_XSP16, literal(-20)))
        CFI (cfiCond287) V1 load(1, XDATA, add(CFA_XSP16, literal(-19)))
        CFI (cfiCond287) V2 load(1, XDATA, add(CFA_XSP16, literal(-18)))
        CFI (cfiCond287) V3 load(1, XDATA, add(CFA_XSP16, literal(-17)))
        CFI (cfiCond287) V4 load(1, XDATA, add(CFA_XSP16, literal(-16)))
        CFI (cfiCond287) V5 load(1, XDATA, add(CFA_XSP16, literal(-15)))
        CFI (cfiCond287) V6 load(1, XDATA, add(CFA_XSP16, literal(-14)))
        CFI (cfiCond287) V7 load(1, XDATA, add(CFA_XSP16, literal(-13)))
        CFI (cfiCond287) V8 load(1, XDATA, add(CFA_XSP16, literal(-12)))
        CFI (cfiCond287) V9 load(1, XDATA, add(CFA_XSP16, literal(-11)))
        CFI (cfiCond287) V10 load(1, XDATA, add(CFA_XSP16, literal(-10)))
        CFI (cfiCond287) V11 load(1, XDATA, add(CFA_XSP16, literal(-9)))
        CFI (cfiCond287) V12 load(1, XDATA, add(CFA_XSP16, literal(-8)))
        CFI (cfiCond287) V13 load(1, XDATA, add(CFA_XSP16, literal(-7)))
        CFI (cfiCond287) R7 load(1, XDATA, add(CFA_XSP16, literal(-6)))
        CFI (cfiCond287) ?RET_LOW load(1, XDATA, add(CFA_XSP16, literal(-5)))
        CFI (cfiCond287) ?RET_HIGH load(1, XDATA, add(CFA_XSP16, literal(-4)))
        CFI (cfiCond287) ?BRET_EXT load(1, XDATA, add(CFA_XSP16, literal(-3)))
        CFI (cfiCond287) DPL0 load(1, XDATA, add(CFA_XSP16, literal(-2)))
        CFI (cfiCond287) DPH0 load(1, XDATA, add(CFA_XSP16, literal(-1)))
        CFI (cfiCond287) CFA_SP SP+0
        CFI (cfiCond287) CFA_XSP16 add(XSP16, 36)
        CFI Block cfiCond288 Using cfiCommon0
        CFI (cfiCond288) NoFunction
        CFI (cfiCond288) Conditional ??CrossCallReturnLabel_134, ??CrossCallReturnLabel_126
        CFI (cfiCond288) R6 load(1, XDATA, add(CFA_XSP16, literal(-22)))
        CFI (cfiCond288) VB load(1, XDATA, add(CFA_XSP16, literal(-21)))
        CFI (cfiCond288) V0 load(1, XDATA, add(CFA_XSP16, literal(-20)))
        CFI (cfiCond288) V1 load(1, XDATA, add(CFA_XSP16, literal(-19)))
        CFI (cfiCond288) V2 load(1, XDATA, add(CFA_XSP16, literal(-18)))
        CFI (cfiCond288) V3 load(1, XDATA, add(CFA_XSP16, literal(-17)))
        CFI (cfiCond288) V4 load(1, XDATA, add(CFA_XSP16, literal(-16)))
        CFI (cfiCond288) V5 load(1, XDATA, add(CFA_XSP16, literal(-15)))
        CFI (cfiCond288) V6 load(1, XDATA, add(CFA_XSP16, literal(-14)))
        CFI (cfiCond288) V7 load(1, XDATA, add(CFA_XSP16, literal(-13)))
        CFI (cfiCond288) V8 load(1, XDATA, add(CFA_XSP16, literal(-12)))
        CFI (cfiCond288) V9 load(1, XDATA, add(CFA_XSP16, literal(-11)))
        CFI (cfiCond288) V10 load(1, XDATA, add(CFA_XSP16, literal(-10)))
        CFI (cfiCond288) V11 load(1, XDATA, add(CFA_XSP16, literal(-9)))
        CFI (cfiCond288) V12 load(1, XDATA, add(CFA_XSP16, literal(-8)))
        CFI (cfiCond288) V13 load(1, XDATA, add(CFA_XSP16, literal(-7)))
        CFI (cfiCond288) R7 load(1, XDATA, add(CFA_XSP16, literal(-6)))
        CFI (cfiCond288) ?RET_LOW load(1, XDATA, add(CFA_XSP16, literal(-5)))
        CFI (cfiCond288) ?RET_HIGH load(1, XDATA, add(CFA_XSP16, literal(-4)))
        CFI (cfiCond288) ?BRET_EXT load(1, XDATA, add(CFA_XSP16, literal(-3)))
        CFI (cfiCond288) DPL0 load(1, XDATA, add(CFA_XSP16, literal(-2)))
        CFI (cfiCond288) DPH0 load(1, XDATA, add(CFA_XSP16, literal(-1)))
        CFI (cfiCond288) CFA_SP SP+-1
        CFI (cfiCond288) CFA_XSP16 add(XSP16, 36)
        CFI Block cfiCond289 Using cfiCommon0
        CFI (cfiCond289) NoFunction
        CFI (cfiCond289) Conditional ??CrossCallReturnLabel_134, ??CrossCallReturnLabel_127
        CFI (cfiCond289) R6 load(1, XDATA, add(CFA_XSP16, literal(-22)))
        CFI (cfiCond289) VB load(1, XDATA, add(CFA_XSP16, literal(-21)))
        CFI (cfiCond289) V0 load(1, XDATA, add(CFA_XSP16, literal(-20)))
        CFI (cfiCond289) V1 load(1, XDATA, add(CFA_XSP16, literal(-19)))
        CFI (cfiCond289) V2 load(1, XDATA, add(CFA_XSP16, literal(-18)))
        CFI (cfiCond289) V3 load(1, XDATA, add(CFA_XSP16, literal(-17)))
        CFI (cfiCond289) V4 load(1, XDATA, add(CFA_XSP16, literal(-16)))
        CFI (cfiCond289) V5 load(1, XDATA, add(CFA_XSP16, literal(-15)))
        CFI (cfiCond289) V6 load(1, XDATA, add(CFA_XSP16, literal(-14)))
        CFI (cfiCond289) V7 load(1, XDATA, add(CFA_XSP16, literal(-13)))
        CFI (cfiCond289) V8 load(1, XDATA, add(CFA_XSP16, literal(-12)))
        CFI (cfiCond289) V9 load(1, XDATA, add(CFA_XSP16, literal(-11)))
        CFI (cfiCond289) V10 load(1, XDATA, add(CFA_XSP16, literal(-10)))
        CFI (cfiCond289) V11 load(1, XDATA, add(CFA_XSP16, literal(-9)))
        CFI (cfiCond289) V12 load(1, XDATA, add(CFA_XSP16, literal(-8)))
        CFI (cfiCond289) V13 load(1, XDATA, add(CFA_XSP16, literal(-7)))
        CFI (cfiCond289) R7 load(1, XDATA, add(CFA_XSP16, literal(-6)))
        CFI (cfiCond289) ?RET_LOW load(1, XDATA, add(CFA_XSP16, literal(-5)))
        CFI (cfiCond289) ?RET_HIGH load(1, XDATA, add(CFA_XSP16, literal(-4)))
        CFI (cfiCond289) ?BRET_EXT load(1, XDATA, add(CFA_XSP16, literal(-3)))
        CFI (cfiCond289) DPL0 load(1, XDATA, add(CFA_XSP16, literal(-2)))
        CFI (cfiCond289) DPH0 load(1, XDATA, add(CFA_XSP16, literal(-1)))
        CFI (cfiCond289) CFA_SP SP+0
        CFI (cfiCond289) CFA_XSP16 add(XSP16, 36)
        CFI Block cfiCond290 Using cfiCommon0
        CFI (cfiCond290) NoFunction
        CFI (cfiCond290) Conditional ??CrossCallReturnLabel_134, ??CrossCallReturnLabel_128
        CFI (cfiCond290) R6 load(1, XDATA, add(CFA_XSP16, literal(-22)))
        CFI (cfiCond290) VB load(1, XDATA, add(CFA_XSP16, literal(-21)))
        CFI (cfiCond290) V0 load(1, XDATA, add(CFA_XSP16, literal(-20)))
        CFI (cfiCond290) V1 load(1, XDATA, add(CFA_XSP16, literal(-19)))
        CFI (cfiCond290) V2 load(1, XDATA, add(CFA_XSP16, literal(-18)))
        CFI (cfiCond290) V3 load(1, XDATA, add(CFA_XSP16, literal(-17)))
        CFI (cfiCond290) V4 load(1, XDATA, add(CFA_XSP16, literal(-16)))
        CFI (cfiCond290) V5 load(1, XDATA, add(CFA_XSP16, literal(-15)))
        CFI (cfiCond290) V6 load(1, XDATA, add(CFA_XSP16, literal(-14)))
        CFI (cfiCond290) V7 load(1, XDATA, add(CFA_XSP16, literal(-13)))
        CFI (cfiCond290) V8 load(1, XDATA, add(CFA_XSP16, literal(-12)))
        CFI (cfiCond290) V9 load(1, XDATA, add(CFA_XSP16, literal(-11)))
        CFI (cfiCond290) V10 load(1, XDATA, add(CFA_XSP16, literal(-10)))
        CFI (cfiCond290) V11 load(1, XDATA, add(CFA_XSP16, literal(-9)))
        CFI (cfiCond290) V12 load(1, XDATA, add(CFA_XSP16, literal(-8)))
        CFI (cfiCond290) V13 load(1, XDATA, add(CFA_XSP16, literal(-7)))
        CFI (cfiCond290) R7 load(1, XDATA, add(CFA_XSP16, literal(-6)))
        CFI (cfiCond290) ?RET_LOW load(1, XDATA, add(CFA_XSP16, literal(-5)))
        CFI (cfiCond290) ?RET_HIGH load(1, XDATA, add(CFA_XSP16, literal(-4)))
        CFI (cfiCond290) ?BRET_EXT load(1, XDATA, add(CFA_XSP16, literal(-3)))
        CFI (cfiCond290) DPL0 load(1, XDATA, add(CFA_XSP16, literal(-2)))
        CFI (cfiCond290) DPH0 load(1, XDATA, add(CFA_XSP16, literal(-1)))
        CFI (cfiCond290) CFA_SP SP+0
        CFI (cfiCond290) CFA_XSP16 add(XSP16, 36)
        CFI Block cfiCond291 Using cfiCommon0
        CFI (cfiCond291) NoFunction
        CFI (cfiCond291) Conditional ??CrossCallReturnLabel_134, ??CrossCallReturnLabel_129
        CFI (cfiCond291) R6 load(1, XDATA, add(CFA_XSP16, literal(-22)))
        CFI (cfiCond291) VB load(1, XDATA, add(CFA_XSP16, literal(-21)))
        CFI (cfiCond291) V0 load(1, XDATA, add(CFA_XSP16, literal(-20)))
        CFI (cfiCond291) V1 load(1, XDATA, add(CFA_XSP16, literal(-19)))
        CFI (cfiCond291) V2 load(1, XDATA, add(CFA_XSP16, literal(-18)))
        CFI (cfiCond291) V3 load(1, XDATA, add(CFA_XSP16, literal(-17)))
        CFI (cfiCond291) V4 load(1, XDATA, add(CFA_XSP16, literal(-16)))
        CFI (cfiCond291) V5 load(1, XDATA, add(CFA_XSP16, literal(-15)))
        CFI (cfiCond291) V6 load(1, XDATA, add(CFA_XSP16, literal(-14)))
        CFI (cfiCond291) V7 load(1, XDATA, add(CFA_XSP16, literal(-13)))
        CFI (cfiCond291) V8 load(1, XDATA, add(CFA_XSP16, literal(-12)))
        CFI (cfiCond291) V9 load(1, XDATA, add(CFA_XSP16, literal(-11)))
        CFI (cfiCond291) V10 load(1, XDATA, add(CFA_XSP16, literal(-10)))
        CFI (cfiCond291) V11 load(1, XDATA, add(CFA_XSP16, literal(-9)))
        CFI (cfiCond291) V12 load(1, XDATA, add(CFA_XSP16, literal(-8)))
        CFI (cfiCond291) V13 load(1, XDATA, add(CFA_XSP16, literal(-7)))
        CFI (cfiCond291) R7 load(1, XDATA, add(CFA_XSP16, literal(-6)))
        CFI (cfiCond291) ?RET_LOW load(1, XDATA, add(CFA_XSP16, literal(-5)))
        CFI (cfiCond291) ?RET_HIGH load(1, XDATA, add(CFA_XSP16, literal(-4)))
        CFI (cfiCond291) ?BRET_EXT load(1, XDATA, add(CFA_XSP16, literal(-3)))
        CFI (cfiCond291) DPL0 load(1, XDATA, add(CFA_XSP16, literal(-2)))
        CFI (cfiCond291) DPH0 load(1, XDATA, add(CFA_XSP16, literal(-1)))
        CFI (cfiCond291) CFA_SP SP+0
        CFI (cfiCond291) CFA_XSP16 add(XSP16, 36)
        CFI Block cfiCond292 Using cfiCommon0
        CFI (cfiCond292) NoFunction
        CFI (cfiCond292) Conditional ??CrossCallReturnLabel_134, ??CrossCallReturnLabel_130
        CFI (cfiCond292) R6 load(1, XDATA, add(CFA_XSP16, literal(-11)))
        CFI (cfiCond292) VB load(1, XDATA, add(CFA_XSP16, literal(-10)))
        CFI (cfiCond292) V0 load(1, XDATA, add(CFA_XSP16, literal(-9)))
        CFI (cfiCond292) V1 load(1, XDATA, add(CFA_XSP16, literal(-8)))
        CFI (cfiCond292) V2 load(1, XDATA, add(CFA_XSP16, literal(-7)))
        CFI (cfiCond292) R7 load(1, XDATA, add(CFA_XSP16, literal(-6)))
        CFI (cfiCond292) ?RET_LOW load(1, XDATA, add(CFA_XSP16, literal(-5)))
        CFI (cfiCond292) ?RET_HIGH load(1, XDATA, add(CFA_XSP16, literal(-4)))
        CFI (cfiCond292) ?BRET_EXT load(1, XDATA, add(CFA_XSP16, literal(-3)))
        CFI (cfiCond292) DPL0 load(1, XDATA, add(CFA_XSP16, literal(-2)))
        CFI (cfiCond292) DPH0 load(1, XDATA, add(CFA_XSP16, literal(-1)))
        CFI (cfiCond292) CFA_SP SP+0
        CFI (cfiCond292) CFA_XSP16 add(XSP16, 17)
        CFI Block cfiPicker293 Using cfiCommon1
        CFI (cfiPicker293) NoFunction
        CFI (cfiPicker293) Picker
        MOV     R0,A
        INC     DPTR
        MOVX    A,@DPTR
        LCALL   ??Subroutine52_0 & 0xFFFF
??CrossCallReturnLabel_137:
        RET
        CFI EndBlock cfiCond280
        CFI EndBlock cfiCond281
        CFI EndBlock cfiCond282
        CFI EndBlock cfiCond283
        CFI EndBlock cfiCond284
        CFI EndBlock cfiCond285
        CFI EndBlock cfiCond286
        CFI EndBlock cfiCond287
        CFI EndBlock cfiCond288
        CFI EndBlock cfiCond289
        CFI EndBlock cfiCond290
        CFI EndBlock cfiCond291
        CFI EndBlock cfiCond292
        CFI EndBlock cfiPicker293

        RSEG BANK_RELAYS:CODE:REORDER:NOROOT(0)
??MT_AfExec?relay:
        LCALL   ?BDISPATCH
        DATA
        DC24    MT_AfExec

        RSEG BANK_RELAYS:CODE:REORDER:NOROOT(0)
??MT_AfCommandProcessing?relay:
        LCALL   ?BDISPATCH
        DATA
        DC24    MT_AfCommandProcessing

        RSEG BANK_RELAYS:CODE:REORDER:NOROOT(0)
??MT_AfRegister?relay:
        LCALL   ?BDISPATCH
        DATA
        DC24    MT_AfRegister

        RSEG BANK_RELAYS:CODE:REORDER:NOROOT(0)
??MT_AfDataRequest?relay:
        LCALL   ?BDISPATCH
        DATA
        DC24    MT_AfDataRequest

        RSEG BANK_RELAYS:CODE:REORDER:NOROOT(0)
??MT_AfDataRequestSrcRtg?relay:
        LCALL   ?BDISPATCH
        DATA
        DC24    MT_AfDataRequestSrcRtg

        RSEG BANK_RELAYS:CODE:REORDER:NOROOT(0)
??MT_AfDataConfirm?relay:
        LCALL   ?BDISPATCH
        DATA
        DC24    MT_AfDataConfirm

        RSEG BANK_RELAYS:CODE:REORDER:NOROOT(0)
??MT_AfIncomingMsg?relay:
        LCALL   ?BDISPATCH
        DATA
        DC24    MT_AfIncomingMsg

        RSEG BANK_RELAYS:CODE:REORDER:NOROOT(0)
??MT_AfDataRetrieve?relay:
        LCALL   ?BDISPATCH
        DATA
        DC24    MT_AfDataRetrieve

        RSEG BANK_RELAYS:CODE:REORDER:NOROOT(0)
??MT_AfDataStore?relay:
        LCALL   ?BDISPATCH
        DATA
        DC24    MT_AfDataStore

        END
//  907 
//  908 /***************************************************************************************************
//  909 ***************************************************************************************************/
// 
// 3 086 bytes in segment BANKED_CODE
//    54 bytes in segment BANK_RELAYS
//     4 bytes in segment XDATA_Z
// 
// 3 140 bytes of CODE  memory
//     4 bytes of XDATA memory
//
//Errors: none
//Warnings: none
