///////////////////////////////////////////////////////////////////////////////
//                                                                            /
// IAR C/C++ Compiler V7.60.1.40026 for 8051            09/Apr/2014  09:37:35 /
// Copyright (C) 2004-2010 IAR Systems AB.                                    /
//                                                                            /
//    Core               =  plain                                             /
//    Code model         =  banked                                            /
//    Data model         =  large                                             /
//    Calling convention =  xdata reentrant                                   /
//    Constant location  =  data_rom                                          /
//    Dptr setup         =  1,16                                              /
//    Source file        =  D:\zigbee\projects\zstack-cc2530-coordinator\Comp /
//                          onents\osal\common\OSAL_Clock.c                   /
//    Command line       =  -f D:\zigbee\projects\zstack-cc2530-coordinator\P /
//                          rojects\zstack\Samples\GenericApp\CC2530DB\..\..\ /
//                          ..\Tools\CC2530DB\f8wCoord.cfg (-DCPU32MHZ        /
//                          -DROOT=__near_func -DMAC_CFG_APP_PENDING_QUEUE=TR /
//                          UE -DMAC_CFG_TX_DATA_MAX=5 -DMAC_CFG_TX_MAX=8     /
//                          -DMAC_CFG_RX_MAX=5 -DZDO_COORDINATOR -DRTR_NWK)   /
//                          -f D:\zigbee\projects\zstack-cc2530-coordinator\P /
//                          rojects\zstack\Samples\GenericApp\CC2530DB\..\..\ /
//                          ..\Tools\CC2530DB\f8wConfig.cfg (-DZIGBEEPRO      /
//                          -DSECURE=0 -DZG_SECURE_DYNAMIC=0 -DREFLECTOR      /
//                          -DDEFAULT_CHANLIST=0x00000800                     /
//                          -DZDAPP_CONFIG_PAN_ID=0x1111                      /
//                          -DNWK_START_DELAY=100 -DEXTENDED_JOINING_RANDOM_M /
//                          ASK=0x007F -DBEACON_REQUEST_DELAY=100             /
//                          -DBEACON_REQ_DELAY_MASK=0x00FF                    /
//                          -DLINK_STATUS_JITTER_MASK=0x007F                  /
//                          -DROUTE_EXPIRY_TIME=30 -DAPSC_ACK_WAIT_DURATION_P /
//                          OLLED=3000 -DNWK_INDIRECT_MSG_TIMEOUT=7           /
//                          -DMAX_RREQ_ENTRIES=8 -DAPSC_MAX_FRAME_RETRIES=3   /
//                          -DNWK_MAX_DATA_RETRIES=2                          /
//                          -DMAX_POLL_FAILURE_RETRIES=2 -DMAX_BCAST=9        /
//                          -DAPS_MAX_GROUPS=16 -DMAX_RTG_ENTRIES=40          /
//                          -DNWK_MAX_BINDING_ENTRIES=4                       /
//                          -DMAX_BINDING_CLUSTER_IDS=4                       /
//                          "-DDEFAULT_KEY={0x01, 0x03, 0x05, 0x07, 0x09,     /
//                          0x0B, 0x0D, 0x0F, 0x00, 0x02, 0x04, 0x06, 0x08,   /
//                          0x0A, 0x0C, 0x0D}" -DMAC_MAX_FRAME_SIZE=116       /
//                          -DZDNWKMGR_MIN_TRANSMISSIONS=20 "-DCONST=const    /
//                          __code" -DGENERIC=__generic                       /
//                          -DRFD_RCVC_ALWAYS_ON=FALSE -DPOLL_RATE=1000       /
//                          -DQUEUED_POLL_RATE=100 -DRESPONSE_POLL_RATE=100)  /
//                          -DREJOIN_POLL_RATE=440 D:\zigbee\projects\zstack- /
//                          cc2530-coordinator\Components\osal\common\OSAL_Cl /
//                          ock.c -D ZAPP_P1 -D MT_TASK -D MT_SYS_FUNC -D     /
//                          MT_ZDO_FUNC -D HAL_UART -D HAL_UART=TRUE -D       /
//                          HAL_DMA=TRUE -D HAL_LCD=FALSE -D HAL_KEY=FALSE    /
//                          -lC D:\zigbee\projects\zstack-cc2530-coordinator\ /
//                          Projects\zstack\Samples\GenericApp\CC2530DB\Coord /
//                          inatorEB\List\ -lA D:\zigbee\projects\zstack-cc25 /
//                          30-coordinator\Projects\zstack\Samples\GenericApp /
//                          \CC2530DB\CoordinatorEB\List\ --diag_suppress     /
//                          Pe001,Pa010 -o D:\zigbee\projects\zstack-cc2530-c /
//                          oordinator\Projects\zstack\Samples\GenericApp\CC2 /
//                          530DB\CoordinatorEB\Obj\ -e --require_prototypes  /
//                          --no_code_motion --debug --core=plain             /
//                          --dptr=16,1 --data_model=large                    /
//                          --code_model=banked --calling_convention=xdata_re /
//                          entrant --place_constants=data_rom                /
//                          --nr_virtual_regs 16 -I                           /
//                          D:\zigbee\projects\zstack-cc2530-coordinator\Proj /
//                          ects\zstack\Samples\GenericApp\CC2530DB\ -I       /
//                          D:\zigbee\projects\zstack-cc2530-coordinator\Proj /
//                          ects\zstack\Samples\GenericApp\CC2530DB\..\Source /
//                          \ -I D:\zigbee\projects\zstack-cc2530-coordinator /
//                          \Projects\zstack\Samples\GenericApp\CC2530DB\..\. /
//                          .\..\ZMain\TI2530DB\ -I                           /
//                          D:\zigbee\projects\zstack-cc2530-coordinator\Proj /
//                          ects\zstack\Samples\GenericApp\CC2530DB\..\..\..\ /
//                          ..\..\Components\hal\include\ -I                  /
//                          D:\zigbee\projects\zstack-cc2530-coordinator\Proj /
//                          ects\zstack\Samples\GenericApp\CC2530DB\..\..\..\ /
//                          ..\..\Components\hal\target\CC2530EB\ -I          /
//                          D:\zigbee\projects\zstack-cc2530-coordinator\Proj /
//                          ects\zstack\Samples\GenericApp\CC2530DB\..\..\..\ /
//                          ..\..\Components\mac\include\ -I                  /
//                          D:\zigbee\projects\zstack-cc2530-coordinator\Proj /
//                          ects\zstack\Samples\GenericApp\CC2530DB\..\..\..\ /
//                          ..\..\Components\mac\high_level\ -I               /
//                          D:\zigbee\projects\zstack-cc2530-coordinator\Proj /
//                          ects\zstack\Samples\GenericApp\CC2530DB\..\..\..\ /
//                          ..\..\Components\mac\low_level\srf04\ -I          /
//                          D:\zigbee\projects\zstack-cc2530-coordinator\Proj /
//                          ects\zstack\Samples\GenericApp\CC2530DB\..\..\..\ /
//                          ..\..\Components\mac\low_level\srf04\single_chip\ /
//                           -I D:\zigbee\projects\zstack-cc2530-coordinator\ /
//                          Projects\zstack\Samples\GenericApp\CC2530DB\..\.. /
//                          \..\..\..\Components\mt\ -I                       /
//                          D:\zigbee\projects\zstack-cc2530-coordinator\Proj /
//                          ects\zstack\Samples\GenericApp\CC2530DB\..\..\..\ /
//                          ..\..\Components\osal\include\ -I                 /
//                          D:\zigbee\projects\zstack-cc2530-coordinator\Proj /
//                          ects\zstack\Samples\GenericApp\CC2530DB\..\..\..\ /
//                          ..\..\Components\osal\mcu\ccsoc\ -I               /
//                          D:\zigbee\projects\zstack-cc2530-coordinator\Proj /
//                          ects\zstack\Samples\GenericApp\CC2530DB\..\..\..\ /
//                          ..\..\Components\services\saddr\ -I               /
//                          D:\zigbee\projects\zstack-cc2530-coordinator\Proj /
//                          ects\zstack\Samples\GenericApp\CC2530DB\..\..\..\ /
//                          ..\..\Components\services\sdata\ -I               /
//                          D:\zigbee\projects\zstack-cc2530-coordinator\Proj /
//                          ects\zstack\Samples\GenericApp\CC2530DB\..\..\..\ /
//                          ..\..\Components\stack\af\ -I                     /
//                          D:\zigbee\projects\zstack-cc2530-coordinator\Proj /
//                          ects\zstack\Samples\GenericApp\CC2530DB\..\..\..\ /
//                          ..\..\Components\stack\nwk\ -I                    /
//                          D:\zigbee\projects\zstack-cc2530-coordinator\Proj /
//                          ects\zstack\Samples\GenericApp\CC2530DB\..\..\..\ /
//                          ..\..\Components\stack\sapi\ -I                   /
//                          D:\zigbee\projects\zstack-cc2530-coordinator\Proj /
//                          ects\zstack\Samples\GenericApp\CC2530DB\..\..\..\ /
//                          ..\..\Components\stack\sec\ -I                    /
//                          D:\zigbee\projects\zstack-cc2530-coordinator\Proj /
//                          ects\zstack\Samples\GenericApp\CC2530DB\..\..\..\ /
//                          ..\..\Components\stack\sys\ -I                    /
//                          D:\zigbee\projects\zstack-cc2530-coordinator\Proj /
//                          ects\zstack\Samples\GenericApp\CC2530DB\..\..\..\ /
//                          ..\..\Components\stack\zdo\ -I                    /
//                          D:\zigbee\projects\zstack-cc2530-coordinator\Proj /
//                          ects\zstack\Samples\GenericApp\CC2530DB\..\..\..\ /
//                          ..\..\Components\zmac\ -I                         /
//                          D:\zigbee\projects\zstack-cc2530-coordinator\Proj /
//                          ects\zstack\Samples\GenericApp\CC2530DB\..\..\..\ /
//                          ..\..\Components\zmac\f8w\ -I "C:\Program Files   /
//                          (x86)\IAR Systems\Embedded Workbench              /
//                          5.4\8051\INC\" -I "C:\Program Files (x86)\IAR     /
//                          Systems\Embedded Workbench 5.4\8051\INC\CLIB\"    /
//                          -Ohz                                              /
//    List file          =  D:\zigbee\projects\zstack-cc2530-coordinator\Proj /
//                          ects\zstack\Samples\GenericApp\CC2530DB\Coordinat /
//                          orEB\List\OSAL_Clock.s51                          /
//                                                                            /
//                                                                            /
///////////////////////////////////////////////////////////////////////////////

        NAME OSAL_Clock

        RTMODEL "__calling_convention", "xdata_reentrant"
        RTMODEL "__code_model", "banked"
        RTMODEL "__core", "plain"
        RTMODEL "__data_model", "large"
        RTMODEL "__dptr_size", "16"
        RTMODEL "__extended_stack", "disabled"
        RTMODEL "__location_for_constants", "data"
        RTMODEL "__number_of_dptrs", "1"
        RTMODEL "__rt_version", "1"

        RSEG DOVERLAY:DATA:NOROOT(0)
        RSEG IOVERLAY:IDATA:NOROOT(0)
        RSEG ISTACK:IDATA:NOROOT(0)
        RSEG PSTACK:XDATA:NOROOT(0)
        RSEG XSTACK:XDATA:NOROOT(0)

        EXTERN ?BANKED_ENTER_XDATA
        EXTERN ?BANKED_LEAVE_XDATA
        EXTERN ?BDISPATCH
        EXTERN ?BRET
        EXTERN ?DEALLOC_XSTACK8
        EXTERN ?L_ADD
        EXTERN ?L_ADD_TO_X
        EXTERN ?L_EQ_X
        EXTERN ?L_MOV_TO_X
        EXTERN ?L_MOV_X
        EXTERN ?L_SHL
        EXTERN ?L_SUB_X
        EXTERN ?PUSH_XSTACK_I_TWO
        EXTERN ?UL_DIV_MOD
        EXTERN ?UL_SHR
        EXTERN ?US_DIV_MOD
        EXTERN ?V0
        EXTERN ?XSTACK_DISP0_8
        EXTERN __INIT_XDATA_Z

        FUNCTION ??monthLength?relay,0203H
        PUBLIC ??osalTimeUpdate?relay
        FUNCTION ??osalTimeUpdate?relay,0203H
        PUBLIC ??osal_ConvertUTCTime?relay
        FUNCTION ??osal_ConvertUTCTime?relay,0203H
        PUBLIC ??osal_getClock?relay
        FUNCTION ??osal_getClock?relay,0203H
        PUBLIC ??osal_setClock?relay
        FUNCTION ??osal_setClock?relay,0203H
        PUBLIC OSAL_timeSeconds
        PUBWEAK __Constant_15180
        PUBWEAK __Constant_3c
        PUBWEAK __Constant_e10
        FUNCTION monthLength,0203H
        ARGFRAME XSTACK, 24, STACK
        ARGFRAME IOVERLAY, 0, STATIC
        ARGFRAME DOVERLAY, 0, STATIC
        PUBLIC osalTimeUpdate
        FUNCTION osalTimeUpdate,021203H
        ARGFRAME XSTACK, 0, STACK
        LOCFRAME XSTACK, 18, STACK
        PUBLIC osal_ConvertUTCTime
        FUNCTION osal_ConvertUTCTime,021203H
        ARGFRAME XSTACK, 4, STACK
        LOCFRAME ISTACK, 1, STACK
        LOCFRAME XSTACK, 24, STACK
        PUBLIC osal_getClock
        FUNCTION osal_getClock,0203H
        ARGFRAME XSTACK, 0, STACK
        LOCFRAME XSTACK, 12, STACK
        PUBLIC osal_setClock
        FUNCTION osal_setClock,0203H
        ARGFRAME XSTACK, 0, STACK
        LOCFRAME XSTACK, 12, STACK
        
        CFI Names cfiNames0
        CFI StackFrame CFA_SP SP IDATA
        CFI StackFrame CFA_PSP16 PSP16 XDATA
        CFI StackFrame CFA_XSP16 XSP16 XDATA
        CFI StaticOverlayFrame CFA_IOVERLAY IOVERLAY
        CFI StaticOverlayFrame CFA_DOVERLAY DOVERLAY
        CFI Resource `PSW.CY`:1, `B.BR0`:1, `B.BR1`:1, `B.BR2`:1, `B.BR3`:1
        CFI Resource `B.BR4`:1, `B.BR5`:1, `B.BR6`:1, `B.BR7`:1, `VB.BR8`:1
        CFI Resource `VB.BR9`:1, `VB.BR10`:1, `VB.BR11`:1, `VB.BR12`:1
        CFI Resource `VB.BR13`:1, `VB.BR14`:1, `VB.BR15`:1, VB:8, B:8, A:8
        CFI Resource PSW:8, DPL0:8, DPH0:8, R0:8, R1:8, R2:8, R3:8, R4:8, R5:8
        CFI Resource R6:8, R7:8, V0:8, V1:8, V2:8, V3:8, V4:8, V5:8, V6:8, V7:8
        CFI Resource V8:8, V9:8, V10:8, V11:8, V12:8, V13:8, V14:8, V15:8, SP:8
        CFI Resource PSPH:8, PSPL:8, PSP16:16, XSPH:8, XSPL:8, XSP16:16
        CFI VirtualResource ?RET:24
        CFI Resource ?BRET_EXT:8
        CFI VirtualResource ?RET_HIGH:8, ?RET_LOW:8
        CFI ResourceParts PSP16 PSPH, PSPL
        CFI ResourceParts XSP16 XSPH, XSPL
        CFI ResourceParts ?RET ?BRET_EXT, ?RET_HIGH, ?RET_LOW
        CFI EndNames cfiNames0
        
        CFI Common cfiCommon0 Using cfiNames0
        CFI CodeAlign 1
        CFI DataAlign -1
        CFI ReturnAddress ?RET CODE
        CFI CFA_DOVERLAY Used
        CFI CFA_IOVERLAY Used
        CFI CFA_SP SP+-3
        CFI CFA_PSP16 PSP16+0
        CFI CFA_XSP16 XSP16+0
        CFI `PSW.CY` SameValue
        CFI `B.BR0` SameValue
        CFI `B.BR1` SameValue
        CFI `B.BR2` SameValue
        CFI `B.BR3` SameValue
        CFI `B.BR4` SameValue
        CFI `B.BR5` SameValue
        CFI `B.BR6` SameValue
        CFI `B.BR7` SameValue
        CFI `VB.BR8` SameValue
        CFI `VB.BR9` SameValue
        CFI `VB.BR10` SameValue
        CFI `VB.BR11` SameValue
        CFI `VB.BR12` SameValue
        CFI `VB.BR13` SameValue
        CFI `VB.BR14` SameValue
        CFI `VB.BR15` SameValue
        CFI VB SameValue
        CFI B Undefined
        CFI A Undefined
        CFI PSW SameValue
        CFI DPL0 SameValue
        CFI DPH0 SameValue
        CFI R0 Undefined
        CFI R1 Undefined
        CFI R2 Undefined
        CFI R3 Undefined
        CFI R4 Undefined
        CFI R5 Undefined
        CFI R6 SameValue
        CFI R7 SameValue
        CFI V0 SameValue
        CFI V1 SameValue
        CFI V2 SameValue
        CFI V3 SameValue
        CFI V4 SameValue
        CFI V5 SameValue
        CFI V6 SameValue
        CFI V7 SameValue
        CFI V8 SameValue
        CFI V9 SameValue
        CFI V10 SameValue
        CFI V11 SameValue
        CFI V12 SameValue
        CFI V13 SameValue
        CFI V14 SameValue
        CFI V15 SameValue
        CFI PSPH Undefined
        CFI PSPL Undefined
        CFI XSPH Undefined
        CFI XSPL Undefined
        CFI ?RET Concat
        CFI ?BRET_EXT Frame(CFA_SP, 3)
        CFI ?RET_HIGH Frame(CFA_SP, 2)
        CFI ?RET_LOW Frame(CFA_SP, 1)
        CFI EndCommon cfiCommon0
        
        
        CFI Common cfiCommon1 Using cfiNames0
        CFI CodeAlign 1
        CFI DataAlign -1
        CFI ReturnAddress ?RET CODE
        CFI CFA_DOVERLAY Used
        CFI CFA_IOVERLAY Used
        CFI CFA_SP SP+-2
        CFI CFA_PSP16 PSP16+0
        CFI CFA_XSP16 XSP16+0
        CFI `PSW.CY` SameValue
        CFI `B.BR0` SameValue
        CFI `B.BR1` SameValue
        CFI `B.BR2` SameValue
        CFI `B.BR3` SameValue
        CFI `B.BR4` SameValue
        CFI `B.BR5` SameValue
        CFI `B.BR6` SameValue
        CFI `B.BR7` SameValue
        CFI `VB.BR8` SameValue
        CFI `VB.BR9` SameValue
        CFI `VB.BR10` SameValue
        CFI `VB.BR11` SameValue
        CFI `VB.BR12` SameValue
        CFI `VB.BR13` SameValue
        CFI `VB.BR14` SameValue
        CFI `VB.BR15` SameValue
        CFI VB SameValue
        CFI B SameValue
        CFI A SameValue
        CFI PSW SameValue
        CFI DPL0 SameValue
        CFI DPH0 SameValue
        CFI R0 SameValue
        CFI R1 SameValue
        CFI R2 SameValue
        CFI R3 SameValue
        CFI R4 SameValue
        CFI R5 SameValue
        CFI R6 SameValue
        CFI R7 SameValue
        CFI V0 SameValue
        CFI V1 SameValue
        CFI V2 SameValue
        CFI V3 SameValue
        CFI V4 SameValue
        CFI V5 SameValue
        CFI V6 SameValue
        CFI V7 SameValue
        CFI V8 SameValue
        CFI V9 SameValue
        CFI V10 SameValue
        CFI V11 SameValue
        CFI V12 SameValue
        CFI V13 SameValue
        CFI V14 SameValue
        CFI V15 SameValue
        CFI PSPH Undefined
        CFI PSPL Undefined
        CFI XSPH Undefined
        CFI XSPL Undefined
        CFI ?RET Concat
        CFI ?BRET_EXT SameValue
        CFI ?RET_HIGH Frame(CFA_SP, 2)
        CFI ?RET_LOW Frame(CFA_SP, 1)
        CFI EndCommon cfiCommon1
        
macMcuPrecisionCount SYMBOL "macMcuPrecisionCount"
osalTimerUpdate     SYMBOL "osalTimerUpdate"
??macMcuPrecisionCount?relay SYMBOL "?relay", macMcuPrecisionCount
??osalTimerUpdate?relay SYMBOL "?relay", osalTimerUpdate
osalTimeUpdate      SYMBOL "osalTimeUpdate"
??osalTimeUpdate?relay SYMBOL "?relay", osalTimeUpdate
osal_ConvertUTCTime SYMBOL "osal_ConvertUTCTime"
??osal_ConvertUTCTime?relay SYMBOL "?relay", osal_ConvertUTCTime
osal_getClock       SYMBOL "osal_getClock"
??osal_getClock?relay SYMBOL "?relay", osal_getClock
osal_setClock       SYMBOL "osal_setClock"
??osal_setClock?relay SYMBOL "?relay", osal_setClock

        EXTERN macMcuPrecisionCount
        FUNCTION macMcuPrecisionCount,0202H
        ARGFRAME ISTACK, 0, STACK
        ARGFRAME PSTACK, 0, STACK
        ARGFRAME XSTACK, 16, STACK
        ARGFRAME IOVERLAY, 0, STATIC
        ARGFRAME DOVERLAY, 0, STATIC
        EXTERN osalMcuDivide31By16To16
        FUNCTION osalMcuDivide31By16To16,0202H
        ARGFRAME ISTACK, 0, STACK
        ARGFRAME PSTACK, 0, STACK
        ARGFRAME XSTACK, 18, STACK
        ARGFRAME IOVERLAY, 0, STATIC
        ARGFRAME DOVERLAY, 0, STATIC
        EXTERN osalTimerUpdate
        FUNCTION osalTimerUpdate,0202H
        ARGFRAME ISTACK, 0, STACK
        ARGFRAME PSTACK, 0, STACK
        ARGFRAME XSTACK, 16, STACK
        ARGFRAME IOVERLAY, 0, STATIC
        ARGFRAME DOVERLAY, 0, STATIC
        EXTERN ??macMcuPrecisionCount?relay
        FUNCTION ??macMcuPrecisionCount?relay,00H
        EXTERN ??osalTimerUpdate?relay
        FUNCTION ??osalTimerUpdate?relay,00H

// D:\zigbee\projects\zstack-cc2530-coordinator\Components\osal\common\OSAL_Clock.c
//    1 /**************************************************************************************************
//    2   Filename:       OSAL_Clock.c
//    3   Revised:        $Date: 2010-07-23 11:11:28 -0700 (Fri, 23 Jul 2010) $
//    4   Revision:       $Revision: 23117 $
//    5 
//    6   Description:    OSAL Clock definition and manipulation functions.
//    7 
//    8   Copyright 2004-2010 Texas Instruments Incorporated. All rights reserved.
//    9 
//   10   IMPORTANT: Your use of this Software is limited to those specific rights
//   11   granted under the terms of a software license agreement between the user
//   12   who downloaded the software, his/her employer (which must be your employer)
//   13   and Texas Instruments Incorporated (the "License").  You may not use this
//   14   Software unless you agree to abide by the terms of the License. The License
//   15   limits your use, and you acknowledge, that the Software may not be modified,
//   16   copied or distributed unless embedded on a Texas Instruments microcontroller
//   17   or used solely and exclusively in conjunction with a Texas Instruments radio
//   18   frequency transceiver, which is integrated into your product.  Other than for
//   19   the foregoing purpose, you may not use, reproduce, copy, prepare derivative
//   20   works of, modify, distribute, perform, display or sell this Software and/or
//   21   its documentation for any purpose.
//   22 
//   23   YOU FURTHER ACKNOWLEDGE AND AGREE THAT THE SOFTWARE AND DOCUMENTATION ARE
//   24   PROVIDED “AS IS” WITHOUT WARRANTY OF ANY KIND, EITHER EXPRESS OR IMPLIED,
//   25   INCLUDING WITHOUT LIMITATION, ANY WARRANTY OF MERCHANTABILITY, TITLE,
//   26   NON-INFRINGEMENT AND FITNESS FOR A PARTICULAR PURPOSE. IN NO EVENT SHALL
//   27   TEXAS INSTRUMENTS OR ITS LICENSORS BE LIABLE OR OBLIGATED UNDER CONTRACT,
//   28   NEGLIGENCE, STRICT LIABILITY, CONTRIBUTION, BREACH OF WARRANTY, OR OTHER
//   29   LEGAL EQUITABLE THEORY ANY DIRECT OR INDIRECT DAMAGES OR EXPENSES
//   30   INCLUDING BUT NOT LIMITED TO ANY INCIDENTAL, SPECIAL, INDIRECT, PUNITIVE
//   31   OR CONSEQUENTIAL DAMAGES, LOST PROFITS OR LOST DATA, COST OF PROCUREMENT
//   32   OF SUBSTITUTE GOODS, TECHNOLOGY, SERVICES, OR ANY CLAIMS BY THIRD PARTIES
//   33   (INCLUDING BUT NOT LIMITED TO ANY DEFENSE THEREOF), OR OTHER SIMILAR COSTS.
//   34 
//   35   Should you have any questions regarding your right to use this Software,
//   36   contact Texas Instruments Incorporated at www.TI.com.
//   37 **************************************************************************************************/
//   38 
//   39 /*********************************************************************
//   40  * INCLUDES
//   41  */
//   42 
//   43 #include "comdef.h"
//   44 #include "OnBoard.h"
//   45 #include "OSAL.h"
//   46 #include "OSAL_Clock.h"
//   47 
//   48 /*********************************************************************
//   49  * MACROS
//   50  */
//   51 
//   52 /*********************************************************************
//   53  * CONSTANTS
//   54  */
//   55 
//   56 #define	BEGYEAR	        2000    //  00:00:00 January 1, 2000
//   57 #define	DAY             86400UL // 24 hours * 60 minutes * 60 seconds
//   58 #define	IsLeapYear(yr)	(!((yr) % 4) && (((yr) % 100) || !((yr) % 400)))
//   59 #define	YearLength(yr)	(IsLeapYear(yr) ? 366 : 365)
//   60 
//   61 
//   62 /*********************************************************************
//   63  * TYPEDEFS
//   64  */
//   65 
//   66 /*********************************************************************
//   67  * GLOBAL VARIABLES
//   68  */
//   69 
//   70 
//   71 /*********************************************************************
//   72  * EXTERNAL VARIABLES
//   73  */
//   74 
//   75 /*********************************************************************
//   76  * EXTERNAL FUNCTIONS
//   77  */
//   78 extern uint32 macMcuPrecisionCount(void);
//   79 
//   80 #if (defined HAL_MCU_CC2430) || (defined HAL_MCU_CC2530) || (defined HAL_MCU_CC2533)
//   81   
//   82   /*  This function is used to divide a 31 bit dividend by a 16 bit
//   83    *  divisor and return a packed 16 bit quotient and 16 bit
//   84    *  remainder.
//   85    *
//   86    *  Note: This routine takes ~25.6us @32MHz. With C overhead, the
//   87    *        time is ~32us.
//   88    *
//   89    *  dividend - 31 bit dividend.
//   90    *  divisor - 16 bit divisor.
//   91    *
//   92    *  return - MSW divisor; LSW quotient
//   93    */
//   94   extern __near_func uint32 osalMcuDivide31By16To16( uint32 dividend, uint16 divisor );
//   95   
//   96   #define CONVERT_320US_TO_MS_ELAPSED_REMINDER( x, y, z ) st(  \ 
//   97                                                                \ 
//   98     /* The 16 bit quotient is in MSW and */                    \ 
//   99     /* the 16 bit remainder is in LSW. */                      \ 
//  100     x = osalMcuDivide31By16To16( x, 25 );                      \ 
//  101                                                                \ 
//  102     /* Add quotient to y */                                    \ 
//  103     y += (x >> 16);                                            \ 
//  104                                                                \ 
//  105     /* Copy remainder to z */                                  \ 
//  106     z = (uint16)(x & 0x0FFFF);                                 \ 
//  107   )
//  108   
//  109 #else /* (defined HAL_MCU_CC2430) || (defined HAL_MCU_CC2530) || (defined HAL_MCU_CC2533) */
//  110   
//  111   #define CONVERT_320US_TO_MS_ELAPSED_REMINDER( x, y, z ) st(  \ 
//  112     y += x / 25;                                               \ 
//  113     z = x % 25;                                                \ 
//  114   )
//  115   
//  116 #endif /* (defined HAL_MCU_CC2430) || (defined HAL_MCU_CC2530) || (defined HAL_MCU_CC2533) */
//  117 
//  118 /*********************************************************************
//  119  * LOCAL VARIABLES
//  120  */

        RSEG XDATA_Z:XDATA:NOROOT(0)
//  121 static uint32 previousMacTimerTick = 0;
previousMacTimerTick:
        DS 4
        REQUIRE __INIT_XDATA_Z

        RSEG XDATA_Z:XDATA:NOROOT(0)
//  122 static uint16 remUsTicks = 0;
remUsTicks:
        DS 2
        REQUIRE __INIT_XDATA_Z

        RSEG XDATA_Z:XDATA:NOROOT(0)
//  123 static uint16 timeMSec = 0;
timeMSec:
        DS 2
        REQUIRE __INIT_XDATA_Z
//  124 
//  125 // number of seconds since 0 hrs, 0 minutes, 0 seconds, on the
//  126 // 1st of January 2000 UTC

        RSEG XDATA_Z:XDATA:NOROOT(0)
//  127 UTCTime OSAL_timeSeconds = 0;
OSAL_timeSeconds:
        DS 4
        REQUIRE __INIT_XDATA_Z
//  128 
//  129 /*********************************************************************
//  130  * LOCAL FUNCTION PROTOTYPES
//  131  */
//  132 static uint8 monthLength( uint8 lpyr, uint8 mon );
//  133 
//  134 static void osalClockUpdate( uint16 elapsedMSec );
//  135 
//  136 /*********************************************************************
//  137  * FUNCTIONS
//  138  *********************************************************************/
//  139 
//  140 /*********************************************************************
//  141  * @fn      osalTimeUpdate
//  142  *
//  143  * @brief   Uses the free running rollover count of the MAC backoff timer;
//  144  *          this timer runs freely with a constant 320 usec interval.  The
//  145  *          count of 320-usec ticks is converted to msecs and used to update
//  146  *          the OSAL clock and Timers by invoking osalClockUpdate() and
//  147  *          osalTimerUpdate().  This function is intended to be invoked 
//  148  *          from the background, not interrupt level.
//  149  *
//  150  * @param   None.
//  151  *
//  152  * @return  None.
//  153  */

        RSEG BANKED_CODE:CODE:NOROOT(0)
//  154 void osalTimeUpdate( void )
osalTimeUpdate:
        CFI Block cfiBlock0 Using cfiCommon0
        CFI Function osalTimeUpdate
//  155 {
        FUNCALL osalTimeUpdate, macMcuPrecisionCount
        LOCFRAME ISTACK, 0, STACK
        LOCFRAME PSTACK, 0, STACK
        LOCFRAME XSTACK, 16, STACK
        LOCFRAME IOVERLAY, 0, STATIC
        LOCFRAME DOVERLAY, 0, STATIC
        ARGFRAME ISTACK, 0, STACK
        ARGFRAME PSTACK, 0, STACK
        ARGFRAME XSTACK, 16, STACK
        ARGFRAME IOVERLAY, 0, STATIC
        ARGFRAME DOVERLAY, 0, STATIC
        FUNCALL osalTimeUpdate, osalMcuDivide31By16To16
        LOCFRAME ISTACK, 0, STACK
        LOCFRAME PSTACK, 0, STACK
        LOCFRAME XSTACK, 18, STACK
        LOCFRAME IOVERLAY, 0, STATIC
        LOCFRAME DOVERLAY, 0, STATIC
        ARGFRAME ISTACK, 0, STACK
        ARGFRAME PSTACK, 0, STACK
        ARGFRAME XSTACK, 18, STACK
        ARGFRAME IOVERLAY, 0, STATIC
        ARGFRAME DOVERLAY, 0, STATIC
        FUNCALL osalTimeUpdate, osalTimerUpdate
        LOCFRAME ISTACK, 0, STACK
        LOCFRAME PSTACK, 0, STACK
        LOCFRAME XSTACK, 16, STACK
        LOCFRAME IOVERLAY, 0, STATIC
        LOCFRAME DOVERLAY, 0, STATIC
        ARGFRAME ISTACK, 0, STACK
        ARGFRAME PSTACK, 0, STACK
        ARGFRAME XSTACK, 16, STACK
        ARGFRAME IOVERLAY, 0, STATIC
        ARGFRAME DOVERLAY, 0, STATIC
        MOV     A,#-0x10
        LCALL   ?BANKED_ENTER_XDATA
        CFI DPH0 load(1, XDATA, add(CFA_XSP16, literal(-1)))
        CFI DPL0 load(1, XDATA, add(CFA_XSP16, literal(-2)))
        CFI ?BRET_EXT load(1, XDATA, add(CFA_XSP16, literal(-3)))
        CFI ?RET_HIGH load(1, XDATA, add(CFA_XSP16, literal(-4)))
        CFI ?RET_LOW load(1, XDATA, add(CFA_XSP16, literal(-5)))
        CFI R7 load(1, XDATA, add(CFA_XSP16, literal(-6)))
        CFI V7 load(1, XDATA, add(CFA_XSP16, literal(-7)))
        CFI V6 load(1, XDATA, add(CFA_XSP16, literal(-8)))
        CFI V5 load(1, XDATA, add(CFA_XSP16, literal(-9)))
        CFI V4 load(1, XDATA, add(CFA_XSP16, literal(-10)))
        CFI V3 load(1, XDATA, add(CFA_XSP16, literal(-11)))
        CFI V2 load(1, XDATA, add(CFA_XSP16, literal(-12)))
        CFI V1 load(1, XDATA, add(CFA_XSP16, literal(-13)))
        CFI V0 load(1, XDATA, add(CFA_XSP16, literal(-14)))
        CFI VB load(1, XDATA, add(CFA_XSP16, literal(-15)))
        CFI R6 load(1, XDATA, add(CFA_XSP16, literal(-16)))
        CFI CFA_SP SP+0
        CFI CFA_XSP16 add(XSP16, 16)
        ; Saved register size: 16
        ; Auto size: 0
//  156   uint32 tmp;
//  157   uint32 ticks320us;
//  158   uint16 elapsedMSec = 0;
//  159 
//  160   // Get the free-running count of 320us timer ticks
//  161   tmp = macMcuPrecisionCount();
        ; Setup parameters for call to function macMcuPrecisionCount
        LCALL   ??macMcuPrecisionCount?relay
        MOV     ?V0 + 0,R2
        MOV     ?V0 + 1,R3
        MOV     ?V0 + 2,R4
        MOV     ?V0 + 3,R5
//  162   
//  163   if ( tmp != previousMacTimerTick )
        MOV     DPTR,#previousMacTimerTick
        MOV     R0,#?V0 + 0
        LCALL   ?L_EQ_X
        JNZ     $+5
        LJMP    ??osalTimeUpdate_0 & 0xFFFF
//  164   {
//  165     // Calculate the elapsed ticks of the free-running timer.
//  166     ticks320us = tmp - previousMacTimerTick;
        MOV     ?V0 + 4,R2
        MOV     ?V0 + 5,R3
        MOV     ?V0 + 6,R4
        MOV     ?V0 + 7,R5
        MOV     DPTR,#previousMacTimerTick
        MOV     R0,#?V0 + 4
        LCALL   ?L_SUB_X
//  167   
//  168     // Store the MAC Timer tick count for the next time through this function.
//  169     previousMacTimerTick = tmp;
        MOV     DPTR,#previousMacTimerTick
        MOV     R0,#?V0 + 0
        LCALL   ?L_MOV_TO_X
//  170 
//  171     // update converted number with remaining ticks from loop and the 
//  172     // accumulated remainder from loop
//  173     tmp = (ticks320us * 8) + remUsTicks;
//  174     
//  175     // Convert the 320 us ticks into milliseconds and a remainder
//  176     CONVERT_320US_TO_MS_ELAPSED_REMINDER( tmp, elapsedMSec, remUsTicks );
        ; Setup parameters for call to function osalMcuDivide31By16To16
        MOV     ?V0 + 0,#0x19
        MOV     ?V0 + 1,#0x0
        MOV     R0,#?V0 + 0
        LCALL   ?PUSH_XSTACK_I_TWO
        CFI CFA_XSP16 add(XSP16, 18)
        MOV     A,#0x3
        MOV     R0,#?V0 + 4
        LCALL   ?L_SHL
        MOV     DPTR,#remUsTicks
        MOVX    A,@DPTR
        MOV     ?V0 + 0,A
        INC     DPTR
        MOVX    A,@DPTR
        MOV     ?V0 + 1,A
        MOV     ?V0 + 2,#0x0
        MOV     ?V0 + 3,#0x0
        MOV     R0,#?V0 + 4
        MOV     R1,#?V0 + 0
        LCALL   ?L_ADD
        MOV     R2,?V0 + 4
        MOV     R3,?V0 + 5
        MOV     R4,?V0 + 6
        MOV     R5,?V0 + 7
        LCALL   osalMcuDivide31By16To16 & 0xFFFF
        MOV     A,#0x2
        LCALL   ?DEALLOC_XSTACK8
        CFI CFA_XSP16 add(XSP16, 16)
        MOV     DPTR,#remUsTicks
        MOV     A,R2
        MOVX    @DPTR,A
        INC     DPTR
        MOV     A,R3
        MOVX    @DPTR,A
//  177 
//  178     // Update OSAL Clock and Timers
//  179     if ( elapsedMSec )
        MOV     A,R4
        JNZ     ??osalTimeUpdate_1
        MOV     A,R5
??osalTimeUpdate_1:
        JZ      ??osalTimeUpdate_0
//  180     {
//  181       osalClockUpdate( elapsedMSec );
        MOV     DPTR,#timeMSec
        MOVX    A,@DPTR
        ADD     A,R4
        MOVX    @DPTR,A
        INC     DPTR
        MOVX    A,@DPTR
        ADDC    A,R5
        MOVX    @DPTR,A
        MOV     DPTR,#timeMSec
        CLR     C
        MOVX    A,@DPTR
        SUBB    A,#-0x17
        INC     DPTR
        MOVX    A,@DPTR
        SUBB    A,#0x3
        JC      ??osalTimeUpdate_2
        LCALL   ?Subroutine5 & 0xFFFF
??CrossCallReturnLabel_12:
        LCALL   ?US_DIV_MOD
        MOV     ?V0 + 0,R0
        MOV     ?V0 + 1,R1
        MOV     DPTR,#OSAL_timeSeconds
        MOV     R0,#?V0 + 0
        LCALL   ?L_ADD_TO_X
        LCALL   ?Subroutine5 & 0xFFFF
??CrossCallReturnLabel_13:
        LCALL   ?US_DIV_MOD
        MOV     DPTR,#timeMSec
        MOV     A,R2
        MOVX    @DPTR,A
        INC     DPTR
        MOV     A,R3
        MOVX    @DPTR,A
//  182       osalTimerUpdate( elapsedMSec );
??osalTimeUpdate_2:
        ; Setup parameters for call to function osalTimerUpdate
        MOV     A,R4
        MOV     R2,A
        MOV     A,R5
        MOV     R3,A
        LCALL   ??osalTimerUpdate?relay
//  183     }
//  184   }
//  185 }
??osalTimeUpdate_0:
        MOV     R7,#0x8
        LJMP    ?BANKED_LEAVE_XDATA
        CFI EndBlock cfiBlock0

        RSEG BANKED_CODE:CODE:NOROOT(0)
?Subroutine5:
        CFI Block cfiCond1 Using cfiCommon0
        CFI NoFunction
        CFI Conditional ??CrossCallReturnLabel_12
        CFI R6 load(1, XDATA, add(CFA_XSP16, literal(-16)))
        CFI VB load(1, XDATA, add(CFA_XSP16, literal(-15)))
        CFI V0 load(1, XDATA, add(CFA_XSP16, literal(-14)))
        CFI V1 load(1, XDATA, add(CFA_XSP16, literal(-13)))
        CFI V2 load(1, XDATA, add(CFA_XSP16, literal(-12)))
        CFI V3 load(1, XDATA, add(CFA_XSP16, literal(-11)))
        CFI V4 load(1, XDATA, add(CFA_XSP16, literal(-10)))
        CFI V5 load(1, XDATA, add(CFA_XSP16, literal(-9)))
        CFI V6 load(1, XDATA, add(CFA_XSP16, literal(-8)))
        CFI V7 load(1, XDATA, add(CFA_XSP16, literal(-7)))
        CFI R7 load(1, XDATA, add(CFA_XSP16, literal(-6)))
        CFI ?RET_LOW load(1, XDATA, add(CFA_XSP16, literal(-5)))
        CFI ?RET_HIGH load(1, XDATA, add(CFA_XSP16, literal(-4)))
        CFI ?BRET_EXT load(1, XDATA, add(CFA_XSP16, literal(-3)))
        CFI DPL0 load(1, XDATA, add(CFA_XSP16, literal(-2)))
        CFI DPH0 load(1, XDATA, add(CFA_XSP16, literal(-1)))
        CFI CFA_SP SP+0
        CFI CFA_XSP16 add(XSP16, 16)
        CFI Block cfiCond2 Using cfiCommon0
        CFI (cfiCond2) NoFunction
        CFI (cfiCond2) Conditional ??CrossCallReturnLabel_13
        CFI (cfiCond2) R6 load(1, XDATA, add(CFA_XSP16, literal(-16)))
        CFI (cfiCond2) VB load(1, XDATA, add(CFA_XSP16, literal(-15)))
        CFI (cfiCond2) V0 load(1, XDATA, add(CFA_XSP16, literal(-14)))
        CFI (cfiCond2) V1 load(1, XDATA, add(CFA_XSP16, literal(-13)))
        CFI (cfiCond2) V2 load(1, XDATA, add(CFA_XSP16, literal(-12)))
        CFI (cfiCond2) V3 load(1, XDATA, add(CFA_XSP16, literal(-11)))
        CFI (cfiCond2) V4 load(1, XDATA, add(CFA_XSP16, literal(-10)))
        CFI (cfiCond2) V5 load(1, XDATA, add(CFA_XSP16, literal(-9)))
        CFI (cfiCond2) V6 load(1, XDATA, add(CFA_XSP16, literal(-8)))
        CFI (cfiCond2) V7 load(1, XDATA, add(CFA_XSP16, literal(-7)))
        CFI (cfiCond2) R7 load(1, XDATA, add(CFA_XSP16, literal(-6)))
        CFI (cfiCond2) ?RET_LOW load(1, XDATA, add(CFA_XSP16, literal(-5)))
        CFI (cfiCond2) ?RET_HIGH load(1, XDATA, add(CFA_XSP16, literal(-4)))
        CFI (cfiCond2) ?BRET_EXT load(1, XDATA, add(CFA_XSP16, literal(-3)))
        CFI (cfiCond2) DPL0 load(1, XDATA, add(CFA_XSP16, literal(-2)))
        CFI (cfiCond2) DPH0 load(1, XDATA, add(CFA_XSP16, literal(-1)))
        CFI (cfiCond2) CFA_SP SP+0
        CFI (cfiCond2) CFA_XSP16 add(XSP16, 16)
        CFI Block cfiPicker3 Using cfiCommon1
        CFI (cfiPicker3) NoFunction
        CFI (cfiPicker3) Picker
        MOV     DPTR,#timeMSec
        MOVX    A,@DPTR
        MOV     R0,A
        INC     DPTR
        MOVX    A,@DPTR
        MOV     R1,A
        MOV     R2,#-0x18
        MOV     R3,#0x3
        RET
        CFI EndBlock cfiCond1
        CFI EndBlock cfiCond2
        CFI EndBlock cfiPicker3
//  186 
//  187 /*********************************************************************
//  188  * @fn      osalClockUpdate
//  189  *
//  190  * @brief   Updates the OSAL Clock time with elapsed milliseconds.
//  191  *
//  192  * @param   elapsedMSec - elapsed milliseconds
//  193  *
//  194  * @return  none
//  195  */
//  196 static void osalClockUpdate( uint16 elapsedMSec )
//  197 {
//  198   // Add elapsed milliseconds to the saved millisecond portion of time
//  199   timeMSec += elapsedMSec;
//  200 
//  201   // Roll up milliseconds to the number of seconds
//  202   if ( timeMSec > 1000 )
//  203   {
//  204     OSAL_timeSeconds += timeMSec / 1000;
//  205     timeMSec = timeMSec % 1000;
//  206   }
//  207 }
//  208 
//  209 /*********************************************************************
//  210  * @fn      osal_setClock
//  211  *
//  212  * @brief   Set the new time.  This will only set the seconds portion
//  213  *          of time and doesn't change the factional second counter.
//  214  *
//  215  * @param   newTime - number of seconds since 0 hrs, 0 minutes,
//  216  *                    0 seconds, on the 1st of January 2000 UTC
//  217  *
//  218  * @return  none
//  219  */

        RSEG BANKED_CODE:CODE:NOROOT(0)
//  220 void osal_setClock( UTCTime newTime )
osal_setClock:
        CFI Block cfiBlock4 Using cfiCommon0
        CFI Function osal_setClock
//  221 {
        MOV     A,#-0xc
        LCALL   ?BANKED_ENTER_XDATA
        CFI DPH0 load(1, XDATA, add(CFA_XSP16, literal(-1)))
        CFI DPL0 load(1, XDATA, add(CFA_XSP16, literal(-2)))
        CFI ?BRET_EXT load(1, XDATA, add(CFA_XSP16, literal(-3)))
        CFI ?RET_HIGH load(1, XDATA, add(CFA_XSP16, literal(-4)))
        CFI ?RET_LOW load(1, XDATA, add(CFA_XSP16, literal(-5)))
        CFI R7 load(1, XDATA, add(CFA_XSP16, literal(-6)))
        CFI V3 load(1, XDATA, add(CFA_XSP16, literal(-7)))
        CFI V2 load(1, XDATA, add(CFA_XSP16, literal(-8)))
        CFI V1 load(1, XDATA, add(CFA_XSP16, literal(-9)))
        CFI V0 load(1, XDATA, add(CFA_XSP16, literal(-10)))
        CFI VB load(1, XDATA, add(CFA_XSP16, literal(-11)))
        CFI R6 load(1, XDATA, add(CFA_XSP16, literal(-12)))
        CFI CFA_SP SP+0
        CFI CFA_XSP16 add(XSP16, 12)
        ; Saved register size: 12
        ; Auto size: 0
        MOV     ?V0 + 0,R2
        MOV     ?V0 + 1,R3
        MOV     ?V0 + 2,R4
        MOV     ?V0 + 3,R5
//  222   OSAL_timeSeconds = newTime;
        MOV     DPTR,#OSAL_timeSeconds
        MOV     R0,#?V0 + 0
        LCALL   ?L_MOV_TO_X
        CFI EndBlock cfiBlock4
//  223 }
        REQUIRE ?Subroutine0
        ; // Fall through to label ?Subroutine0

        RSEG BANKED_CODE:CODE:NOROOT(0)
?Subroutine0:
        CFI Block cfiBlock5 Using cfiCommon0
        CFI NoFunction
        CFI CFA_SP SP+0
        CFI CFA_XSP16 add(XSP16, 12)
        CFI VB load(1, XDATA, add(CFA_XSP16, literal(-11)))
        CFI DPL0 load(1, XDATA, add(CFA_XSP16, literal(-2)))
        CFI DPH0 load(1, XDATA, add(CFA_XSP16, literal(-1)))
        CFI R6 load(1, XDATA, add(CFA_XSP16, literal(-12)))
        CFI R7 load(1, XDATA, add(CFA_XSP16, literal(-6)))
        CFI V0 load(1, XDATA, add(CFA_XSP16, literal(-10)))
        CFI V1 load(1, XDATA, add(CFA_XSP16, literal(-9)))
        CFI V2 load(1, XDATA, add(CFA_XSP16, literal(-8)))
        CFI V3 load(1, XDATA, add(CFA_XSP16, literal(-7)))
        CFI ?BRET_EXT load(1, XDATA, add(CFA_XSP16, literal(-3)))
        CFI ?RET_HIGH load(1, XDATA, add(CFA_XSP16, literal(-4)))
        CFI ?RET_LOW load(1, XDATA, add(CFA_XSP16, literal(-5)))
        MOV     R7,#0x4
        LJMP    ?BANKED_LEAVE_XDATA
        CFI EndBlock cfiBlock5
//  224 
//  225 /*********************************************************************
//  226  * @fn      osal_getClock
//  227  *
//  228  * @brief   Gets the current time.  This will only return the seconds
//  229  *          portion of time and doesn't include the factional second
//  230  *          counter.
//  231  *
//  232  * @param   none
//  233  *
//  234  * @return  number of seconds since 0 hrs, 0 minutes, 0 seconds,
//  235  *          on the 1st of January 2000 UTC
//  236  */

        RSEG BANKED_CODE:CODE:NOROOT(0)
//  237 UTCTime osal_getClock( void )
osal_getClock:
        CFI Block cfiBlock6 Using cfiCommon0
        CFI Function osal_getClock
//  238 {
        MOV     A,#-0xc
        LCALL   ?BANKED_ENTER_XDATA
        CFI DPH0 load(1, XDATA, add(CFA_XSP16, literal(-1)))
        CFI DPL0 load(1, XDATA, add(CFA_XSP16, literal(-2)))
        CFI ?BRET_EXT load(1, XDATA, add(CFA_XSP16, literal(-3)))
        CFI ?RET_HIGH load(1, XDATA, add(CFA_XSP16, literal(-4)))
        CFI ?RET_LOW load(1, XDATA, add(CFA_XSP16, literal(-5)))
        CFI R7 load(1, XDATA, add(CFA_XSP16, literal(-6)))
        CFI V3 load(1, XDATA, add(CFA_XSP16, literal(-7)))
        CFI V2 load(1, XDATA, add(CFA_XSP16, literal(-8)))
        CFI V1 load(1, XDATA, add(CFA_XSP16, literal(-9)))
        CFI V0 load(1, XDATA, add(CFA_XSP16, literal(-10)))
        CFI VB load(1, XDATA, add(CFA_XSP16, literal(-11)))
        CFI R6 load(1, XDATA, add(CFA_XSP16, literal(-12)))
        CFI CFA_SP SP+0
        CFI CFA_XSP16 add(XSP16, 12)
        ; Saved register size: 12
        ; Auto size: 0
//  239   return ( OSAL_timeSeconds );
        MOV     DPTR,#OSAL_timeSeconds
        MOV     R0,#?V0 + 0
        LCALL   ?L_MOV_X
        MOV     R2,?V0 + 0
        MOV     R3,?V0 + 1
        MOV     R4,?V0 + 2
        MOV     R5,?V0 + 3
        SJMP    ?Subroutine0
        CFI EndBlock cfiBlock6
//  240 }
//  241 
//  242 /*********************************************************************
//  243  * @fn      osal_ConvertUTCTime
//  244  *
//  245  * @brief   Converts UTCTime to UTCTimeStruct
//  246  *
//  247  * @param   tm - pointer to breakdown struct
//  248  *
//  249  * @param   secTime - number of seconds since 0 hrs, 0 minutes,
//  250  *          0 seconds, on the 1st of January 2000 UTC
//  251  *
//  252  * @return  none
//  253  */

        RSEG BANKED_CODE:CODE:NOROOT(0)
//  254 void osal_ConvertUTCTime( UTCTimeStruct *tm, UTCTime secTime )
osal_ConvertUTCTime:
        CFI Block cfiBlock7 Using cfiCommon0
        CFI Function osal_ConvertUTCTime
//  255 {
        FUNCALL osal_ConvertUTCTime, monthLength
        LOCFRAME ISTACK, 0, STACK
        LOCFRAME PSTACK, 0, STACK
        LOCFRAME XSTACK, 24, STACK
        LOCFRAME IOVERLAY, 0, STATIC
        LOCFRAME DOVERLAY, 0, STATIC
        ARGFRAME ISTACK, 0, STACK
        ARGFRAME PSTACK, 0, STACK
        ARGFRAME XSTACK, 24, STACK
        ARGFRAME IOVERLAY, 0, STATIC
        ARGFRAME DOVERLAY, 0, STATIC
        FUNCALL osal_ConvertUTCTime, monthLength
        LOCFRAME ISTACK, 0, STACK
        LOCFRAME PSTACK, 0, STACK
        LOCFRAME XSTACK, 24, STACK
        LOCFRAME IOVERLAY, 0, STATIC
        LOCFRAME DOVERLAY, 0, STATIC
        ARGFRAME ISTACK, 0, STACK
        ARGFRAME PSTACK, 0, STACK
        ARGFRAME XSTACK, 24, STACK
        ARGFRAME IOVERLAY, 0, STATIC
        ARGFRAME DOVERLAY, 0, STATIC
        MOV     A,#-0x18
        LCALL   ?BANKED_ENTER_XDATA
        CFI DPH0 load(1, XDATA, add(CFA_XSP16, literal(-1)))
        CFI DPL0 load(1, XDATA, add(CFA_XSP16, literal(-2)))
        CFI ?BRET_EXT load(1, XDATA, add(CFA_XSP16, literal(-3)))
        CFI ?RET_HIGH load(1, XDATA, add(CFA_XSP16, literal(-4)))
        CFI ?RET_LOW load(1, XDATA, add(CFA_XSP16, literal(-5)))
        CFI R7 load(1, XDATA, add(CFA_XSP16, literal(-6)))
        CFI V15 load(1, XDATA, add(CFA_XSP16, literal(-7)))
        CFI V14 load(1, XDATA, add(CFA_XSP16, literal(-8)))
        CFI V13 load(1, XDATA, add(CFA_XSP16, literal(-9)))
        CFI V12 load(1, XDATA, add(CFA_XSP16, literal(-10)))
        CFI V11 load(1, XDATA, add(CFA_XSP16, literal(-11)))
        CFI V10 load(1, XDATA, add(CFA_XSP16, literal(-12)))
        CFI V9 load(1, XDATA, add(CFA_XSP16, literal(-13)))
        CFI V8 load(1, XDATA, add(CFA_XSP16, literal(-14)))
        CFI V7 load(1, XDATA, add(CFA_XSP16, literal(-15)))
        CFI V6 load(1, XDATA, add(CFA_XSP16, literal(-16)))
        CFI V5 load(1, XDATA, add(CFA_XSP16, literal(-17)))
        CFI V4 load(1, XDATA, add(CFA_XSP16, literal(-18)))
        CFI V3 load(1, XDATA, add(CFA_XSP16, literal(-19)))
        CFI V2 load(1, XDATA, add(CFA_XSP16, literal(-20)))
        CFI V1 load(1, XDATA, add(CFA_XSP16, literal(-21)))
        CFI V0 load(1, XDATA, add(CFA_XSP16, literal(-22)))
        CFI VB load(1, XDATA, add(CFA_XSP16, literal(-23)))
        CFI R6 load(1, XDATA, add(CFA_XSP16, literal(-24)))
        CFI CFA_SP SP+0
        CFI CFA_XSP16 add(XSP16, 24)
        ; Saved register size: 24
        ; Auto size: 0
        MOV     A,R2
        MOV     R6,A
        MOV     A,R3
        MOV     R7,A
        MOV     A,#0x18
        LCALL   ?XSTACK_DISP0_8
        MOV     R0,#?V0 + 4
        LCALL   ?L_MOV_X
//  256   // calculate the time less than a day - hours, minutes, seconds
//  257   {
//  258     uint32 day = secTime % DAY;
        MOV     ?V0 + 0,?V0 + 4
        MOV     ?V0 + 1,?V0 + 5
        MOV     ?V0 + 2,?V0 + 6
        MOV     ?V0 + 3,?V0 + 7
        MOV     DPTR,#__Constant_15180
        MOV     R0,#?V0 + 8
        LCALL   ?L_MOV_X
        MOV     R0,#?V0 + 0
        MOV     R1,#?V0 + 8
        LCALL   ?UL_DIV_MOD
//  259     tm->seconds = day % 60UL;
        MOV     ?V0 + 0,?V0 + 8
        MOV     ?V0 + 1,?V0 + 9
        MOV     ?V0 + 2,?V0 + 10
        MOV     ?V0 + 3,?V0 + 11
        MOV     DPTR,#__Constant_3c
        MOV     R0,#?V0 + 12
        LCALL   ?L_MOV_X
        MOV     R0,#?V0 + 0
        MOV     R1,#?V0 + 12
        LCALL   ?UL_DIV_MOD
        MOV     DPL,R6
        MOV     DPH,R7
        MOV     A,?V0 + 12
        MOVX    @DPTR,A
//  260     tm->minutes = (day % 3600UL) / 60;
        MOV     ?V0 + 12,?V0 + 8
        MOV     ?V0 + 13,?V0 + 9
        MOV     ?V0 + 14,?V0 + 10
        MOV     ?V0 + 15,?V0 + 11
        MOV     DPTR,#__Constant_e10
        MOV     R0,#?V0 + 0
        LCALL   ?L_MOV_X
        MOV     R0,#?V0 + 12
        MOV     R1,#?V0 + 0
        LCALL   ?UL_DIV_MOD
        MOV     DPTR,#__Constant_3c
        MOV     R0,#?V0 + 12
        LCALL   ?L_MOV_X
        MOV     R0,#?V0 + 0
        MOV     R1,#?V0 + 12
        LCALL   ?UL_DIV_MOD
        MOV     DPL,R6
        MOV     DPH,R7
        INC     DPTR
        MOV     A,?V0 + 0
        MOVX    @DPTR,A
//  261     tm->hour = day / 3600UL;
        MOV     DPTR,#__Constant_e10
        MOV     R0,#?V0 + 0
        LCALL   ?L_MOV_X
        MOV     R0,#?V0 + 8
        MOV     R1,#?V0 + 0
        LCALL   ?UL_DIV_MOD
        MOV     DPL,R6
        MOV     DPH,R7
        INC     DPTR
        INC     DPTR
        MOV     A,?V0 + 8
        MOVX    @DPTR,A
//  262   }
//  263 
//  264   // Fill in the calendar - day, month, year
//  265   {
//  266     uint16 numDays = secTime / DAY;
        MOV     DPTR,#__Constant_15180
        MOV     R0,#?V0 + 0
        LCALL   ?L_MOV_X
        MOV     R0,#?V0 + 4
        MOV     R1,#?V0 + 0
        LCALL   ?UL_DIV_MOD
        MOV     ?V0 + 2,?V0 + 4
        MOV     ?V0 + 3,?V0 + 5
//  267     tm->year = BEGYEAR;
        MOV     DPL,R6
        MOV     DPH,R7
        INC     DPTR
        INC     DPTR
        INC     DPTR
        INC     DPTR
        INC     DPTR
        MOV     A,#-0x30
        MOVX    @DPTR,A
        INC     DPTR
        MOV     A,#0x7
        SJMP    ??osal_ConvertUTCTime_0
//  268     while ( numDays >= YearLength( tm->year ) )
//  269     {
//  270       numDays -= YearLength( tm->year );
??osal_ConvertUTCTime_1:
        MOV     R0,#0x6d
??osal_ConvertUTCTime_2:
        CLR     C
        MOV     A,?V0 + 2
        SUBB    A,R0
        MOV     ?V0 + 2,A
        MOV     A,?V0 + 3
        SUBB    A,#0x1
        MOV     ?V0 + 3,A
//  271       tm->year++;
        MOV     DPL,R6
        MOV     DPH,R7
        INC     DPTR
        INC     DPTR
        INC     DPTR
        INC     DPTR
        INC     DPTR
        MOVX    A,@DPTR
        ADD     A,#0x1
        MOVX    @DPTR,A
        INC     DPTR
        MOVX    A,@DPTR
        ADDC    A,#0x0
??osal_ConvertUTCTime_0:
        LCALL   ?Subroutine3 & 0xFFFF
??CrossCallReturnLabel_8:
        JNZ     ??osal_ConvertUTCTime_3
        LCALL   ?Subroutine1 & 0xFFFF
??CrossCallReturnLabel_0:
        LCALL   ?US_DIV_MOD
        MOV     A,R2
        JNZ     ??osal_ConvertUTCTime_4
        MOV     A,R3
??osal_ConvertUTCTime_4:
        JNZ     ??osal_ConvertUTCTime_5
        LCALL   ?Subroutine2 & 0xFFFF
??CrossCallReturnLabel_4:
        LCALL   ?US_DIV_MOD
        MOV     A,R2
        JNZ     ??osal_ConvertUTCTime_6
        MOV     A,R3
??osal_ConvertUTCTime_6:
        JNZ     ??osal_ConvertUTCTime_3
??osal_ConvertUTCTime_5:
        MOV     R0,#0x6e
        SJMP    ??osal_ConvertUTCTime_7
??osal_ConvertUTCTime_3:
        MOV     R0,#0x6d
??osal_ConvertUTCTime_7:
        CLR     C
        MOV     A,?V0 + 2
        SUBB    A,R0
        MOV     A,?V0 + 3
        SUBB    A,#0x1
        JC      ??osal_ConvertUTCTime_8
        MOV     DPL,R6
        MOV     DPH,R7
        INC     DPTR
        INC     DPTR
        INC     DPTR
        INC     DPTR
        INC     DPTR
        MOVX    A,@DPTR
        ANL     A,#0x3
        JNZ     ??osal_ConvertUTCTime_1
        LCALL   ?Subroutine1 & 0xFFFF
//  272     }
??CrossCallReturnLabel_1:
        LCALL   ?US_DIV_MOD
        MOV     A,R2
        JNZ     ??osal_ConvertUTCTime_9
        MOV     A,R3
??osal_ConvertUTCTime_9:
        JNZ     ??osal_ConvertUTCTime_10
        LCALL   ?Subroutine2 & 0xFFFF
??CrossCallReturnLabel_5:
        LCALL   ?US_DIV_MOD
        MOV     A,R2
        JNZ     ??osal_ConvertUTCTime_11
        MOV     A,R3
??osal_ConvertUTCTime_11:
        JNZ     ??osal_ConvertUTCTime_1
??osal_ConvertUTCTime_10:
        MOV     R0,#0x6e
        SJMP    ??osal_ConvertUTCTime_2
//  273 
//  274     tm->month = 0;
??osal_ConvertUTCTime_8:
        CLR     A
        MOV     DPL,R6
        MOV     DPH,R7
        INC     DPTR
        INC     DPTR
        INC     DPTR
        INC     DPTR
        SJMP    ??osal_ConvertUTCTime_12
//  275     while ( numDays >= monthLength( IsLeapYear( tm->year ), tm->month ) )
//  276     {
//  277       numDays -= monthLength( IsLeapYear( tm->year ), tm->month );
??osal_ConvertUTCTime_13:
        MOV     R1,#0x0
??osal_ConvertUTCTime_14:
        MOV     A,R6
        ADD     A,#0x4
        MOV     ?V0 + 0,A
        MOV     A,R7
        ADDC    A,#0x0
        MOV     ?V0 + 1,A
        ; Setup parameters for call to function monthLength
        MOV     DPL,?V0 + 0
        MOV     DPH,A
        LCALL   ?Subroutine4 & 0xFFFF
??CrossCallReturnLabel_10:
        MOV     ?V0 + 2,A
        MOV     A,?V0 + 3
        SUBB    A,#0x0
        MOV     ?V0 + 3,A
//  278       tm->month++;
        MOV     DPL,?V0 + 0
        MOV     DPH,?V0 + 1
        MOVX    A,@DPTR
        INC     A
??osal_ConvertUTCTime_12:
        LCALL   ?Subroutine3 & 0xFFFF
??CrossCallReturnLabel_9:
        JNZ     ??osal_ConvertUTCTime_15
        LCALL   ?Subroutine1 & 0xFFFF
??CrossCallReturnLabel_2:
        LCALL   ?US_DIV_MOD
        MOV     A,R2
        JNZ     ??osal_ConvertUTCTime_16
        MOV     A,R3
??osal_ConvertUTCTime_16:
        JNZ     ??osal_ConvertUTCTime_17
        LCALL   ?Subroutine2 & 0xFFFF
??CrossCallReturnLabel_6:
        LCALL   ?US_DIV_MOD
        MOV     A,R2
        JNZ     ??osal_ConvertUTCTime_18
        MOV     A,R3
??osal_ConvertUTCTime_18:
        JNZ     ??osal_ConvertUTCTime_15
??osal_ConvertUTCTime_17:
        MOV     R1,#0x1
        SJMP    ??osal_ConvertUTCTime_19
??osal_ConvertUTCTime_15:
        MOV     R1,#0x0
??osal_ConvertUTCTime_19:
        ; Setup parameters for call to function monthLength
        MOV     DPL,R6
        MOV     DPH,R7
        INC     DPTR
        INC     DPTR
        INC     DPTR
        INC     DPTR
        LCALL   ?Subroutine4 & 0xFFFF
??CrossCallReturnLabel_11:
        MOV     A,?V0 + 3
        SUBB    A,#0x0
        MOV     DPL,R6
        MOV     DPH,R7
        INC     DPTR
        INC     DPTR
        INC     DPTR
        JC      ??osal_ConvertUTCTime_20
        INC     DPTR
        INC     DPTR
        MOVX    A,@DPTR
        ANL     A,#0x3
        JNZ     ??osal_ConvertUTCTime_13
        LCALL   ?Subroutine1 & 0xFFFF
//  279     }
??CrossCallReturnLabel_3:
        LCALL   ?US_DIV_MOD
        MOV     A,R2
        JNZ     ??osal_ConvertUTCTime_21
        MOV     A,R3
??osal_ConvertUTCTime_21:
        JNZ     ??osal_ConvertUTCTime_22
        LCALL   ?Subroutine2 & 0xFFFF
??CrossCallReturnLabel_7:
        LCALL   ?US_DIV_MOD
        MOV     A,R2
        JNZ     ??osal_ConvertUTCTime_23
        MOV     A,R3
??osal_ConvertUTCTime_23:
        JNZ     ??osal_ConvertUTCTime_13
??osal_ConvertUTCTime_22:
        MOV     R1,#0x1
        SJMP    ??osal_ConvertUTCTime_14
//  280 
//  281     tm->day = numDays;
??osal_ConvertUTCTime_20:
        MOV     A,?V0 + 2
        MOVX    @DPTR,A
//  282   }
//  283 }
        MOV     R7,#0x10
        LJMP    ?BANKED_LEAVE_XDATA
        CFI EndBlock cfiBlock7

        RSEG BANKED_CODE:CODE:NOROOT(0)
?Subroutine4:
        CFI Block cfiCond8 Using cfiCommon0
        CFI NoFunction
        CFI Conditional ??CrossCallReturnLabel_10
        CFI R6 load(1, XDATA, add(CFA_XSP16, literal(-24)))
        CFI VB load(1, XDATA, add(CFA_XSP16, literal(-23)))
        CFI V0 load(1, XDATA, add(CFA_XSP16, literal(-22)))
        CFI V1 load(1, XDATA, add(CFA_XSP16, literal(-21)))
        CFI V2 load(1, XDATA, add(CFA_XSP16, literal(-20)))
        CFI V3 load(1, XDATA, add(CFA_XSP16, literal(-19)))
        CFI V4 load(1, XDATA, add(CFA_XSP16, literal(-18)))
        CFI V5 load(1, XDATA, add(CFA_XSP16, literal(-17)))
        CFI V6 load(1, XDATA, add(CFA_XSP16, literal(-16)))
        CFI V7 load(1, XDATA, add(CFA_XSP16, literal(-15)))
        CFI V8 load(1, XDATA, add(CFA_XSP16, literal(-14)))
        CFI V9 load(1, XDATA, add(CFA_XSP16, literal(-13)))
        CFI V10 load(1, XDATA, add(CFA_XSP16, literal(-12)))
        CFI V11 load(1, XDATA, add(CFA_XSP16, literal(-11)))
        CFI V12 load(1, XDATA, add(CFA_XSP16, literal(-10)))
        CFI V13 load(1, XDATA, add(CFA_XSP16, literal(-9)))
        CFI V14 load(1, XDATA, add(CFA_XSP16, literal(-8)))
        CFI V15 load(1, XDATA, add(CFA_XSP16, literal(-7)))
        CFI R7 load(1, XDATA, add(CFA_XSP16, literal(-6)))
        CFI ?RET_LOW load(1, XDATA, add(CFA_XSP16, literal(-5)))
        CFI ?RET_HIGH load(1, XDATA, add(CFA_XSP16, literal(-4)))
        CFI ?BRET_EXT load(1, XDATA, add(CFA_XSP16, literal(-3)))
        CFI DPL0 load(1, XDATA, add(CFA_XSP16, literal(-2)))
        CFI DPH0 load(1, XDATA, add(CFA_XSP16, literal(-1)))
        CFI CFA_SP SP+0
        CFI CFA_XSP16 add(XSP16, 24)
        CFI Block cfiCond9 Using cfiCommon0
        CFI (cfiCond9) NoFunction
        CFI (cfiCond9) Conditional ??CrossCallReturnLabel_11
        CFI (cfiCond9) R6 load(1, XDATA, add(CFA_XSP16, literal(-24)))
        CFI (cfiCond9) VB load(1, XDATA, add(CFA_XSP16, literal(-23)))
        CFI (cfiCond9) V0 load(1, XDATA, add(CFA_XSP16, literal(-22)))
        CFI (cfiCond9) V1 load(1, XDATA, add(CFA_XSP16, literal(-21)))
        CFI (cfiCond9) V2 load(1, XDATA, add(CFA_XSP16, literal(-20)))
        CFI (cfiCond9) V3 load(1, XDATA, add(CFA_XSP16, literal(-19)))
        CFI (cfiCond9) V4 load(1, XDATA, add(CFA_XSP16, literal(-18)))
        CFI (cfiCond9) V5 load(1, XDATA, add(CFA_XSP16, literal(-17)))
        CFI (cfiCond9) V6 load(1, XDATA, add(CFA_XSP16, literal(-16)))
        CFI (cfiCond9) V7 load(1, XDATA, add(CFA_XSP16, literal(-15)))
        CFI (cfiCond9) V8 load(1, XDATA, add(CFA_XSP16, literal(-14)))
        CFI (cfiCond9) V9 load(1, XDATA, add(CFA_XSP16, literal(-13)))
        CFI (cfiCond9) V10 load(1, XDATA, add(CFA_XSP16, literal(-12)))
        CFI (cfiCond9) V11 load(1, XDATA, add(CFA_XSP16, literal(-11)))
        CFI (cfiCond9) V12 load(1, XDATA, add(CFA_XSP16, literal(-10)))
        CFI (cfiCond9) V13 load(1, XDATA, add(CFA_XSP16, literal(-9)))
        CFI (cfiCond9) V14 load(1, XDATA, add(CFA_XSP16, literal(-8)))
        CFI (cfiCond9) V15 load(1, XDATA, add(CFA_XSP16, literal(-7)))
        CFI (cfiCond9) R7 load(1, XDATA, add(CFA_XSP16, literal(-6)))
        CFI (cfiCond9) ?RET_LOW load(1, XDATA, add(CFA_XSP16, literal(-5)))
        CFI (cfiCond9) ?RET_HIGH load(1, XDATA, add(CFA_XSP16, literal(-4)))
        CFI (cfiCond9) ?BRET_EXT load(1, XDATA, add(CFA_XSP16, literal(-3)))
        CFI (cfiCond9) DPL0 load(1, XDATA, add(CFA_XSP16, literal(-2)))
        CFI (cfiCond9) DPH0 load(1, XDATA, add(CFA_XSP16, literal(-1)))
        CFI (cfiCond9) CFA_SP SP+0
        CFI (cfiCond9) CFA_XSP16 add(XSP16, 24)
        CFI Block cfiPicker10 Using cfiCommon1
        CFI (cfiPicker10) NoFunction
        CFI (cfiPicker10) Picker
        MOVX    A,@DPTR
        MOV     R2,A
        LCALL   ??monthLength?relay
        MOV     A,R1
        MOV     R0,A
        CLR     C
        MOV     A,?V0 + 2
        SUBB    A,R0
        RET
        CFI EndBlock cfiCond8
        CFI EndBlock cfiCond9
        CFI EndBlock cfiPicker10

        RSEG BANKED_CODE:CODE:NOROOT(0)
?Subroutine3:
        CFI Block cfiCond11 Using cfiCommon0
        CFI NoFunction
        CFI Conditional ??CrossCallReturnLabel_8
        CFI R6 load(1, XDATA, add(CFA_XSP16, literal(-24)))
        CFI VB load(1, XDATA, add(CFA_XSP16, literal(-23)))
        CFI V0 load(1, XDATA, add(CFA_XSP16, literal(-22)))
        CFI V1 load(1, XDATA, add(CFA_XSP16, literal(-21)))
        CFI V2 load(1, XDATA, add(CFA_XSP16, literal(-20)))
        CFI V3 load(1, XDATA, add(CFA_XSP16, literal(-19)))
        CFI V4 load(1, XDATA, add(CFA_XSP16, literal(-18)))
        CFI V5 load(1, XDATA, add(CFA_XSP16, literal(-17)))
        CFI V6 load(1, XDATA, add(CFA_XSP16, literal(-16)))
        CFI V7 load(1, XDATA, add(CFA_XSP16, literal(-15)))
        CFI V8 load(1, XDATA, add(CFA_XSP16, literal(-14)))
        CFI V9 load(1, XDATA, add(CFA_XSP16, literal(-13)))
        CFI V10 load(1, XDATA, add(CFA_XSP16, literal(-12)))
        CFI V11 load(1, XDATA, add(CFA_XSP16, literal(-11)))
        CFI V12 load(1, XDATA, add(CFA_XSP16, literal(-10)))
        CFI V13 load(1, XDATA, add(CFA_XSP16, literal(-9)))
        CFI V14 load(1, XDATA, add(CFA_XSP16, literal(-8)))
        CFI V15 load(1, XDATA, add(CFA_XSP16, literal(-7)))
        CFI R7 load(1, XDATA, add(CFA_XSP16, literal(-6)))
        CFI ?RET_LOW load(1, XDATA, add(CFA_XSP16, literal(-5)))
        CFI ?RET_HIGH load(1, XDATA, add(CFA_XSP16, literal(-4)))
        CFI ?BRET_EXT load(1, XDATA, add(CFA_XSP16, literal(-3)))
        CFI DPL0 load(1, XDATA, add(CFA_XSP16, literal(-2)))
        CFI DPH0 load(1, XDATA, add(CFA_XSP16, literal(-1)))
        CFI CFA_SP SP+0
        CFI CFA_XSP16 add(XSP16, 24)
        CFI Block cfiCond12 Using cfiCommon0
        CFI (cfiCond12) NoFunction
        CFI (cfiCond12) Conditional ??CrossCallReturnLabel_9
        CFI (cfiCond12) R6 load(1, XDATA, add(CFA_XSP16, literal(-24)))
        CFI (cfiCond12) VB load(1, XDATA, add(CFA_XSP16, literal(-23)))
        CFI (cfiCond12) V0 load(1, XDATA, add(CFA_XSP16, literal(-22)))
        CFI (cfiCond12) V1 load(1, XDATA, add(CFA_XSP16, literal(-21)))
        CFI (cfiCond12) V2 load(1, XDATA, add(CFA_XSP16, literal(-20)))
        CFI (cfiCond12) V3 load(1, XDATA, add(CFA_XSP16, literal(-19)))
        CFI (cfiCond12) V4 load(1, XDATA, add(CFA_XSP16, literal(-18)))
        CFI (cfiCond12) V5 load(1, XDATA, add(CFA_XSP16, literal(-17)))
        CFI (cfiCond12) V6 load(1, XDATA, add(CFA_XSP16, literal(-16)))
        CFI (cfiCond12) V7 load(1, XDATA, add(CFA_XSP16, literal(-15)))
        CFI (cfiCond12) V8 load(1, XDATA, add(CFA_XSP16, literal(-14)))
        CFI (cfiCond12) V9 load(1, XDATA, add(CFA_XSP16, literal(-13)))
        CFI (cfiCond12) V10 load(1, XDATA, add(CFA_XSP16, literal(-12)))
        CFI (cfiCond12) V11 load(1, XDATA, add(CFA_XSP16, literal(-11)))
        CFI (cfiCond12) V12 load(1, XDATA, add(CFA_XSP16, literal(-10)))
        CFI (cfiCond12) V13 load(1, XDATA, add(CFA_XSP16, literal(-9)))
        CFI (cfiCond12) V14 load(1, XDATA, add(CFA_XSP16, literal(-8)))
        CFI (cfiCond12) V15 load(1, XDATA, add(CFA_XSP16, literal(-7)))
        CFI (cfiCond12) R7 load(1, XDATA, add(CFA_XSP16, literal(-6)))
        CFI (cfiCond12) ?RET_LOW load(1, XDATA, add(CFA_XSP16, literal(-5)))
        CFI (cfiCond12) ?RET_HIGH load(1, XDATA, add(CFA_XSP16, literal(-4)))
        CFI (cfiCond12) ?BRET_EXT load(1, XDATA, add(CFA_XSP16, literal(-3)))
        CFI (cfiCond12) DPL0 load(1, XDATA, add(CFA_XSP16, literal(-2)))
        CFI (cfiCond12) DPH0 load(1, XDATA, add(CFA_XSP16, literal(-1)))
        CFI (cfiCond12) CFA_SP SP+0
        CFI (cfiCond12) CFA_XSP16 add(XSP16, 24)
        CFI Block cfiPicker13 Using cfiCommon1
        CFI (cfiPicker13) NoFunction
        CFI (cfiPicker13) Picker
        MOVX    @DPTR,A
        MOV     DPL,R6
        MOV     DPH,R7
        INC     DPTR
        INC     DPTR
        INC     DPTR
        INC     DPTR
        INC     DPTR
        MOVX    A,@DPTR
        ANL     A,#0x3
        RET
        CFI EndBlock cfiCond11
        CFI EndBlock cfiCond12
        CFI EndBlock cfiPicker13

        RSEG BANKED_CODE:CODE:NOROOT(0)
?Subroutine2:
        CFI Block cfiCond14 Using cfiCommon0
        CFI NoFunction
        CFI Conditional ??CrossCallReturnLabel_4
        CFI R6 load(1, XDATA, add(CFA_XSP16, literal(-24)))
        CFI VB load(1, XDATA, add(CFA_XSP16, literal(-23)))
        CFI V0 load(1, XDATA, add(CFA_XSP16, literal(-22)))
        CFI V1 load(1, XDATA, add(CFA_XSP16, literal(-21)))
        CFI V2 load(1, XDATA, add(CFA_XSP16, literal(-20)))
        CFI V3 load(1, XDATA, add(CFA_XSP16, literal(-19)))
        CFI V4 load(1, XDATA, add(CFA_XSP16, literal(-18)))
        CFI V5 load(1, XDATA, add(CFA_XSP16, literal(-17)))
        CFI V6 load(1, XDATA, add(CFA_XSP16, literal(-16)))
        CFI V7 load(1, XDATA, add(CFA_XSP16, literal(-15)))
        CFI V8 load(1, XDATA, add(CFA_XSP16, literal(-14)))
        CFI V9 load(1, XDATA, add(CFA_XSP16, literal(-13)))
        CFI V10 load(1, XDATA, add(CFA_XSP16, literal(-12)))
        CFI V11 load(1, XDATA, add(CFA_XSP16, literal(-11)))
        CFI V12 load(1, XDATA, add(CFA_XSP16, literal(-10)))
        CFI V13 load(1, XDATA, add(CFA_XSP16, literal(-9)))
        CFI V14 load(1, XDATA, add(CFA_XSP16, literal(-8)))
        CFI V15 load(1, XDATA, add(CFA_XSP16, literal(-7)))
        CFI R7 load(1, XDATA, add(CFA_XSP16, literal(-6)))
        CFI ?RET_LOW load(1, XDATA, add(CFA_XSP16, literal(-5)))
        CFI ?RET_HIGH load(1, XDATA, add(CFA_XSP16, literal(-4)))
        CFI ?BRET_EXT load(1, XDATA, add(CFA_XSP16, literal(-3)))
        CFI DPL0 load(1, XDATA, add(CFA_XSP16, literal(-2)))
        CFI DPH0 load(1, XDATA, add(CFA_XSP16, literal(-1)))
        CFI CFA_SP SP+0
        CFI CFA_XSP16 add(XSP16, 24)
        CFI Block cfiCond15 Using cfiCommon0
        CFI (cfiCond15) NoFunction
        CFI (cfiCond15) Conditional ??CrossCallReturnLabel_5
        CFI (cfiCond15) R6 load(1, XDATA, add(CFA_XSP16, literal(-24)))
        CFI (cfiCond15) VB load(1, XDATA, add(CFA_XSP16, literal(-23)))
        CFI (cfiCond15) V0 load(1, XDATA, add(CFA_XSP16, literal(-22)))
        CFI (cfiCond15) V1 load(1, XDATA, add(CFA_XSP16, literal(-21)))
        CFI (cfiCond15) V2 load(1, XDATA, add(CFA_XSP16, literal(-20)))
        CFI (cfiCond15) V3 load(1, XDATA, add(CFA_XSP16, literal(-19)))
        CFI (cfiCond15) V4 load(1, XDATA, add(CFA_XSP16, literal(-18)))
        CFI (cfiCond15) V5 load(1, XDATA, add(CFA_XSP16, literal(-17)))
        CFI (cfiCond15) V6 load(1, XDATA, add(CFA_XSP16, literal(-16)))
        CFI (cfiCond15) V7 load(1, XDATA, add(CFA_XSP16, literal(-15)))
        CFI (cfiCond15) V8 load(1, XDATA, add(CFA_XSP16, literal(-14)))
        CFI (cfiCond15) V9 load(1, XDATA, add(CFA_XSP16, literal(-13)))
        CFI (cfiCond15) V10 load(1, XDATA, add(CFA_XSP16, literal(-12)))
        CFI (cfiCond15) V11 load(1, XDATA, add(CFA_XSP16, literal(-11)))
        CFI (cfiCond15) V12 load(1, XDATA, add(CFA_XSP16, literal(-10)))
        CFI (cfiCond15) V13 load(1, XDATA, add(CFA_XSP16, literal(-9)))
        CFI (cfiCond15) V14 load(1, XDATA, add(CFA_XSP16, literal(-8)))
        CFI (cfiCond15) V15 load(1, XDATA, add(CFA_XSP16, literal(-7)))
        CFI (cfiCond15) R7 load(1, XDATA, add(CFA_XSP16, literal(-6)))
        CFI (cfiCond15) ?RET_LOW load(1, XDATA, add(CFA_XSP16, literal(-5)))
        CFI (cfiCond15) ?RET_HIGH load(1, XDATA, add(CFA_XSP16, literal(-4)))
        CFI (cfiCond15) ?BRET_EXT load(1, XDATA, add(CFA_XSP16, literal(-3)))
        CFI (cfiCond15) DPL0 load(1, XDATA, add(CFA_XSP16, literal(-2)))
        CFI (cfiCond15) DPH0 load(1, XDATA, add(CFA_XSP16, literal(-1)))
        CFI (cfiCond15) CFA_SP SP+0
        CFI (cfiCond15) CFA_XSP16 add(XSP16, 24)
        CFI Block cfiCond16 Using cfiCommon0
        CFI (cfiCond16) NoFunction
        CFI (cfiCond16) Conditional ??CrossCallReturnLabel_6
        CFI (cfiCond16) R6 load(1, XDATA, add(CFA_XSP16, literal(-24)))
        CFI (cfiCond16) VB load(1, XDATA, add(CFA_XSP16, literal(-23)))
        CFI (cfiCond16) V0 load(1, XDATA, add(CFA_XSP16, literal(-22)))
        CFI (cfiCond16) V1 load(1, XDATA, add(CFA_XSP16, literal(-21)))
        CFI (cfiCond16) V2 load(1, XDATA, add(CFA_XSP16, literal(-20)))
        CFI (cfiCond16) V3 load(1, XDATA, add(CFA_XSP16, literal(-19)))
        CFI (cfiCond16) V4 load(1, XDATA, add(CFA_XSP16, literal(-18)))
        CFI (cfiCond16) V5 load(1, XDATA, add(CFA_XSP16, literal(-17)))
        CFI (cfiCond16) V6 load(1, XDATA, add(CFA_XSP16, literal(-16)))
        CFI (cfiCond16) V7 load(1, XDATA, add(CFA_XSP16, literal(-15)))
        CFI (cfiCond16) V8 load(1, XDATA, add(CFA_XSP16, literal(-14)))
        CFI (cfiCond16) V9 load(1, XDATA, add(CFA_XSP16, literal(-13)))
        CFI (cfiCond16) V10 load(1, XDATA, add(CFA_XSP16, literal(-12)))
        CFI (cfiCond16) V11 load(1, XDATA, add(CFA_XSP16, literal(-11)))
        CFI (cfiCond16) V12 load(1, XDATA, add(CFA_XSP16, literal(-10)))
        CFI (cfiCond16) V13 load(1, XDATA, add(CFA_XSP16, literal(-9)))
        CFI (cfiCond16) V14 load(1, XDATA, add(CFA_XSP16, literal(-8)))
        CFI (cfiCond16) V15 load(1, XDATA, add(CFA_XSP16, literal(-7)))
        CFI (cfiCond16) R7 load(1, XDATA, add(CFA_XSP16, literal(-6)))
        CFI (cfiCond16) ?RET_LOW load(1, XDATA, add(CFA_XSP16, literal(-5)))
        CFI (cfiCond16) ?RET_HIGH load(1, XDATA, add(CFA_XSP16, literal(-4)))
        CFI (cfiCond16) ?BRET_EXT load(1, XDATA, add(CFA_XSP16, literal(-3)))
        CFI (cfiCond16) DPL0 load(1, XDATA, add(CFA_XSP16, literal(-2)))
        CFI (cfiCond16) DPH0 load(1, XDATA, add(CFA_XSP16, literal(-1)))
        CFI (cfiCond16) CFA_SP SP+0
        CFI (cfiCond16) CFA_XSP16 add(XSP16, 24)
        CFI Block cfiCond17 Using cfiCommon0
        CFI (cfiCond17) NoFunction
        CFI (cfiCond17) Conditional ??CrossCallReturnLabel_7
        CFI (cfiCond17) R6 load(1, XDATA, add(CFA_XSP16, literal(-24)))
        CFI (cfiCond17) VB load(1, XDATA, add(CFA_XSP16, literal(-23)))
        CFI (cfiCond17) V0 load(1, XDATA, add(CFA_XSP16, literal(-22)))
        CFI (cfiCond17) V1 load(1, XDATA, add(CFA_XSP16, literal(-21)))
        CFI (cfiCond17) V2 load(1, XDATA, add(CFA_XSP16, literal(-20)))
        CFI (cfiCond17) V3 load(1, XDATA, add(CFA_XSP16, literal(-19)))
        CFI (cfiCond17) V4 load(1, XDATA, add(CFA_XSP16, literal(-18)))
        CFI (cfiCond17) V5 load(1, XDATA, add(CFA_XSP16, literal(-17)))
        CFI (cfiCond17) V6 load(1, XDATA, add(CFA_XSP16, literal(-16)))
        CFI (cfiCond17) V7 load(1, XDATA, add(CFA_XSP16, literal(-15)))
        CFI (cfiCond17) V8 load(1, XDATA, add(CFA_XSP16, literal(-14)))
        CFI (cfiCond17) V9 load(1, XDATA, add(CFA_XSP16, literal(-13)))
        CFI (cfiCond17) V10 load(1, XDATA, add(CFA_XSP16, literal(-12)))
        CFI (cfiCond17) V11 load(1, XDATA, add(CFA_XSP16, literal(-11)))
        CFI (cfiCond17) V12 load(1, XDATA, add(CFA_XSP16, literal(-10)))
        CFI (cfiCond17) V13 load(1, XDATA, add(CFA_XSP16, literal(-9)))
        CFI (cfiCond17) V14 load(1, XDATA, add(CFA_XSP16, literal(-8)))
        CFI (cfiCond17) V15 load(1, XDATA, add(CFA_XSP16, literal(-7)))
        CFI (cfiCond17) R7 load(1, XDATA, add(CFA_XSP16, literal(-6)))
        CFI (cfiCond17) ?RET_LOW load(1, XDATA, add(CFA_XSP16, literal(-5)))
        CFI (cfiCond17) ?RET_HIGH load(1, XDATA, add(CFA_XSP16, literal(-4)))
        CFI (cfiCond17) ?BRET_EXT load(1, XDATA, add(CFA_XSP16, literal(-3)))
        CFI (cfiCond17) DPL0 load(1, XDATA, add(CFA_XSP16, literal(-2)))
        CFI (cfiCond17) DPH0 load(1, XDATA, add(CFA_XSP16, literal(-1)))
        CFI (cfiCond17) CFA_SP SP+0
        CFI (cfiCond17) CFA_XSP16 add(XSP16, 24)
        CFI Block cfiPicker18 Using cfiCommon1
        CFI (cfiPicker18) NoFunction
        CFI (cfiPicker18) Picker
        MOV     DPL,R6
        MOV     DPH,R7
        INC     DPTR
        INC     DPTR
        INC     DPTR
        INC     DPTR
        INC     DPTR
        MOVX    A,@DPTR
        MOV     R0,A
        INC     DPTR
        MOVX    A,@DPTR
        MOV     R1,A
        MOV     R2,#-0x70
        MOV     R3,#0x1
        RET
        CFI EndBlock cfiCond14
        CFI EndBlock cfiCond15
        CFI EndBlock cfiCond16
        CFI EndBlock cfiCond17
        CFI EndBlock cfiPicker18

        RSEG BANKED_CODE:CODE:NOROOT(0)
?Subroutine1:
        CFI Block cfiCond19 Using cfiCommon0
        CFI NoFunction
        CFI Conditional ??CrossCallReturnLabel_0
        CFI R6 load(1, XDATA, add(CFA_XSP16, literal(-24)))
        CFI VB load(1, XDATA, add(CFA_XSP16, literal(-23)))
        CFI V0 load(1, XDATA, add(CFA_XSP16, literal(-22)))
        CFI V1 load(1, XDATA, add(CFA_XSP16, literal(-21)))
        CFI V2 load(1, XDATA, add(CFA_XSP16, literal(-20)))
        CFI V3 load(1, XDATA, add(CFA_XSP16, literal(-19)))
        CFI V4 load(1, XDATA, add(CFA_XSP16, literal(-18)))
        CFI V5 load(1, XDATA, add(CFA_XSP16, literal(-17)))
        CFI V6 load(1, XDATA, add(CFA_XSP16, literal(-16)))
        CFI V7 load(1, XDATA, add(CFA_XSP16, literal(-15)))
        CFI V8 load(1, XDATA, add(CFA_XSP16, literal(-14)))
        CFI V9 load(1, XDATA, add(CFA_XSP16, literal(-13)))
        CFI V10 load(1, XDATA, add(CFA_XSP16, literal(-12)))
        CFI V11 load(1, XDATA, add(CFA_XSP16, literal(-11)))
        CFI V12 load(1, XDATA, add(CFA_XSP16, literal(-10)))
        CFI V13 load(1, XDATA, add(CFA_XSP16, literal(-9)))
        CFI V14 load(1, XDATA, add(CFA_XSP16, literal(-8)))
        CFI V15 load(1, XDATA, add(CFA_XSP16, literal(-7)))
        CFI R7 load(1, XDATA, add(CFA_XSP16, literal(-6)))
        CFI ?RET_LOW load(1, XDATA, add(CFA_XSP16, literal(-5)))
        CFI ?RET_HIGH load(1, XDATA, add(CFA_XSP16, literal(-4)))
        CFI ?BRET_EXT load(1, XDATA, add(CFA_XSP16, literal(-3)))
        CFI DPL0 load(1, XDATA, add(CFA_XSP16, literal(-2)))
        CFI DPH0 load(1, XDATA, add(CFA_XSP16, literal(-1)))
        CFI CFA_SP SP+0
        CFI CFA_XSP16 add(XSP16, 24)
        CFI Block cfiCond20 Using cfiCommon0
        CFI (cfiCond20) NoFunction
        CFI (cfiCond20) Conditional ??CrossCallReturnLabel_1
        CFI (cfiCond20) R6 load(1, XDATA, add(CFA_XSP16, literal(-24)))
        CFI (cfiCond20) VB load(1, XDATA, add(CFA_XSP16, literal(-23)))
        CFI (cfiCond20) V0 load(1, XDATA, add(CFA_XSP16, literal(-22)))
        CFI (cfiCond20) V1 load(1, XDATA, add(CFA_XSP16, literal(-21)))
        CFI (cfiCond20) V2 load(1, XDATA, add(CFA_XSP16, literal(-20)))
        CFI (cfiCond20) V3 load(1, XDATA, add(CFA_XSP16, literal(-19)))
        CFI (cfiCond20) V4 load(1, XDATA, add(CFA_XSP16, literal(-18)))
        CFI (cfiCond20) V5 load(1, XDATA, add(CFA_XSP16, literal(-17)))
        CFI (cfiCond20) V6 load(1, XDATA, add(CFA_XSP16, literal(-16)))
        CFI (cfiCond20) V7 load(1, XDATA, add(CFA_XSP16, literal(-15)))
        CFI (cfiCond20) V8 load(1, XDATA, add(CFA_XSP16, literal(-14)))
        CFI (cfiCond20) V9 load(1, XDATA, add(CFA_XSP16, literal(-13)))
        CFI (cfiCond20) V10 load(1, XDATA, add(CFA_XSP16, literal(-12)))
        CFI (cfiCond20) V11 load(1, XDATA, add(CFA_XSP16, literal(-11)))
        CFI (cfiCond20) V12 load(1, XDATA, add(CFA_XSP16, literal(-10)))
        CFI (cfiCond20) V13 load(1, XDATA, add(CFA_XSP16, literal(-9)))
        CFI (cfiCond20) V14 load(1, XDATA, add(CFA_XSP16, literal(-8)))
        CFI (cfiCond20) V15 load(1, XDATA, add(CFA_XSP16, literal(-7)))
        CFI (cfiCond20) R7 load(1, XDATA, add(CFA_XSP16, literal(-6)))
        CFI (cfiCond20) ?RET_LOW load(1, XDATA, add(CFA_XSP16, literal(-5)))
        CFI (cfiCond20) ?RET_HIGH load(1, XDATA, add(CFA_XSP16, literal(-4)))
        CFI (cfiCond20) ?BRET_EXT load(1, XDATA, add(CFA_XSP16, literal(-3)))
        CFI (cfiCond20) DPL0 load(1, XDATA, add(CFA_XSP16, literal(-2)))
        CFI (cfiCond20) DPH0 load(1, XDATA, add(CFA_XSP16, literal(-1)))
        CFI (cfiCond20) CFA_SP SP+0
        CFI (cfiCond20) CFA_XSP16 add(XSP16, 24)
        CFI Block cfiCond21 Using cfiCommon0
        CFI (cfiCond21) NoFunction
        CFI (cfiCond21) Conditional ??CrossCallReturnLabel_2
        CFI (cfiCond21) R6 load(1, XDATA, add(CFA_XSP16, literal(-24)))
        CFI (cfiCond21) VB load(1, XDATA, add(CFA_XSP16, literal(-23)))
        CFI (cfiCond21) V0 load(1, XDATA, add(CFA_XSP16, literal(-22)))
        CFI (cfiCond21) V1 load(1, XDATA, add(CFA_XSP16, literal(-21)))
        CFI (cfiCond21) V2 load(1, XDATA, add(CFA_XSP16, literal(-20)))
        CFI (cfiCond21) V3 load(1, XDATA, add(CFA_XSP16, literal(-19)))
        CFI (cfiCond21) V4 load(1, XDATA, add(CFA_XSP16, literal(-18)))
        CFI (cfiCond21) V5 load(1, XDATA, add(CFA_XSP16, literal(-17)))
        CFI (cfiCond21) V6 load(1, XDATA, add(CFA_XSP16, literal(-16)))
        CFI (cfiCond21) V7 load(1, XDATA, add(CFA_XSP16, literal(-15)))
        CFI (cfiCond21) V8 load(1, XDATA, add(CFA_XSP16, literal(-14)))
        CFI (cfiCond21) V9 load(1, XDATA, add(CFA_XSP16, literal(-13)))
        CFI (cfiCond21) V10 load(1, XDATA, add(CFA_XSP16, literal(-12)))
        CFI (cfiCond21) V11 load(1, XDATA, add(CFA_XSP16, literal(-11)))
        CFI (cfiCond21) V12 load(1, XDATA, add(CFA_XSP16, literal(-10)))
        CFI (cfiCond21) V13 load(1, XDATA, add(CFA_XSP16, literal(-9)))
        CFI (cfiCond21) V14 load(1, XDATA, add(CFA_XSP16, literal(-8)))
        CFI (cfiCond21) V15 load(1, XDATA, add(CFA_XSP16, literal(-7)))
        CFI (cfiCond21) R7 load(1, XDATA, add(CFA_XSP16, literal(-6)))
        CFI (cfiCond21) ?RET_LOW load(1, XDATA, add(CFA_XSP16, literal(-5)))
        CFI (cfiCond21) ?RET_HIGH load(1, XDATA, add(CFA_XSP16, literal(-4)))
        CFI (cfiCond21) ?BRET_EXT load(1, XDATA, add(CFA_XSP16, literal(-3)))
        CFI (cfiCond21) DPL0 load(1, XDATA, add(CFA_XSP16, literal(-2)))
        CFI (cfiCond21) DPH0 load(1, XDATA, add(CFA_XSP16, literal(-1)))
        CFI (cfiCond21) CFA_SP SP+0
        CFI (cfiCond21) CFA_XSP16 add(XSP16, 24)
        CFI Block cfiCond22 Using cfiCommon0
        CFI (cfiCond22) NoFunction
        CFI (cfiCond22) Conditional ??CrossCallReturnLabel_3
        CFI (cfiCond22) R6 load(1, XDATA, add(CFA_XSP16, literal(-24)))
        CFI (cfiCond22) VB load(1, XDATA, add(CFA_XSP16, literal(-23)))
        CFI (cfiCond22) V0 load(1, XDATA, add(CFA_XSP16, literal(-22)))
        CFI (cfiCond22) V1 load(1, XDATA, add(CFA_XSP16, literal(-21)))
        CFI (cfiCond22) V2 load(1, XDATA, add(CFA_XSP16, literal(-20)))
        CFI (cfiCond22) V3 load(1, XDATA, add(CFA_XSP16, literal(-19)))
        CFI (cfiCond22) V4 load(1, XDATA, add(CFA_XSP16, literal(-18)))
        CFI (cfiCond22) V5 load(1, XDATA, add(CFA_XSP16, literal(-17)))
        CFI (cfiCond22) V6 load(1, XDATA, add(CFA_XSP16, literal(-16)))
        CFI (cfiCond22) V7 load(1, XDATA, add(CFA_XSP16, literal(-15)))
        CFI (cfiCond22) V8 load(1, XDATA, add(CFA_XSP16, literal(-14)))
        CFI (cfiCond22) V9 load(1, XDATA, add(CFA_XSP16, literal(-13)))
        CFI (cfiCond22) V10 load(1, XDATA, add(CFA_XSP16, literal(-12)))
        CFI (cfiCond22) V11 load(1, XDATA, add(CFA_XSP16, literal(-11)))
        CFI (cfiCond22) V12 load(1, XDATA, add(CFA_XSP16, literal(-10)))
        CFI (cfiCond22) V13 load(1, XDATA, add(CFA_XSP16, literal(-9)))
        CFI (cfiCond22) V14 load(1, XDATA, add(CFA_XSP16, literal(-8)))
        CFI (cfiCond22) V15 load(1, XDATA, add(CFA_XSP16, literal(-7)))
        CFI (cfiCond22) R7 load(1, XDATA, add(CFA_XSP16, literal(-6)))
        CFI (cfiCond22) ?RET_LOW load(1, XDATA, add(CFA_XSP16, literal(-5)))
        CFI (cfiCond22) ?RET_HIGH load(1, XDATA, add(CFA_XSP16, literal(-4)))
        CFI (cfiCond22) ?BRET_EXT load(1, XDATA, add(CFA_XSP16, literal(-3)))
        CFI (cfiCond22) DPL0 load(1, XDATA, add(CFA_XSP16, literal(-2)))
        CFI (cfiCond22) DPH0 load(1, XDATA, add(CFA_XSP16, literal(-1)))
        CFI (cfiCond22) CFA_SP SP+0
        CFI (cfiCond22) CFA_XSP16 add(XSP16, 24)
        CFI Block cfiPicker23 Using cfiCommon1
        CFI (cfiPicker23) NoFunction
        CFI (cfiPicker23) Picker
        MOV     DPL,R6
        MOV     DPH,R7
        INC     DPTR
        INC     DPTR
        INC     DPTR
        INC     DPTR
        INC     DPTR
        MOVX    A,@DPTR
        MOV     R0,A
        INC     DPTR
        MOVX    A,@DPTR
        MOV     R1,A
        MOV     R2,#0x64
        MOV     R3,#0x0
        RET
        CFI EndBlock cfiCond19
        CFI EndBlock cfiCond20
        CFI EndBlock cfiCond21
        CFI EndBlock cfiCond22
        CFI EndBlock cfiPicker23
//  284 
//  285 /*********************************************************************
//  286  * @fn      monthLength
//  287  *
//  288  * @param   lpyr - 1 for leap year, 0 if not
//  289  *
//  290  * @param   mon - 0 - 11 (jan - dec)
//  291  *
//  292  * @return  returns the number of days in a month
//  293  */

        RSEG BANKED_CODE:CODE:NOROOT(0)
//  294 static uint8 monthLength( uint8 lpyr, uint8 mon )
monthLength:
        CFI Block cfiBlock24 Using cfiCommon0
        CFI Function monthLength
//  295 {
        ; Saved register size: 0
        ; Auto size: 0
        MOV     A,R1
        MOV     R3,A
//  296   uint8 days = 31;
        MOV     R1,#0x1f
//  297 
//  298 	if ( mon == 1 ) // feb
        MOV     A,#0x1
        XRL     A,R2
        JNZ     ??monthLength_0
//  299 		days = ( 28 + lpyr );
        MOV     A,#0x1c
        ADD     A,R3
        MOV     R1,A
        SJMP    ??monthLength_1
//  300   else
//  301   {
//  302     if ( mon > 6 )
??monthLength_0:
        MOV     A,R2
        CLR     C
        SUBB    A,#0x7
        JC      ??monthLength_2
//  303       mon--;
        DEC     R2
//  304 
//  305     if ( (mon % 2) == 1 )
??monthLength_2:
        MOV     A,R2
        MOV     C,0xE0 /* A   */.0
        JNC     ??monthLength_1
//  306       days = 30;
        DEC     R1
//  307   }
//  308 
//  309 	return ( days );
??monthLength_1:
        LJMP    ?BRET
        CFI EndBlock cfiBlock24
//  310 }

        RSEG XDATA_ROM_C:CONST:REORDER:NOROOT(0)
        DATA
__Constant_15180:
        DD 86400

        RSEG XDATA_ROM_C:CONST:REORDER:NOROOT(0)
        DATA
__Constant_3c:
        DD 60

        RSEG XDATA_ROM_C:CONST:REORDER:NOROOT(0)
        DATA
__Constant_e10:
        DD 3600

        RSEG BANK_RELAYS:CODE:REORDER:NOROOT(0)
??osalTimeUpdate?relay:
        LCALL   ?BDISPATCH
        DATA
        DC24    osalTimeUpdate

        RSEG BANK_RELAYS:CODE:REORDER:NOROOT(0)
??osal_setClock?relay:
        LCALL   ?BDISPATCH
        DATA
        DC24    osal_setClock

        RSEG BANK_RELAYS:CODE:REORDER:NOROOT(0)
??osal_getClock?relay:
        LCALL   ?BDISPATCH
        DATA
        DC24    osal_getClock

        RSEG BANK_RELAYS:CODE:REORDER:NOROOT(0)
??osal_ConvertUTCTime?relay:
        LCALL   ?BDISPATCH
        DATA
        DC24    osal_ConvertUTCTime

        RSEG BANK_RELAYS:CODE:REORDER:NOROOT(0)
??monthLength?relay:
        LCALL   ?BDISPATCH
        DATA
        DC24    monthLength

        END
// 
// 807 bytes in segment BANKED_CODE
//  30 bytes in segment BANK_RELAYS
//  12 bytes in segment XDATA_ROM_C
//  12 bytes in segment XDATA_Z
// 
// 837 bytes of CODE  memory
//   0 bytes of CONST memory (+ 12 bytes shared)
//  12 bytes of XDATA memory
//
//Errors: none
//Warnings: none
